; ModuleID = 'build/adafruit_trinket_m0/subsys/cpp/cpp_synchronization/zephyr/zephyr.elf.bc'
source_filename = "llvm-link"
target datalayout = "e-m:e-p:32:32-Fi8-i64:64-v128:64:128-a:0:32-n32-S64"
target triple = "thumbv6m-none-unknown-eabi"

%struct._isr_table_entry = type { i8*, void (i8*)* }
%struct.k_thread = type { %struct._thread_base, %struct._callee_saved, i8*, %union.anon, i32, %struct.k_heap*, %struct._thread_arch }
%struct._thread_base = type { %union.anon, %union.anon*, i8, i8, %union.anon.2, i32, i8*, %struct._timeout }
%union.anon.2 = type { i16 }
%struct._timeout = type { %struct._dnode, void (%struct._timeout*)*, i64 }
%struct._dnode = type { %union.anon.0, %union.anon.0 }
%union.anon.0 = type { %struct._dnode* }
%struct._callee_saved = type { i32, i32, i32, i32, i32, i32, i32, i32, i32 }
%union.anon = type { %struct._dnode }
%struct.k_heap = type { %struct.sys_heap, %union.anon, %struct.k_spinlock }
%struct.sys_heap = type { %struct.z_heap*, i8*, i32 }
%struct.z_heap = type { [2 x i32], i32, i32, [0 x %struct.z_heap_bucket] }
%struct.z_heap_bucket = type { i32 }
%struct.k_spinlock = type { i8 }
%struct._thread_arch = type { i32, i32 }
%class.cpp_semaphore = type { %class.semaphore, %struct.k_sem }
%class.semaphore = type { i32 (...)** }
%struct.k_sem = type { %union.anon, i32, i32 }
%struct.init_entry = type { i32 (%struct.device*)*, %struct.device* }
%struct.device = type { i8*, i8*, i8*, %struct.device_state*, i8*, i16* }
%struct.device_state = type { i8, i8 }
%struct.sys_mutex = type { %struct.k_mutex }
%struct.k_mutex = type { %union.anon, %struct.k_thread*, i32, i32 }
%struct.sam0_eic_data = type { [1 x %struct.sam0_eic_port_data], [16 x %struct.k_spinlock] }
%struct.sam0_eic_port_data = type { void (i32, i8*)*, i8* }
%struct._isr_list = type { i32, i32, i8*, i8* }
%struct.uart_sam0_dev_cfg = type { %struct.SercomUsart*, i32, i32, i8, i32, i16, void (%struct.device*)*, %struct.pinctrl_dev_config* }
%struct.SercomUsart = type { %union.PORT_DIR_Type, %union.PORT_DIR_Type, [4 x i8], %union.SERCOM_USART_BAUD_Type, %union.PORT_PMUX_Type, [5 x i8], %union.PORT_PMUX_Type, [1 x i8], %union.PORT_PMUX_Type, [1 x i8], %union.PORT_PMUX_Type, [1 x i8], %union.SERCOM_USART_BAUD_Type, %union.PORT_DIR_Type, [8 x i8], %union.SERCOM_USART_BAUD_Type, [6 x i8], %union.PORT_PMUX_Type }
%union.PORT_DIR_Type = type { %struct.z_heap_bucket }
%union.SERCOM_USART_BAUD_Type = type { %union.anon.2 }
%union.PORT_PMUX_Type = type { %struct.k_spinlock }
%struct.pinctrl_dev_config = type { %struct.pinctrl_state*, i8 }
%struct.pinctrl_state = type { i32*, i8, i8 }
%struct.uart_driver_api = type { i32 (%struct.device*, i8*)*, void (%struct.device*, i8)*, i32 (%struct.device*)*, i32 (%struct.device*, %struct.uart_config*)*, i32 (%struct.device*, %struct.uart_config*)*, i32 (%struct.device*, i8*, i32)*, i32 (%struct.device*, i8*, i32)*, void (%struct.device*)*, void (%struct.device*)*, i32 (%struct.device*)*, void (%struct.device*)*, void (%struct.device*)*, i32 (%struct.device*)*, i32 (%struct.device*)*, void (%struct.device*)*, void (%struct.device*)*, i32 (%struct.device*)*, i32 (%struct.device*)*, void (%struct.device*, void (%struct.device*, i8*)*, i8*)* }
%struct.uart_config = type { i32, i8, i8, i8, i8 }
%struct.uart_sam0_dev_data = type { %struct.uart_config, void (%struct.device*, i8*)*, i8* }
%struct._static_thread_data = type { %struct.k_thread*, %struct.k_spinlock*, i32, void (i8*, i8*, i8*)*, i8*, i8*, i8*, i32, i32, i32, void ()*, i8* }
%struct.z_kernel = type { [1 x %struct._cpu], %struct._ready_q }
%struct._cpu = type { i32, i8*, %struct.k_thread*, %struct.k_thread*, i32, i8, %struct._cpu_arch }
%struct._cpu_arch = type {}
%struct._ready_q = type { %struct.k_thread*, %struct._dnode }
%struct.k_timer = type { %struct._timeout, %union.anon, void (%struct.k_timer*)*, void (%struct.k_timer*)*, %struct.k_timeout_t, i32, i8* }
%struct.k_timeout_t = type { i64 }
%struct.__va_list = type { i8* }
%struct.str_context = type { i8*, i32, i32 }
%struct.chunk_unit_t = type { [8 x i8] }
%struct.anon = type { %struct.k_timeout_t, %struct.conversion }
%struct.conversion = type { [3 x i8], i8, %struct.z_heap_bucket, %struct.z_heap_bucket }
%struct.PortGroup = type { %union.PORT_DIR_Type, %union.PORT_DIR_Type, %union.PORT_DIR_Type, %union.PORT_DIR_Type, %union.PORT_DIR_Type, %union.PORT_DIR_Type, %union.PORT_DIR_Type, %union.PORT_DIR_Type, %union.PORT_DIR_Type, %union.PORT_DIR_Type, %union.PORT_DIR_Type, [4 x i8], [16 x %union.PORT_PMUX_Type], [32 x %union.PORT_PMUX_Type], [32 x i8] }
%struct.soc_port_pin = type { %struct.PortGroup*, i32, i32 }
%struct.__esf = type { %struct.__basic_sf }
%struct.__basic_sf = type { %struct.z_heap_bucket, %struct.z_heap_bucket, %struct.z_heap_bucket, %struct.z_heap_bucket, %struct.z_heap_bucket, %struct.z_heap_bucket, %struct.z_heap_bucket, i32 }
%struct.k_fifo = type { %struct.k_queue }
%struct.k_queue = type { %struct._sflist, %struct.k_spinlock, %union.anon }
%struct._sflist = type { %struct.z_heap_bucket*, %struct.z_heap_bucket* }
%struct.rbnode = type { [2 x %struct.rbnode*] }
%struct._priq_rb = type { %struct.rbtree, i32 }
%struct.rbtree = type { %struct.rbnode*, i1 (%struct.rbnode*, %struct.rbnode*)*, i32 }
%struct._rb_foreach = type { %struct.rbnode**, i8*, i32 }
%struct._priq_mq = type { [32 x %struct._dnode], i32 }

$_ZN13cpp_semaphoreD2Ev = comdat any

$_ZN13cpp_semaphoreD0Ev = comdat any

$_ZN9semaphoreC2Ev = comdat any

$_ZTV9semaphore = comdat any

@_irq_vector_table = dso_local local_unnamed_addr global [28 x i32] [i32 ptrtoint (void ()* @_isr_wrapper to i32), i32 ptrtoint (void ()* @_isr_wrapper to i32), i32 ptrtoint (void ()* @_isr_wrapper to i32), i32 ptrtoint (void ()* @_isr_wrapper to i32), i32 ptrtoint (void ()* @_isr_wrapper to i32), i32 ptrtoint (void ()* @_isr_wrapper to i32), i32 ptrtoint (void ()* @_isr_wrapper to i32), i32 ptrtoint (void ()* @_isr_wrapper to i32), i32 ptrtoint (void ()* @_isr_wrapper to i32), i32 ptrtoint (void ()* @_isr_wrapper to i32), i32 ptrtoint (void ()* @_isr_wrapper to i32), i32 ptrtoint (void ()* @_isr_wrapper to i32), i32 ptrtoint (void ()* @_isr_wrapper to i32), i32 ptrtoint (void ()* @_isr_wrapper to i32), i32 ptrtoint (void ()* @_isr_wrapper to i32), i32 ptrtoint (void ()* @_isr_wrapper to i32), i32 ptrtoint (void ()* @_isr_wrapper to i32), i32 ptrtoint (void ()* @_isr_wrapper to i32), i32 ptrtoint (void ()* @_isr_wrapper to i32), i32 ptrtoint (void ()* @_isr_wrapper to i32), i32 ptrtoint (void ()* @_isr_wrapper to i32), i32 ptrtoint (void ()* @_isr_wrapper to i32), i32 ptrtoint (void ()* @_isr_wrapper to i32), i32 ptrtoint (void ()* @_isr_wrapper to i32), i32 ptrtoint (void ()* @_isr_wrapper to i32), i32 ptrtoint (void ()* @_isr_wrapper to i32), i32 ptrtoint (void ()* @_isr_wrapper to i32), i32 ptrtoint (void ()* @_isr_wrapper to i32)], section ".gnu.linkonce.irq_vector_table", align 4, !dbg !0
@_sw_isr_table = dso_local local_unnamed_addr global [28 x %struct._isr_table_entry] [%struct._isr_table_entry { i8* null, void (i8*)* @z_irq_spurious }, %struct._isr_table_entry { i8* null, void (i8*)* @z_irq_spurious }, %struct._isr_table_entry { i8* null, void (i8*)* @z_irq_spurious }, %struct._isr_table_entry { i8* null, void (i8*)* @z_irq_spurious }, %struct._isr_table_entry { i8* inttoptr (i32 19584 to i8*), void (i8*)* inttoptr (i32 12489 to void (i8*)*) }, %struct._isr_table_entry { i8* null, void (i8*)* @z_irq_spurious }, %struct._isr_table_entry { i8* null, void (i8*)* @z_irq_spurious }, %struct._isr_table_entry { i8* null, void (i8*)* @z_irq_spurious }, %struct._isr_table_entry { i8* null, void (i8*)* @z_irq_spurious }, %struct._isr_table_entry { i8* inttoptr (i32 19632 to i8*), void (i8*)* inttoptr (i32 18605 to void (i8*)*) }, %struct._isr_table_entry { i8* null, void (i8*)* @z_irq_spurious }, %struct._isr_table_entry { i8* inttoptr (i32 19608 to i8*), void (i8*)* inttoptr (i32 18605 to void (i8*)*) }, %struct._isr_table_entry { i8* null, void (i8*)* @z_irq_spurious }, %struct._isr_table_entry { i8* null, void (i8*)* @z_irq_spurious }, %struct._isr_table_entry { i8* null, void (i8*)* @z_irq_spurious }, %struct._isr_table_entry { i8* null, void (i8*)* @z_irq_spurious }, %struct._isr_table_entry { i8* null, void (i8*)* @z_irq_spurious }, %struct._isr_table_entry { i8* null, void (i8*)* @z_irq_spurious }, %struct._isr_table_entry { i8* null, void (i8*)* @z_irq_spurious }, %struct._isr_table_entry { i8* null, void (i8*)* @z_irq_spurious }, %struct._isr_table_entry { i8* null, void (i8*)* @z_irq_spurious }, %struct._isr_table_entry { i8* null, void (i8*)* @z_irq_spurious }, %struct._isr_table_entry { i8* null, void (i8*)* @z_irq_spurious }, %struct._isr_table_entry { i8* null, void (i8*)* @z_irq_spurious }, %struct._isr_table_entry { i8* null, void (i8*)* @z_irq_spurious }, %struct._isr_table_entry { i8* null, void (i8*)* @z_irq_spurious }, %struct._isr_table_entry { i8* null, void (i8*)* @z_irq_spurious }, %struct._isr_table_entry { i8* null, void (i8*)* @z_irq_spurious }], section ".gnu.linkonce.sw_isr_table", align 4, !dbg !5
@llvm.global_ctors = appending global [1 x { i32, void ()*, i8* }] [{ i32, void ()*, i8* } { i32 65535, void ()* @_GLOBAL__sub_I_main.cpp, i8* null }]
@coop_thread = dso_local global %struct.k_thread zeroinitializer, align 8, !dbg !25
@coop_stack = dso_local global [2000 x %struct.k_spinlock] zeroinitializer, section ".noinit.\22CMAKE_SOURCE_DIR/src/main.cpp\22.0", align 8, !dbg !106
@_ZTV13cpp_semaphore = dso_local unnamed_addr constant { [7 x i8*] } { [7 x i8*] [i8* null, i8* null, i8* bitcast (i32 (%class.cpp_semaphore*)* @_ZN13cpp_semaphore4waitEv to i8*), i8* bitcast (i32 (%class.cpp_semaphore*, i32)* @_ZN13cpp_semaphore4waitEi to i8*), i8* bitcast (void (%class.cpp_semaphore*)* @_ZN13cpp_semaphore4giveEv to i8*), i8* bitcast (%class.cpp_semaphore* (%class.cpp_semaphore*)* @_ZN13cpp_semaphoreD2Ev to i8*), i8* bitcast (void (%class.cpp_semaphore*)* @_ZN13cpp_semaphoreD0Ev to i8*)] }, align 4
@.str = private unnamed_addr constant [21 x i8] c"Create semaphore %p\0A\00", align 1
@sem_main = dso_local global %class.cpp_semaphore zeroinitializer, align 4, !dbg !116
@sem_coop = dso_local global %class.cpp_semaphore zeroinitializer, align 4, !dbg !118
@.str.2 = private unnamed_addr constant [18 x i8] c"%s: Hello World!\0A\00", align 1
@__FUNCTION__._Z17coop_thread_entryv = private unnamed_addr constant [18 x i8] c"coop_thread_entry\00", align 1
@__FUNCTION__.main = private unnamed_addr constant [5 x i8] c"main\00", align 1
@_ZTV9semaphore = linkonce_odr dso_local unnamed_addr constant { [5 x i8*] } { [5 x i8*] [i8* null, i8* null, i8* bitcast (void ()* @__cxa_pure_virtual to i8*), i8* bitcast (void ()* @__cxa_pure_virtual to i8*), i8* bitcast (void ()* @__cxa_pure_virtual to i8*)] }, comdat, align 4
@_char_out = dso_local local_unnamed_addr global i32 (i32)* @arch_printk_char_out, align 4, !dbg !196
@.str.5 = private unnamed_addr constant [6 x i8] c"(nil)\00", align 1
@llvm.compiler.used = appending global [13 x i8*] [i8* bitcast (%struct.init_entry* @__init_atmel_samd_init to i8*), i8* bitcast (%struct.init_entry* @__init_malloc_prepare to i8*), i8* bitcast (%struct.device* @__device_dts_ord_22 to i8*), i8* bitcast (%struct.init_entry* @__init___device_dts_ord_22 to i8*), i8* bitcast (%struct._isr_list* @sam0_eic_init.__isr_sam0_eic_isr_irq_0 to i8*), i8* bitcast (%struct.init_entry* @__init_uart_console_init to i8*), i8* bitcast (%struct.device* @__device_dts_ord_27 to i8*), i8* bitcast (%struct.device* @__device_dts_ord_29 to i8*), i8* bitcast (%struct.init_entry* @__init___device_dts_ord_27 to i8*), i8* bitcast (%struct.init_entry* @__init___device_dts_ord_29 to i8*), i8* bitcast (%struct._isr_list* @uart_sam0_irq_config_0.__isr_uart_sam0_isr_irq_0 to i8*), i8* bitcast (%struct._isr_list* @uart_sam0_irq_config_1.__isr_uart_sam0_isr_irq_1 to i8*), i8* bitcast (%struct.init_entry* @__init_sys_clock_driver_init to i8*)], section "llvm.metadata"
@__init_atmel_samd_init = internal constant %struct.init_entry { i32 (%struct.device*)* @atmel_samd_init, %struct.device* null }, section ".z_init_PRE_KERNEL_10_", align 4, !dbg !277
@__zephyr_init_array_start = external dso_local global [0 x void ()*], align 4
@__zephyr_init_array_end = external dso_local global [0 x void ()*], align 4
@__ZEPHYR_CTOR_LIST__ = external dso_local local_unnamed_addr global [0 x void ()*], align 4
@__dso_handle = weak dso_local local_unnamed_addr global i8* null, align 4, !dbg !1047
@_vector_start = external dso_local global [0 x i8], align 1
@z_malloc_heap_mutex = dso_local global %struct.sys_mutex zeroinitializer, section ".bss", align 4, !dbg !1053
@z_malloc_heap = internal global %struct.sys_heap zeroinitializer, section ".bss", align 4, !dbg !1073
@__init_malloc_prepare = internal constant %struct.init_entry { i32 (%struct.device*)* @malloc_prepare, %struct.device* null }, section ".z_init_POST_KERNEL40_", align 4, !dbg !1059
@z_malloc_heap_mem = internal global [128 x i8] zeroinitializer, section ".bss", align 1, !dbg !1085
@_stdout_hook = internal unnamed_addr global i32 (i32)* @_stdout_hook_default, align 4, !dbg !1192
@__device_dts_ord_22 = dso_local constant %struct.device { i8* getelementptr inbounds ([13 x i8], [13 x i8]* @.str.32, i32 0, i32 0), i8* null, i8* null, %struct.device_state* @__devstate_dts_ord_22, i8* bitcast (%struct.sam0_eic_data* @eic_data to i8*), i16* getelementptr inbounds ([3 x i16], [3 x i16]* @__devicehdl_dts_ord_22, i32 0, i32 0) }, section ".z_device_PRE_KERNEL_140_", align 4, !dbg !1202
@__devicehdl_dts_ord_22 = dso_local constant [3 x i16] [i16 -32768, i16 -32768, i16 32767], section ".__device_handles_pass2", align 2, !dbg !1763
@.str.32 = private unnamed_addr constant [13 x i8] c"eic@40001800\00", align 1
@__devstate_dts_ord_22 = internal global %struct.device_state zeroinitializer, section ".z_devstate", align 1, !dbg !1742
@eic_data = internal global %struct.sam0_eic_data zeroinitializer, align 4, !dbg !1721
@__init___device_dts_ord_22 = internal constant %struct.init_entry { i32 (%struct.device*)* @sam0_eic_init, %struct.device* @__device_dts_ord_22 }, section ".z_init_PRE_KERNEL_140_", align 4, !dbg !1696
@sam0_eic_channels = internal unnamed_addr constant [1 x [32 x i8]] [[32 x i8] c"\00\01\02\03\04\05\06\07\FF\09\0A\0B\FF\FF\0E\0F\00\01\02\03\FF\FF\06\07\0C\0D\FF\0F\08\FF\0A\0B"], align 1, !dbg !1744
@sam0_eic_init.__isr_sam0_eic_isr_irq_0 = internal global %struct._isr_list { i32 4, i32 0, i8* bitcast (void (%struct.device*)* @sam0_eic_isr to i8*), i8* bitcast (%struct.device* @__device_dts_ord_22 to i8*) }, section ".intList", align 4, !dbg !1751
@__init_uart_console_init = internal constant %struct.init_entry { i32 (%struct.device*)* @uart_console_init, %struct.device* null }, section ".z_init_PRE_KERNEL_160_", align 4, !dbg !1774
@__devicehdl_dts_ord_27 = dso_local constant [3 x i16] [i16 -32768, i16 -32768, i16 32767], section ".__device_handles_pass2", align 2, !dbg !1772
@.str.37 = private unnamed_addr constant [16 x i8] c"sercom@42000800\00", align 1
@uart_sam0_config_0 = internal constant %struct.uart_sam0_dev_cfg { %struct.SercomUsart* inttoptr (i32 1107298304 to %struct.SercomUsart*), i32 115200, i32 3211264, i8 0, i32 4, i16 20, void (%struct.device*)* @uart_sam0_irq_config_0, %struct.pinctrl_dev_config* @__pinctrl_dev_config__device_dts_ord_27 }, align 4, !dbg !1873
@uart_sam0_driver_api = internal constant %struct.uart_driver_api { i32 (%struct.device*, i8*)* @uart_sam0_poll_in, void (%struct.device*, i8)* @uart_sam0_poll_out, i32 (%struct.device*)* @uart_sam0_err_check, i32 (%struct.device*, %struct.uart_config*)* @uart_sam0_configure, i32 (%struct.device*, %struct.uart_config*)* @uart_sam0_config_get, i32 (%struct.device*, i8*, i32)* @uart_sam0_fifo_fill, i32 (%struct.device*, i8*, i32)* @uart_sam0_fifo_read, void (%struct.device*)* @uart_sam0_irq_tx_enable, void (%struct.device*)* @uart_sam0_irq_tx_disable, i32 (%struct.device*)* @uart_sam0_irq_tx_ready, void (%struct.device*)* @uart_sam0_irq_rx_enable, void (%struct.device*)* @uart_sam0_irq_rx_disable, i32 (%struct.device*)* @uart_sam0_irq_tx_complete, i32 (%struct.device*)* @uart_sam0_irq_rx_ready, void (%struct.device*)* null, void (%struct.device*)* null, i32 (%struct.device*)* @uart_sam0_irq_is_pending, i32 (%struct.device*)* @uart_sam0_irq_update, void (%struct.device*, void (%struct.device*, i8*)*, i8*)* @uart_sam0_irq_callback_set }, align 4, !dbg !2432
@__devstate_dts_ord_27 = internal global %struct.device_state zeroinitializer, section ".z_devstate", align 1, !dbg !2390
@uart_sam0_data_0 = internal global %struct.uart_sam0_dev_data zeroinitializer, align 4, !dbg !2383
@__device_dts_ord_27 = dso_local constant %struct.device { i8* getelementptr inbounds ([16 x i8], [16 x i8]* @.str.37, i32 0, i32 0), i8* bitcast (%struct.uart_sam0_dev_cfg* @uart_sam0_config_0 to i8*), i8* bitcast (%struct.uart_driver_api* @uart_sam0_driver_api to i8*), %struct.device_state* @__devstate_dts_ord_27, i8* bitcast (%struct.uart_sam0_dev_data* @uart_sam0_data_0 to i8*), i16* getelementptr inbounds ([3 x i16], [3 x i16]* @__devicehdl_dts_ord_27, i32 0, i32 0) }, section ".z_device_PRE_KERNEL_155_", align 4, !dbg !2368
@__init___device_dts_ord_27 = internal constant %struct.init_entry { i32 (%struct.device*)* @uart_sam0_init, %struct.device* @__device_dts_ord_27 }, section ".z_init_PRE_KERNEL_155_", align 4, !dbg !2370
@__devicehdl_dts_ord_29 = dso_local constant [3 x i16] [i16 -32768, i16 -32768, i16 32767], section ".__device_handles_pass2", align 2, !dbg !1768
@.str.1 = private unnamed_addr constant [16 x i8] c"sercom@42001000\00", align 1
@uart_sam0_config_1 = internal constant %struct.uart_sam0_dev_cfg { %struct.SercomUsart* inttoptr (i32 1107300352 to %struct.SercomUsart*), i32 115200, i32 1048576, i8 0, i32 16, i16 22, void (%struct.device*)* @uart_sam0_irq_config_1, %struct.pinctrl_dev_config* @__pinctrl_dev_config__device_dts_ord_29 }, align 4, !dbg !2434
@__devstate_dts_ord_29 = internal global %struct.device_state zeroinitializer, section ".z_devstate", align 1, !dbg !2394
@uart_sam0_data_1 = internal global %struct.uart_sam0_dev_data zeroinitializer, align 4, !dbg !2392
@__device_dts_ord_29 = dso_local constant %struct.device { i8* getelementptr inbounds ([16 x i8], [16 x i8]* @.str.1, i32 0, i32 0), i8* bitcast (%struct.uart_sam0_dev_cfg* @uart_sam0_config_1 to i8*), i8* bitcast (%struct.uart_driver_api* @uart_sam0_driver_api to i8*), %struct.device_state* @__devstate_dts_ord_29, i8* bitcast (%struct.uart_sam0_dev_data* @uart_sam0_data_1 to i8*), i16* getelementptr inbounds ([3 x i16], [3 x i16]* @__devicehdl_dts_ord_29, i32 0, i32 0) }, section ".z_device_PRE_KERNEL_155_", align 4, !dbg !2379
@__init___device_dts_ord_29 = internal constant %struct.init_entry { i32 (%struct.device*)* @uart_sam0_init, %struct.device* @__device_dts_ord_29 }, section ".z_init_PRE_KERNEL_155_", align 4, !dbg !2381
@__pinctrl_dev_config__device_dts_ord_27 = internal constant %struct.pinctrl_dev_config { %struct.pinctrl_state* getelementptr inbounds ([1 x %struct.pinctrl_state], [1 x %struct.pinctrl_state]* @__pinctrl_states__device_dts_ord_27, i32 0, i32 0), i8 1 }, align 4, !dbg !2407
@uart_sam0_irq_config_0.__isr_uart_sam0_isr_irq_0 = internal global %struct._isr_list { i32 9, i32 0, i8* bitcast (void (%struct.device*)* @uart_sam0_isr to i8*), i8* bitcast (%struct.device* @__device_dts_ord_27 to i8*) }, section ".intList", align 4, !dbg !2396
@__pinctrl_states__device_dts_ord_27 = internal constant [1 x %struct.pinctrl_state] [%struct.pinctrl_state { i32* getelementptr inbounds ([2 x i32], [2 x i32]* @__pinctrl_state_pins_0__device_dts_ord_27, i32 0, i32 0), i8 2, i8 0 }], align 4, !dbg !2426
@__pinctrl_state_pins_0__device_dts_ord_27 = internal constant [2 x i32] [i32 846200832, i32 845152256], align 4, !dbg !2429
@__pinctrl_dev_config__device_dts_ord_29 = internal constant %struct.pinctrl_dev_config { %struct.pinctrl_state* getelementptr inbounds ([1 x %struct.pinctrl_state], [1 x %struct.pinctrl_state]* @__pinctrl_states__device_dts_ord_29, i32 0, i32 0), i8 1 }, align 4, !dbg !2635
@uart_sam0_irq_config_1.__isr_uart_sam0_isr_irq_1 = internal global %struct._isr_list { i32 11, i32 0, i8* bitcast (void (%struct.device*)* @uart_sam0_isr to i8*), i8* bitcast (%struct.device* @__device_dts_ord_29 to i8*) }, section ".intList", align 4, !dbg !2630
@__pinctrl_states__device_dts_ord_29 = internal constant [1 x %struct.pinctrl_state] [%struct.pinctrl_state { i32* getelementptr inbounds ([2 x i32], [2 x i32]* @__pinctrl_state_pins_0__device_dts_ord_29, i32 0, i32 0), i8 2, i8 0 }], align 4, !dbg !2637
@__pinctrl_state_pins_0__device_dts_ord_29 = internal constant [2 x i32] [i32 848297984, i32 847249408], align 4, !dbg !2639
@overflow_cyc = internal global i32 0, align 4, !dbg !2641
@cycle_count = internal unnamed_addr global i32 0, align 4, !dbg !2758
@announced_cycles = internal unnamed_addr global i32 0, align 4, !dbg !2760
@last_load = internal unnamed_addr global i32 0, align 4, !dbg !2756
@__init_sys_clock_driver_init = internal constant %struct.init_entry { i32 (%struct.device*)* @sys_clock_driver_init, %struct.device* null }, section ".z_init_PRE_KERNEL_20_", align 4, !dbg !2725
@sam_port_addrs = internal unnamed_addr constant [2 x i32] [i32 1090536448, i32 1090536576], align 4, !dbg !2762
@__device_start = external dso_local constant [0 x %struct.device], align 4
@__device_end = external dso_local constant [0 x %struct.device], align 4
@_k_neg_eagain = dso_local local_unnamed_addr constant i32 -11, align 4, !dbg !2925
@__bss_start = external dso_local global [0 x i8], align 1
@__bss_end = external dso_local global [0 x i8], align 1
@z_interrupt_stacks = dso_local global [1 x [2048 x %struct.k_spinlock]] zeroinitializer, section ".noinit.\22ZEPHYR_BASE/kernel/init.c\22.2", align 8, !dbg !2931
@z_main_stack = dso_local global [1024 x %struct.k_spinlock] zeroinitializer, section ".noinit.\22ZEPHYR_BASE/kernel/init.c\22.0", align 8, !dbg !3123
@z_main_thread = dso_local global %struct.k_thread zeroinitializer, align 8, !dbg !3131
@z_idle_stacks = internal global [1 x [256 x %struct.k_spinlock]] zeroinitializer, section ".noinit.\22ZEPHYR_BASE/kernel/init.c\22.1", align 8, !dbg !3138
@z_sys_init_run_level.levels = internal unnamed_addr constant [6 x %struct.init_entry*] [%struct.init_entry* getelementptr inbounds ([0 x %struct.init_entry], [0 x %struct.init_entry]* @__init_EARLY_start, i32 0, i32 0), %struct.init_entry* getelementptr inbounds ([0 x %struct.init_entry], [0 x %struct.init_entry]* @__init_PRE_KERNEL_1_start, i32 0, i32 0), %struct.init_entry* getelementptr inbounds ([0 x %struct.init_entry], [0 x %struct.init_entry]* @__init_PRE_KERNEL_2_start, i32 0, i32 0), %struct.init_entry* getelementptr inbounds ([0 x %struct.init_entry], [0 x %struct.init_entry]* @__init_POST_KERNEL_start, i32 0, i32 0), %struct.init_entry* getelementptr inbounds ([0 x %struct.init_entry], [0 x %struct.init_entry]* @__init_APPLICATION_start, i32 0, i32 0), %struct.init_entry* getelementptr inbounds ([0 x %struct.init_entry], [0 x %struct.init_entry]* @__init_end, i32 0, i32 0)], align 4, !dbg !3143
@__init_EARLY_start = external dso_local constant [0 x %struct.init_entry], align 4
@__init_PRE_KERNEL_1_start = external dso_local constant [0 x %struct.init_entry], align 4
@__init_PRE_KERNEL_2_start = external dso_local constant [0 x %struct.init_entry], align 4
@__init_POST_KERNEL_start = external dso_local constant [0 x %struct.init_entry], align 4
@__init_APPLICATION_start = external dso_local constant [0 x %struct.init_entry], align 4
@__init_end = external dso_local constant [0 x %struct.init_entry], align 4
@.str.64 = private unnamed_addr constant [5 x i8] c"main\00", align 1
@k_thread_state_str.states_str = internal unnamed_addr constant [8 x i8*] [i8* getelementptr inbounds ([6 x i8], [6 x i8]* @.str.65, i32 0, i32 0), i8* getelementptr inbounds ([8 x i8], [8 x i8]* @.str.1.66, i32 0, i32 0), i8* getelementptr inbounds ([9 x i8], [9 x i8]* @.str.2.67, i32 0, i32 0), i8* getelementptr inbounds ([5 x i8], [5 x i8]* @.str.3, i32 0, i32 0), i8* getelementptr inbounds ([10 x i8], [10 x i8]* @.str.4, i32 0, i32 0), i8* getelementptr inbounds ([9 x i8], [9 x i8]* @.str.5.68, i32 0, i32 0), i8* getelementptr inbounds ([1 x i8], [1 x i8]* @.str.6, i32 0, i32 0), i8* getelementptr inbounds ([7 x i8], [7 x i8]* @.str.7, i32 0, i32 0)], align 4, !dbg !3169
@.str.65 = private unnamed_addr constant [6 x i8] c"dummy\00", align 1
@.str.1.66 = private unnamed_addr constant [8 x i8] c"pending\00", align 1
@.str.2.67 = private unnamed_addr constant [9 x i8] c"prestart\00", align 1
@.str.3 = private unnamed_addr constant [5 x i8] c"dead\00", align 1
@.str.4 = private unnamed_addr constant [10 x i8] c"suspended\00", align 1
@.str.5.68 = private unnamed_addr constant [9 x i8] c"aborting\00", align 1
@.str.6 = private unnamed_addr constant [1 x i8] zeroinitializer, align 1
@.str.7 = private unnamed_addr constant [7 x i8] c"queued\00", align 1
@k_thread_state_str.states_sz = internal unnamed_addr constant [8 x i32] [i32 5, i32 7, i32 8, i32 4, i32 9, i32 8, i32 0, i32 6], align 4, !dbg !3277
@.str.8 = private unnamed_addr constant [2 x i8] c"+\00", align 1
@__static_thread_data_list_start = external dso_local global [0 x %struct._static_thread_data], align 4
@__static_thread_data_list_end = external dso_local global [0 x %struct._static_thread_data], align 4
@lock = internal global %struct.k_spinlock zeroinitializer, align 1, !dbg !3291
@lock.91 = internal global %struct.k_spinlock zeroinitializer, align 1, !dbg !3395
@sched_spinlock = dso_local local_unnamed_addr global %struct.k_spinlock zeroinitializer, align 1, !dbg !3420
@slice_ticks = internal unnamed_addr global i32 0, align 4, !dbg !3533
@slice_max_prio = internal unnamed_addr global i32 0, align 4, !dbg !3536
@pending_current = internal unnamed_addr global %struct.k_thread* null, align 4, !dbg !3538
@z_sys_post_kernel = dso_local local_unnamed_addr global i8 0, align 1, !dbg !3136
@z_idle_threads = dso_local global [1 x %struct.k_thread] zeroinitializer, align 8, !dbg !3133
@__data_region_start = external dso_local global [0 x i8], align 1
@__data_region_load_start = external dso_local global [0 x i8], align 1
@__data_region_end = external dso_local global [0 x i8], align 1
@__ramfunc_start = external dso_local global [0 x i8], align 1
@__ramfunc_load_start = external dso_local global [0 x i8], align 1
@__ramfunc_size = external dso_local global [0 x i8], align 1
@curr_tick = internal unnamed_addr global i64 0, align 8, !dbg !3540
@timeout_list = internal global %struct._dnode { %union.anon.0 { %struct._dnode* @timeout_list }, %union.anon.0 { %struct._dnode* @timeout_list } }, align 4, !dbg !3578
@_kernel = dso_local global %struct.z_kernel zeroinitializer, align 4, !dbg !3004
@announce_remaining = internal unnamed_addr global i32 0, align 4, !dbg !3576
@lock.165 = internal global %struct.k_spinlock zeroinitializer, align 1, !dbg !3581
@.str.169 = private unnamed_addr constant [66 x i8] c"*** Booting Zephyr OS build zephyr-v3.2.0-2126-gffed8388e7cb ***\0A\00", align 1

@_ZN13cpp_semaphoreC1Ev = dso_local unnamed_addr alias %class.cpp_semaphore* (%class.cpp_semaphore*), %class.cpp_semaphore* (%class.cpp_semaphore*)* @_ZN13cpp_semaphoreC2Ev

; Function Attrs: optsize
declare dso_local void @_isr_wrapper() #0

; Function Attrs: noinline nounwind optsize
define dso_local void @_OffsetAbsSyms() local_unnamed_addr #1 !dbg !4060 {
  tail call void asm sideeffect ".globl\09___cpu_t_current_OFFSET\0A\09.equ\09___cpu_t_current_OFFSET,${0:B}\0A\09.type\09___cpu_t_current_OFFSET,%object", "n"(i32 -9) #32, !dbg !4064, !srcloc !4065
  tail call void asm sideeffect ".globl\09___cpu_t_nested_OFFSET\0A\09.equ\09___cpu_t_nested_OFFSET,${0:B}\0A\09.type\09___cpu_t_nested_OFFSET,%object", "n"(i32 -1) #32, !dbg !4066, !srcloc !4067
  tail call void asm sideeffect ".globl\09___cpu_t_irq_stack_OFFSET\0A\09.equ\09___cpu_t_irq_stack_OFFSET,${0:B}\0A\09.type\09___cpu_t_irq_stack_OFFSET,%object", "n"(i32 -5) #32, !dbg !4068, !srcloc !4069
  tail call void asm sideeffect ".globl\09___cpu_t_arch_OFFSET\0A\09.equ\09___cpu_t_arch_OFFSET,${0:B}\0A\09.type\09___cpu_t_arch_OFFSET,%object", "n"(i32 -22) #32, !dbg !4070, !srcloc !4071
  tail call void asm sideeffect ".globl\09___cpu_t_SIZEOF\0A\09.equ\09___cpu_t_SIZEOF,${0:B}\0A\09.type\09___cpu_t_SIZEOF,%object", "n"(i32 -25) #32, !dbg !4072, !srcloc !4073
  tail call void asm sideeffect ".globl\09___kernel_t_cpus_OFFSET\0A\09.equ\09___kernel_t_cpus_OFFSET,${0:B}\0A\09.type\09___kernel_t_cpus_OFFSET,%object", "n"(i32 -1) #32, !dbg !4074, !srcloc !4075
  tail call void asm sideeffect ".globl\09___kernel_t_ready_q_OFFSET\0A\09.equ\09___kernel_t_ready_q_OFFSET,${0:B}\0A\09.type\09___kernel_t_ready_q_OFFSET,%object", "n"(i32 -25) #32, !dbg !4076, !srcloc !4077
  tail call void asm sideeffect ".globl\09___ready_q_t_cache_OFFSET\0A\09.equ\09___ready_q_t_cache_OFFSET,${0:B}\0A\09.type\09___ready_q_t_cache_OFFSET,%object", "n"(i32 -1) #32, !dbg !4078, !srcloc !4079
  tail call void asm sideeffect ".globl\09_STRUCT_KERNEL_SIZE\0A\09.equ\09_STRUCT_KERNEL_SIZE,${0:B}\0A\09.type\09_STRUCT_KERNEL_SIZE,%object", "n"(i32 -37) #32, !dbg !4080, !srcloc !4081
  tail call void asm sideeffect ".globl\09___thread_base_t_user_options_OFFSET\0A\09.equ\09___thread_base_t_user_options_OFFSET,${0:B}\0A\09.type\09___thread_base_t_user_options_OFFSET,%object", "n"(i32 -13) #32, !dbg !4082, !srcloc !4083
  tail call void asm sideeffect ".globl\09___thread_base_t_thread_state_OFFSET\0A\09.equ\09___thread_base_t_thread_state_OFFSET,${0:B}\0A\09.type\09___thread_base_t_thread_state_OFFSET,%object", "n"(i32 -14) #32, !dbg !4084, !srcloc !4085
  tail call void asm sideeffect ".globl\09___thread_base_t_prio_OFFSET\0A\09.equ\09___thread_base_t_prio_OFFSET,${0:B}\0A\09.type\09___thread_base_t_prio_OFFSET,%object", "n"(i32 -15) #32, !dbg !4086, !srcloc !4087
  tail call void asm sideeffect ".globl\09___thread_base_t_sched_locked_OFFSET\0A\09.equ\09___thread_base_t_sched_locked_OFFSET,${0:B}\0A\09.type\09___thread_base_t_sched_locked_OFFSET,%object", "n"(i32 -16) #32, !dbg !4088, !srcloc !4089
  tail call void asm sideeffect ".globl\09___thread_base_t_preempt_OFFSET\0A\09.equ\09___thread_base_t_preempt_OFFSET,${0:B}\0A\09.type\09___thread_base_t_preempt_OFFSET,%object", "n"(i32 -15) #32, !dbg !4090, !srcloc !4091
  tail call void asm sideeffect ".globl\09___thread_base_t_swap_data_OFFSET\0A\09.equ\09___thread_base_t_swap_data_OFFSET,${0:B}\0A\09.type\09___thread_base_t_swap_data_OFFSET,%object", "n"(i32 -21) #32, !dbg !4092, !srcloc !4093
  tail call void asm sideeffect ".globl\09___thread_t_base_OFFSET\0A\09.equ\09___thread_t_base_OFFSET,${0:B}\0A\09.type\09___thread_t_base_OFFSET,%object", "n"(i32 -1) #32, !dbg !4094, !srcloc !4095
  tail call void asm sideeffect ".globl\09___thread_t_callee_saved_OFFSET\0A\09.equ\09___thread_t_callee_saved_OFFSET,${0:B}\0A\09.type\09___thread_t_callee_saved_OFFSET,%object", "n"(i32 -49) #32, !dbg !4096, !srcloc !4097
  tail call void asm sideeffect ".globl\09___thread_t_arch_OFFSET\0A\09.equ\09___thread_t_arch_OFFSET,${0:B}\0A\09.type\09___thread_t_arch_OFFSET,%object", "n"(i32 -105) #32, !dbg !4098, !srcloc !4099
  tail call void asm sideeffect ".globl\09K_THREAD_SIZEOF\0A\09.equ\09K_THREAD_SIZEOF,${0:B}\0A\09.type\09K_THREAD_SIZEOF,%object", "n"(i32 -113) #32, !dbg !4100, !srcloc !4101
  tail call void asm sideeffect ".globl\09__z_interrupt_stack_SIZEOF\0A\09.equ\09__z_interrupt_stack_SIZEOF,${0:B}\0A\09.type\09__z_interrupt_stack_SIZEOF,%object", "n"(i32 -2049) #32, !dbg !4102, !srcloc !4103
  tail call void asm sideeffect ".globl\09_DEVICE_STRUCT_SIZEOF\0A\09.equ\09_DEVICE_STRUCT_SIZEOF,${0:B}\0A\09.type\09_DEVICE_STRUCT_SIZEOF,%object", "n"(i32 -25) #32, !dbg !4104, !srcloc !4105
  tail call void asm sideeffect ".globl\09_DEVICE_STRUCT_HANDLES_OFFSET\0A\09.equ\09_DEVICE_STRUCT_HANDLES_OFFSET,${0:B}\0A\09.type\09_DEVICE_STRUCT_HANDLES_OFFSET,%object", "n"(i32 -21) #32, !dbg !4106, !srcloc !4107
  tail call void asm sideeffect ".globl\09_PM_DEVICE_STRUCT_FLAGS_OFFSET\0A\09.equ\09_PM_DEVICE_STRUCT_FLAGS_OFFSET,${0:B}\0A\09.type\09_PM_DEVICE_STRUCT_FLAGS_OFFSET,%object", "n"(i32 -1) #32, !dbg !4108, !srcloc !4109
  tail call void asm sideeffect ".globl\09_PM_DEVICE_FLAG_PD\0A\09.equ\09_PM_DEVICE_FLAG_PD,${0:B}\0A\09.type\09_PM_DEVICE_FLAG_PD,%object", "n"(i32 -7) #32, !dbg !4110, !srcloc !4111
  tail call void asm sideeffect ".globl\09___thread_arch_t_basepri_OFFSET\0A\09.equ\09___thread_arch_t_basepri_OFFSET,${0:B}\0A\09.type\09___thread_arch_t_basepri_OFFSET,%object", "n"(i32 -1) #32, !dbg !4112, !srcloc !4115
  tail call void asm sideeffect ".globl\09___thread_arch_t_swap_return_value_OFFSET\0A\09.equ\09___thread_arch_t_swap_return_value_OFFSET,${0:B}\0A\09.type\09___thread_arch_t_swap_return_value_OFFSET,%object", "n"(i32 -5) #32, !dbg !4116, !srcloc !4117
  tail call void asm sideeffect ".globl\09___basic_sf_t_a1_OFFSET\0A\09.equ\09___basic_sf_t_a1_OFFSET,${0:B}\0A\09.type\09___basic_sf_t_a1_OFFSET,%object", "n"(i32 -1) #32, !dbg !4118, !srcloc !4119
  tail call void asm sideeffect ".globl\09___basic_sf_t_a2_OFFSET\0A\09.equ\09___basic_sf_t_a2_OFFSET,${0:B}\0A\09.type\09___basic_sf_t_a2_OFFSET,%object", "n"(i32 -5) #32, !dbg !4120, !srcloc !4121
  tail call void asm sideeffect ".globl\09___basic_sf_t_a3_OFFSET\0A\09.equ\09___basic_sf_t_a3_OFFSET,${0:B}\0A\09.type\09___basic_sf_t_a3_OFFSET,%object", "n"(i32 -9) #32, !dbg !4122, !srcloc !4123
  tail call void asm sideeffect ".globl\09___basic_sf_t_a4_OFFSET\0A\09.equ\09___basic_sf_t_a4_OFFSET,${0:B}\0A\09.type\09___basic_sf_t_a4_OFFSET,%object", "n"(i32 -13) #32, !dbg !4124, !srcloc !4125
  tail call void asm sideeffect ".globl\09___basic_sf_t_ip_OFFSET\0A\09.equ\09___basic_sf_t_ip_OFFSET,${0:B}\0A\09.type\09___basic_sf_t_ip_OFFSET,%object", "n"(i32 -17) #32, !dbg !4126, !srcloc !4127
  tail call void asm sideeffect ".globl\09___basic_sf_t_lr_OFFSET\0A\09.equ\09___basic_sf_t_lr_OFFSET,${0:B}\0A\09.type\09___basic_sf_t_lr_OFFSET,%object", "n"(i32 -21) #32, !dbg !4128, !srcloc !4129
  tail call void asm sideeffect ".globl\09___basic_sf_t_pc_OFFSET\0A\09.equ\09___basic_sf_t_pc_OFFSET,${0:B}\0A\09.type\09___basic_sf_t_pc_OFFSET,%object", "n"(i32 -25) #32, !dbg !4130, !srcloc !4131
  tail call void asm sideeffect ".globl\09___basic_sf_t_xpsr_OFFSET\0A\09.equ\09___basic_sf_t_xpsr_OFFSET,${0:B}\0A\09.type\09___basic_sf_t_xpsr_OFFSET,%object", "n"(i32 -29) #32, !dbg !4132, !srcloc !4133
  tail call void asm sideeffect ".globl\09___basic_sf_t_SIZEOF\0A\09.equ\09___basic_sf_t_SIZEOF,${0:B}\0A\09.type\09___basic_sf_t_SIZEOF,%object", "n"(i32 -33) #32, !dbg !4134, !srcloc !4135
  tail call void asm sideeffect ".globl\09___esf_t_SIZEOF\0A\09.equ\09___esf_t_SIZEOF,${0:B}\0A\09.type\09___esf_t_SIZEOF,%object", "n"(i32 -33) #32, !dbg !4136, !srcloc !4137
  tail call void asm sideeffect ".globl\09___callee_saved_t_v1_OFFSET\0A\09.equ\09___callee_saved_t_v1_OFFSET,${0:B}\0A\09.type\09___callee_saved_t_v1_OFFSET,%object", "n"(i32 -1) #32, !dbg !4138, !srcloc !4139
  tail call void asm sideeffect ".globl\09___callee_saved_t_v2_OFFSET\0A\09.equ\09___callee_saved_t_v2_OFFSET,${0:B}\0A\09.type\09___callee_saved_t_v2_OFFSET,%object", "n"(i32 -5) #32, !dbg !4140, !srcloc !4141
  tail call void asm sideeffect ".globl\09___callee_saved_t_v3_OFFSET\0A\09.equ\09___callee_saved_t_v3_OFFSET,${0:B}\0A\09.type\09___callee_saved_t_v3_OFFSET,%object", "n"(i32 -9) #32, !dbg !4142, !srcloc !4143
  tail call void asm sideeffect ".globl\09___callee_saved_t_v4_OFFSET\0A\09.equ\09___callee_saved_t_v4_OFFSET,${0:B}\0A\09.type\09___callee_saved_t_v4_OFFSET,%object", "n"(i32 -13) #32, !dbg !4144, !srcloc !4145
  tail call void asm sideeffect ".globl\09___callee_saved_t_v5_OFFSET\0A\09.equ\09___callee_saved_t_v5_OFFSET,${0:B}\0A\09.type\09___callee_saved_t_v5_OFFSET,%object", "n"(i32 -17) #32, !dbg !4146, !srcloc !4147
  tail call void asm sideeffect ".globl\09___callee_saved_t_v6_OFFSET\0A\09.equ\09___callee_saved_t_v6_OFFSET,${0:B}\0A\09.type\09___callee_saved_t_v6_OFFSET,%object", "n"(i32 -21) #32, !dbg !4148, !srcloc !4149
  tail call void asm sideeffect ".globl\09___callee_saved_t_v7_OFFSET\0A\09.equ\09___callee_saved_t_v7_OFFSET,${0:B}\0A\09.type\09___callee_saved_t_v7_OFFSET,%object", "n"(i32 -25) #32, !dbg !4150, !srcloc !4151
  tail call void asm sideeffect ".globl\09___callee_saved_t_v8_OFFSET\0A\09.equ\09___callee_saved_t_v8_OFFSET,${0:B}\0A\09.type\09___callee_saved_t_v8_OFFSET,%object", "n"(i32 -29) #32, !dbg !4152, !srcloc !4153
  tail call void asm sideeffect ".globl\09___callee_saved_t_psp_OFFSET\0A\09.equ\09___callee_saved_t_psp_OFFSET,${0:B}\0A\09.type\09___callee_saved_t_psp_OFFSET,%object", "n"(i32 -33) #32, !dbg !4154, !srcloc !4155
  tail call void asm sideeffect ".globl\09___callee_saved_t_SIZEOF\0A\09.equ\09___callee_saved_t_SIZEOF,${0:B}\0A\09.type\09___callee_saved_t_SIZEOF,%object", "n"(i32 -37) #32, !dbg !4156, !srcloc !4157
  tail call void asm sideeffect ".globl\09_K_THREAD_NO_FLOAT_SIZEOF\0A\09.equ\09_K_THREAD_NO_FLOAT_SIZEOF,${0:B}\0A\09.type\09_K_THREAD_NO_FLOAT_SIZEOF,%object", "n"(i32 -113) #32, !dbg !4158, !srcloc !4159
  ret void, !dbg !4160
}

; Function Attrs: mustprogress noinline nounwind optsize
define dso_local noundef i32 @_ZN13cpp_semaphore4waitEv(%class.cpp_semaphore* noundef nonnull align 4 dereferenceable(20) %0) unnamed_addr #2 align 2 !dbg !4163 {
  call void @llvm.dbg.value(metadata %class.cpp_semaphore* %0, metadata !4165, metadata !DIExpression()), !dbg !4167
  %2 = getelementptr inbounds %class.cpp_semaphore, %class.cpp_semaphore* %0, i32 0, i32 1, !dbg !4168
  %3 = tail call fastcc noundef i32 @_ZL10k_sem_takeP5k_sem11k_timeout_t(%struct.k_sem* noundef nonnull %2, [1 x i64] [i64 -1]) #33, !dbg !4169
  ret i32 1, !dbg !4170
}

; Function Attrs: mustprogress noinline nounwind optsize
define dso_local noundef i32 @_ZN13cpp_semaphore4waitEi(%class.cpp_semaphore* noundef nonnull align 4 dereferenceable(20) %0, i32 noundef %1) unnamed_addr #2 align 2 !dbg !4171 {
  call void @llvm.dbg.value(metadata %class.cpp_semaphore* %0, metadata !4173, metadata !DIExpression()), !dbg !4175
  call void @llvm.dbg.value(metadata i32 %1, metadata !4174, metadata !DIExpression()), !dbg !4175
  %3 = getelementptr inbounds %class.cpp_semaphore, %class.cpp_semaphore* %0, i32 0, i32 1, !dbg !4176
  %4 = icmp sgt i32 %1, 0, !dbg !4177
  %5 = select i1 %4, i32 %1, i32 0, !dbg !4177
  %6 = zext i32 %5 to i64, !dbg !4177
  %7 = tail call fastcc noundef i64 @_ZL20k_ms_to_ticks_ceil64y(i64 noundef %6) #33, !dbg !4177, !range !4178
  %8 = insertvalue [1 x i64] poison, i64 %7, 0, !dbg !4179
  %9 = tail call fastcc noundef i32 @_ZL10k_sem_takeP5k_sem11k_timeout_t(%struct.k_sem* noundef nonnull %3, [1 x i64] %8) #33, !dbg !4179
  ret i32 %9, !dbg !4180
}

; Function Attrs: mustprogress noinline nounwind optsize
define dso_local void @_ZN13cpp_semaphore4giveEv(%class.cpp_semaphore* noundef nonnull align 4 dereferenceable(20) %0) unnamed_addr #2 align 2 !dbg !4181 {
  call void @llvm.dbg.value(metadata %class.cpp_semaphore* %0, metadata !4183, metadata !DIExpression()), !dbg !4184
  %2 = getelementptr inbounds %class.cpp_semaphore, %class.cpp_semaphore* %0, i32 0, i32 1, !dbg !4185
  tail call fastcc void @_ZL10k_sem_giveP5k_sem(%struct.k_sem* noundef nonnull %2) #33, !dbg !4186
  ret void, !dbg !4187
}

; Function Attrs: noinline nounwind optsize
define linkonce_odr dso_local noundef %class.cpp_semaphore* @_ZN13cpp_semaphoreD2Ev(%class.cpp_semaphore* noundef nonnull returned align 4 dereferenceable(20) %0) unnamed_addr #3 comdat align 2 !dbg !4188 {
  call void @llvm.dbg.value(metadata %class.cpp_semaphore* %0, metadata !4190, metadata !DIExpression()), !dbg !4191
  ret %class.cpp_semaphore* %0, !dbg !4192
}

; Function Attrs: noinline nounwind optsize
define linkonce_odr dso_local void @_ZN13cpp_semaphoreD0Ev(%class.cpp_semaphore* noundef nonnull align 4 dereferenceable(20) %0) unnamed_addr #3 comdat align 2 !dbg !4193 {
  call void @llvm.dbg.value(metadata %class.cpp_semaphore* %0, metadata !4195, metadata !DIExpression()), !dbg !4196
  %2 = tail call noundef %class.cpp_semaphore* @_ZN13cpp_semaphoreD2Ev(%class.cpp_semaphore* noundef nonnull align 4 dereferenceable(20) %0) #34, !dbg !4197
  %3 = bitcast %class.cpp_semaphore* %0 to i8*, !dbg !4197
  tail call void @_ZdlPv(i8* noundef nonnull %3) #35, !dbg !4197
  ret void, !dbg !4198
}

; Function Attrs: nofree nosync nounwind readnone speculatable willreturn
declare void @llvm.dbg.value(metadata, metadata, metadata) #4

; Function Attrs: mustprogress noinline nounwind optsize
define internal fastcc void @_ZL10k_sem_giveP5k_sem(%struct.k_sem* noundef %0) unnamed_addr #2 !dbg !4199 {
  call void @llvm.dbg.value(metadata %struct.k_sem* %0, metadata !4205, metadata !DIExpression()), !dbg !4206
  tail call void asm sideeffect "", "~{memory}"() #32, !dbg !4207, !srcloc !4209
  tail call void @z_impl_k_sem_give(%struct.k_sem* noundef %0) #34, !dbg !4210
  ret void, !dbg !4211
}

; Function Attrs: mustprogress nofree noinline norecurse nosync nounwind optsize readnone willreturn
define internal fastcc noundef i64 @_ZL20k_ms_to_ticks_ceil64y(i64 noundef %0) unnamed_addr #5 !dbg !4212 {
  call void @llvm.dbg.value(metadata i64 %0, metadata !4217, metadata !DIExpression()), !dbg !4218
  call void @llvm.dbg.value(metadata i64 %0, metadata !4219, metadata !DIExpression()), !dbg !4237
  call void @llvm.dbg.value(metadata i32 1000, metadata !4225, metadata !DIExpression()), !dbg !4237
  call void @llvm.dbg.value(metadata i32 10000, metadata !4226, metadata !DIExpression()), !dbg !4237
  call void @llvm.dbg.value(metadata i8 1, metadata !4227, metadata !DIExpression()), !dbg !4237
  call void @llvm.dbg.value(metadata i8 0, metadata !4228, metadata !DIExpression()), !dbg !4237
  call void @llvm.dbg.value(metadata i8 1, metadata !4229, metadata !DIExpression()), !dbg !4237
  call void @llvm.dbg.value(metadata i8 0, metadata !4230, metadata !DIExpression()), !dbg !4237
  call void @llvm.dbg.value(metadata i8 1, metadata !4231, metadata !DIExpression()), !dbg !4237
  call void @llvm.dbg.value(metadata i8 0, metadata !4232, metadata !DIExpression()), !dbg !4237
  call void @llvm.dbg.value(metadata i64 0, metadata !4233, metadata !DIExpression()), !dbg !4237
  call void @llvm.dbg.value(metadata i64 0, metadata !4233, metadata !DIExpression()), !dbg !4237
  %2 = mul i64 %0, 10, !dbg !4239
  ret i64 %2, !dbg !4245
}

; Function Attrs: mustprogress noinline nounwind optsize
define internal fastcc noundef i32 @_ZL10k_sem_takeP5k_sem11k_timeout_t(%struct.k_sem* noundef %0, [1 x i64] %1) unnamed_addr #2 !dbg !4246 {
  call void @llvm.dbg.value(metadata i64 undef, metadata !4255, metadata !DIExpression()), !dbg !4256
  call void @llvm.dbg.value(metadata %struct.k_sem* %0, metadata !4254, metadata !DIExpression()), !dbg !4256
  tail call void asm sideeffect "", "~{memory}"() #32, !dbg !4257, !srcloc !4259
  %3 = tail call i32 @z_impl_k_sem_take(%struct.k_sem* noundef %0, [1 x i64] %1) #34, !dbg !4260
  ret i32 %3, !dbg !4261
}

; Function Attrs: noinline nounwind optsize
define internal void @_GLOBAL__sub_I_main.cpp() #3 !dbg !4262 {
  tail call fastcc void @__cxx_global_var_init(), !dbg !4264
  tail call fastcc void @__cxx_global_var_init.1(), !dbg !4264
  ret void
}

; Function Attrs: noinline nounwind optsize
define internal fastcc void @__cxx_global_var_init() unnamed_addr #3 !dbg !4265 {
  %1 = tail call noundef %class.cpp_semaphore* @_ZN13cpp_semaphoreC2Ev(%class.cpp_semaphore* noundef nonnull align 4 dereferenceable(20) @sem_main) #33, !dbg !4266
  ret void, !dbg !4266
}

; Function Attrs: noinline nounwind optsize
define internal fastcc void @__cxx_global_var_init.1() unnamed_addr #3 !dbg !4267 {
  %1 = tail call noundef %class.cpp_semaphore* @_ZN13cpp_semaphoreC2Ev(%class.cpp_semaphore* noundef nonnull align 4 dereferenceable(20) @sem_coop) #33, !dbg !4268
  ret void, !dbg !4268
}

; Function Attrs: noinline nounwind optsize
define dso_local noundef nonnull %class.cpp_semaphore* @_ZN13cpp_semaphoreC2Ev(%class.cpp_semaphore* noundef nonnull returned align 4 dereferenceable(20) %0) unnamed_addr #3 align 2 !dbg !4269 {
  call void @llvm.dbg.value(metadata %class.cpp_semaphore* %0, metadata !4271, metadata !DIExpression()), !dbg !4272
  %2 = getelementptr inbounds %class.cpp_semaphore, %class.cpp_semaphore* %0, i32 0, i32 0, !dbg !4273
  %3 = tail call noundef %class.semaphore* @_ZN9semaphoreC2Ev(%class.semaphore* noundef nonnull align 4 dereferenceable(4) %2) #34, !dbg !4274
  %4 = getelementptr inbounds %class.cpp_semaphore, %class.cpp_semaphore* %0, i32 0, i32 0, i32 0, !dbg !4273
  store i32 (...)** bitcast (i8** getelementptr inbounds ({ [7 x i8*] }, { [7 x i8*] }* @_ZTV13cpp_semaphore, i32 0, inrange i32 0, i32 2) to i32 (...)**), i32 (...)*** %4, align 4, !dbg !4273
  tail call void (i8*, ...) @printk(i8* noundef getelementptr inbounds ([21 x i8], [21 x i8]* @.str, i32 0, i32 0), %class.cpp_semaphore* noundef nonnull %0) #34, !dbg !4275
  %5 = getelementptr inbounds %class.cpp_semaphore, %class.cpp_semaphore* %0, i32 0, i32 1, !dbg !4277
  tail call fastcc void @_ZL10k_sem_initP5k_semjj(%struct.k_sem* noundef nonnull %5) #33, !dbg !4278
  ret %class.cpp_semaphore* %0, !dbg !4279
}

; Function Attrs: noinline nounwind optsize
define linkonce_odr dso_local noundef %class.semaphore* @_ZN9semaphoreC2Ev(%class.semaphore* noundef nonnull returned align 4 dereferenceable(4) %0) unnamed_addr #3 comdat align 2 !dbg !4280 {
  call void @llvm.dbg.value(metadata %class.semaphore* %0, metadata !4283, metadata !DIExpression()), !dbg !4285
  %2 = getelementptr inbounds %class.semaphore, %class.semaphore* %0, i32 0, i32 0, !dbg !4286
  store i32 (...)** bitcast (i8** getelementptr inbounds ({ [5 x i8*] }, { [5 x i8*] }* @_ZTV9semaphore, i32 0, inrange i32 0, i32 2) to i32 (...)**), i32 (...)*** %2, align 4, !dbg !4286
  ret %class.semaphore* %0, !dbg !4286
}

; Function Attrs: mustprogress noinline nounwind optsize
define internal fastcc void @_ZL10k_sem_initP5k_semjj(%struct.k_sem* noundef %0) unnamed_addr #2 !dbg !4287 {
  call void @llvm.dbg.value(metadata %struct.k_sem* %0, metadata !4291, metadata !DIExpression()), !dbg !4294
  call void @llvm.dbg.value(metadata i32 0, metadata !4292, metadata !DIExpression()), !dbg !4294
  call void @llvm.dbg.value(metadata i32 -1, metadata !4293, metadata !DIExpression()), !dbg !4294
  tail call void asm sideeffect "", "~{memory}"() #32, !dbg !4295, !srcloc !4297
  %2 = tail call i32 @z_impl_k_sem_init(%struct.k_sem* noundef %0, i32 noundef 0, i32 noundef -1) #34, !dbg !4298
  ret void, !dbg !4299
}

declare dso_local void @__cxa_pure_virtual() unnamed_addr

; Function Attrs: mustprogress noinline noreturn nounwind optsize
define dso_local void @_Z17coop_thread_entryv() #6 !dbg !4300 {
  %1 = alloca %struct.k_timer, align 8
  %2 = bitcast %struct.k_timer* %1 to i8*, !dbg !4316
  call void @llvm.lifetime.start.p0i8(i64 56, i8* nonnull %2) #32, !dbg !4316
  call void @llvm.dbg.declare(metadata %struct.k_timer* %1, metadata !4302, metadata !DIExpression()), !dbg !4317
  call void @k_timer_init(%struct.k_timer* noundef nonnull %1, void (%struct.k_timer*)* noundef null, void (%struct.k_timer*)* noundef null) #34, !dbg !4318
  br label %3, !dbg !4319

3:                                                ; preds = %3, %0
  %4 = call noundef i32 @_ZN13cpp_semaphore4waitEv(%class.cpp_semaphore* noundef nonnull align 4 dereferenceable(20) @sem_coop) #33, !dbg !4320
  call void (i8*, ...) @printk(i8* noundef getelementptr inbounds ([18 x i8], [18 x i8]* @.str.2, i32 0, i32 0), i8* noundef getelementptr inbounds ([18 x i8], [18 x i8]* @__FUNCTION__._Z17coop_thread_entryv, i32 0, i32 0)) #34, !dbg !4322
  %5 = call fastcc noundef i64 @_ZL20k_ms_to_ticks_ceil64y(i64 noundef 500) #33, !dbg !4323, !range !4178
  %6 = insertvalue [1 x i64] poison, i64 %5, 0, !dbg !4324
  call fastcc void @_ZL13k_timer_startP7k_timer11k_timeout_tS1_(%struct.k_timer* noundef nonnull %1, [1 x i64] %6) #33, !dbg !4324
  call fastcc void @_ZL19k_timer_status_syncP7k_timer(%struct.k_timer* noundef nonnull %1) #33, !dbg !4325
  call void @_ZN13cpp_semaphore4giveEv(%class.cpp_semaphore* noundef nonnull align 4 dereferenceable(20) @sem_main) #33, !dbg !4326
  br label %3, !dbg !4319, !llvm.loop !4327
}

; Function Attrs: argmemonly nofree nosync nounwind willreturn
declare void @llvm.lifetime.start.p0i8(i64 immarg, i8* nocapture) #7

; Function Attrs: nofree nosync nounwind readnone speculatable willreturn
declare void @llvm.dbg.declare(metadata, metadata, metadata) #4

; Function Attrs: mustprogress noinline nounwind optsize
define internal fastcc void @_ZL13k_timer_startP7k_timer11k_timeout_tS1_(%struct.k_timer* noundef %0, [1 x i64] %1) unnamed_addr #2 !dbg !4330 {
  call void @llvm.dbg.value(metadata i64 undef, metadata !4335, metadata !DIExpression()), !dbg !4337
  call void @llvm.dbg.value(metadata i64 undef, metadata !4336, metadata !DIExpression()), !dbg !4337
  call void @llvm.dbg.value(metadata %struct.k_timer* %0, metadata !4334, metadata !DIExpression()), !dbg !4337
  tail call void asm sideeffect "", "~{memory}"() #32, !dbg !4338, !srcloc !4340
  tail call void @z_impl_k_timer_start(%struct.k_timer* noundef %0, [1 x i64] %1, [1 x i64] zeroinitializer) #34, !dbg !4341
  ret void, !dbg !4342
}

; Function Attrs: mustprogress noinline nounwind optsize
define internal fastcc void @_ZL19k_timer_status_syncP7k_timer(%struct.k_timer* noundef %0) unnamed_addr #2 !dbg !4343 {
  call void @llvm.dbg.value(metadata %struct.k_timer* %0, metadata !4347, metadata !DIExpression()), !dbg !4348
  tail call void asm sideeffect "", "~{memory}"() #32, !dbg !4349, !srcloc !4351
  %2 = tail call i32 @z_impl_k_timer_status_sync(%struct.k_timer* noundef %0) #34, !dbg !4352
  ret void, !dbg !4353
}

; Function Attrs: mustprogress noinline norecurse noreturn nounwind optsize
define dso_local noundef i32 @main() local_unnamed_addr #8 !dbg !4354 {
  %1 = alloca %struct.k_timer, align 8
  %2 = bitcast %struct.k_timer* %1 to i8*, !dbg !4357
  call void @llvm.lifetime.start.p0i8(i64 56, i8* nonnull %2) #32, !dbg !4357
  call void @llvm.dbg.declare(metadata %struct.k_timer* %1, metadata !4356, metadata !DIExpression()), !dbg !4358
  tail call fastcc void @_ZL15k_thread_createP8k_threadP22z_thread_stack_elementjPFvPvS3_S3_ES3_S3_S3_ij11k_timeout_t() #33, !dbg !4359
  call void @k_timer_init(%struct.k_timer* noundef nonnull %1, void (%struct.k_timer*)* noundef null, void (%struct.k_timer*)* noundef null) #34, !dbg !4360
  br label %3, !dbg !4361

3:                                                ; preds = %3, %0
  call void (i8*, ...) @printk(i8* noundef getelementptr inbounds ([18 x i8], [18 x i8]* @.str.2, i32 0, i32 0), i8* noundef getelementptr inbounds ([5 x i8], [5 x i8]* @__FUNCTION__.main, i32 0, i32 0)) #34, !dbg !4362
  %4 = call fastcc noundef i64 @_ZL20k_ms_to_ticks_ceil64y(i64 noundef 500) #33, !dbg !4364, !range !4178
  %5 = insertvalue [1 x i64] poison, i64 %4, 0, !dbg !4365
  call fastcc void @_ZL13k_timer_startP7k_timer11k_timeout_tS1_(%struct.k_timer* noundef nonnull %1, [1 x i64] %5) #33, !dbg !4365
  call fastcc void @_ZL19k_timer_status_syncP7k_timer(%struct.k_timer* noundef nonnull %1) #33, !dbg !4366
  call void @_ZN13cpp_semaphore4giveEv(%class.cpp_semaphore* noundef nonnull align 4 dereferenceable(20) @sem_coop) #33, !dbg !4367
  %6 = call noundef i32 @_ZN13cpp_semaphore4waitEv(%class.cpp_semaphore* noundef nonnull align 4 dereferenceable(20) @sem_main) #33, !dbg !4368
  br label %3, !dbg !4361, !llvm.loop !4369
}

; Function Attrs: mustprogress noinline norecurse nounwind optsize
define internal fastcc void @_ZL15k_thread_createP8k_threadP22z_thread_stack_elementjPFvPvS3_S3_ES3_S3_S3_ij11k_timeout_t() unnamed_addr #9 !dbg !4371 {
  call void @llvm.dbg.value(metadata i64 undef, metadata !4388, metadata !DIExpression()), !dbg !4389
  call void @llvm.dbg.value(metadata %struct.k_thread* @coop_thread, metadata !4379, metadata !DIExpression()), !dbg !4389
  call void @llvm.dbg.value(metadata %struct.k_spinlock* getelementptr inbounds ([2000 x %struct.k_spinlock], [2000 x %struct.k_spinlock]* @coop_stack, i32 0, i32 0), metadata !4380, metadata !DIExpression()), !dbg !4389
  call void @llvm.dbg.value(metadata i32 2000, metadata !4381, metadata !DIExpression()), !dbg !4389
  call void @llvm.dbg.value(metadata void (i8*, i8*, i8*)* bitcast (void ()* @_Z17coop_thread_entryv to void (i8*, i8*, i8*)*), metadata !4382, metadata !DIExpression()), !dbg !4389
  call void @llvm.dbg.value(metadata i8* null, metadata !4383, metadata !DIExpression()), !dbg !4389
  call void @llvm.dbg.value(metadata i8* null, metadata !4384, metadata !DIExpression()), !dbg !4389
  call void @llvm.dbg.value(metadata i8* null, metadata !4385, metadata !DIExpression()), !dbg !4389
  call void @llvm.dbg.value(metadata i32 -9, metadata !4386, metadata !DIExpression()), !dbg !4389
  call void @llvm.dbg.value(metadata i32 0, metadata !4387, metadata !DIExpression()), !dbg !4389
  tail call void asm sideeffect "", "~{memory}"() #32, !dbg !4390, !srcloc !4392
  %1 = tail call %struct.k_thread* @z_impl_k_thread_create(%struct.k_thread* noundef nonnull @coop_thread, %struct.k_spinlock* noundef getelementptr inbounds ([2000 x %struct.k_spinlock], [2000 x %struct.k_spinlock]* @coop_stack, i32 0, i32 0), i32 noundef 2000, void (i8*, i8*, i8*)* noundef bitcast (void ()* @_Z17coop_thread_entryv to void (i8*, i8*, i8*)*), i8* noundef null, i8* noundef null, i8* noundef null, i32 noundef -9, i32 noundef 0, [1 x i64] zeroinitializer) #34, !dbg !4393
  ret void, !dbg !4394
}

; Function Attrs: noinline nounwind optsize
define weak dso_local i32 @arch_printk_char_out(i32 noundef %0) #1 !dbg !4395 {
  call void @llvm.dbg.value(metadata i32 %0, metadata !4397, metadata !DIExpression()), !dbg !4398
  ret i32 0, !dbg !4399
}

; Function Attrs: mustprogress nofree noinline norecurse nosync nounwind optsize willreturn writeonly
define dso_local void @__printk_hook_install(i32 (i32)* noundef %0) local_unnamed_addr #10 !dbg !4400 {
  call void @llvm.dbg.value(metadata i32 (i32)* %0, metadata !4404, metadata !DIExpression()), !dbg !4405
  store i32 (i32)* %0, i32 (i32)** @_char_out, align 4, !dbg !4406
  ret void, !dbg !4407
}

; Function Attrs: mustprogress nofree noinline norecurse nosync nounwind optsize readonly willreturn
define dso_local i8* @__printk_get_hook() local_unnamed_addr #11 !dbg !4408 {
  %1 = load i8*, i8** bitcast (i32 (i32)** @_char_out to i8**), align 4, !dbg !4411
  ret i8* %1, !dbg !4412
}

; Function Attrs: noinline nounwind optsize
define dso_local void @vprintk(i8* noundef %0, [1 x i32] %1) local_unnamed_addr #1 !dbg !4413 {
  call void @llvm.dbg.value(metadata i32 undef, metadata !4425, metadata !DIExpression()), !dbg !4434
  call void @llvm.dbg.value(metadata i8* %0, metadata !4424, metadata !DIExpression()), !dbg !4434
  tail call fastcc void @cbvprintf(i32 (...)* noundef bitcast (i32 (i32, i8*)* @char_out to i32 (...)*), i8* noundef null, i8* noundef %0, [1 x i32] %1) #36, !dbg !4435
  ret void, !dbg !4437
}

; Function Attrs: noinline nounwind optsize
define internal i32 @char_out(i32 noundef %0, i8* nocapture noundef readnone %1) #1 !dbg !4438 {
  call void @llvm.dbg.value(metadata i32 %0, metadata !4442, metadata !DIExpression()), !dbg !4444
  call void @llvm.dbg.value(metadata i8* %1, metadata !4443, metadata !DIExpression()), !dbg !4444
  %3 = load i32 (i32)*, i32 (i32)** @_char_out, align 4, !dbg !4445
  %4 = tail call i32 %3(i32 noundef %0) #37, !dbg !4445
  ret i32 %4, !dbg !4446
}

; Function Attrs: noinline nounwind optsize
define internal fastcc void @cbvprintf(i32 (...)* noundef %0, i8* noundef %1, i8* noundef %2, [1 x i32] %3) unnamed_addr #1 !dbg !4447 {
  call void @llvm.dbg.value(metadata i32 undef, metadata !4459, metadata !DIExpression()), !dbg !4460
  call void @llvm.dbg.value(metadata i32 (...)* %0, metadata !4456, metadata !DIExpression()), !dbg !4460
  call void @llvm.dbg.value(metadata i8* %1, metadata !4457, metadata !DIExpression()), !dbg !4460
  call void @llvm.dbg.value(metadata i8* %2, metadata !4458, metadata !DIExpression()), !dbg !4460
  %5 = tail call i32 @z_cbvprintf_impl(i32 (...)* noundef %0, i8* noundef %1, i8* noundef %2, [1 x i32] %3, i32 noundef 0) #37, !dbg !4461
  ret void, !dbg !4462
}

; Function Attrs: noinline nounwind optsize
define dso_local void @z_impl_k_str_out(i8* nocapture noundef readonly %0, i32 noundef %1) local_unnamed_addr #1 !dbg !4463 {
  call void @llvm.dbg.value(metadata i8* %0, metadata !4467, metadata !DIExpression()), !dbg !4470
  call void @llvm.dbg.value(metadata i32 %1, metadata !4468, metadata !DIExpression()), !dbg !4470
  call void @llvm.dbg.value(metadata i32 0, metadata !4469, metadata !DIExpression()), !dbg !4470
  %3 = icmp eq i32 %1, 0, !dbg !4471
  br i1 %3, label %13, label %4, !dbg !4474

4:                                                ; preds = %2, %4
  %5 = phi i32 [ %11, %4 ], [ 0, %2 ]
  call void @llvm.dbg.value(metadata i32 %5, metadata !4469, metadata !DIExpression()), !dbg !4470
  %6 = load i32 (i32)*, i32 (i32)** @_char_out, align 4, !dbg !4475
  %7 = getelementptr inbounds i8, i8* %0, i32 %5, !dbg !4477
  %8 = load i8, i8* %7, align 1, !dbg !4477
  %9 = zext i8 %8 to i32, !dbg !4477
  %10 = tail call i32 %6(i32 noundef %9) #37, !dbg !4475
  %11 = add nuw i32 %5, 1, !dbg !4478
  call void @llvm.dbg.value(metadata i32 %11, metadata !4469, metadata !DIExpression()), !dbg !4470
  %12 = icmp eq i32 %11, %1, !dbg !4471
  br i1 %12, label %13, label %4, !dbg !4474, !llvm.loop !4479

13:                                               ; preds = %4, %2
  ret void, !dbg !4481
}

; Function Attrs: noinline nounwind optsize
define dso_local void @printk(i8* noundef %0, ...) local_unnamed_addr #1 !dbg !4482 {
  %2 = alloca %struct.__va_list, align 4
  call void @llvm.dbg.value(metadata i8* %0, metadata !4486, metadata !DIExpression()), !dbg !4488
  %3 = bitcast %struct.__va_list* %2 to i8*, !dbg !4489
  call void @llvm.lifetime.start.p0i8(i64 4, i8* nonnull %3) #32, !dbg !4489
  call void @llvm.dbg.declare(metadata %struct.__va_list* %2, metadata !4487, metadata !DIExpression()), !dbg !4490
  call void @llvm.va_start(i8* nonnull %3), !dbg !4491
  %4 = bitcast %struct.__va_list* %2 to i32*, !dbg !4492
  %5 = load i32, i32* %4, align 4, !dbg !4492
  %6 = insertvalue [1 x i32] poison, i32 %5, 0, !dbg !4492
  call void @vprintk(i8* noundef %0, [1 x i32] %6) #36, !dbg !4492
  call void @llvm.va_end(i8* nonnull %3), !dbg !4493
  call void @llvm.lifetime.end.p0i8(i64 4, i8* nonnull %3) #32, !dbg !4494
  ret void, !dbg !4494
}

; Function Attrs: nofree nosync nounwind willreturn
declare void @llvm.va_start(i8*) #12

; Function Attrs: nofree nosync nounwind willreturn
declare void @llvm.va_end(i8*) #12

; Function Attrs: argmemonly nofree nosync nounwind willreturn
declare void @llvm.lifetime.end.p0i8(i64 immarg, i8* nocapture) #7

; Function Attrs: noinline nounwind optsize
define dso_local i32 @snprintk(i8* noundef %0, i32 noundef %1, i8* noundef %2, ...) local_unnamed_addr #1 !dbg !4495 {
  %4 = alloca %struct.__va_list, align 4
  call void @llvm.dbg.value(metadata i8* %0, metadata !4499, metadata !DIExpression()), !dbg !4504
  call void @llvm.dbg.value(metadata i32 %1, metadata !4500, metadata !DIExpression()), !dbg !4504
  call void @llvm.dbg.value(metadata i8* %2, metadata !4501, metadata !DIExpression()), !dbg !4504
  %5 = bitcast %struct.__va_list* %4 to i8*, !dbg !4505
  call void @llvm.lifetime.start.p0i8(i64 4, i8* nonnull %5) #32, !dbg !4505
  call void @llvm.dbg.declare(metadata %struct.__va_list* %4, metadata !4502, metadata !DIExpression()), !dbg !4506
  call void @llvm.va_start(i8* nonnull %5), !dbg !4507
  %6 = bitcast %struct.__va_list* %4 to i32*, !dbg !4508
  %7 = load i32, i32* %6, align 4, !dbg !4508
  %8 = insertvalue [1 x i32] poison, i32 %7, 0, !dbg !4508
  %9 = call i32 @vsnprintk(i8* noundef %0, i32 noundef %1, i8* noundef %2, [1 x i32] %8) #36, !dbg !4508
  call void @llvm.dbg.value(metadata i32 %9, metadata !4503, metadata !DIExpression()), !dbg !4504
  call void @llvm.va_end(i8* nonnull %5), !dbg !4509
  call void @llvm.lifetime.end.p0i8(i64 4, i8* nonnull %5) #32, !dbg !4510
  ret i32 %9, !dbg !4511
}

; Function Attrs: noinline nounwind optsize
define dso_local i32 @vsnprintk(i8* noundef %0, i32 noundef %1, i8* noundef %2, [1 x i32] %3) local_unnamed_addr #1 !dbg !4512 {
  %5 = alloca %struct.str_context, align 4
  call void @llvm.dbg.value(metadata i32 undef, metadata !4519, metadata !DIExpression()), !dbg !4526
  call void @llvm.dbg.value(metadata i8* %0, metadata !4516, metadata !DIExpression()), !dbg !4526
  call void @llvm.dbg.value(metadata i32 %1, metadata !4517, metadata !DIExpression()), !dbg !4526
  call void @llvm.dbg.value(metadata i8* %2, metadata !4518, metadata !DIExpression()), !dbg !4526
  %6 = bitcast %struct.str_context* %5 to i8*, !dbg !4527
  call void @llvm.lifetime.start.p0i8(i64 12, i8* nonnull %6) #32, !dbg !4527
  call void @llvm.dbg.declare(metadata %struct.str_context* %5, metadata !4520, metadata !DIExpression()), !dbg !4528
  %7 = getelementptr inbounds %struct.str_context, %struct.str_context* %5, i32 0, i32 0, !dbg !4529
  store i8* %0, i8** %7, align 4, !dbg !4529
  %8 = getelementptr inbounds %struct.str_context, %struct.str_context* %5, i32 0, i32 1, !dbg !4529
  store i32 %1, i32* %8, align 4, !dbg !4529
  %9 = getelementptr inbounds %struct.str_context, %struct.str_context* %5, i32 0, i32 2, !dbg !4529
  store i32 0, i32* %9, align 4, !dbg !4529
  call fastcc void @cbvprintf(i32 (...)* noundef bitcast (i32 (i32, %struct.str_context*)* @str_out to i32 (...)*), i8* noundef nonnull %6, i8* noundef %2, [1 x i32] %3) #36, !dbg !4530
  %10 = load i32, i32* %9, align 4, !dbg !4531
  %11 = load i32, i32* %8, align 4, !dbg !4533
  %12 = icmp slt i32 %10, %11, !dbg !4534
  br i1 %12, label %13, label %15, !dbg !4535

13:                                               ; preds = %4
  %14 = getelementptr inbounds i8, i8* %0, i32 %10, !dbg !4536
  store i8 0, i8* %14, align 1, !dbg !4538
  br label %15, !dbg !4539

15:                                               ; preds = %13, %4
  call void @llvm.lifetime.end.p0i8(i64 12, i8* nonnull %6) #32, !dbg !4540
  ret i32 %10, !dbg !4541
}

; Function Attrs: mustprogress nofree noinline norecurse nosync nounwind optsize willreturn
define internal i32 @str_out(i32 noundef returned %0, %struct.str_context* nocapture noundef %1) #13 !dbg !4542 {
  call void @llvm.dbg.value(metadata i32 %0, metadata !4547, metadata !DIExpression()), !dbg !4549
  call void @llvm.dbg.value(metadata %struct.str_context* %1, metadata !4548, metadata !DIExpression()), !dbg !4549
  %3 = getelementptr inbounds %struct.str_context, %struct.str_context* %1, i32 0, i32 0, !dbg !4550
  %4 = load i8*, i8** %3, align 4, !dbg !4550
  %5 = icmp eq i8* %4, null, !dbg !4552
  %6 = getelementptr inbounds %struct.str_context, %struct.str_context* %1, i32 0, i32 2
  %7 = load i32, i32* %6, align 4, !dbg !4553
  br i1 %5, label %12, label %8, !dbg !4554

8:                                                ; preds = %2
  %9 = getelementptr inbounds %struct.str_context, %struct.str_context* %1, i32 0, i32 1, !dbg !4555
  %10 = load i32, i32* %9, align 4, !dbg !4555
  %11 = icmp slt i32 %7, %10, !dbg !4556
  br i1 %11, label %15, label %12, !dbg !4557

12:                                               ; preds = %2, %8
  %13 = getelementptr inbounds %struct.str_context, %struct.str_context* %1, i32 0, i32 2, !dbg !4558
  %14 = add nsw i32 %7, 1, !dbg !4560
  store i32 %14, i32* %13, align 4, !dbg !4560
  br label %25, !dbg !4561

15:                                               ; preds = %8
  %16 = add nsw i32 %10, -1, !dbg !4562
  %17 = icmp eq i32 %7, %16, !dbg !4564
  br i1 %17, label %18, label %21, !dbg !4565

18:                                               ; preds = %15
  %19 = add nsw i32 %7, 1, !dbg !4566
  store i32 %19, i32* %6, align 4, !dbg !4566
  %20 = getelementptr inbounds i8, i8* %4, i32 %7, !dbg !4568
  store i8 0, i8* %20, align 1, !dbg !4569
  br label %25, !dbg !4570

21:                                               ; preds = %15
  %22 = trunc i32 %0 to i8, !dbg !4571
  %23 = add nsw i32 %7, 1, !dbg !4573
  store i32 %23, i32* %6, align 4, !dbg !4573
  %24 = getelementptr inbounds i8, i8* %4, i32 %7, !dbg !4574
  store i8 %22, i8* %24, align 1, !dbg !4575
  br label %25

25:                                               ; preds = %18, %21, %12
  ret i32 %0, !dbg !4576
}

; Function Attrs: noinline noreturn nounwind optsize
define dso_local void @z_thread_entry(void (i8*, i8*, i8*)* nocapture noundef readonly %0, i8* noundef %1, i8* noundef %2, i8* noundef %3) #14 !dbg !4577 {
  call void @llvm.dbg.value(metadata void (i8*, i8*, i8*)* %0, metadata !4582, metadata !DIExpression()), !dbg !4586
  call void @llvm.dbg.value(metadata i8* %1, metadata !4583, metadata !DIExpression()), !dbg !4586
  call void @llvm.dbg.value(metadata i8* %2, metadata !4584, metadata !DIExpression()), !dbg !4586
  call void @llvm.dbg.value(metadata i8* %3, metadata !4585, metadata !DIExpression()), !dbg !4586
  tail call void %0(i8* noundef %1, i8* noundef %2, i8* noundef %3) #37, !dbg !4587
  %5 = tail call fastcc %struct.k_thread* @k_current_get() #38, !dbg !4588
  tail call fastcc void @k_thread_abort(%struct.k_thread* noundef %5) #36, !dbg !4589
  unreachable, !dbg !4590
}

; Function Attrs: mustprogress nofree noinline nosync nounwind optsize readnone willreturn
define internal fastcc %struct.k_thread* @k_current_get() unnamed_addr #15 !dbg !4591 {
  %1 = tail call fastcc %struct.k_thread* @z_current_get() #38, !dbg !4691
  ret %struct.k_thread* %1, !dbg !4692
}

; Function Attrs: noinline nounwind optsize
define internal fastcc void @k_thread_abort(%struct.k_thread* noundef %0) unnamed_addr #1 !dbg !4693 {
  call void @llvm.dbg.value(metadata %struct.k_thread* %0, metadata !4697, metadata !DIExpression()), !dbg !4698
  tail call void asm sideeffect "", "~{memory}"() #32, !dbg !4699, !srcloc !4701
  tail call void @z_impl_k_thread_abort(%struct.k_thread* noundef %0) #37, !dbg !4702
  ret void, !dbg !4703
}

; Function Attrs: mustprogress nofree noinline nosync nounwind optsize readnone willreturn
define internal fastcc %struct.k_thread* @z_current_get() unnamed_addr #15 !dbg !4704 {
  tail call void asm sideeffect "", "~{memory}"() #32, !dbg !4705, !srcloc !4707
  %1 = tail call %struct.k_thread* @z_impl_z_current_get() #37, !dbg !4708
  ret %struct.k_thread* %1, !dbg !4709
}

; Function Attrs: mustprogress nofree noinline nosync nounwind optsize willreturn
define dso_local void @sys_heap_free(%struct.sys_heap* nocapture noundef readonly %0, i8* noundef %1) local_unnamed_addr #16 !dbg !4710 {
  call void @llvm.dbg.value(metadata %struct.sys_heap* %0, metadata !4721, metadata !DIExpression()), !dbg !4725
  call void @llvm.dbg.value(metadata i8* %1, metadata !4722, metadata !DIExpression()), !dbg !4725
  %3 = icmp eq i8* %1, null, !dbg !4726
  br i1 %3, label %8, label %4, !dbg !4728

4:                                                ; preds = %2
  %5 = getelementptr inbounds %struct.sys_heap, %struct.sys_heap* %0, i32 0, i32 0, !dbg !4729
  %6 = load %struct.z_heap*, %struct.z_heap** %5, align 4, !dbg !4729
  call void @llvm.dbg.value(metadata %struct.z_heap* %6, metadata !4723, metadata !DIExpression()), !dbg !4725
  %7 = tail call fastcc i32 @mem_to_chunkid(%struct.z_heap* noundef %6, i8* noundef nonnull %1) #36, !dbg !4730, !range !4731
  call void @llvm.dbg.value(metadata i32 %7, metadata !4724, metadata !DIExpression()), !dbg !4725
  tail call fastcc void @set_chunk_used(%struct.z_heap* noundef %6, i32 noundef %7, i1 noundef zeroext false) #36, !dbg !4732
  tail call fastcc void @free_chunk(%struct.z_heap* noundef %6, i32 noundef %7) #36, !dbg !4733
  br label %8

8:                                                ; preds = %2, %4
  ret void, !dbg !4734
}

; Function Attrs: mustprogress nofree noinline norecurse nosync nounwind optsize readnone willreturn
define internal fastcc i32 @mem_to_chunkid(%struct.z_heap* noundef %0, i8* noundef %1) unnamed_addr #17 !dbg !4735 {
  call void @llvm.dbg.value(metadata %struct.z_heap* %0, metadata !4739, metadata !DIExpression()), !dbg !4743
  call void @llvm.dbg.value(metadata i8* %1, metadata !4740, metadata !DIExpression()), !dbg !4743
  call void @llvm.dbg.value(metadata i8* %1, metadata !4741, metadata !DIExpression()), !dbg !4743
  %3 = tail call fastcc %struct.chunk_unit_t* @chunk_buf(%struct.z_heap* noundef %0) #36, !dbg !4744
  call void @llvm.dbg.value(metadata %struct.chunk_unit_t* %3, metadata !4742, metadata !DIExpression()), !dbg !4743
  %4 = getelementptr inbounds i8, i8* %1, i32 -4, !dbg !4745
  %5 = ptrtoint i8* %4 to i32, !dbg !4746
  %6 = ptrtoint %struct.chunk_unit_t* %3 to i32, !dbg !4746
  %7 = sub i32 %5, %6, !dbg !4746
  %8 = lshr i32 %7, 3, !dbg !4747
  ret i32 %8, !dbg !4748
}

; Function Attrs: mustprogress nofree noinline norecurse nosync nounwind optsize willreturn
define internal fastcc void @set_chunk_used(%struct.z_heap* noundef %0, i32 noundef %1, i1 noundef zeroext %2) unnamed_addr #13 !dbg !4749 {
  call void @llvm.dbg.value(metadata %struct.z_heap* %0, metadata !4753, metadata !DIExpression()), !dbg !4758
  call void @llvm.dbg.value(metadata i32 %1, metadata !4754, metadata !DIExpression()), !dbg !4758
  call void @llvm.dbg.value(metadata i1 %2, metadata !4755, metadata !DIExpression(DW_OP_LLVM_convert, 1, DW_ATE_unsigned, DW_OP_LLVM_convert, 8, DW_ATE_unsigned, DW_OP_stack_value)), !dbg !4758
  %4 = tail call fastcc %struct.chunk_unit_t* @chunk_buf(%struct.z_heap* noundef %0) #36, !dbg !4759
  call void @llvm.dbg.value(metadata %struct.chunk_unit_t* %4, metadata !4756, metadata !DIExpression()), !dbg !4758
  call void @llvm.dbg.value(metadata !DIArgList(%struct.chunk_unit_t* %4, i32 %1), metadata !4757, metadata !DIExpression(DW_OP_LLVM_arg, 0, DW_OP_LLVM_arg, 1, DW_OP_constu, 8, DW_OP_mul, DW_OP_plus, DW_OP_stack_value)), !dbg !4758
  %5 = getelementptr inbounds %struct.chunk_unit_t, %struct.chunk_unit_t* %4, i32 %1, i32 0, i32 2, !dbg !4760
  %6 = bitcast i8* %5 to i16*, !dbg !4760
  %7 = load i16, i16* %6, align 2, !dbg !4760
  %8 = and i16 %7, -2, !dbg !4764
  %9 = zext i1 %2 to i16, !dbg !4764
  %10 = or i16 %8, %9, !dbg !4764
  store i16 %10, i16* %6, align 2, !dbg !4760
  ret void, !dbg !4765
}

; Function Attrs: mustprogress nofree noinline nosync nounwind optsize willreturn
define internal fastcc void @free_chunk(%struct.z_heap* noundef %0, i32 noundef %1) unnamed_addr #16 !dbg !4766 {
  call void @llvm.dbg.value(metadata %struct.z_heap* %0, metadata !4770, metadata !DIExpression()), !dbg !4772
  call void @llvm.dbg.value(metadata i32 %1, metadata !4771, metadata !DIExpression()), !dbg !4772
  %3 = tail call fastcc i32 @right_chunk(%struct.z_heap* noundef %0, i32 noundef %1) #36, !dbg !4773
  %4 = tail call fastcc zeroext i1 @chunk_used(%struct.z_heap* noundef %0, i32 noundef %3) #36, !dbg !4775
  br i1 %4, label %7, label %5, !dbg !4776

5:                                                ; preds = %2
  tail call fastcc void @free_list_remove(%struct.z_heap* noundef %0, i32 noundef %3) #36, !dbg !4777
  %6 = tail call fastcc i32 @right_chunk(%struct.z_heap* noundef %0, i32 noundef %1) #36, !dbg !4779
  tail call fastcc void @merge_chunks(%struct.z_heap* noundef %0, i32 noundef %1, i32 noundef %6) #36, !dbg !4780
  br label %7, !dbg !4781

7:                                                ; preds = %5, %2
  %8 = tail call fastcc i32 @left_chunk(%struct.z_heap* noundef %0, i32 noundef %1) #36, !dbg !4782, !range !4784
  %9 = tail call fastcc zeroext i1 @chunk_used(%struct.z_heap* noundef %0, i32 noundef %8) #36, !dbg !4785
  br i1 %9, label %13, label %10, !dbg !4786

10:                                               ; preds = %7
  tail call fastcc void @free_list_remove(%struct.z_heap* noundef %0, i32 noundef %8) #36, !dbg !4787
  %11 = tail call fastcc i32 @left_chunk(%struct.z_heap* noundef %0, i32 noundef %1) #36, !dbg !4789, !range !4784
  tail call fastcc void @merge_chunks(%struct.z_heap* noundef %0, i32 noundef %11, i32 noundef %1) #36, !dbg !4790
  %12 = tail call fastcc i32 @left_chunk(%struct.z_heap* noundef %0, i32 noundef %1) #36, !dbg !4791
  call void @llvm.dbg.value(metadata i32 %12, metadata !4771, metadata !DIExpression()), !dbg !4772
  br label %13, !dbg !4792

13:                                               ; preds = %10, %7
  %14 = phi i32 [ %1, %7 ], [ %12, %10 ]
  call void @llvm.dbg.value(metadata i32 %14, metadata !4771, metadata !DIExpression()), !dbg !4772
  tail call fastcc void @free_list_add(%struct.z_heap* noundef %0, i32 noundef %14) #36, !dbg !4793
  ret void, !dbg !4794
}

; Function Attrs: mustprogress nofree noinline norecurse nosync nounwind optsize readonly willreturn
define internal fastcc i32 @right_chunk(%struct.z_heap* noundef %0, i32 noundef %1) unnamed_addr #11 !dbg !4795 {
  call void @llvm.dbg.value(metadata %struct.z_heap* %0, metadata !4799, metadata !DIExpression()), !dbg !4801
  call void @llvm.dbg.value(metadata i32 %1, metadata !4800, metadata !DIExpression()), !dbg !4801
  %3 = tail call fastcc i32 @chunk_size(%struct.z_heap* noundef %0, i32 noundef %1) #36, !dbg !4802
  %4 = add i32 %3, %1, !dbg !4803
  ret i32 %4, !dbg !4804
}

; Function Attrs: mustprogress nofree noinline norecurse nosync nounwind optsize readonly willreturn
define internal fastcc zeroext i1 @chunk_used(%struct.z_heap* noundef %0, i32 noundef %1) unnamed_addr #11 !dbg !4805 {
  call void @llvm.dbg.value(metadata %struct.z_heap* %0, metadata !4809, metadata !DIExpression()), !dbg !4811
  call void @llvm.dbg.value(metadata i32 %1, metadata !4810, metadata !DIExpression()), !dbg !4811
  %3 = tail call fastcc i32 @chunk_field(%struct.z_heap* noundef %0, i32 noundef %1, i32 noundef 1) #36, !dbg !4812
  %4 = and i32 %3, 1, !dbg !4813
  %5 = icmp ne i32 %4, 0, !dbg !4812
  ret i1 %5, !dbg !4814
}

; Function Attrs: mustprogress nofree noinline nosync nounwind optsize willreturn
define internal fastcc void @free_list_remove(%struct.z_heap* noundef %0, i32 noundef %1) unnamed_addr #16 !dbg !4815 {
  call void @llvm.dbg.value(metadata %struct.z_heap* %0, metadata !4817, metadata !DIExpression()), !dbg !4822
  call void @llvm.dbg.value(metadata i32 %1, metadata !4818, metadata !DIExpression()), !dbg !4822
  %3 = tail call fastcc i32 @chunk_size(%struct.z_heap* noundef %0, i32 noundef %1) #36, !dbg !4823, !range !4824
  %4 = tail call fastcc i32 @bucket_idx(%struct.z_heap* noundef %0, i32 noundef %3) #36, !dbg !4825
  call void @llvm.dbg.value(metadata i32 %4, metadata !4819, metadata !DIExpression()), !dbg !4826
  tail call fastcc void @free_list_remove_bidx(%struct.z_heap* noundef %0, i32 noundef %1, i32 noundef %4) #36, !dbg !4827
  ret void, !dbg !4828
}

; Function Attrs: mustprogress nofree noinline norecurse nosync nounwind optsize willreturn
define internal fastcc void @merge_chunks(%struct.z_heap* noundef %0, i32 noundef %1, i32 noundef %2) unnamed_addr #13 !dbg !4829 {
  call void @llvm.dbg.value(metadata %struct.z_heap* %0, metadata !4833, metadata !DIExpression()), !dbg !4838
  call void @llvm.dbg.value(metadata i32 %1, metadata !4834, metadata !DIExpression()), !dbg !4838
  call void @llvm.dbg.value(metadata i32 %2, metadata !4835, metadata !DIExpression()), !dbg !4838
  %4 = tail call fastcc i32 @chunk_size(%struct.z_heap* noundef %0, i32 noundef %1) #36, !dbg !4839
  %5 = tail call fastcc i32 @chunk_size(%struct.z_heap* noundef %0, i32 noundef %2) #36, !dbg !4840
  %6 = add i32 %5, %4, !dbg !4841
  call void @llvm.dbg.value(metadata i32 %6, metadata !4836, metadata !DIExpression()), !dbg !4838
  tail call fastcc void @set_chunk_size(%struct.z_heap* noundef %0, i32 noundef %1, i32 noundef %6) #36, !dbg !4842
  %7 = tail call fastcc i32 @right_chunk(%struct.z_heap* noundef %0, i32 noundef %2) #36, !dbg !4843
  tail call fastcc void @set_left_chunk_size(%struct.z_heap* noundef %0, i32 noundef %7, i32 noundef %6) #36, !dbg !4844
  ret void, !dbg !4845
}

; Function Attrs: mustprogress nofree noinline norecurse nosync nounwind optsize readonly willreturn
define internal fastcc i32 @left_chunk(%struct.z_heap* noundef %0, i32 noundef %1) unnamed_addr #11 !dbg !4846 {
  call void @llvm.dbg.value(metadata %struct.z_heap* %0, metadata !4848, metadata !DIExpression()), !dbg !4850
  call void @llvm.dbg.value(metadata i32 %1, metadata !4849, metadata !DIExpression()), !dbg !4850
  %3 = tail call fastcc i32 @chunk_field(%struct.z_heap* noundef %0, i32 noundef %1, i32 noundef 0) #36, !dbg !4851
  %4 = sub i32 %1, %3, !dbg !4852
  ret i32 %4, !dbg !4853
}

; Function Attrs: mustprogress nofree noinline nosync nounwind optsize willreturn
define internal fastcc void @free_list_add(%struct.z_heap* noundef %0, i32 noundef %1) unnamed_addr #16 !dbg !4854 {
  call void @llvm.dbg.value(metadata %struct.z_heap* %0, metadata !4856, metadata !DIExpression()), !dbg !4861
  call void @llvm.dbg.value(metadata i32 %1, metadata !4857, metadata !DIExpression()), !dbg !4861
  %3 = tail call fastcc i32 @chunk_size(%struct.z_heap* noundef %0, i32 noundef %1) #36, !dbg !4862, !range !4824
  %4 = tail call fastcc i32 @bucket_idx(%struct.z_heap* noundef %0, i32 noundef %3) #36, !dbg !4863
  call void @llvm.dbg.value(metadata i32 %4, metadata !4858, metadata !DIExpression()), !dbg !4864
  tail call fastcc void @free_list_add_bidx(%struct.z_heap* noundef %0, i32 noundef %1, i32 noundef %4) #36, !dbg !4865
  ret void, !dbg !4866
}

; Function Attrs: mustprogress nofree noinline norecurse nosync nounwind optsize readonly willreturn
define internal fastcc i32 @chunk_size(%struct.z_heap* noundef %0, i32 noundef %1) unnamed_addr #11 !dbg !4867 {
  call void @llvm.dbg.value(metadata %struct.z_heap* %0, metadata !4871, metadata !DIExpression()), !dbg !4873
  call void @llvm.dbg.value(metadata i32 %1, metadata !4872, metadata !DIExpression()), !dbg !4873
  %3 = tail call fastcc i32 @chunk_field(%struct.z_heap* noundef %0, i32 noundef %1, i32 noundef 1) #36, !dbg !4874
  %4 = lshr i32 %3, 1, !dbg !4875
  ret i32 %4, !dbg !4876
}

; Function Attrs: mustprogress nofree noinline nosync nounwind optsize readnone willreturn
define internal fastcc i32 @bucket_idx(%struct.z_heap* nocapture noundef readnone %0, i32 noundef %1) unnamed_addr #15 !dbg !4877 {
  call void @llvm.dbg.value(metadata %struct.z_heap* %0, metadata !4881, metadata !DIExpression()), !dbg !4884
  call void @llvm.dbg.value(metadata i32 %1, metadata !4882, metadata !DIExpression()), !dbg !4884
  %3 = tail call fastcc i32 @min_chunk_size(%struct.z_heap* noundef %0) #36, !dbg !4885
  %4 = add i32 %1, 1, !dbg !4886
  %5 = sub i32 %4, %3, !dbg !4887
  call void @llvm.dbg.value(metadata i32 %5, metadata !4883, metadata !DIExpression()), !dbg !4884
  %6 = tail call i32 @llvm.ctlz.i32(i32 %5, i1 false), !dbg !4888, !range !4889
  %7 = sub nsw i32 31, %6, !dbg !4890
  ret i32 %7, !dbg !4891
}

; Function Attrs: mustprogress nofree noinline norecurse nosync nounwind optsize willreturn
define internal fastcc void @free_list_add_bidx(%struct.z_heap* noundef %0, i32 noundef %1, i32 noundef %2) unnamed_addr #13 !dbg !4892 {
  call void @llvm.dbg.value(metadata %struct.z_heap* %0, metadata !4896, metadata !DIExpression()), !dbg !4905
  call void @llvm.dbg.value(metadata i32 %1, metadata !4897, metadata !DIExpression()), !dbg !4905
  call void @llvm.dbg.value(metadata i32 %2, metadata !4898, metadata !DIExpression()), !dbg !4905
  call void @llvm.dbg.value(metadata !DIArgList(%struct.z_heap* %0, i32 %2), metadata !4899, metadata !DIExpression(DW_OP_LLVM_arg, 0, DW_OP_LLVM_arg, 1, DW_OP_constu, 4, DW_OP_mul, DW_OP_plus, DW_OP_plus_uconst, 16, DW_OP_stack_value)), !dbg !4905
  %4 = getelementptr inbounds %struct.z_heap, %struct.z_heap* %0, i32 0, i32 3, i32 %2, i32 0, !dbg !4906
  %5 = load i32, i32* %4, align 4, !dbg !4906
  %6 = icmp eq i32 %5, 0, !dbg !4907
  br i1 %6, label %7, label %12, !dbg !4908

7:                                                ; preds = %3
  %8 = shl nuw i32 1, %2, !dbg !4909
  %9 = getelementptr inbounds %struct.z_heap, %struct.z_heap* %0, i32 0, i32 2, !dbg !4911
  %10 = load i32, i32* %9, align 4, !dbg !4912
  %11 = or i32 %10, %8, !dbg !4912
  store i32 %11, i32* %9, align 4, !dbg !4912
  store i32 %1, i32* %4, align 4, !dbg !4913
  tail call fastcc void @set_prev_free_chunk(%struct.z_heap* noundef nonnull %0, i32 noundef %1, i32 noundef %1) #36, !dbg !4914
  tail call fastcc void @set_next_free_chunk(%struct.z_heap* noundef nonnull %0, i32 noundef %1, i32 noundef %1) #36, !dbg !4915
  br label %14, !dbg !4916

12:                                               ; preds = %3
  call void @llvm.dbg.value(metadata i32 %5, metadata !4901, metadata !DIExpression()), !dbg !4917
  %13 = tail call fastcc i32 @prev_free_chunk(%struct.z_heap* noundef nonnull %0, i32 noundef %5) #36, !dbg !4918, !range !4919
  call void @llvm.dbg.value(metadata i32 %13, metadata !4904, metadata !DIExpression()), !dbg !4917
  tail call fastcc void @set_prev_free_chunk(%struct.z_heap* noundef nonnull %0, i32 noundef %1, i32 noundef %13) #36, !dbg !4920
  tail call fastcc void @set_next_free_chunk(%struct.z_heap* noundef nonnull %0, i32 noundef %1, i32 noundef %5) #36, !dbg !4921
  tail call fastcc void @set_next_free_chunk(%struct.z_heap* noundef nonnull %0, i32 noundef %13, i32 noundef %1) #36, !dbg !4922
  tail call fastcc void @set_prev_free_chunk(%struct.z_heap* noundef nonnull %0, i32 noundef %5, i32 noundef %1) #36, !dbg !4923
  br label %14

14:                                               ; preds = %12, %7
  ret void, !dbg !4924
}

; Function Attrs: mustprogress nofree noinline norecurse nosync nounwind optsize willreturn writeonly
define internal fastcc void @set_prev_free_chunk(%struct.z_heap* noundef %0, i32 noundef %1, i32 noundef %2) unnamed_addr #10 !dbg !4925 {
  call void @llvm.dbg.value(metadata %struct.z_heap* %0, metadata !4927, metadata !DIExpression()), !dbg !4930
  call void @llvm.dbg.value(metadata i32 %1, metadata !4928, metadata !DIExpression()), !dbg !4930
  call void @llvm.dbg.value(metadata i32 %2, metadata !4929, metadata !DIExpression()), !dbg !4930
  tail call fastcc void @chunk_set(%struct.z_heap* noundef %0, i32 noundef %1, i32 noundef 2, i32 noundef %2) #36, !dbg !4931
  ret void, !dbg !4932
}

; Function Attrs: mustprogress nofree noinline norecurse nosync nounwind optsize willreturn writeonly
define internal fastcc void @set_next_free_chunk(%struct.z_heap* noundef %0, i32 noundef %1, i32 noundef %2) unnamed_addr #10 !dbg !4933 {
  call void @llvm.dbg.value(metadata %struct.z_heap* %0, metadata !4935, metadata !DIExpression()), !dbg !4938
  call void @llvm.dbg.value(metadata i32 %1, metadata !4936, metadata !DIExpression()), !dbg !4938
  call void @llvm.dbg.value(metadata i32 %2, metadata !4937, metadata !DIExpression()), !dbg !4938
  tail call fastcc void @chunk_set(%struct.z_heap* noundef %0, i32 noundef %1, i32 noundef 3, i32 noundef %2) #36, !dbg !4939
  ret void, !dbg !4940
}

; Function Attrs: mustprogress nofree noinline norecurse nosync nounwind optsize readonly willreturn
define internal fastcc i32 @prev_free_chunk(%struct.z_heap* noundef readonly %0, i32 noundef %1) unnamed_addr #11 !dbg !4941 {
  call void @llvm.dbg.value(metadata %struct.z_heap* %0, metadata !4943, metadata !DIExpression()), !dbg !4945
  call void @llvm.dbg.value(metadata i32 %1, metadata !4944, metadata !DIExpression()), !dbg !4945
  %3 = tail call fastcc i32 @chunk_field(%struct.z_heap* noundef %0, i32 noundef %1, i32 noundef 2) #36, !dbg !4946
  ret i32 %3, !dbg !4947
}

; Function Attrs: mustprogress nofree noinline norecurse nosync nounwind optsize readonly willreturn
define internal fastcc i32 @chunk_field(%struct.z_heap* noundef readonly %0, i32 noundef %1, i32 noundef %2) unnamed_addr #11 !dbg !4948 {
  call void @llvm.dbg.value(metadata %struct.z_heap* %0, metadata !4952, metadata !DIExpression()), !dbg !4957
  call void @llvm.dbg.value(metadata i32 %1, metadata !4953, metadata !DIExpression()), !dbg !4957
  call void @llvm.dbg.value(metadata i32 %2, metadata !4954, metadata !DIExpression()), !dbg !4957
  %4 = tail call fastcc %struct.chunk_unit_t* @chunk_buf(%struct.z_heap* noundef %0) #36, !dbg !4958
  call void @llvm.dbg.value(metadata %struct.chunk_unit_t* %4, metadata !4955, metadata !DIExpression()), !dbg !4957
  call void @llvm.dbg.value(metadata !DIArgList(%struct.chunk_unit_t* %4, i32 %1), metadata !4956, metadata !DIExpression(DW_OP_LLVM_arg, 0, DW_OP_LLVM_arg, 1, DW_OP_constu, 8, DW_OP_mul, DW_OP_plus, DW_OP_stack_value)), !dbg !4957
  call void @llvm.dbg.value(metadata !DIArgList(%struct.chunk_unit_t* %4, i32 %1), metadata !4956, metadata !DIExpression(DW_OP_LLVM_arg, 0, DW_OP_LLVM_arg, 1, DW_OP_constu, 8, DW_OP_mul, DW_OP_plus, DW_OP_stack_value)), !dbg !4957
  %5 = getelementptr inbounds %struct.chunk_unit_t, %struct.chunk_unit_t* %4, i32 %1, i32 0, i32 0, !dbg !4959
  call void @llvm.dbg.value(metadata i8* %5, metadata !4956, metadata !DIExpression()), !dbg !4957
  %6 = bitcast i8* %5 to i16*, !dbg !4960
  %7 = getelementptr inbounds i16, i16* %6, i32 %2, !dbg !4963
  %8 = load i16, i16* %7, align 2, !dbg !4963
  %9 = zext i16 %8 to i32, !dbg !4963
  ret i32 %9, !dbg !4964
}

; Function Attrs: mustprogress nofree noinline norecurse nosync nounwind optsize readnone willreturn
define internal fastcc %struct.chunk_unit_t* @chunk_buf(%struct.z_heap* noundef readnone %0) unnamed_addr #17 !dbg !4965 {
  call void @llvm.dbg.value(metadata %struct.z_heap* %0, metadata !4969, metadata !DIExpression()), !dbg !4970
  %2 = bitcast %struct.z_heap* %0 to %struct.chunk_unit_t*, !dbg !4971
  ret %struct.chunk_unit_t* %2, !dbg !4972
}

; Function Attrs: mustprogress nofree noinline norecurse nosync nounwind optsize willreturn writeonly
define internal fastcc void @chunk_set(%struct.z_heap* noundef writeonly %0, i32 noundef %1, i32 noundef %2, i32 noundef %3) unnamed_addr #10 !dbg !4973 {
  call void @llvm.dbg.value(metadata %struct.z_heap* %0, metadata !4977, metadata !DIExpression()), !dbg !4983
  call void @llvm.dbg.value(metadata i32 %1, metadata !4978, metadata !DIExpression()), !dbg !4983
  call void @llvm.dbg.value(metadata i32 %2, metadata !4979, metadata !DIExpression()), !dbg !4983
  call void @llvm.dbg.value(metadata i32 %3, metadata !4980, metadata !DIExpression()), !dbg !4983
  %5 = tail call fastcc %struct.chunk_unit_t* @chunk_buf(%struct.z_heap* noundef %0) #36, !dbg !4984
  call void @llvm.dbg.value(metadata %struct.chunk_unit_t* %5, metadata !4981, metadata !DIExpression()), !dbg !4983
  call void @llvm.dbg.value(metadata !DIArgList(%struct.chunk_unit_t* %5, i32 %1), metadata !4982, metadata !DIExpression(DW_OP_LLVM_arg, 0, DW_OP_LLVM_arg, 1, DW_OP_constu, 8, DW_OP_mul, DW_OP_plus, DW_OP_stack_value)), !dbg !4983
  %6 = getelementptr inbounds %struct.chunk_unit_t, %struct.chunk_unit_t* %5, i32 %1, i32 0, i32 0, !dbg !4985
  call void @llvm.dbg.value(metadata i8* %6, metadata !4982, metadata !DIExpression()), !dbg !4983
  %7 = trunc i32 %3 to i16, !dbg !4986
  %8 = bitcast i8* %6 to i16*, !dbg !4989
  %9 = getelementptr inbounds i16, i16* %8, i32 %2, !dbg !4990
  store i16 %7, i16* %9, align 2, !dbg !4991
  ret void, !dbg !4992
}

; Function Attrs: mustprogress nofree noinline norecurse nosync nounwind optsize readnone willreturn
define internal fastcc i32 @min_chunk_size(%struct.z_heap* nocapture noundef readnone %0) unnamed_addr #17 !dbg !4993 {
  call void @llvm.dbg.value(metadata %struct.z_heap* %0, metadata !4997, metadata !DIExpression()), !dbg !4998
  %2 = tail call fastcc i32 @bytes_to_chunksz(%struct.z_heap* noundef %0, i32 noundef 1) #36, !dbg !4999
  ret i32 %2, !dbg !5000
}

; Function Attrs: nofree nosync nounwind readnone speculatable willreturn
declare i32 @llvm.ctlz.i32(i32, i1 immarg) #4

; Function Attrs: mustprogress nofree noinline norecurse nosync nounwind optsize readnone willreturn
define internal fastcc i32 @bytes_to_chunksz(%struct.z_heap* nocapture noundef readnone %0, i32 noundef %1) unnamed_addr #17 !dbg !5001 {
  call void @llvm.dbg.value(metadata %struct.z_heap* %0, metadata !5005, metadata !DIExpression()), !dbg !5007
  call void @llvm.dbg.value(metadata i32 %1, metadata !5006, metadata !DIExpression()), !dbg !5007
  %3 = add i32 %1, 4, !dbg !5008
  %4 = tail call fastcc i32 @chunksz(i32 noundef %3) #36, !dbg !5009
  ret i32 %4, !dbg !5010
}

; Function Attrs: mustprogress nofree noinline norecurse nosync nounwind optsize readnone willreturn
define internal fastcc i32 @chunksz(i32 noundef %0) unnamed_addr #17 !dbg !5011 {
  call void @llvm.dbg.value(metadata i32 %0, metadata !5015, metadata !DIExpression()), !dbg !5016
  %2 = add i32 %0, 7, !dbg !5017
  %3 = lshr i32 %2, 3, !dbg !5018
  ret i32 %3, !dbg !5019
}

; Function Attrs: mustprogress nofree noinline norecurse nosync nounwind optsize willreturn writeonly
define internal fastcc void @set_chunk_size(%struct.z_heap* noundef %0, i32 noundef %1, i32 noundef %2) unnamed_addr #10 !dbg !5020 {
  call void @llvm.dbg.value(metadata %struct.z_heap* %0, metadata !5024, metadata !DIExpression()), !dbg !5027
  call void @llvm.dbg.value(metadata i32 %1, metadata !5025, metadata !DIExpression()), !dbg !5027
  call void @llvm.dbg.value(metadata i32 %2, metadata !5026, metadata !DIExpression()), !dbg !5027
  %4 = shl i32 %2, 1, !dbg !5028
  tail call fastcc void @chunk_set(%struct.z_heap* noundef %0, i32 noundef %1, i32 noundef 1, i32 noundef %4) #36, !dbg !5029
  ret void, !dbg !5030
}

; Function Attrs: mustprogress nofree noinline norecurse nosync nounwind optsize willreturn writeonly
define internal fastcc void @set_left_chunk_size(%struct.z_heap* noundef %0, i32 noundef %1, i32 noundef %2) unnamed_addr #10 !dbg !5031 {
  call void @llvm.dbg.value(metadata %struct.z_heap* %0, metadata !5033, metadata !DIExpression()), !dbg !5036
  call void @llvm.dbg.value(metadata i32 %1, metadata !5034, metadata !DIExpression()), !dbg !5036
  call void @llvm.dbg.value(metadata i32 %2, metadata !5035, metadata !DIExpression()), !dbg !5036
  tail call fastcc void @chunk_set(%struct.z_heap* noundef %0, i32 noundef %1, i32 noundef 0, i32 noundef %2) #36, !dbg !5037
  ret void, !dbg !5038
}

; Function Attrs: mustprogress nofree noinline norecurse nosync nounwind optsize willreturn
define internal fastcc void @free_list_remove_bidx(%struct.z_heap* noundef %0, i32 noundef %1, i32 noundef %2) unnamed_addr #13 !dbg !5039 {
  call void @llvm.dbg.value(metadata %struct.z_heap* %0, metadata !5041, metadata !DIExpression()), !dbg !5049
  call void @llvm.dbg.value(metadata i32 %1, metadata !5042, metadata !DIExpression()), !dbg !5049
  call void @llvm.dbg.value(metadata i32 %2, metadata !5043, metadata !DIExpression()), !dbg !5049
  %4 = getelementptr inbounds %struct.z_heap, %struct.z_heap* %0, i32 0, i32 3, i32 %2, !dbg !5050
  call void @llvm.dbg.value(metadata %struct.z_heap_bucket* %4, metadata !5044, metadata !DIExpression()), !dbg !5049
  %5 = tail call fastcc i32 @next_free_chunk(%struct.z_heap* noundef %0, i32 noundef %1) #36, !dbg !5051
  %6 = icmp eq i32 %5, %1, !dbg !5052
  br i1 %6, label %7, label %14, !dbg !5053

7:                                                ; preds = %3
  %8 = shl nuw i32 1, %2, !dbg !5054
  %9 = xor i32 %8, -1, !dbg !5056
  %10 = getelementptr inbounds %struct.z_heap, %struct.z_heap* %0, i32 0, i32 2, !dbg !5057
  %11 = load i32, i32* %10, align 4, !dbg !5058
  %12 = and i32 %11, %9, !dbg !5058
  store i32 %12, i32* %10, align 4, !dbg !5058
  %13 = getelementptr inbounds %struct.z_heap_bucket, %struct.z_heap_bucket* %4, i32 0, i32 0, !dbg !5059
  store i32 0, i32* %13, align 4, !dbg !5060
  br label %17, !dbg !5061

14:                                               ; preds = %3
  %15 = tail call fastcc i32 @prev_free_chunk(%struct.z_heap* noundef %0, i32 noundef %1) #36, !dbg !5062
  call void @llvm.dbg.value(metadata i32 %15, metadata !5045, metadata !DIExpression()), !dbg !5063
  call void @llvm.dbg.value(metadata i32 %5, metadata !5048, metadata !DIExpression()), !dbg !5063
  %16 = getelementptr inbounds %struct.z_heap_bucket, %struct.z_heap_bucket* %4, i32 0, i32 0, !dbg !5064
  store i32 %5, i32* %16, align 4, !dbg !5065
  tail call fastcc void @set_next_free_chunk(%struct.z_heap* noundef %0, i32 noundef %15, i32 noundef %5) #36, !dbg !5066
  tail call fastcc void @set_prev_free_chunk(%struct.z_heap* noundef %0, i32 noundef %5, i32 noundef %15) #36, !dbg !5067
  br label %17

17:                                               ; preds = %14, %7
  ret void, !dbg !5068
}

; Function Attrs: mustprogress nofree noinline norecurse nosync nounwind optsize readonly willreturn
define internal fastcc i32 @next_free_chunk(%struct.z_heap* noundef readonly %0, i32 noundef %1) unnamed_addr #11 !dbg !5069 {
  call void @llvm.dbg.value(metadata %struct.z_heap* %0, metadata !5071, metadata !DIExpression()), !dbg !5073
  call void @llvm.dbg.value(metadata i32 %1, metadata !5072, metadata !DIExpression()), !dbg !5073
  %3 = tail call fastcc i32 @chunk_field(%struct.z_heap* noundef %0, i32 noundef %1, i32 noundef 3) #36, !dbg !5074
  ret i32 %3, !dbg !5075
}

; Function Attrs: mustprogress nofree noinline norecurse nosync nounwind optsize readonly willreturn
define dso_local i32 @sys_heap_usable_size(%struct.sys_heap* nocapture noundef readonly %0, i8* noundef %1) local_unnamed_addr #11 !dbg !5076 {
  call void @llvm.dbg.value(metadata %struct.sys_heap* %0, metadata !5080, metadata !DIExpression()), !dbg !5087
  call void @llvm.dbg.value(metadata i8* %1, metadata !5081, metadata !DIExpression()), !dbg !5087
  %3 = getelementptr inbounds %struct.sys_heap, %struct.sys_heap* %0, i32 0, i32 0, !dbg !5088
  %4 = load %struct.z_heap*, %struct.z_heap** %3, align 4, !dbg !5088
  call void @llvm.dbg.value(metadata %struct.z_heap* %4, metadata !5082, metadata !DIExpression()), !dbg !5087
  %5 = tail call fastcc i32 @mem_to_chunkid(%struct.z_heap* noundef %4, i8* noundef %1) #36, !dbg !5089
  call void @llvm.dbg.value(metadata i32 %5, metadata !5083, metadata !DIExpression()), !dbg !5087
  %6 = ptrtoint i8* %1 to i32, !dbg !5090
  call void @llvm.dbg.value(metadata i32 %6, metadata !5084, metadata !DIExpression()), !dbg !5087
  %7 = tail call fastcc %struct.chunk_unit_t* @chunk_buf(%struct.z_heap* noundef %4) #36, !dbg !5091
  %8 = getelementptr inbounds %struct.chunk_unit_t, %struct.chunk_unit_t* %7, i32 %5, !dbg !5091
  %9 = ptrtoint %struct.chunk_unit_t* %8 to i32, !dbg !5092
  call void @llvm.dbg.value(metadata i32 %9, metadata !5085, metadata !DIExpression()), !dbg !5087
  %10 = tail call fastcc i32 @chunk_size(%struct.z_heap* noundef %4, i32 noundef %5) #36, !dbg !5093
  %11 = shl i32 %10, 3, !dbg !5094
  call void @llvm.dbg.value(metadata i32 %11, metadata !5086, metadata !DIExpression()), !dbg !5087
  %12 = sub i32 %9, %6, !dbg !5095
  %13 = add i32 %12, %11, !dbg !5096
  ret i32 %13, !dbg !5097
}

; Function Attrs: nofree noinline nosync nounwind optsize
define dso_local i8* @sys_heap_alloc(%struct.sys_heap* nocapture noundef readonly %0, i32 noundef %1) local_unnamed_addr #18 !dbg !5098 {
  call void @llvm.dbg.value(metadata %struct.sys_heap* %0, metadata !5102, metadata !DIExpression()), !dbg !5108
  call void @llvm.dbg.value(metadata i32 %1, metadata !5103, metadata !DIExpression()), !dbg !5108
  %3 = getelementptr inbounds %struct.sys_heap, %struct.sys_heap* %0, i32 0, i32 0, !dbg !5109
  %4 = load %struct.z_heap*, %struct.z_heap** %3, align 4, !dbg !5109
  call void @llvm.dbg.value(metadata %struct.z_heap* %4, metadata !5104, metadata !DIExpression()), !dbg !5108
  %5 = icmp eq i32 %1, 0, !dbg !5110
  br i1 %5, label %19, label %6, !dbg !5112

6:                                                ; preds = %2
  %7 = tail call fastcc zeroext i1 @size_too_big(%struct.z_heap* noundef %4, i32 noundef %1) #36, !dbg !5113
  br i1 %7, label %19, label %8, !dbg !5114

8:                                                ; preds = %6
  %9 = tail call fastcc i32 @bytes_to_chunksz(%struct.z_heap* noundef %4, i32 noundef %1) #36, !dbg !5115, !range !4731
  call void @llvm.dbg.value(metadata i32 %9, metadata !5106, metadata !DIExpression()), !dbg !5108
  %10 = tail call fastcc i32 @alloc_chunk(%struct.z_heap* noundef %4, i32 noundef %9) #36, !dbg !5116
  call void @llvm.dbg.value(metadata i32 %10, metadata !5107, metadata !DIExpression()), !dbg !5108
  %11 = icmp eq i32 %10, 0, !dbg !5117
  br i1 %11, label %19, label %12, !dbg !5119

12:                                               ; preds = %8
  %13 = tail call fastcc i32 @chunk_size(%struct.z_heap* noundef %4, i32 noundef %10) #36, !dbg !5120
  %14 = icmp ugt i32 %13, %9, !dbg !5122
  br i1 %14, label %15, label %17, !dbg !5123

15:                                               ; preds = %12
  %16 = add i32 %10, %9, !dbg !5124
  tail call fastcc void @split_chunks(%struct.z_heap* noundef %4, i32 noundef %10, i32 noundef %16) #36, !dbg !5126
  tail call fastcc void @free_list_add(%struct.z_heap* noundef %4, i32 noundef %16) #36, !dbg !5127
  br label %17, !dbg !5128

17:                                               ; preds = %15, %12
  tail call fastcc void @set_chunk_used(%struct.z_heap* noundef %4, i32 noundef %10, i1 noundef zeroext true) #36, !dbg !5129
  %18 = tail call fastcc i8* @chunk_mem(%struct.z_heap* noundef %4, i32 noundef %10) #36, !dbg !5130
  call void @llvm.dbg.value(metadata i8* %18, metadata !5105, metadata !DIExpression()), !dbg !5108
  br label %19, !dbg !5131

19:                                               ; preds = %17, %8, %2, %6
  %20 = phi i8* [ null, %6 ], [ null, %2 ], [ %18, %17 ], [ null, %8 ], !dbg !5108
  ret i8* %20, !dbg !5132
}

; Function Attrs: mustprogress nofree noinline norecurse nosync nounwind optsize readonly willreturn
define internal fastcc zeroext i1 @size_too_big(%struct.z_heap* nocapture noundef readonly %0, i32 noundef %1) unnamed_addr #11 !dbg !5133 {
  call void @llvm.dbg.value(metadata %struct.z_heap* %0, metadata !5137, metadata !DIExpression()), !dbg !5139
  call void @llvm.dbg.value(metadata i32 %1, metadata !5138, metadata !DIExpression()), !dbg !5139
  %3 = lshr i32 %1, 3, !dbg !5140
  %4 = getelementptr inbounds %struct.z_heap, %struct.z_heap* %0, i32 0, i32 1, !dbg !5141
  %5 = load i32, i32* %4, align 4, !dbg !5141
  %6 = icmp uge i32 %3, %5, !dbg !5142
  ret i1 %6, !dbg !5143
}

; Function Attrs: nofree noinline nosync nounwind optsize
define internal fastcc i32 @alloc_chunk(%struct.z_heap* noundef %0, i32 noundef %1) unnamed_addr #18 !dbg !5144 {
  call void @llvm.dbg.value(metadata %struct.z_heap* %0, metadata !5148, metadata !DIExpression()), !dbg !5163
  call void @llvm.dbg.value(metadata i32 %1, metadata !5149, metadata !DIExpression()), !dbg !5163
  %3 = tail call fastcc i32 @bucket_idx(%struct.z_heap* noundef %0, i32 noundef %1) #36, !dbg !5164
  call void @llvm.dbg.value(metadata i32 %3, metadata !5150, metadata !DIExpression()), !dbg !5163
  call void @llvm.dbg.value(metadata !DIArgList(%struct.z_heap* %0, i32 %3), metadata !5151, metadata !DIExpression(DW_OP_LLVM_arg, 0, DW_OP_LLVM_arg, 1, DW_OP_constu, 4, DW_OP_mul, DW_OP_plus, DW_OP_plus_uconst, 16, DW_OP_stack_value)), !dbg !5163
  %4 = getelementptr inbounds %struct.z_heap, %struct.z_heap* %0, i32 0, i32 3, i32 %3, i32 0, !dbg !5165
  %5 = load i32, i32* %4, align 4, !dbg !5165
  %6 = icmp eq i32 %5, 0, !dbg !5166
  br i1 %6, label %19, label %7, !dbg !5167

7:                                                ; preds = %2, %13
  %8 = phi i32 [ %14, %13 ], [ %5, %2 ], !dbg !5168
  %9 = phi i32 [ %15, %13 ], [ 3, %2 ], !dbg !5169
  call void @llvm.dbg.value(metadata i32 %9, metadata !5155, metadata !DIExpression()), !dbg !5169
  call void @llvm.dbg.value(metadata i32 %8, metadata !5156, metadata !DIExpression()), !dbg !5170
  %10 = tail call fastcc i32 @chunk_size(%struct.z_heap* noundef nonnull %0, i32 noundef %8) #36, !dbg !5171
  %11 = icmp ult i32 %10, %1, !dbg !5173
  br i1 %11, label %13, label %12, !dbg !5174

12:                                               ; preds = %7
  tail call fastcc void @free_list_remove_bidx(%struct.z_heap* noundef nonnull %0, i32 noundef %8, i32 noundef %3) #36, !dbg !5175
  br label %30

13:                                               ; preds = %7
  %14 = tail call fastcc i32 @next_free_chunk(%struct.z_heap* noundef nonnull %0, i32 noundef %8) #36, !dbg !5177
  store i32 %14, i32* %4, align 4, !dbg !5178
  %15 = add nsw i32 %9, -1, !dbg !5179
  call void @llvm.dbg.value(metadata i32 %15, metadata !5155, metadata !DIExpression()), !dbg !5169
  %16 = icmp eq i32 %15, 0, !dbg !5179
  %17 = icmp eq i32 %14, %5
  %18 = select i1 %16, i1 true, i1 %17, !dbg !5180
  br i1 %18, label %19, label %7, !dbg !5180, !llvm.loop !5181

19:                                               ; preds = %13, %2
  %20 = getelementptr inbounds %struct.z_heap, %struct.z_heap* %0, i32 0, i32 2, !dbg !5184
  %21 = load i32, i32* %20, align 4, !dbg !5184
  %22 = add nsw i32 %3, 1, !dbg !5185
  %23 = shl nsw i32 -1, %22, !dbg !5185
  %24 = and i32 %21, %23, !dbg !5186
  call void @llvm.dbg.value(metadata i32 %24, metadata !5158, metadata !DIExpression()), !dbg !5163
  %25 = icmp eq i32 %24, 0, !dbg !5187
  br i1 %25, label %30, label %26, !dbg !5188

26:                                               ; preds = %19
  %27 = tail call i32 @llvm.cttz.i32(i32 %24, i1 true), !dbg !5189, !range !4889
  call void @llvm.dbg.value(metadata i32 %27, metadata !5159, metadata !DIExpression()), !dbg !5190
  %28 = getelementptr inbounds %struct.z_heap, %struct.z_heap* %0, i32 0, i32 3, i32 %27, i32 0, !dbg !5191
  %29 = load i32, i32* %28, align 4, !dbg !5191
  call void @llvm.dbg.value(metadata i32 %29, metadata !5162, metadata !DIExpression()), !dbg !5190
  tail call fastcc void @free_list_remove_bidx(%struct.z_heap* noundef nonnull %0, i32 noundef %29, i32 noundef %27) #36, !dbg !5192
  br label %30

30:                                               ; preds = %12, %26, %19
  %31 = phi i32 [ %29, %26 ], [ 0, %19 ], [ %8, %12 ], !dbg !5163
  ret i32 %31, !dbg !5193
}

; Function Attrs: mustprogress nofree noinline norecurse nosync nounwind optsize willreturn
define internal fastcc void @split_chunks(%struct.z_heap* noundef %0, i32 noundef %1, i32 noundef %2) unnamed_addr #13 !dbg !5194 {
  call void @llvm.dbg.value(metadata %struct.z_heap* %0, metadata !5196, metadata !DIExpression()), !dbg !5202
  call void @llvm.dbg.value(metadata i32 %1, metadata !5197, metadata !DIExpression()), !dbg !5202
  call void @llvm.dbg.value(metadata i32 %2, metadata !5198, metadata !DIExpression()), !dbg !5202
  %4 = tail call fastcc i32 @chunk_size(%struct.z_heap* noundef %0, i32 noundef %1) #36, !dbg !5203
  call void @llvm.dbg.value(metadata i32 %4, metadata !5199, metadata !DIExpression()), !dbg !5202
  %5 = sub i32 %2, %1, !dbg !5204
  call void @llvm.dbg.value(metadata i32 %5, metadata !5200, metadata !DIExpression()), !dbg !5202
  %6 = sub i32 %4, %5, !dbg !5205
  call void @llvm.dbg.value(metadata i32 %6, metadata !5201, metadata !DIExpression()), !dbg !5202
  tail call fastcc void @set_chunk_size(%struct.z_heap* noundef %0, i32 noundef %1, i32 noundef %5) #36, !dbg !5206
  tail call fastcc void @set_chunk_size(%struct.z_heap* noundef %0, i32 noundef %2, i32 noundef %6) #36, !dbg !5207
  tail call fastcc void @set_left_chunk_size(%struct.z_heap* noundef %0, i32 noundef %2, i32 noundef %5) #36, !dbg !5208
  %7 = tail call fastcc i32 @right_chunk(%struct.z_heap* noundef %0, i32 noundef %2) #36, !dbg !5209
  tail call fastcc void @set_left_chunk_size(%struct.z_heap* noundef %0, i32 noundef %7, i32 noundef %6) #36, !dbg !5210
  ret void, !dbg !5211
}

; Function Attrs: mustprogress nofree noinline norecurse nosync nounwind optsize readnone willreturn
define internal fastcc nonnull i8* @chunk_mem(%struct.z_heap* noundef readnone %0, i32 noundef %1) unnamed_addr #17 !dbg !5212 {
  call void @llvm.dbg.value(metadata %struct.z_heap* %0, metadata !5216, metadata !DIExpression()), !dbg !5220
  call void @llvm.dbg.value(metadata i32 %1, metadata !5217, metadata !DIExpression()), !dbg !5220
  %3 = tail call fastcc %struct.chunk_unit_t* @chunk_buf(%struct.z_heap* noundef %0) #36, !dbg !5221
  call void @llvm.dbg.value(metadata %struct.chunk_unit_t* %3, metadata !5218, metadata !DIExpression()), !dbg !5220
  %4 = getelementptr inbounds %struct.chunk_unit_t, %struct.chunk_unit_t* %3, i32 %1, i32 0, i32 4, !dbg !5222
  call void @llvm.dbg.value(metadata i8* %4, metadata !5219, metadata !DIExpression()), !dbg !5220
  ret i8* %4, !dbg !5223
}

; Function Attrs: nofree nosync nounwind readnone speculatable willreturn
declare i32 @llvm.cttz.i32(i32, i1 immarg) #4

; Function Attrs: nofree noinline nosync nounwind optsize
define dso_local i8* @sys_heap_aligned_alloc(%struct.sys_heap* nocapture noundef readonly %0, i32 noundef %1, i32 noundef %2) local_unnamed_addr #18 !dbg !5224 {
  call void @llvm.dbg.value(metadata %struct.sys_heap* %0, metadata !5228, metadata !DIExpression()), !dbg !5240
  call void @llvm.dbg.value(metadata i32 %1, metadata !5229, metadata !DIExpression()), !dbg !5240
  call void @llvm.dbg.value(metadata i32 %2, metadata !5230, metadata !DIExpression()), !dbg !5240
  %4 = getelementptr inbounds %struct.sys_heap, %struct.sys_heap* %0, i32 0, i32 0, !dbg !5241
  %5 = load %struct.z_heap*, %struct.z_heap** %4, align 4, !dbg !5241
  call void @llvm.dbg.value(metadata %struct.z_heap* %5, metadata !5231, metadata !DIExpression()), !dbg !5240
  %6 = sub i32 0, %1, !dbg !5242
  %7 = and i32 %6, %1, !dbg !5243
  call void @llvm.dbg.value(metadata i32 %7, metadata !5233, metadata !DIExpression()), !dbg !5240
  %8 = icmp eq i32 %7, %1, !dbg !5244
  br i1 %8, label %13, label %9, !dbg !5246

9:                                                ; preds = %3
  %10 = sub i32 %1, %7, !dbg !5247
  call void @llvm.dbg.value(metadata i32 %10, metadata !5229, metadata !DIExpression()), !dbg !5240
  %11 = icmp ult i32 %7, 4, !dbg !5249
  %12 = select i1 %11, i32 %7, i32 4, !dbg !5249
  br label %17, !dbg !5249

13:                                               ; preds = %3
  %14 = icmp ult i32 %1, 5, !dbg !5250
  br i1 %14, label %15, label %17, !dbg !5253

15:                                               ; preds = %13
  %16 = tail call i8* @sys_heap_alloc(%struct.sys_heap* noundef nonnull %0, i32 noundef %2) #36, !dbg !5254
  br label %57, !dbg !5256

17:                                               ; preds = %9, %13
  %18 = phi i32 [ 0, %13 ], [ %7, %9 ], !dbg !5240
  %19 = phi i32 [ 4, %13 ], [ %12, %9 ], !dbg !5257
  %20 = phi i32 [ %1, %13 ], [ %10, %9 ]
  call void @llvm.dbg.value(metadata i32 %20, metadata !5229, metadata !DIExpression()), !dbg !5240
  call void @llvm.dbg.value(metadata i32 %19, metadata !5232, metadata !DIExpression()), !dbg !5240
  call void @llvm.dbg.value(metadata i32 %18, metadata !5233, metadata !DIExpression()), !dbg !5240
  %21 = icmp eq i32 %2, 0, !dbg !5258
  br i1 %21, label %57, label %22, !dbg !5260

22:                                               ; preds = %17
  %23 = tail call fastcc zeroext i1 @size_too_big(%struct.z_heap* noundef %5, i32 noundef %2) #36, !dbg !5261
  br i1 %23, label %57, label %24, !dbg !5262

24:                                               ; preds = %22
  %25 = sub i32 %2, %19, !dbg !5263
  %26 = add i32 %25, %20, !dbg !5264
  %27 = tail call fastcc i32 @bytes_to_chunksz(%struct.z_heap* noundef %5, i32 noundef %26) #36, !dbg !5265, !range !4731
  call void @llvm.dbg.value(metadata i32 %27, metadata !5234, metadata !DIExpression()), !dbg !5240
  %28 = tail call fastcc i32 @alloc_chunk(%struct.z_heap* noundef %5, i32 noundef %27) #36, !dbg !5266
  call void @llvm.dbg.value(metadata i32 %28, metadata !5235, metadata !DIExpression()), !dbg !5240
  %29 = icmp eq i32 %28, 0, !dbg !5267
  br i1 %29, label %57, label %30, !dbg !5269

30:                                               ; preds = %24
  %31 = tail call fastcc i8* @chunk_mem(%struct.z_heap* noundef %5, i32 noundef %28) #36, !dbg !5270
  call void @llvm.dbg.value(metadata i8* %31, metadata !5236, metadata !DIExpression()), !dbg !5240
  %32 = getelementptr inbounds i8, i8* %31, i32 %18, !dbg !5271
  %33 = ptrtoint i8* %32 to i32, !dbg !5271
  %34 = add i32 %20, -1, !dbg !5271
  %35 = add i32 %34, %33, !dbg !5271
  %36 = sub i32 0, %20, !dbg !5271
  %37 = and i32 %35, %36, !dbg !5271
  %38 = inttoptr i32 %37 to i8*, !dbg !5272
  %39 = sub i32 0, %18, !dbg !5273
  %40 = getelementptr inbounds i8, i8* %38, i32 %39, !dbg !5273
  call void @llvm.dbg.value(metadata i8* %40, metadata !5236, metadata !DIExpression()), !dbg !5240
  %41 = getelementptr inbounds i8, i8* %40, i32 %2, !dbg !5274
  %42 = ptrtoint i8* %41 to i32, !dbg !5274
  %43 = add i32 %42, 7, !dbg !5274
  %44 = and i32 %43, -8, !dbg !5274
  call void @llvm.dbg.value(metadata i32 %44, metadata !5237, metadata !DIExpression()), !dbg !5240
  %45 = tail call fastcc i32 @mem_to_chunkid(%struct.z_heap* noundef %5, i8* noundef %40) #36, !dbg !5275
  call void @llvm.dbg.value(metadata i32 %45, metadata !5238, metadata !DIExpression()), !dbg !5240
  %46 = tail call fastcc %struct.chunk_unit_t* @chunk_buf(%struct.z_heap* noundef %5) #36, !dbg !5276
  %47 = ptrtoint %struct.chunk_unit_t* %46 to i32, !dbg !5277
  %48 = sub i32 %44, %47, !dbg !5277
  %49 = ashr exact i32 %48, 3, !dbg !5277
  call void @llvm.dbg.value(metadata i32 %49, metadata !5239, metadata !DIExpression()), !dbg !5240
  %50 = icmp ugt i32 %45, %28, !dbg !5278
  br i1 %50, label %51, label %52, !dbg !5280

51:                                               ; preds = %30
  tail call fastcc void @split_chunks(%struct.z_heap* noundef %5, i32 noundef %28, i32 noundef %45) #36, !dbg !5281
  tail call fastcc void @free_list_add(%struct.z_heap* noundef %5, i32 noundef %28) #36, !dbg !5283
  br label %52, !dbg !5284

52:                                               ; preds = %51, %30
  %53 = tail call fastcc i32 @right_chunk(%struct.z_heap* noundef %5, i32 noundef %45) #36, !dbg !5285
  %54 = icmp ugt i32 %53, %49, !dbg !5287
  br i1 %54, label %55, label %56, !dbg !5288

55:                                               ; preds = %52
  tail call fastcc void @split_chunks(%struct.z_heap* noundef %5, i32 noundef %45, i32 noundef %49) #36, !dbg !5289
  tail call fastcc void @free_list_add(%struct.z_heap* noundef %5, i32 noundef %49) #36, !dbg !5291
  br label %56, !dbg !5292

56:                                               ; preds = %55, %52
  tail call fastcc void @set_chunk_used(%struct.z_heap* noundef %5, i32 noundef %45, i1 noundef zeroext true) #36, !dbg !5293
  br label %57

57:                                               ; preds = %56, %24, %17, %22, %15
  %58 = phi i8* [ %16, %15 ], [ null, %22 ], [ null, %17 ], [ %40, %56 ], [ null, %24 ], !dbg !5240
  ret i8* %58, !dbg !5294
}

; Function Attrs: noinline nounwind optsize
define dso_local i8* @sys_heap_aligned_realloc(%struct.sys_heap* nocapture noundef readonly %0, i8* noundef %1, i32 noundef %2, i32 noundef %3) local_unnamed_addr #1 !dbg !5295 {
  call void @llvm.dbg.value(metadata %struct.sys_heap* %0, metadata !5299, metadata !DIExpression()), !dbg !5318
  call void @llvm.dbg.value(metadata i8* %1, metadata !5300, metadata !DIExpression()), !dbg !5318
  call void @llvm.dbg.value(metadata i32 %2, metadata !5301, metadata !DIExpression()), !dbg !5318
  call void @llvm.dbg.value(metadata i32 %3, metadata !5302, metadata !DIExpression()), !dbg !5318
  %5 = getelementptr inbounds %struct.sys_heap, %struct.sys_heap* %0, i32 0, i32 0, !dbg !5319
  %6 = load %struct.z_heap*, %struct.z_heap** %5, align 4, !dbg !5319
  call void @llvm.dbg.value(metadata %struct.z_heap* %6, metadata !5303, metadata !DIExpression()), !dbg !5318
  %7 = icmp eq i8* %1, null, !dbg !5320
  br i1 %7, label %8, label %10, !dbg !5322

8:                                                ; preds = %4
  %9 = tail call i8* @sys_heap_aligned_alloc(%struct.sys_heap* noundef nonnull %0, i32 noundef %2, i32 noundef %3) #36, !dbg !5323
  br label %59, !dbg !5325

10:                                               ; preds = %4
  %11 = icmp eq i32 %3, 0, !dbg !5326
  br i1 %11, label %12, label %13, !dbg !5328

12:                                               ; preds = %10
  tail call void @sys_heap_free(%struct.sys_heap* noundef nonnull %0, i8* noundef nonnull %1) #36, !dbg !5329
  br label %59, !dbg !5331

13:                                               ; preds = %10
  %14 = tail call fastcc zeroext i1 @size_too_big(%struct.z_heap* noundef %6, i32 noundef %3) #36, !dbg !5332
  br i1 %14, label %59, label %15, !dbg !5334

15:                                               ; preds = %13
  %16 = tail call fastcc i32 @mem_to_chunkid(%struct.z_heap* noundef %6, i8* noundef nonnull %1) #36, !dbg !5335, !range !4731
  call void @llvm.dbg.value(metadata i32 %16, metadata !5304, metadata !DIExpression()), !dbg !5318
  %17 = tail call fastcc i32 @right_chunk(%struct.z_heap* noundef %6, i32 noundef %16) #36, !dbg !5336
  call void @llvm.dbg.value(metadata i32 %17, metadata !5305, metadata !DIExpression()), !dbg !5318
  %18 = tail call fastcc i8* @chunk_mem(%struct.z_heap* noundef %6, i32 noundef %16) #36, !dbg !5337
  %19 = ptrtoint i8* %1 to i32, !dbg !5338
  %20 = ptrtoint i8* %18 to i32, !dbg !5338
  %21 = sub i32 %19, %20, !dbg !5338
  call void @llvm.dbg.value(metadata i32 %21, metadata !5306, metadata !DIExpression()), !dbg !5318
  %22 = add i32 %21, %3, !dbg !5339
  %23 = tail call fastcc i32 @bytes_to_chunksz(%struct.z_heap* noundef %6, i32 noundef %22) #36, !dbg !5340
  call void @llvm.dbg.value(metadata i32 %23, metadata !5307, metadata !DIExpression()), !dbg !5318
  %24 = icmp eq i32 %2, 0, !dbg !5341
  br i1 %24, label %29, label %25, !dbg !5342

25:                                               ; preds = %15
  %26 = add i32 %2, -1, !dbg !5343
  %27 = and i32 %26, %19, !dbg !5344
  %28 = icmp eq i32 %27, 0, !dbg !5344
  br i1 %28, label %29, label %49, !dbg !5345

29:                                               ; preds = %25, %15
  %30 = tail call fastcc i32 @chunk_size(%struct.z_heap* noundef %6, i32 noundef %16) #36, !dbg !5346
  %31 = icmp eq i32 %23, %30, !dbg !5347
  br i1 %31, label %59, label %32, !dbg !5348

32:                                               ; preds = %29
  %33 = icmp ult i32 %23, %30, !dbg !5349
  br i1 %33, label %34, label %36, !dbg !5350

34:                                               ; preds = %32
  %35 = add i32 %23, %16, !dbg !5351
  tail call fastcc void @split_chunks(%struct.z_heap* noundef %6, i32 noundef %16, i32 noundef %35) #36, !dbg !5353
  tail call fastcc void @set_chunk_used(%struct.z_heap* noundef %6, i32 noundef %16, i1 noundef zeroext true) #36, !dbg !5354
  tail call fastcc void @free_chunk(%struct.z_heap* noundef %6, i32 noundef %35) #36, !dbg !5355
  br label %59, !dbg !5356

36:                                               ; preds = %32
  %37 = tail call fastcc zeroext i1 @chunk_used(%struct.z_heap* noundef %6, i32 noundef %17) #36, !dbg !5357
  br i1 %37, label %49, label %38, !dbg !5358

38:                                               ; preds = %36
  %39 = tail call fastcc i32 @chunk_size(%struct.z_heap* noundef %6, i32 noundef %17) #36, !dbg !5359
  %40 = add i32 %39, %30, !dbg !5360
  %41 = icmp ult i32 %40, %23, !dbg !5361
  br i1 %41, label %49, label %42, !dbg !5362

42:                                               ; preds = %38
  %43 = sub i32 %23, %30, !dbg !5363
  call void @llvm.dbg.value(metadata i32 %43, metadata !5308, metadata !DIExpression()), !dbg !5364
  tail call fastcc void @free_list_remove(%struct.z_heap* noundef %6, i32 noundef %17) #36, !dbg !5365
  %44 = tail call fastcc i32 @chunk_size(%struct.z_heap* noundef %6, i32 noundef %17) #36, !dbg !5366
  %45 = icmp ult i32 %43, %44, !dbg !5368
  br i1 %45, label %46, label %48, !dbg !5369

46:                                               ; preds = %42
  %47 = add i32 %43, %17, !dbg !5370
  tail call fastcc void @split_chunks(%struct.z_heap* noundef %6, i32 noundef %17, i32 noundef %47) #36, !dbg !5372
  tail call fastcc void @free_list_add(%struct.z_heap* noundef %6, i32 noundef %47) #36, !dbg !5373
  br label %48, !dbg !5374

48:                                               ; preds = %46, %42
  tail call fastcc void @merge_chunks(%struct.z_heap* noundef %6, i32 noundef %16, i32 noundef %17) #36, !dbg !5375
  tail call fastcc void @set_chunk_used(%struct.z_heap* noundef %6, i32 noundef %16, i1 noundef zeroext true) #36, !dbg !5376
  br label %59

49:                                               ; preds = %38, %36, %25
  %50 = tail call i8* @sys_heap_aligned_alloc(%struct.sys_heap* noundef nonnull %0, i32 noundef %2, i32 noundef %3) #36, !dbg !5377
  call void @llvm.dbg.value(metadata i8* %50, metadata !5314, metadata !DIExpression()), !dbg !5318
  %51 = icmp eq i8* %50, null, !dbg !5378
  br i1 %51, label %59, label %52, !dbg !5379

52:                                               ; preds = %49
  %53 = tail call fastcc i32 @chunk_size(%struct.z_heap* noundef %6, i32 noundef %16) #36, !dbg !5380, !range !4824
  %54 = tail call fastcc i32 @chunksz_to_bytes(%struct.z_heap* noundef %6, i32 noundef %53) #36, !dbg !5381
  %55 = sub i32 %54, %21, !dbg !5382
  call void @llvm.dbg.value(metadata i32 %55, metadata !5315, metadata !DIExpression()), !dbg !5383
  %56 = icmp ult i32 %55, %3, !dbg !5384
  %57 = select i1 %56, i32 %55, i32 %3, !dbg !5384
  %58 = tail call i8* @memcpy(i8* noundef nonnull %50, i8* noundef nonnull %1, i32 noundef %57) #37, !dbg !5385
  tail call void @sys_heap_free(%struct.sys_heap* noundef nonnull %0, i8* noundef nonnull %1) #36, !dbg !5386
  br label %59, !dbg !5387

59:                                               ; preds = %34, %48, %29, %52, %49, %13, %12, %8
  %60 = phi i8* [ %9, %8 ], [ null, %12 ], [ null, %13 ], [ %1, %34 ], [ %1, %48 ], [ %1, %29 ], [ %50, %52 ], [ null, %49 ], !dbg !5318
  ret i8* %60, !dbg !5388
}

; Function Attrs: mustprogress nofree noinline norecurse nosync nounwind optsize readnone willreturn
define internal fastcc i32 @chunksz_to_bytes(%struct.z_heap* nocapture noundef readnone %0, i32 noundef %1) unnamed_addr #17 !dbg !5389 {
  call void @llvm.dbg.value(metadata %struct.z_heap* %0, metadata !5393, metadata !DIExpression()), !dbg !5395
  call void @llvm.dbg.value(metadata i32 %1, metadata !5394, metadata !DIExpression()), !dbg !5395
  %3 = shl i32 %1, 3, !dbg !5396
  %4 = add i32 %3, -4, !dbg !5397
  ret i32 %4, !dbg !5398
}

; Function Attrs: nofree noinline nosync nounwind optsize
define dso_local void @sys_heap_init(%struct.sys_heap* nocapture noundef writeonly %0, i8* noundef %1, i32 noundef %2) local_unnamed_addr #18 !dbg !5399 {
  call void @llvm.dbg.value(metadata %struct.sys_heap* %0, metadata !5403, metadata !DIExpression()), !dbg !5414
  call void @llvm.dbg.value(metadata i8* %1, metadata !5404, metadata !DIExpression()), !dbg !5414
  call void @llvm.dbg.value(metadata i32 %2, metadata !5405, metadata !DIExpression()), !dbg !5414
  %4 = add i32 %2, -4, !dbg !5415
  call void @llvm.dbg.value(metadata i32 %4, metadata !5405, metadata !DIExpression()), !dbg !5414
  %5 = ptrtoint i8* %1 to i32, !dbg !5416
  %6 = add i32 %5, 7, !dbg !5416
  %7 = and i32 %6, -8, !dbg !5416
  call void @llvm.dbg.value(metadata i32 %7, metadata !5406, metadata !DIExpression()), !dbg !5414
  %8 = getelementptr inbounds i8, i8* %1, i32 %4, !dbg !5417
  %9 = ptrtoint i8* %8 to i32, !dbg !5417
  %10 = and i32 %9, -8, !dbg !5417
  call void @llvm.dbg.value(metadata i32 %10, metadata !5407, metadata !DIExpression()), !dbg !5414
  %11 = sub i32 %10, %7, !dbg !5418
  %12 = lshr exact i32 %11, 3, !dbg !5419
  call void @llvm.dbg.value(metadata i32 %12, metadata !5408, metadata !DIExpression()), !dbg !5414
  %13 = inttoptr i32 %7 to %struct.z_heap*, !dbg !5420
  call void @llvm.dbg.value(metadata %struct.z_heap* %13, metadata !5409, metadata !DIExpression()), !dbg !5414
  %14 = getelementptr inbounds %struct.sys_heap, %struct.sys_heap* %0, i32 0, i32 0, !dbg !5421
  store %struct.z_heap* %13, %struct.z_heap** %14, align 4, !dbg !5422
  %15 = getelementptr inbounds %struct.z_heap, %struct.z_heap* %13, i32 0, i32 1, !dbg !5423
  store i32 %12, i32* %15, align 8, !dbg !5424
  %16 = getelementptr inbounds %struct.z_heap, %struct.z_heap* %13, i32 0, i32 2, !dbg !5425
  store i32 0, i32* %16, align 4, !dbg !5426
  %17 = tail call fastcc i32 @bucket_idx(%struct.z_heap* noundef %13, i32 noundef %12) #36, !dbg !5427
  call void @llvm.dbg.value(metadata i32 %17, metadata !5410, metadata !DIExpression(DW_OP_plus_uconst, 1, DW_OP_stack_value)), !dbg !5414
  %18 = shl i32 %17, 2, !dbg !5428
  %19 = add i32 %18, 20, !dbg !5429
  %20 = tail call fastcc i32 @chunksz(i32 noundef %19) #36, !dbg !5430
  call void @llvm.dbg.value(metadata i32 %20, metadata !5411, metadata !DIExpression()), !dbg !5414
  call void @llvm.dbg.value(metadata i32 0, metadata !5412, metadata !DIExpression()), !dbg !5431
  %21 = icmp slt i32 %17, 0, !dbg !5432
  br i1 %21, label %22, label %24, !dbg !5434

22:                                               ; preds = %24, %3
  tail call fastcc void @set_chunk_size(%struct.z_heap* noundef nonnull %13, i32 noundef 0, i32 noundef %20) #36, !dbg !5435
  tail call fastcc void @set_left_chunk_size(%struct.z_heap* noundef nonnull %13, i32 noundef 0, i32 noundef 0) #36, !dbg !5436
  tail call fastcc void @set_chunk_used(%struct.z_heap* noundef nonnull %13, i32 noundef 0, i1 noundef zeroext true) #36, !dbg !5437
  %23 = sub i32 %12, %20, !dbg !5438
  tail call fastcc void @set_chunk_size(%struct.z_heap* noundef nonnull %13, i32 noundef %20, i32 noundef %23) #36, !dbg !5439
  tail call fastcc void @set_left_chunk_size(%struct.z_heap* noundef nonnull %13, i32 noundef %20, i32 noundef %20) #36, !dbg !5440
  tail call fastcc void @set_chunk_size(%struct.z_heap* noundef nonnull %13, i32 noundef %12, i32 noundef 0) #36, !dbg !5441
  tail call fastcc void @set_left_chunk_size(%struct.z_heap* noundef nonnull %13, i32 noundef %12, i32 noundef %23) #36, !dbg !5442
  tail call fastcc void @set_chunk_used(%struct.z_heap* noundef nonnull %13, i32 noundef %12, i1 noundef zeroext true) #36, !dbg !5443
  tail call fastcc void @free_list_add(%struct.z_heap* noundef nonnull %13, i32 noundef %20) #36, !dbg !5444
  ret void, !dbg !5445

24:                                               ; preds = %3, %24
  %25 = phi i32 [ %27, %24 ], [ 0, %3 ]
  call void @llvm.dbg.value(metadata i32 %25, metadata !5412, metadata !DIExpression()), !dbg !5431
  %26 = getelementptr inbounds %struct.z_heap, %struct.z_heap* %13, i32 0, i32 3, i32 %25, i32 0, !dbg !5446
  store i32 0, i32* %26, align 4, !dbg !5448
  %27 = add nuw i32 %25, 1, !dbg !5449
  call void @llvm.dbg.value(metadata i32 %27, metadata !5412, metadata !DIExpression()), !dbg !5431
  %28 = icmp eq i32 %25, %17, !dbg !5432
  br i1 %28, label %22, label %24, !dbg !5434, !llvm.loop !5450
}

; Function Attrs: noinline nounwind optsize
define dso_local i32 @z_cbvprintf_impl(i32 (...)* nocapture noundef readonly %0, i8* noundef %1, i8* noundef %2, [1 x i32] %3, i32 noundef %4) local_unnamed_addr #1 !dbg !5452 {
  %6 = alloca [22 x i8], align 1
  %7 = alloca %struct.anon, align 8
  %8 = extractvalue [1 x i32] %3, 0
  %9 = inttoptr i32 %8 to i8*
  call void @llvm.dbg.value(metadata i8* %9, metadata !5465, metadata !DIExpression()), !dbg !5593
  call void @llvm.dbg.value(metadata i32 (...)* %0, metadata !5462, metadata !DIExpression()), !dbg !5593
  call void @llvm.dbg.value(metadata i8* %1, metadata !5463, metadata !DIExpression()), !dbg !5593
  call void @llvm.dbg.value(metadata i8* %2, metadata !5464, metadata !DIExpression()), !dbg !5593
  call void @llvm.dbg.value(metadata i32 %4, metadata !5466, metadata !DIExpression()), !dbg !5593
  %10 = getelementptr inbounds [22 x i8], [22 x i8]* %6, i32 0, i32 0, !dbg !5594
  call void @llvm.lifetime.start.p0i8(i64 22, i8* nonnull %10) #32, !dbg !5594
  call void @llvm.dbg.declare(metadata [22 x i8]* %6, metadata !5467, metadata !DIExpression()), !dbg !5595
  call void @llvm.dbg.value(metadata i32 0, metadata !5471, metadata !DIExpression()), !dbg !5593
  call void @llvm.dbg.value(metadata i1 undef, metadata !5473, metadata !DIExpression(DW_OP_LLVM_convert, 1, DW_ATE_unsigned, DW_OP_LLVM_convert, 8, DW_ATE_unsigned, DW_OP_stack_value)), !dbg !5593
  %11 = bitcast i32 (...)* %0 to i32 (i32, i8*)*
  %12 = bitcast %struct.anon* %7 to i8*
  %13 = getelementptr inbounds %struct.anon, %struct.anon* %7, i32 0, i32 1
  %14 = getelementptr inbounds [22 x i8], [22 x i8]* %6, i32 0, i32 22
  %15 = bitcast %struct.conversion* %13 to i24*
  %16 = getelementptr inbounds %struct.anon, %struct.anon* %7, i32 0, i32 1, i32 2, i32 0
  %17 = getelementptr inbounds %struct.anon, %struct.anon* %7, i32 0, i32 1, i32 3, i32 0
  %18 = bitcast %struct.anon* %7 to i8**
  %19 = bitcast %struct.anon* %7 to double*
  %20 = getelementptr inbounds %struct.anon, %struct.anon* %7, i32 0, i32 0, i32 0
  %21 = getelementptr inbounds %struct.anon, %struct.anon* %7, i32 0, i32 1, i32 1
  %22 = ptrtoint i8* %14 to i32
  %23 = getelementptr inbounds [22 x i8], [22 x i8]* %6, i32 0, i32 1
  br label %24, !dbg !5596

24:                                               ; preds = %361, %5
  %25 = phi i32 [ %362, %361 ], [ 0, %5 ]
  %26 = phi i8* [ %39, %361 ], [ %2, %5 ]
  %27 = phi i8* [ %178, %361 ], [ %9, %5 ]
  br label %28, !dbg !5596

28:                                               ; preds = %24, %32
  %29 = phi i32 [ %37, %32 ], [ %25, %24 ], !dbg !5597
  %30 = phi i8* [ %34, %32 ], [ %26, %24 ]
  call void @llvm.dbg.value(metadata i8* %27, metadata !5465, metadata !DIExpression()), !dbg !5593
  call void @llvm.dbg.value(metadata i8* %30, metadata !5464, metadata !DIExpression()), !dbg !5593
  call void @llvm.dbg.value(metadata i32 %29, metadata !5471, metadata !DIExpression()), !dbg !5593
  %31 = load i8, i8* %30, align 1, !dbg !5598
  switch i8 %31, label %32 [
    i8 0, label %363
    i8 37, label %38
  ], !dbg !5596

32:                                               ; preds = %28
  %33 = zext i8 %31 to i32, !dbg !5598
  %34 = getelementptr inbounds i8, i8* %30, i32 1, !dbg !5599
  call void @llvm.dbg.value(metadata i8* %34, metadata !5464, metadata !DIExpression()), !dbg !5593
  %35 = call i32 %11(i32 noundef %33, i8* noundef %1) #37, !dbg !5599
  call void @llvm.dbg.value(metadata i32 %35, metadata !5475, metadata !DIExpression()), !dbg !5600
  %36 = icmp slt i32 %35, 0, !dbg !5601
  %37 = add i32 %29, 1, !dbg !5599
  call void @llvm.dbg.value(metadata i32 undef, metadata !5471, metadata !DIExpression()), !dbg !5593
  br i1 %36, label %363, label %28, !llvm.loop !5603

38:                                               ; preds = %28
  call void @llvm.lifetime.start.p0i8(i64 24, i8* nonnull %12) #32, !dbg !5605
  call void @llvm.dbg.declare(metadata %struct.anon* %7, metadata !5480, metadata !DIExpression()), !dbg !5606
  call void @llvm.memset.p0i8.i32(i8* noundef nonnull align 8 dereferenceable(24) %12, i8 0, i32 24, i1 false), !dbg !5606
  call void @llvm.dbg.value(metadata %struct.conversion* %13, metadata !5525, metadata !DIExpression()), !dbg !5607
  call void @llvm.dbg.value(metadata %struct.anon* %7, metadata !5528, metadata !DIExpression()), !dbg !5607
  call void @llvm.dbg.value(metadata i8* %30, metadata !5531, metadata !DIExpression()), !dbg !5607
  call void @llvm.dbg.value(metadata i32 -1, metadata !5532, metadata !DIExpression()), !dbg !5607
  call void @llvm.dbg.value(metadata i32 -1, metadata !5533, metadata !DIExpression()), !dbg !5607
  call void @llvm.dbg.value(metadata i8* null, metadata !5534, metadata !DIExpression()), !dbg !5607
  call void @llvm.dbg.value(metadata i8* %14, metadata !5535, metadata !DIExpression()), !dbg !5607
  call void @llvm.dbg.value(metadata i8 0, metadata !5536, metadata !DIExpression()), !dbg !5607
  %39 = call fastcc i8* @extract_conversion(%struct.conversion* noundef nonnull %13, i8* noundef nonnull %30) #36, !dbg !5608
  call void @llvm.dbg.value(metadata i8* %39, metadata !5464, metadata !DIExpression()), !dbg !5593
  %40 = load i24, i24* %15, align 8, !dbg !5609
  %41 = and i24 %40, 256, !dbg !5609
  %42 = icmp eq i24 %41, 0, !dbg !5609
  br i1 %42, label %51, label %43, !dbg !5611

43:                                               ; preds = %38
  %44 = getelementptr inbounds i8, i8* %27, i32 4, !dbg !5612
  call void @llvm.dbg.value(metadata i8* %44, metadata !5465, metadata !DIExpression()), !dbg !5593
  %45 = bitcast i8* %27 to i32*, !dbg !5612
  %46 = load i32, i32* %45, align 4, !dbg !5612
  call void @llvm.dbg.value(metadata i32 %46, metadata !5532, metadata !DIExpression()), !dbg !5607
  %47 = icmp slt i32 %46, 0, !dbg !5614
  br i1 %47, label %48, label %56, !dbg !5616

48:                                               ; preds = %43
  %49 = or i24 %40, 4, !dbg !5617
  store i24 %49, i24* %15, align 8, !dbg !5617
  %50 = sub nsw i32 0, %46, !dbg !5619
  call void @llvm.dbg.value(metadata i32 %50, metadata !5532, metadata !DIExpression()), !dbg !5607
  br label %56, !dbg !5620

51:                                               ; preds = %38
  %52 = and i24 %40, 128, !dbg !5621
  %53 = icmp eq i24 %52, 0, !dbg !5621
  %54 = load i32, i32* %16, align 4
  %55 = select i1 %53, i32 -1, i32 %54, !dbg !5623
  br label %56, !dbg !5623

56:                                               ; preds = %51, %43, %48
  %57 = phi i24 [ %49, %48 ], [ %40, %43 ], [ %40, %51 ], !dbg !5624
  %58 = phi i32 [ %50, %48 ], [ %46, %43 ], [ %55, %51 ], !dbg !5607
  %59 = phi i8* [ %44, %48 ], [ %44, %43 ], [ %27, %51 ]
  call void @llvm.dbg.value(metadata i8* %59, metadata !5465, metadata !DIExpression()), !dbg !5593
  call void @llvm.dbg.value(metadata i32 %58, metadata !5532, metadata !DIExpression()), !dbg !5607
  %60 = and i24 %57, 1024, !dbg !5624
  %61 = icmp eq i24 %60, 0, !dbg !5624
  br i1 %61, label %69, label %62, !dbg !5625

62:                                               ; preds = %56
  %63 = getelementptr inbounds i8, i8* %59, i32 4, !dbg !5626
  call void @llvm.dbg.value(metadata i8* %63, metadata !5465, metadata !DIExpression()), !dbg !5593
  %64 = bitcast i8* %59 to i32*, !dbg !5626
  %65 = load i32, i32* %64, align 4, !dbg !5626
  call void @llvm.dbg.value(metadata i32 %65, metadata !5537, metadata !DIExpression()), !dbg !5627
  %66 = icmp slt i32 %65, 0, !dbg !5628
  br i1 %66, label %67, label %74, !dbg !5630

67:                                               ; preds = %62
  %68 = and i24 %57, -513, !dbg !5631
  store i24 %68, i24* %15, align 8, !dbg !5631
  br label %74, !dbg !5633

69:                                               ; preds = %56
  %70 = and i24 %57, 512, !dbg !5634
  %71 = icmp eq i24 %70, 0, !dbg !5634
  %72 = load i32, i32* %17, align 8
  %73 = select i1 %71, i32 -1, i32 %72, !dbg !5636
  br label %74, !dbg !5636

74:                                               ; preds = %69, %67, %62
  %75 = phi i24 [ %68, %67 ], [ %57, %62 ], [ %57, %69 ], !dbg !5637
  %76 = phi i32 [ -1, %67 ], [ %65, %62 ], [ %73, %69 ], !dbg !5607
  %77 = phi i8* [ %63, %67 ], [ %63, %62 ], [ %59, %69 ], !dbg !5607
  call void @llvm.dbg.value(metadata i8* %77, metadata !5465, metadata !DIExpression()), !dbg !5593
  call void @llvm.dbg.value(metadata i32 %76, metadata !5533, metadata !DIExpression()), !dbg !5607
  store i32 0, i32* %16, align 4, !dbg !5638
  store i32 0, i32* %17, align 8, !dbg !5639
  %78 = lshr i24 %75, 16, !dbg !5637
  call void @llvm.dbg.value(metadata i24 %78, metadata !5540, metadata !DIExpression(DW_OP_constu, 7, DW_OP_and, DW_OP_LLVM_convert, 24, DW_ATE_unsigned, DW_OP_LLVM_convert, 32, DW_ATE_unsigned, DW_OP_stack_value)), !dbg !5607
  %79 = lshr i24 %75, 11, !dbg !5640
  %80 = and i24 %79, 15, !dbg !5640
  %81 = zext i24 %80 to i32, !dbg !5640
  call void @llvm.dbg.value(metadata i32 %81, metadata !5541, metadata !DIExpression()), !dbg !5607
  %82 = trunc i24 %78 to i3, !dbg !5641
  switch i3 %82, label %177 [
    i3 1, label %83
    i3 2, label %125
    i3 -4, label %165
    i3 3, label %173
  ], !dbg !5641

83:                                               ; preds = %74
  switch i32 %81, label %84 [
    i32 7, label %110
    i32 6, label %110
    i32 5, label %102
    i32 3, label %89
    i32 4, label %94
  ], !dbg !5642

84:                                               ; preds = %83
  %85 = getelementptr inbounds i8, i8* %77, i32 4, !dbg !5645
  call void @llvm.dbg.value(metadata i8* %85, metadata !5465, metadata !DIExpression()), !dbg !5593
  %86 = bitcast i8* %77 to i32*, !dbg !5645
  %87 = load i32, i32* %86, align 4, !dbg !5645
  %88 = sext i32 %87 to i64, !dbg !5645
  store i64 %88, i64* %20, align 8, !dbg !5647
  br label %115, !dbg !5648

89:                                               ; preds = %83
  %90 = getelementptr inbounds i8, i8* %77, i32 4, !dbg !5649
  call void @llvm.dbg.value(metadata i8* %90, metadata !5465, metadata !DIExpression()), !dbg !5593
  %91 = bitcast i8* %77 to i32*, !dbg !5649
  %92 = load i32, i32* %91, align 4, !dbg !5649
  %93 = sext i32 %92 to i64, !dbg !5649
  store i64 %93, i64* %20, align 8, !dbg !5652
  br label %115, !dbg !5653

94:                                               ; preds = %83
  %95 = ptrtoint i8* %77 to i32, !dbg !5654
  %96 = add i32 %95, 7, !dbg !5654
  %97 = and i32 %96, -8, !dbg !5654
  %98 = inttoptr i32 %97 to i8*, !dbg !5654
  %99 = getelementptr inbounds i8, i8* %98, i32 8, !dbg !5654
  call void @llvm.dbg.value(metadata i8* %99, metadata !5465, metadata !DIExpression()), !dbg !5593
  %100 = inttoptr i32 %97 to i64*, !dbg !5654
  %101 = load i64, i64* %100, align 8, !dbg !5654
  store i64 %101, i64* %20, align 8, !dbg !5655
  br label %115, !dbg !5656

102:                                              ; preds = %83
  %103 = ptrtoint i8* %77 to i32, !dbg !5657
  %104 = add i32 %103, 7, !dbg !5657
  %105 = and i32 %104, -8, !dbg !5657
  %106 = inttoptr i32 %105 to i8*, !dbg !5657
  %107 = getelementptr inbounds i8, i8* %106, i32 8, !dbg !5657
  call void @llvm.dbg.value(metadata i8* %107, metadata !5465, metadata !DIExpression()), !dbg !5593
  %108 = inttoptr i32 %105 to i64*, !dbg !5657
  %109 = load i64, i64* %108, align 8, !dbg !5657
  store i64 %109, i64* %20, align 8, !dbg !5658
  br label %115, !dbg !5659

110:                                              ; preds = %83, %83
  %111 = getelementptr inbounds i8, i8* %77, i32 4, !dbg !5660
  call void @llvm.dbg.value(metadata i8* %111, metadata !5465, metadata !DIExpression()), !dbg !5593
  %112 = bitcast i8* %77 to i32*, !dbg !5660
  %113 = load i32, i32* %112, align 4, !dbg !5660
  %114 = sext i32 %113 to i64, !dbg !5661
  store i64 %114, i64* %20, align 8, !dbg !5662
  br label %115, !dbg !5663

115:                                              ; preds = %110, %102, %94, %89, %84
  %116 = phi i64 [ %88, %84 ], [ %101, %94 ], [ %93, %89 ], [ %109, %102 ], [ %114, %110 ]
  %117 = phi i8* [ %85, %84 ], [ %99, %94 ], [ %90, %89 ], [ %107, %102 ], [ %111, %110 ], !dbg !5664
  call void @llvm.dbg.value(metadata i8* %117, metadata !5465, metadata !DIExpression()), !dbg !5593
  %118 = trunc i24 %79 to i4, !dbg !5665
  switch i4 %118, label %177 [
    i4 1, label %119
    i4 2, label %122
  ], !dbg !5665

119:                                              ; preds = %115
  %120 = shl i64 %116, 56, !dbg !5666
  %121 = ashr exact i64 %120, 56, !dbg !5666
  store i64 %121, i64* %20, align 8, !dbg !5669
  br label %177, !dbg !5670

122:                                              ; preds = %115
  %123 = shl i64 %116, 48, !dbg !5671
  %124 = ashr exact i64 %123, 48, !dbg !5671
  store i64 %124, i64* %20, align 8, !dbg !5674
  br label %177, !dbg !5675

125:                                              ; preds = %74
  switch i32 %81, label %126 [
    i32 7, label %152
    i32 6, label %152
    i32 5, label %144
    i32 3, label %131
    i32 4, label %136
  ], !dbg !5676

126:                                              ; preds = %125
  %127 = getelementptr inbounds i8, i8* %77, i32 4, !dbg !5679
  call void @llvm.dbg.value(metadata i8* %127, metadata !5465, metadata !DIExpression()), !dbg !5593
  %128 = bitcast i8* %77 to i32*, !dbg !5679
  %129 = load i32, i32* %128, align 4, !dbg !5679
  %130 = zext i32 %129 to i64, !dbg !5679
  store i64 %130, i64* %20, align 8, !dbg !5681
  br label %157, !dbg !5682

131:                                              ; preds = %125
  %132 = getelementptr inbounds i8, i8* %77, i32 4, !dbg !5683
  call void @llvm.dbg.value(metadata i8* %132, metadata !5465, metadata !DIExpression()), !dbg !5593
  call void @llvm.dbg.value(metadata i8* %132, metadata !5465, metadata !DIExpression()), !dbg !5593
  %133 = bitcast i8* %77 to i32*, !dbg !5683
  %134 = load i32, i32* %133, align 4, !dbg !5683
  %135 = zext i32 %134 to i64, !dbg !5683
  store i64 %135, i64* %20, align 8, !dbg !5683
  br label %157

136:                                              ; preds = %125
  %137 = ptrtoint i8* %77 to i32, !dbg !5685
  %138 = add i32 %137, 7, !dbg !5685
  %139 = and i32 %138, -8, !dbg !5685
  %140 = inttoptr i32 %139 to i8*, !dbg !5685
  %141 = getelementptr inbounds i8, i8* %140, i32 8, !dbg !5685
  call void @llvm.dbg.value(metadata i8* %141, metadata !5465, metadata !DIExpression()), !dbg !5593
  %142 = inttoptr i32 %139 to i64*, !dbg !5685
  %143 = load i64, i64* %142, align 8, !dbg !5685
  store i64 %143, i64* %20, align 8, !dbg !5686
  br label %157, !dbg !5687

144:                                              ; preds = %125
  %145 = ptrtoint i8* %77 to i32, !dbg !5688
  %146 = add i32 %145, 7, !dbg !5688
  %147 = and i32 %146, -8, !dbg !5688
  %148 = inttoptr i32 %147 to i8*, !dbg !5688
  %149 = getelementptr inbounds i8, i8* %148, i32 8, !dbg !5688
  call void @llvm.dbg.value(metadata i8* %149, metadata !5465, metadata !DIExpression()), !dbg !5593
  %150 = inttoptr i32 %147 to i64*, !dbg !5688
  %151 = load i64, i64* %150, align 8, !dbg !5688
  store i64 %151, i64* %20, align 8, !dbg !5689
  br label %157, !dbg !5690

152:                                              ; preds = %125, %125
  %153 = getelementptr inbounds i8, i8* %77, i32 4, !dbg !5691
  call void @llvm.dbg.value(metadata i8* %153, metadata !5465, metadata !DIExpression()), !dbg !5593
  %154 = bitcast i8* %77 to i32*, !dbg !5691
  %155 = load i32, i32* %154, align 4, !dbg !5691
  %156 = zext i32 %155 to i64, !dbg !5692
  store i64 %156, i64* %20, align 8, !dbg !5693
  br label %157, !dbg !5694

157:                                              ; preds = %131, %152, %144, %136, %126
  %158 = phi i64 [ %130, %126 ], [ %143, %136 ], [ %151, %144 ], [ %156, %152 ], [ %135, %131 ]
  %159 = phi i8* [ %127, %126 ], [ %141, %136 ], [ %149, %144 ], [ %153, %152 ], [ %132, %131 ], !dbg !5695
  call void @llvm.dbg.value(metadata i8* %159, metadata !5465, metadata !DIExpression()), !dbg !5593
  %160 = trunc i24 %79 to i4, !dbg !5696
  switch i4 %160, label %177 [
    i4 1, label %161
    i4 2, label %163
  ], !dbg !5696

161:                                              ; preds = %157
  %162 = and i64 %158, 255, !dbg !5697
  store i64 %162, i64* %20, align 8, !dbg !5700
  br label %177, !dbg !5701

163:                                              ; preds = %157
  %164 = and i64 %158, 65535, !dbg !5702
  store i64 %164, i64* %20, align 8, !dbg !5705
  br label %177, !dbg !5706

165:                                              ; preds = %74
  %166 = ptrtoint i8* %77 to i32, !dbg !5707
  %167 = add i32 %166, 7, !dbg !5707
  %168 = and i32 %167, -8, !dbg !5707
  %169 = inttoptr i32 %168 to i8*, !dbg !5707
  %170 = getelementptr inbounds i8, i8* %169, i32 8, !dbg !5707
  call void @llvm.dbg.value(metadata i8* %170, metadata !5465, metadata !DIExpression()), !dbg !5593
  call void @llvm.dbg.value(metadata i8* %170, metadata !5465, metadata !DIExpression()), !dbg !5593
  %171 = inttoptr i32 %168 to double*, !dbg !5707
  %172 = load double, double* %171, align 8, !dbg !5707
  store double %172, double* %19, align 8, !dbg !5707
  br label %177

173:                                              ; preds = %74
  %174 = getelementptr inbounds i8, i8* %77, i32 4, !dbg !5711
  call void @llvm.dbg.value(metadata i8* %174, metadata !5465, metadata !DIExpression()), !dbg !5593
  %175 = bitcast i8* %77 to i8**, !dbg !5711
  %176 = load i8*, i8** %175, align 4, !dbg !5711
  store i8* %176, i8** %18, align 8, !dbg !5714
  br label %177, !dbg !5715

177:                                              ; preds = %165, %74, %157, %115, %163, %161, %173, %119, %122
  %178 = phi i8* [ %117, %119 ], [ %117, %122 ], [ %159, %161 ], [ %159, %163 ], [ %174, %173 ], [ %117, %115 ], [ %159, %157 ], [ %77, %74 ], [ %170, %165 ], !dbg !5607
  call void @llvm.dbg.value(metadata i8* %178, metadata !5465, metadata !DIExpression()), !dbg !5593
  %179 = and i24 %75, 3, !dbg !5716
  %180 = icmp eq i24 %179, 0, !dbg !5716
  br i1 %180, label %185, label %181, !dbg !5716

181:                                              ; preds = %177
  %182 = call fastcc i32 @outs(i32 (...)* noundef %0, i8* noundef %1, i8* noundef nonnull %30, i8* noundef nonnull %39) #36, !dbg !5717
  call void @llvm.dbg.value(metadata i32 %182, metadata !5542, metadata !DIExpression()), !dbg !5718
  %183 = icmp slt i32 %182, 0, !dbg !5719
  %184 = add i32 %182, %29, !dbg !5717
  call void @llvm.dbg.value(metadata i32 undef, metadata !5471, metadata !DIExpression()), !dbg !5593
  br i1 %183, label %359, label %361

185:                                              ; preds = %177
  %186 = load i8, i8* %21, align 1, !dbg !5721
  switch i8 %186, label %361 [
    i8 37, label %187
    i8 115, label %191
    i8 99, label %198
    i8 100, label %201
    i8 105, label %201
    i8 111, label %212
    i8 117, label %212
    i8 120, label %212
    i8 88, label %212
    i8 112, label %230
    i8 110, label %239
  ], !dbg !5722

187:                                              ; preds = %185
  %188 = call i32 %11(i32 noundef 37, i8* noundef %1) #37, !dbg !5723
  call void @llvm.dbg.value(metadata i32 %188, metadata !5546, metadata !DIExpression()), !dbg !5724
  %189 = icmp slt i32 %188, 0, !dbg !5725
  %190 = add i32 %29, 1, !dbg !5723
  call void @llvm.dbg.value(metadata i32 undef, metadata !5471, metadata !DIExpression()), !dbg !5593
  br i1 %189, label %359, label %361

191:                                              ; preds = %185
  %192 = load i8*, i8** %18, align 8, !dbg !5727
  call void @llvm.dbg.value(metadata i8* %192, metadata !5534, metadata !DIExpression()), !dbg !5607
  %193 = icmp sgt i32 %76, -1, !dbg !5728
  br i1 %193, label %194, label %196, !dbg !5730

194:                                              ; preds = %191
  %195 = call i32 @strnlen(i8* noundef %192, i32 noundef %76) #37, !dbg !5731
  call void @llvm.dbg.value(metadata i32 %195, metadata !5549, metadata !DIExpression()), !dbg !5733
  br label %241, !dbg !5734

196:                                              ; preds = %191
  %197 = call i32 @strlen(i8* noundef %192) #37, !dbg !5735
  call void @llvm.dbg.value(metadata i32 %197, metadata !5549, metadata !DIExpression()), !dbg !5733
  br label %241

198:                                              ; preds = %185
  call void @llvm.dbg.value(metadata i8* %10, metadata !5534, metadata !DIExpression()), !dbg !5607
  %199 = load i64, i64* %20, align 8, !dbg !5737
  %200 = trunc i64 %199 to i8, !dbg !5738
  store i8 %200, i8* %10, align 1, !dbg !5739
  call void @llvm.dbg.value(metadata i8* %23, metadata !5535, metadata !DIExpression()), !dbg !5607
  br label %245, !dbg !5740

201:                                              ; preds = %185, %185
  %202 = and i24 %75, 8, !dbg !5741
  %203 = icmp eq i24 %202, 0, !dbg !5741
  %204 = trunc i24 %75 to i8, !dbg !5743
  %205 = shl i8 %204, 1, !dbg !5743
  %206 = and i8 %205, 32, !dbg !5743
  %207 = select i1 %203, i8 %206, i8 43, !dbg !5743
  call void @llvm.dbg.value(metadata i8 %207, metadata !5536, metadata !DIExpression()), !dbg !5607
  %208 = load i64, i64* %20, align 8, !dbg !5744
  call void @llvm.dbg.value(metadata i64 %208, metadata !5472, metadata !DIExpression()), !dbg !5593
  %209 = icmp slt i64 %208, 0, !dbg !5745
  br i1 %209, label %210, label %212, !dbg !5747

210:                                              ; preds = %201
  call void @llvm.dbg.value(metadata i8 45, metadata !5536, metadata !DIExpression()), !dbg !5607
  %211 = sub nsw i64 0, %208, !dbg !5748
  store i64 %211, i64* %20, align 8, !dbg !5750
  br label %212, !dbg !5751

212:                                              ; preds = %201, %210, %185, %185, %185, %185
  %213 = phi i8 [ 0, %185 ], [ 0, %185 ], [ 0, %185 ], [ 0, %185 ], [ 45, %210 ], [ %207, %201 ], !dbg !5607
  call void @llvm.dbg.value(metadata i8 %213, metadata !5536, metadata !DIExpression()), !dbg !5607
  %214 = load i64, i64* %20, align 8, !dbg !5752
  %215 = call fastcc i8* @encode_uint(i64 noundef %214, %struct.conversion* noundef nonnull %13, i8* noundef nonnull %10, i8* noundef nonnull %14) #36, !dbg !5753
  call void @llvm.dbg.value(metadata i8* %215, metadata !5534, metadata !DIExpression()), !dbg !5607
  br label %216, !dbg !5754

216:                                              ; preds = %233, %212
  %217 = phi i8 [ 0, %233 ], [ %213, %212 ], !dbg !5755
  %218 = phi i8* [ %236, %233 ], [ %215, %212 ], !dbg !5756
  call void @llvm.dbg.value(metadata i8* %218, metadata !5534, metadata !DIExpression()), !dbg !5607
  call void @llvm.dbg.value(metadata i8 %217, metadata !5536, metadata !DIExpression()), !dbg !5607
  call void @llvm.dbg.label(metadata !5592), !dbg !5757
  %219 = icmp sgt i32 %76, -1, !dbg !5758
  br i1 %219, label %222, label %220, !dbg !5759

220:                                              ; preds = %216
  %221 = load i24, i24* %15, align 8, !dbg !5760
  br label %245, !dbg !5759

222:                                              ; preds = %216
  %223 = ptrtoint i8* %218 to i32, !dbg !5762
  %224 = sub i32 %22, %223, !dbg !5762
  call void @llvm.dbg.value(metadata i32 %224, metadata !5551, metadata !DIExpression()), !dbg !5763
  %225 = load i24, i24* %15, align 8, !dbg !5764
  %226 = and i24 %225, -65, !dbg !5764
  store i24 %226, i24* %15, align 8, !dbg !5764
  %227 = icmp ugt i32 %76, %224, !dbg !5765
  br i1 %227, label %228, label %245, !dbg !5767

228:                                              ; preds = %222
  %229 = sub nsw i32 %76, %224, !dbg !5768
  store i32 %229, i32* %16, align 4, !dbg !5770
  br label %245, !dbg !5771

230:                                              ; preds = %185
  %231 = load i8*, i8** %18, align 8, !dbg !5772
  %232 = icmp eq i8* %231, null, !dbg !5774
  br i1 %232, label %245, label %233, !dbg !5775

233:                                              ; preds = %230
  %234 = ptrtoint i8* %231 to i32, !dbg !5776
  %235 = zext i32 %234 to i64, !dbg !5776
  %236 = call fastcc i8* @encode_uint(i64 noundef %235, %struct.conversion* noundef nonnull %13, i8* noundef nonnull %10, i8* noundef nonnull %14) #36, !dbg !5778
  call void @llvm.dbg.value(metadata i8* %236, metadata !5534, metadata !DIExpression()), !dbg !5607
  %237 = load i24, i24* %15, align 8, !dbg !5779
  %238 = or i24 %237, 1048576, !dbg !5779
  store i24 %238, i24* %15, align 8, !dbg !5779
  store i8 120, i8* %21, align 1, !dbg !5780
  br label %216, !dbg !5781

239:                                              ; preds = %185
  %240 = load i8*, i8** %18, align 8, !dbg !5782
  call fastcc void @store_count(%struct.conversion* noundef nonnull %13, i8* noundef %240, i32 noundef %29) #36, !dbg !5785
  br label %361, !dbg !5786

241:                                              ; preds = %194, %196
  %242 = phi i32 [ %195, %194 ], [ %197, %196 ], !dbg !5787
  call void @llvm.dbg.value(metadata i32 %242, metadata !5549, metadata !DIExpression()), !dbg !5733
  %243 = getelementptr inbounds i8, i8* %192, i32 %242, !dbg !5788
  call void @llvm.dbg.value(metadata i32 -1, metadata !5533, metadata !DIExpression()), !dbg !5607
  call void @llvm.dbg.value(metadata i32 %29, metadata !5471, metadata !DIExpression()), !dbg !5593
  call void @llvm.dbg.value(metadata i8* %192, metadata !5534, metadata !DIExpression()), !dbg !5607
  call void @llvm.dbg.value(metadata i8* %243, metadata !5535, metadata !DIExpression()), !dbg !5607
  call void @llvm.dbg.value(metadata i8 0, metadata !5536, metadata !DIExpression()), !dbg !5607
  %244 = icmp eq i8* %192, null, !dbg !5789
  br i1 %244, label %361, label %245, !dbg !5791, !llvm.loop !5603

245:                                              ; preds = %220, %230, %222, %228, %198, %241
  %246 = phi i24 [ %75, %241 ], [ %75, %230 ], [ %226, %222 ], [ %226, %228 ], [ %75, %198 ], [ %221, %220 ], !dbg !5760
  %247 = phi i8* [ %192, %241 ], [ getelementptr inbounds ([6 x i8], [6 x i8]* @.str.5, i32 0, i32 0), %230 ], [ %218, %222 ], [ %218, %228 ], [ %10, %198 ], [ %218, %220 ]
  %248 = phi i8* [ %243, %241 ], [ getelementptr inbounds ([6 x i8], [6 x i8]* @.str.5, i32 0, i32 5), %230 ], [ %14, %222 ], [ %14, %228 ], [ %23, %198 ], [ %14, %220 ]
  %249 = phi i8 [ 0, %241 ], [ 0, %230 ], [ %217, %222 ], [ %217, %228 ], [ 0, %198 ], [ %217, %220 ]
  call void @llvm.dbg.value(metadata !DIArgList(i8* %248, i8* %247), metadata !5554, metadata !DIExpression(DW_OP_LLVM_arg, 0, DW_OP_LLVM_arg, 1, DW_OP_minus, DW_OP_stack_value)), !dbg !5607
  call void @llvm.dbg.value(metadata i32 0, metadata !5555, metadata !DIExpression()), !dbg !5607
  %250 = zext i8 %249 to i32, !dbg !5792
  %251 = icmp eq i8 %249, 0, !dbg !5794
  call void @llvm.dbg.value(metadata !DIArgList(i8* %248, i1 %251, i8* %247), metadata !5554, metadata !DIExpression(DW_OP_LLVM_arg, 0, DW_OP_LLVM_arg, 2, DW_OP_minus, DW_OP_LLVM_arg, 1, DW_OP_constu, 18446744073709551615, DW_OP_xor, DW_OP_LLVM_convert, 1, DW_ATE_unsigned, DW_OP_LLVM_convert, 32, DW_ATE_unsigned, DW_OP_plus, DW_OP_stack_value)), !dbg !5607
  %252 = and i24 %246, 1048576, !dbg !5760
  %253 = icmp eq i24 %252, 0, !dbg !5760
  call void @llvm.dbg.value(metadata !DIArgList(i8* %248, i24 undef, i1 %251, i8* %247), metadata !5554, metadata !DIExpression(DW_OP_LLVM_arg, 0, DW_OP_LLVM_arg, 3, DW_OP_minus, DW_OP_LLVM_arg, 2, DW_OP_constu, 18446744073709551615, DW_OP_xor, DW_OP_LLVM_convert, 1, DW_ATE_unsigned, DW_OP_LLVM_convert, 32, DW_ATE_unsigned, DW_OP_plus, DW_OP_LLVM_arg, 1, DW_OP_LLVM_convert, 24, DW_ATE_unsigned, DW_OP_LLVM_convert, 32, DW_ATE_unsigned, DW_OP_plus, DW_OP_stack_value)), !dbg !5607
  call void @llvm.dbg.value(metadata !DIArgList(i8* %248, i32 undef, i24 undef, i1 %251, i8* %247), metadata !5554, metadata !DIExpression(DW_OP_LLVM_arg, 0, DW_OP_LLVM_arg, 4, DW_OP_minus, DW_OP_LLVM_arg, 3, DW_OP_constu, 18446744073709551615, DW_OP_xor, DW_OP_LLVM_convert, 1, DW_ATE_unsigned, DW_OP_LLVM_convert, 32, DW_ATE_unsigned, DW_OP_plus, DW_OP_LLVM_arg, 2, DW_OP_LLVM_convert, 24, DW_ATE_unsigned, DW_OP_LLVM_convert, 32, DW_ATE_unsigned, DW_OP_plus, DW_OP_LLVM_arg, 1, DW_OP_plus, DW_OP_stack_value)), !dbg !5607
  call void @llvm.dbg.value(metadata i32 undef, metadata !5554, metadata !DIExpression()), !dbg !5607
  %254 = icmp sgt i32 %58, 0, !dbg !5795
  br i1 %254, label %255, label %302, !dbg !5796

255:                                              ; preds = %245
  %256 = ptrtoint i8* %248 to i32, !dbg !5797
  call void @llvm.dbg.value(metadata !DIArgList(i32 %256, i32 undef, i24 undef, i1 %251, i8* %247), metadata !5554, metadata !DIExpression(DW_OP_LLVM_arg, 0, DW_OP_LLVM_arg, 4, DW_OP_minus, DW_OP_LLVM_arg, 3, DW_OP_constu, 18446744073709551615, DW_OP_xor, DW_OP_LLVM_convert, 1, DW_ATE_unsigned, DW_OP_LLVM_convert, 32, DW_ATE_unsigned, DW_OP_plus, DW_OP_LLVM_arg, 2, DW_OP_LLVM_convert, 24, DW_ATE_unsigned, DW_OP_LLVM_convert, 32, DW_ATE_unsigned, DW_OP_plus, DW_OP_LLVM_arg, 1, DW_OP_plus, DW_OP_stack_value)), !dbg !5607
  %257 = ptrtoint i8* %247 to i32, !dbg !5797
  call void @llvm.dbg.value(metadata !DIArgList(i8* %248, i32 undef, i24 undef, i1 %251, i32 %257), metadata !5554, metadata !DIExpression(DW_OP_LLVM_arg, 0, DW_OP_LLVM_arg, 4, DW_OP_minus, DW_OP_LLVM_arg, 3, DW_OP_constu, 18446744073709551615, DW_OP_xor, DW_OP_LLVM_convert, 1, DW_ATE_unsigned, DW_OP_LLVM_convert, 32, DW_ATE_unsigned, DW_OP_plus, DW_OP_LLVM_arg, 2, DW_OP_LLVM_convert, 24, DW_ATE_unsigned, DW_OP_LLVM_convert, 32, DW_ATE_unsigned, DW_OP_plus, DW_OP_LLVM_arg, 1, DW_OP_plus, DW_OP_stack_value)), !dbg !5607
  %258 = sub i32 %256, %257, !dbg !5797
  call void @llvm.dbg.value(metadata !DIArgList(i32 %258, i32 undef, i24 undef, i1 %251), metadata !5554, metadata !DIExpression(DW_OP_LLVM_arg, 0, DW_OP_LLVM_arg, 3, DW_OP_constu, 18446744073709551615, DW_OP_xor, DW_OP_LLVM_convert, 1, DW_ATE_unsigned, DW_OP_LLVM_convert, 32, DW_ATE_unsigned, DW_OP_plus, DW_OP_LLVM_arg, 2, DW_OP_LLVM_convert, 24, DW_ATE_unsigned, DW_OP_LLVM_convert, 32, DW_ATE_unsigned, DW_OP_plus, DW_OP_LLVM_arg, 1, DW_OP_plus, DW_OP_stack_value)), !dbg !5607
  %259 = xor i1 %251, true, !dbg !5798
  call void @llvm.dbg.value(metadata !DIArgList(i8* %248, i32 undef, i24 undef, i1 %259, i8* %247), metadata !5554, metadata !DIExpression(DW_OP_LLVM_arg, 0, DW_OP_LLVM_arg, 4, DW_OP_minus, DW_OP_LLVM_arg, 3, DW_OP_LLVM_convert, 1, DW_ATE_unsigned, DW_OP_LLVM_convert, 32, DW_ATE_unsigned, DW_OP_plus, DW_OP_LLVM_arg, 2, DW_OP_LLVM_convert, 24, DW_ATE_unsigned, DW_OP_LLVM_convert, 32, DW_ATE_unsigned, DW_OP_plus, DW_OP_LLVM_arg, 1, DW_OP_plus, DW_OP_stack_value)), !dbg !5607
  %260 = zext i1 %259 to i32, !dbg !5798
  call void @llvm.dbg.value(metadata !DIArgList(i8* %248, i32 undef, i24 undef, i32 %260, i8* %247), metadata !5554, metadata !DIExpression(DW_OP_LLVM_arg, 0, DW_OP_LLVM_arg, 4, DW_OP_minus, DW_OP_LLVM_arg, 3, DW_OP_plus, DW_OP_LLVM_arg, 2, DW_OP_LLVM_convert, 24, DW_ATE_unsigned, DW_OP_LLVM_convert, 32, DW_ATE_unsigned, DW_OP_plus, DW_OP_LLVM_arg, 1, DW_OP_plus, DW_OP_stack_value)), !dbg !5607
  %261 = add i32 %258, %260, !dbg !5798
  call void @llvm.dbg.value(metadata !DIArgList(i32 %261, i32 undef, i24 undef), metadata !5554, metadata !DIExpression(DW_OP_LLVM_arg, 0, DW_OP_LLVM_arg, 2, DW_OP_LLVM_convert, 24, DW_ATE_unsigned, DW_OP_LLVM_convert, 32, DW_ATE_unsigned, DW_OP_plus, DW_OP_LLVM_arg, 1, DW_OP_plus, DW_OP_stack_value)), !dbg !5607
  %262 = lshr i24 %246, 19, !dbg !5799
  %263 = and i24 %262, 1, !dbg !5799
  %264 = select i1 %253, i24 %263, i24 2, !dbg !5799
  call void @llvm.dbg.value(metadata !DIArgList(i8* %248, i32 undef, i24 %264, i1 %251, i8* %247), metadata !5554, metadata !DIExpression(DW_OP_LLVM_arg, 0, DW_OP_LLVM_arg, 4, DW_OP_minus, DW_OP_LLVM_arg, 3, DW_OP_constu, 18446744073709551615, DW_OP_xor, DW_OP_LLVM_convert, 1, DW_ATE_unsigned, DW_OP_LLVM_convert, 32, DW_ATE_unsigned, DW_OP_plus, DW_OP_LLVM_arg, 2, DW_OP_LLVM_convert, 24, DW_ATE_unsigned, DW_OP_LLVM_convert, 32, DW_ATE_unsigned, DW_OP_plus, DW_OP_LLVM_arg, 1, DW_OP_plus, DW_OP_stack_value)), !dbg !5607
  %265 = zext i24 %264 to i32, !dbg !5799
  call void @llvm.dbg.value(metadata !DIArgList(i8* %248, i32 undef, i32 %265, i1 %251, i8* %247), metadata !5554, metadata !DIExpression(DW_OP_LLVM_arg, 0, DW_OP_LLVM_arg, 4, DW_OP_minus, DW_OP_LLVM_arg, 3, DW_OP_constu, 18446744073709551615, DW_OP_xor, DW_OP_LLVM_convert, 1, DW_ATE_unsigned, DW_OP_LLVM_convert, 32, DW_ATE_unsigned, DW_OP_plus, DW_OP_LLVM_arg, 2, DW_OP_plus, DW_OP_LLVM_arg, 1, DW_OP_plus, DW_OP_stack_value)), !dbg !5607
  %266 = add i32 %261, %265, !dbg !5800
  call void @llvm.dbg.value(metadata !DIArgList(i32 %266, i32 undef), metadata !5554, metadata !DIExpression(DW_OP_LLVM_arg, 0, DW_OP_LLVM_arg, 1, DW_OP_plus, DW_OP_stack_value)), !dbg !5607
  %267 = and i24 %246, 4194304, !dbg !5801
  %268 = icmp eq i24 %267, 0, !dbg !5801
  %269 = load i32, i32* %16, align 4, !dbg !5803
  call void @llvm.dbg.value(metadata !DIArgList(i8* %248, i32 %269, i24 undef, i1 %251, i8* %247), metadata !5554, metadata !DIExpression(DW_OP_LLVM_arg, 0, DW_OP_LLVM_arg, 4, DW_OP_minus, DW_OP_LLVM_arg, 3, DW_OP_constu, 18446744073709551615, DW_OP_xor, DW_OP_LLVM_convert, 1, DW_ATE_unsigned, DW_OP_LLVM_convert, 32, DW_ATE_unsigned, DW_OP_plus, DW_OP_LLVM_arg, 2, DW_OP_LLVM_convert, 24, DW_ATE_unsigned, DW_OP_LLVM_convert, 32, DW_ATE_unsigned, DW_OP_plus, DW_OP_LLVM_arg, 1, DW_OP_plus, DW_OP_stack_value)), !dbg !5607
  call void @llvm.dbg.value(metadata i32 undef, metadata !5554, metadata !DIExpression()), !dbg !5607
  %270 = load i32, i32* %17, align 8, !dbg !5804
  %271 = select i1 %268, i32 0, i32 %270, !dbg !5804
  call void @llvm.dbg.value(metadata i32 undef, metadata !5554, metadata !DIExpression()), !dbg !5607
  %272 = add i32 %266, %269, !dbg !5804
  %273 = add i32 %272, %271, !dbg !5805
  %274 = sub i32 %58, %273, !dbg !5805
  call void @llvm.dbg.value(metadata i32 %274, metadata !5532, metadata !DIExpression()), !dbg !5607
  %275 = and i24 %246, 4, !dbg !5806
  %276 = icmp eq i24 %275, 0, !dbg !5806
  br i1 %276, label %277, label %302, !dbg !5807

277:                                              ; preds = %255
  call void @llvm.dbg.value(metadata i8 32, metadata !5556, metadata !DIExpression()), !dbg !5808
  %278 = and i24 %246, 64, !dbg !5809
  %279 = icmp eq i24 %278, 0, !dbg !5809
  %280 = select i1 %279, i1 true, i1 %251, !dbg !5810
  %281 = select i1 %279, i8 %249, i8 0, !dbg !5810
  %282 = select i1 %279, i32 32, i32 48, !dbg !5810
  br i1 %280, label %287, label %283, !dbg !5810

283:                                              ; preds = %277
  %284 = call i32 %11(i32 noundef %250, i8* noundef %1) #37, !dbg !5811
  call void @llvm.dbg.value(metadata i32 %284, metadata !5561, metadata !DIExpression()), !dbg !5812
  %285 = icmp slt i32 %284, 0, !dbg !5813
  %286 = add i32 %29, 1, !dbg !5811
  call void @llvm.dbg.value(metadata i32 undef, metadata !5471, metadata !DIExpression()), !dbg !5593
  br i1 %285, label %359, label %287

287:                                              ; preds = %277, %283
  %288 = phi i8 [ %281, %277 ], [ 0, %283 ], !dbg !5607
  %289 = phi i32 [ %282, %277 ], [ 48, %283 ]
  %290 = phi i32 [ %29, %277 ], [ %286, %283 ], !dbg !5597
  call void @llvm.dbg.value(metadata i32 %290, metadata !5471, metadata !DIExpression()), !dbg !5593
  call void @llvm.dbg.value(metadata i8 undef, metadata !5556, metadata !DIExpression()), !dbg !5808
  call void @llvm.dbg.value(metadata i8 %288, metadata !5536, metadata !DIExpression()), !dbg !5607
  %291 = call i32 @llvm.smin.i32(i32 %274, i32 0), !dbg !5815
  %292 = add i32 %291, -1, !dbg !5815
  br label %293, !dbg !5815

293:                                              ; preds = %297, %287
  %294 = phi i32 [ %274, %287 ], [ %298, %297 ], !dbg !5816
  %295 = phi i32 [ %290, %287 ], [ %301, %297 ], !dbg !5597
  call void @llvm.dbg.value(metadata i32 %295, metadata !5471, metadata !DIExpression()), !dbg !5593
  call void @llvm.dbg.value(metadata i32 %294, metadata !5532, metadata !DIExpression()), !dbg !5607
  call void @llvm.dbg.value(metadata i32 %294, metadata !5532, metadata !DIExpression(DW_OP_constu, 1, DW_OP_minus, DW_OP_stack_value)), !dbg !5607
  %296 = icmp sgt i32 %294, 0, !dbg !5817
  br i1 %296, label %297, label %302, !dbg !5815

297:                                              ; preds = %293
  %298 = add nsw i32 %294, -1, !dbg !5818
  call void @llvm.dbg.value(metadata i32 %298, metadata !5532, metadata !DIExpression()), !dbg !5607
  %299 = call i32 %11(i32 noundef %289, i8* noundef %1) #37, !dbg !5819
  call void @llvm.dbg.value(metadata i32 %299, metadata !5567, metadata !DIExpression()), !dbg !5820
  %300 = icmp slt i32 %299, 0, !dbg !5821
  %301 = add i32 %295, 1, !dbg !5819
  call void @llvm.dbg.value(metadata i32 undef, metadata !5471, metadata !DIExpression()), !dbg !5593
  br i1 %300, label %359, label %293, !llvm.loop !5823

302:                                              ; preds = %293, %255, %245
  %303 = phi i8 [ %249, %255 ], [ %249, %245 ], [ %288, %293 ], !dbg !5607
  %304 = phi i32 [ %274, %255 ], [ %58, %245 ], [ %292, %293 ], !dbg !5607
  %305 = phi i32 [ %29, %255 ], [ %29, %245 ], [ %295, %293 ], !dbg !5597
  call void @llvm.dbg.value(metadata i32 %305, metadata !5471, metadata !DIExpression()), !dbg !5593
  call void @llvm.dbg.value(metadata i32 %304, metadata !5532, metadata !DIExpression()), !dbg !5607
  call void @llvm.dbg.value(metadata i8 %303, metadata !5536, metadata !DIExpression()), !dbg !5607
  %306 = icmp eq i8 %303, 0, !dbg !5825
  br i1 %306, label %312, label %307, !dbg !5826

307:                                              ; preds = %302
  %308 = zext i8 %303 to i32, !dbg !5827
  %309 = call i32 %11(i32 noundef %308, i8* noundef %1) #37, !dbg !5828
  call void @llvm.dbg.value(metadata i32 %309, metadata !5570, metadata !DIExpression()), !dbg !5829
  %310 = icmp slt i32 %309, 0, !dbg !5830
  %311 = add i32 %305, 1, !dbg !5828
  call void @llvm.dbg.value(metadata i32 undef, metadata !5471, metadata !DIExpression()), !dbg !5593
  br i1 %310, label %359, label %312

312:                                              ; preds = %307, %302
  %313 = phi i32 [ %311, %307 ], [ %305, %302 ], !dbg !5597
  call void @llvm.dbg.value(metadata i32 %313, metadata !5471, metadata !DIExpression()), !dbg !5593
  %314 = lshr i24 %246, 20, !dbg !5832
  %315 = lshr i24 %246, 19, !dbg !5833
  %316 = or i24 %314, %315, !dbg !5834
  %317 = and i24 %316, 1, !dbg !5834
  %318 = icmp eq i24 %317, 0, !dbg !5834
  br i1 %318, label %323, label %319, !dbg !5835

319:                                              ; preds = %312
  %320 = call i32 %11(i32 noundef 48, i8* noundef %1) #37, !dbg !5836
  call void @llvm.dbg.value(metadata i32 %320, metadata !5574, metadata !DIExpression()), !dbg !5837
  %321 = icmp slt i32 %320, 0, !dbg !5838
  %322 = add i32 %313, 1, !dbg !5836
  call void @llvm.dbg.value(metadata i32 undef, metadata !5471, metadata !DIExpression()), !dbg !5593
  br i1 %321, label %359, label %323

323:                                              ; preds = %319, %312
  %324 = phi i32 [ %322, %319 ], [ %313, %312 ], !dbg !5597
  call void @llvm.dbg.value(metadata i32 %324, metadata !5471, metadata !DIExpression()), !dbg !5593
  br i1 %253, label %331, label %325, !dbg !5840

325:                                              ; preds = %323
  %326 = load i8, i8* %21, align 1, !dbg !5841
  %327 = zext i8 %326 to i32, !dbg !5841
  %328 = call i32 %11(i32 noundef %327, i8* noundef %1) #37, !dbg !5841
  call void @llvm.dbg.value(metadata i32 %328, metadata !5580, metadata !DIExpression()), !dbg !5842
  %329 = icmp slt i32 %328, 0, !dbg !5843
  %330 = add i32 %324, 1, !dbg !5841
  call void @llvm.dbg.value(metadata i32 undef, metadata !5471, metadata !DIExpression()), !dbg !5593
  br i1 %329, label %359, label %331

331:                                              ; preds = %325, %323
  %332 = phi i32 [ %330, %325 ], [ %324, %323 ], !dbg !5597
  call void @llvm.dbg.value(metadata i32 %332, metadata !5471, metadata !DIExpression()), !dbg !5593
  %333 = load i32, i32* %16, align 4, !dbg !5845
  call void @llvm.dbg.value(metadata i32 %333, metadata !5555, metadata !DIExpression()), !dbg !5607
  br label %334, !dbg !5846

334:                                              ; preds = %338, %331
  %335 = phi i32 [ %333, %331 ], [ %339, %338 ], !dbg !5847
  %336 = phi i32 [ %332, %331 ], [ %342, %338 ], !dbg !5597
  call void @llvm.dbg.value(metadata i32 %336, metadata !5471, metadata !DIExpression()), !dbg !5593
  call void @llvm.dbg.value(metadata i32 %335, metadata !5555, metadata !DIExpression(DW_OP_constu, 1, DW_OP_minus, DW_OP_stack_value)), !dbg !5607
  %337 = icmp sgt i32 %335, 0, !dbg !5848
  br i1 %337, label %338, label %343, !dbg !5846

338:                                              ; preds = %334
  %339 = add nsw i32 %335, -1, !dbg !5849
  call void @llvm.dbg.value(metadata i32 %339, metadata !5555, metadata !DIExpression()), !dbg !5607
  %340 = call i32 %11(i32 noundef 48, i8* noundef %1) #37, !dbg !5850
  call void @llvm.dbg.value(metadata i32 %340, metadata !5584, metadata !DIExpression()), !dbg !5851
  %341 = icmp slt i32 %340, 0, !dbg !5852
  %342 = add i32 %336, 1, !dbg !5850
  call void @llvm.dbg.value(metadata i32 undef, metadata !5471, metadata !DIExpression()), !dbg !5593
  br i1 %341, label %359, label %334, !llvm.loop !5854

343:                                              ; preds = %334
  %344 = call fastcc i32 @outs(i32 (...)* noundef %0, i8* noundef %1, i8* noundef nonnull %247, i8* noundef %248) #36, !dbg !5856
  call void @llvm.dbg.value(metadata i32 %344, metadata !5587, metadata !DIExpression()), !dbg !5857
  %345 = icmp slt i32 %344, 0, !dbg !5858
  call void @llvm.dbg.value(metadata i32 undef, metadata !5471, metadata !DIExpression()), !dbg !5593
  br i1 %345, label %359, label %346

346:                                              ; preds = %343
  %347 = add i32 %344, %336, !dbg !5856
  call void @llvm.dbg.value(metadata i32 %347, metadata !5471, metadata !DIExpression()), !dbg !5593
  call void @llvm.dbg.value(metadata i32 %304, metadata !5532, metadata !DIExpression()), !dbg !5607
  %348 = icmp sgt i32 %304, 0, !dbg !5860
  br i1 %348, label %349, label %361, !dbg !5861

349:                                              ; preds = %346
  %350 = add nuw i32 %344, %304, !dbg !5861
  %351 = add i32 %350, %336, !dbg !5861
  br label %352, !dbg !5861

352:                                              ; preds = %349, %356
  %353 = phi i32 [ %357, %356 ], [ %304, %349 ]
  call void @llvm.dbg.value(metadata i32 undef, metadata !5471, metadata !DIExpression()), !dbg !5593
  call void @llvm.dbg.value(metadata i32 %353, metadata !5532, metadata !DIExpression()), !dbg !5607
  %354 = call i32 %11(i32 noundef 32, i8* noundef %1) #37, !dbg !5862
  call void @llvm.dbg.value(metadata i32 %354, metadata !5589, metadata !DIExpression()), !dbg !5863
  %355 = icmp slt i32 %354, 0, !dbg !5864
  br i1 %355, label %359, label %356

356:                                              ; preds = %352
  %357 = add nsw i32 %353, -1, !dbg !5866
  call void @llvm.dbg.value(metadata i32 undef, metadata !5471, metadata !DIExpression(DW_OP_plus_uconst, 1, DW_OP_stack_value)), !dbg !5593
  call void @llvm.dbg.value(metadata i32 %357, metadata !5532, metadata !DIExpression()), !dbg !5607
  %358 = icmp sgt i32 %353, 1, !dbg !5860
  br i1 %358, label %352, label %361, !dbg !5861, !llvm.loop !5867

359:                                              ; preds = %343, %325, %319, %307, %187, %283, %181, %297, %338, %352
  %360 = phi i32 [ %354, %352 ], [ %340, %338 ], [ %299, %297 ], [ %188, %187 ], [ %309, %307 ], [ %320, %319 ], [ %328, %325 ], [ %344, %343 ], [ %284, %283 ], [ %182, %181 ]
  call void @llvm.dbg.value(metadata i32 %362, metadata !5471, metadata !DIExpression()), !dbg !5593
  call void @llvm.lifetime.end.p0i8(i64 24, i8* nonnull %12) #32, !dbg !5604
  br label %363

361:                                              ; preds = %356, %346, %187, %239, %185, %181, %241
  %362 = phi i32 [ %29, %241 ], [ %184, %181 ], [ %190, %187 ], [ %29, %239 ], [ %29, %185 ], [ %347, %346 ], [ %351, %356 ], !dbg !5597
  call void @llvm.dbg.value(metadata i32 %362, metadata !5471, metadata !DIExpression()), !dbg !5593
  call void @llvm.lifetime.end.p0i8(i64 24, i8* nonnull %12) #32, !dbg !5604
  br label %24

363:                                              ; preds = %28, %32, %359
  %364 = phi i32 [ %360, %359 ], [ %29, %28 ], [ %35, %32 ], !dbg !5593
  call void @llvm.lifetime.end.p0i8(i64 22, i8* nonnull %10) #32, !dbg !5869
  ret i32 %364, !dbg !5869
}

; Function Attrs: argmemonly nofree nounwind willreturn writeonly
declare void @llvm.memset.p0i8.i32(i8* nocapture writeonly, i8, i32, i1 immarg) #19

; Function Attrs: nofree noinline norecurse nosync nounwind optsize
define internal fastcc nonnull i8* @extract_conversion(%struct.conversion* nocapture noundef %0, i8* noundef %1) unnamed_addr #20 !dbg !5870 {
  call void @llvm.dbg.value(metadata %struct.conversion* %0, metadata !5874, metadata !DIExpression()), !dbg !5876
  call void @llvm.dbg.value(metadata i8* %1, metadata !5875, metadata !DIExpression()), !dbg !5876
  %3 = bitcast %struct.conversion* %0 to i24*, !dbg !5877
  store i24 0, i24* %3, align 4, !dbg !5877
  %4 = getelementptr inbounds %struct.conversion, %struct.conversion* %0, i32 0, i32 1, !dbg !5877
  store i8 0, i8* %4, align 1, !dbg !5877
  %5 = getelementptr inbounds %struct.conversion, %struct.conversion* %0, i32 0, i32 2, i32 0, !dbg !5877
  store i32 0, i32* %5, align 4, !dbg !5877
  %6 = getelementptr inbounds %struct.conversion, %struct.conversion* %0, i32 0, i32 3, i32 0, !dbg !5877
  store i32 0, i32* %6, align 4, !dbg !5877
  %7 = getelementptr inbounds i8, i8* %1, i32 1, !dbg !5878
  call void @llvm.dbg.value(metadata i8* %7, metadata !5875, metadata !DIExpression()), !dbg !5876
  %8 = load i8, i8* %7, align 1, !dbg !5879
  %9 = icmp eq i8 %8, 37, !dbg !5881
  br i1 %9, label %10, label %12, !dbg !5882

10:                                               ; preds = %2
  %11 = getelementptr inbounds i8, i8* %1, i32 2, !dbg !5883
  call void @llvm.dbg.value(metadata i8* %11, metadata !5875, metadata !DIExpression()), !dbg !5876
  store i8 37, i8* %4, align 1, !dbg !5885
  br label %18, !dbg !5886

12:                                               ; preds = %2
  %13 = tail call fastcc i8* @extract_flags(%struct.conversion* noundef nonnull %0, i8* noundef nonnull %7) #36, !dbg !5887
  call void @llvm.dbg.value(metadata i8* %13, metadata !5875, metadata !DIExpression()), !dbg !5876
  %14 = tail call fastcc i8* @extract_width(%struct.conversion* noundef nonnull %0, i8* noundef %13) #36, !dbg !5888
  call void @llvm.dbg.value(metadata i8* %14, metadata !5875, metadata !DIExpression()), !dbg !5876
  %15 = tail call fastcc i8* @extract_prec(%struct.conversion* noundef nonnull %0, i8* noundef %14) #36, !dbg !5889
  call void @llvm.dbg.value(metadata i8* %15, metadata !5875, metadata !DIExpression()), !dbg !5876
  %16 = tail call fastcc i8* @extract_length(%struct.conversion* noundef nonnull %0, i8* noundef %15) #36, !dbg !5890
  call void @llvm.dbg.value(metadata i8* %16, metadata !5875, metadata !DIExpression()), !dbg !5876
  %17 = tail call fastcc i8* @extract_specifier(%struct.conversion* noundef nonnull %0, i8* noundef %16) #36, !dbg !5891
  call void @llvm.dbg.value(metadata i8* %17, metadata !5875, metadata !DIExpression()), !dbg !5876
  br label %18, !dbg !5892

18:                                               ; preds = %12, %10
  %19 = phi i8* [ %11, %10 ], [ %17, %12 ], !dbg !5876
  ret i8* %19, !dbg !5893
}

; Function Attrs: noinline nounwind optsize
define internal fastcc i32 @outs(i32 (...)* nocapture noundef readonly %0, i8* noundef %1, i8* noundef readonly %2, i8* noundef readnone %3) unnamed_addr #1 !dbg !5894 {
  call void @llvm.dbg.value(metadata i32 (...)* %0, metadata !5898, metadata !DIExpression()), !dbg !5905
  call void @llvm.dbg.value(metadata i8* %1, metadata !5899, metadata !DIExpression()), !dbg !5905
  call void @llvm.dbg.value(metadata i8* %2, metadata !5900, metadata !DIExpression()), !dbg !5905
  call void @llvm.dbg.value(metadata i8* %3, metadata !5901, metadata !DIExpression()), !dbg !5905
  call void @llvm.dbg.value(metadata i32 0, metadata !5902, metadata !DIExpression()), !dbg !5905
  %5 = icmp eq i8* %3, null
  %6 = bitcast i32 (...)* %0 to i32 (i32, i8*)*
  br label %7, !dbg !5906

7:                                                ; preds = %17, %4
  %8 = phi i8* [ %2, %4 ], [ %19, %17 ]
  %9 = phi i32 [ 0, %4 ], [ %23, %17 ], !dbg !5907
  call void @llvm.dbg.value(metadata i32 %9, metadata !5902, metadata !DIExpression()), !dbg !5905
  call void @llvm.dbg.value(metadata i8* %8, metadata !5900, metadata !DIExpression()), !dbg !5905
  %10 = icmp ult i8* %8, %3, !dbg !5908
  br i1 %10, label %11, label %13, !dbg !5909

11:                                               ; preds = %7
  %12 = load i8, i8* %8, align 1, !dbg !5910
  br label %17, !dbg !5909

13:                                               ; preds = %7
  br i1 %5, label %14, label %24, !dbg !5911

14:                                               ; preds = %13
  %15 = load i8, i8* %8, align 1, !dbg !5912
  %16 = icmp eq i8 %15, 0, !dbg !5911
  br i1 %16, label %24, label %17, !dbg !5906

17:                                               ; preds = %11, %14
  %18 = phi i8 [ %12, %11 ], [ %15, %14 ], !dbg !5910
  %19 = getelementptr inbounds i8, i8* %8, i32 1, !dbg !5913
  call void @llvm.dbg.value(metadata i8* %19, metadata !5900, metadata !DIExpression()), !dbg !5905
  %20 = zext i8 %18 to i32, !dbg !5914
  %21 = tail call i32 %6(i32 noundef %20, i8* noundef %1) #37, !dbg !5915
  call void @llvm.dbg.value(metadata i32 %21, metadata !5903, metadata !DIExpression()), !dbg !5916
  %22 = icmp slt i32 %21, 0, !dbg !5917
  %23 = add i32 %9, 1, !dbg !5919
  call void @llvm.dbg.value(metadata i32 undef, metadata !5902, metadata !DIExpression()), !dbg !5905
  br i1 %22, label %24, label %7, !llvm.loop !5920

24:                                               ; preds = %14, %13, %17
  %25 = phi i32 [ %21, %17 ], [ %9, %13 ], [ %9, %14 ], !dbg !5905
  ret i32 %25, !dbg !5922
}

; Function Attrs: nofree noinline norecurse nosync nounwind optsize
define internal fastcc nonnull i8* @encode_uint(i64 noundef %0, %struct.conversion* nocapture noundef %1, i8* noundef %2, i8* noundef %3) unnamed_addr #20 !dbg !5923 {
  call void @llvm.dbg.value(metadata i64 %0, metadata !5927, metadata !DIExpression()), !dbg !5937
  call void @llvm.dbg.value(metadata %struct.conversion* %1, metadata !5928, metadata !DIExpression()), !dbg !5937
  call void @llvm.dbg.value(metadata i8* %2, metadata !5929, metadata !DIExpression()), !dbg !5937
  call void @llvm.dbg.value(metadata i8* %3, metadata !5930, metadata !DIExpression()), !dbg !5937
  %5 = getelementptr inbounds %struct.conversion, %struct.conversion* %1, i32 0, i32 1, !dbg !5938
  %6 = load i8, i8* %5, align 1, !dbg !5938
  %7 = zext i8 %6 to i32, !dbg !5939
  %8 = tail call fastcc i32 @isupper(i32 noundef %7) #36, !dbg !5940
  %9 = icmp eq i32 %8, 0, !dbg !5940
  call void @llvm.dbg.value(metadata i1 %9, metadata !5931, metadata !DIExpression(DW_OP_LLVM_convert, 1, DW_ATE_unsigned, DW_OP_LLVM_convert, 8, DW_ATE_unsigned, DW_OP_stack_value)), !dbg !5937
  %10 = tail call fastcc i32 @conversion_radix(i8 noundef zeroext %6) #36, !dbg !5941
  call void @llvm.dbg.value(metadata i32 %10, metadata !5932, metadata !DIExpression()), !dbg !5937
  %11 = ptrtoint i8* %3 to i32, !dbg !5942
  %12 = ptrtoint i8* %2 to i32, !dbg !5942
  %13 = sub i32 %11, %12, !dbg !5942
  %14 = getelementptr inbounds i8, i8* %2, i32 %13, !dbg !5943
  call void @llvm.dbg.value(metadata i8* %14, metadata !5934, metadata !DIExpression()), !dbg !5937
  %15 = zext i32 %10 to i64
  %16 = select i1 %9, i32 87, i32 55
  br label %17, !dbg !5944

17:                                               ; preds = %17, %4
  %18 = phi i8* [ %14, %4 ], [ %30, %17 ], !dbg !5937
  %19 = phi i64 [ %0, %4 ], [ %22, %17 ]
  call void @llvm.dbg.value(metadata i64 %19, metadata !5927, metadata !DIExpression()), !dbg !5937
  call void @llvm.dbg.value(metadata i8* %18, metadata !5934, metadata !DIExpression()), !dbg !5937
  %20 = freeze i64 %19
  %21 = freeze i64 %15
  %22 = udiv i64 %20, %21, !dbg !5945
  %23 = mul i64 %22, %21
  %24 = sub i64 %20, %23
  %25 = trunc i64 %24 to i32, !dbg !5946
  call void @llvm.dbg.value(metadata i32 %25, metadata !5935, metadata !DIExpression()), !dbg !5947
  %26 = icmp ult i32 %25, 10, !dbg !5948
  %27 = select i1 %26, i32 48, i32 %16, !dbg !5949
  %28 = add i32 %27, %25, !dbg !5947
  %29 = trunc i32 %28 to i8, !dbg !5949
  %30 = getelementptr inbounds i8, i8* %18, i32 -1, !dbg !5950
  call void @llvm.dbg.value(metadata i8* %30, metadata !5934, metadata !DIExpression()), !dbg !5937
  store i8 %29, i8* %30, align 1, !dbg !5951
  call void @llvm.dbg.value(metadata i64 %22, metadata !5927, metadata !DIExpression()), !dbg !5937
  %31 = icmp uge i64 %19, %15, !dbg !5952
  %32 = icmp ugt i8* %30, %2, !dbg !5953
  %33 = and i1 %31, %32, !dbg !5953
  br i1 %33, label %17, label %34, !dbg !5954, !llvm.loop !5955

34:                                               ; preds = %17
  %35 = bitcast %struct.conversion* %1 to i24*, !dbg !5957
  %36 = load i24, i24* %35, align 4, !dbg !5957
  %37 = and i24 %36, 32, !dbg !5957
  %38 = icmp eq i24 %37, 0, !dbg !5957
  br i1 %38, label %44, label %39, !dbg !5959

39:                                               ; preds = %34
  switch i32 %10, label %44 [
    i32 8, label %41
    i32 16, label %40
  ], !dbg !5960

40:                                               ; preds = %39
  br label %41, !dbg !5962

41:                                               ; preds = %39, %40
  %42 = phi i24 [ 1048576, %40 ], [ 524288, %39 ]
  %43 = or i24 %36, %42, !dbg !5966
  store i24 %43, i24* %35, align 4, !dbg !5966
  br label %44, !dbg !5967

44:                                               ; preds = %41, %39, %34
  ret i8* %30, !dbg !5967
}

; Function Attrs: nofree nosync nounwind readnone speculatable willreturn
declare void @llvm.dbg.label(metadata) #4

; Function Attrs: mustprogress nofree noinline norecurse nosync nounwind optsize willreturn
define internal fastcc void @store_count(%struct.conversion* nocapture noundef readonly %0, i8* nocapture noundef writeonly %1, i32 noundef %2) unnamed_addr #13 !dbg !5968 {
  call void @llvm.dbg.value(metadata %struct.conversion* %0, metadata !5974, metadata !DIExpression()), !dbg !5977
  call void @llvm.dbg.value(metadata i8* %1, metadata !5975, metadata !DIExpression()), !dbg !5977
  call void @llvm.dbg.value(metadata i32 %2, metadata !5976, metadata !DIExpression()), !dbg !5977
  %4 = bitcast %struct.conversion* %0 to i24*, !dbg !5978
  %5 = load i24, i24* %4, align 4, !dbg !5978
  %6 = lshr i24 %5, 11, !dbg !5978
  %7 = and i24 %6, 15, !dbg !5978
  %8 = zext i24 %7 to i32, !dbg !5978
  switch i32 %8, label %28 [
    i32 0, label %9
    i32 1, label %11
    i32 2, label %13
    i32 3, label %16
    i32 4, label %18
    i32 5, label %21
    i32 6, label %24
    i32 7, label %26
  ], !dbg !5979

9:                                                ; preds = %3
  %10 = bitcast i8* %1 to i32*, !dbg !5980
  store i32 %2, i32* %10, align 4, !dbg !5982
  br label %28, !dbg !5983

11:                                               ; preds = %3
  %12 = trunc i32 %2 to i8, !dbg !5984
  store i8 %12, i8* %1, align 1, !dbg !5985
  br label %28, !dbg !5986

13:                                               ; preds = %3
  %14 = trunc i32 %2 to i16, !dbg !5987
  %15 = bitcast i8* %1 to i16*, !dbg !5988
  store i16 %14, i16* %15, align 2, !dbg !5989
  br label %28, !dbg !5990

16:                                               ; preds = %3
  %17 = bitcast i8* %1 to i32*, !dbg !5991
  store i32 %2, i32* %17, align 4, !dbg !5992
  br label %28, !dbg !5993

18:                                               ; preds = %3
  %19 = sext i32 %2 to i64, !dbg !5994
  %20 = bitcast i8* %1 to i64*, !dbg !5995
  store i64 %19, i64* %20, align 8, !dbg !5996
  br label %28, !dbg !5997

21:                                               ; preds = %3
  %22 = sext i32 %2 to i64, !dbg !5998
  %23 = bitcast i8* %1 to i64*, !dbg !5999
  store i64 %22, i64* %23, align 8, !dbg !6000
  br label %28, !dbg !6001

24:                                               ; preds = %3
  %25 = bitcast i8* %1 to i32*, !dbg !6002
  store i32 %2, i32* %25, align 4, !dbg !6003
  br label %28, !dbg !6004

26:                                               ; preds = %3
  %27 = bitcast i8* %1 to i32*, !dbg !6005
  store i32 %2, i32* %27, align 4, !dbg !6006
  br label %28, !dbg !6007

28:                                               ; preds = %3, %26, %24, %21, %18, %16, %13, %11, %9
  ret void, !dbg !6008
}

; Function Attrs: nofree nosync nounwind readnone speculatable willreturn
declare i32 @llvm.smin.i32(i32, i32) #4

; Function Attrs: mustprogress nofree noinline norecurse nosync nounwind optsize readnone willreturn
define internal fastcc i32 @isupper(i32 noundef %0) unnamed_addr #17 !dbg !6009 {
  call void @llvm.dbg.value(metadata i32 %0, metadata !6012, metadata !DIExpression()), !dbg !6013
  %2 = add i32 %0, -65, !dbg !6014
  %3 = icmp ult i32 %2, 26, !dbg !6015
  %4 = zext i1 %3 to i32, !dbg !6015
  ret i32 %4, !dbg !6016
}

; Function Attrs: mustprogress nofree noinline norecurse nosync nounwind optsize readnone willreturn
define internal fastcc i32 @conversion_radix(i8 noundef zeroext %0) unnamed_addr #17 !dbg !6017 {
  call void @llvm.dbg.value(metadata i8 %0, metadata !6021, metadata !DIExpression()), !dbg !6022
  switch i8 %0, label %4 [
    i8 88, label %3
    i8 120, label %3
    i8 112, label %3
    i8 111, label %2
  ], !dbg !6023

2:                                                ; preds = %1
  br label %4, !dbg !6024

3:                                                ; preds = %1, %1, %1
  br label %4, !dbg !6026

4:                                                ; preds = %1, %3, %2
  %5 = phi i32 [ 8, %2 ], [ 16, %3 ], [ 10, %1 ], !dbg !6027
  ret i32 %5, !dbg !6028
}

; Function Attrs: nofree noinline norecurse nosync nounwind optsize
define internal fastcc i8* @extract_flags(%struct.conversion* nocapture noundef %0, i8* noundef readonly %1) unnamed_addr #20 !dbg !6029 {
  call void @llvm.dbg.value(metadata %struct.conversion* %0, metadata !6031, metadata !DIExpression()), !dbg !6034
  call void @llvm.dbg.value(metadata i8* %1, metadata !6032, metadata !DIExpression()), !dbg !6034
  call void @llvm.dbg.value(metadata i8 1, metadata !6033, metadata !DIExpression()), !dbg !6034
  %3 = bitcast %struct.conversion* %0 to i24*
  br label %4, !dbg !6035

4:                                                ; preds = %11, %2
  %5 = phi i8* [ %1, %2 ], [ %15, %11 ]
  call void @llvm.dbg.value(metadata i8 poison, metadata !6033, metadata !DIExpression()), !dbg !6034
  call void @llvm.dbg.value(metadata i8* %5, metadata !6032, metadata !DIExpression()), !dbg !6034
  %6 = load i8, i8* %5, align 1, !dbg !6036
  switch i8 %6, label %16 [
    i8 45, label %11
    i8 43, label %7
    i8 32, label %8
    i8 35, label %9
    i8 48, label %10
  ], !dbg !6038

7:                                                ; preds = %4
  br label %11, !dbg !6039

8:                                                ; preds = %4
  br label %11, !dbg !6041

9:                                                ; preds = %4
  br label %11, !dbg !6042

10:                                               ; preds = %4
  br label %11, !dbg !6043

11:                                               ; preds = %4, %7, %8, %9, %10
  %12 = phi i24 [ 8, %7 ], [ 16, %8 ], [ 32, %9 ], [ 64, %10 ], [ 4, %4 ]
  %13 = load i24, i24* %3, align 4, !dbg !6044
  %14 = or i24 %13, %12, !dbg !6044
  store i24 %14, i24* %3, align 4, !dbg !6044
  call void @llvm.dbg.value(metadata i8 poison, metadata !6033, metadata !DIExpression()), !dbg !6034
  %15 = getelementptr inbounds i8, i8* %5, i32 1
  call void @llvm.dbg.value(metadata i8* %15, metadata !6032, metadata !DIExpression()), !dbg !6034
  br label %4

16:                                               ; preds = %4
  call void @llvm.dbg.value(metadata i8 poison, metadata !6033, metadata !DIExpression()), !dbg !6034
  call void @llvm.dbg.value(metadata i8* %15, metadata !6032, metadata !DIExpression()), !dbg !6034
  %17 = load i24, i24* %3, align 4, !dbg !6045
  %18 = and i24 %17, 68, !dbg !6047
  %19 = icmp eq i24 %18, 68, !dbg !6047
  br i1 %19, label %20, label %22, !dbg !6047

20:                                               ; preds = %16
  %21 = and i24 %17, -65, !dbg !6048
  store i24 %21, i24* %3, align 4, !dbg !6048
  br label %22, !dbg !6050

22:                                               ; preds = %20, %16
  ret i8* %5, !dbg !6051
}

; Function Attrs: nofree noinline norecurse nosync nounwind optsize
define internal fastcc i8* @extract_width(%struct.conversion* nocapture noundef %0, i8* noundef %1) unnamed_addr #20 !dbg !6052 {
  %3 = alloca i8*, align 4
  call void @llvm.dbg.value(metadata %struct.conversion* %0, metadata !6054, metadata !DIExpression()), !dbg !6058
  call void @llvm.dbg.value(metadata i8* %1, metadata !6055, metadata !DIExpression()), !dbg !6058
  store i8* %1, i8** %3, align 4
  %4 = bitcast %struct.conversion* %0 to i24*, !dbg !6059
  %5 = load i24, i24* %4, align 4, !dbg !6060
  %6 = or i24 %5, 128, !dbg !6060
  store i24 %6, i24* %4, align 4, !dbg !6060
  call void @llvm.dbg.value(metadata i8* %1, metadata !6055, metadata !DIExpression()), !dbg !6058
  %7 = load i8, i8* %1, align 1, !dbg !6061
  %8 = icmp eq i8 %7, 42, !dbg !6063
  br i1 %8, label %9, label %12, !dbg !6064

9:                                                ; preds = %2
  %10 = or i24 %5, 384, !dbg !6065
  store i24 %10, i24* %4, align 4, !dbg !6065
  call void @llvm.dbg.value(metadata i8* %1, metadata !6055, metadata !DIExpression()), !dbg !6058
  %11 = getelementptr inbounds i8, i8* %1, i32 1, !dbg !6067
  call void @llvm.dbg.value(metadata i8* %11, metadata !6055, metadata !DIExpression()), !dbg !6058
  store i8* %11, i8** %3, align 4, !dbg !6067
  br label %29, !dbg !6068

12:                                               ; preds = %2
  call void @llvm.dbg.value(metadata i8* %1, metadata !6056, metadata !DIExpression()), !dbg !6058
  call void @llvm.dbg.value(metadata i8** %3, metadata !6055, metadata !DIExpression(DW_OP_deref)), !dbg !6058
  %13 = call fastcc i32 @extract_decimal(i8** noundef nonnull %3) #36, !dbg !6069
  call void @llvm.dbg.value(metadata i32 %13, metadata !6057, metadata !DIExpression()), !dbg !6058
  %14 = load i8*, i8** %3, align 4, !dbg !6070
  call void @llvm.dbg.value(metadata i8* %14, metadata !6055, metadata !DIExpression()), !dbg !6058
  %15 = icmp eq i8* %14, %1, !dbg !6072
  br i1 %15, label %29, label %16, !dbg !6073

16:                                               ; preds = %12
  %17 = load i24, i24* %4, align 4, !dbg !6074
  %18 = getelementptr inbounds %struct.conversion, %struct.conversion* %0, i32 0, i32 2, i32 0, !dbg !6076
  store i32 %13, i32* %18, align 4, !dbg !6077
  %19 = lshr i32 %13, 31, !dbg !6078
  %20 = lshr i24 %17, 1, !dbg !6079
  %21 = and i24 %20, 1, !dbg !6079
  %22 = zext i24 %21 to i32, !dbg !6079
  %23 = or i32 %19, %22, !dbg !6079
  %24 = trunc i32 %23 to i24, !dbg !6079
  %25 = shl nuw nsw i24 %24, 1, !dbg !6079
  %26 = and i24 %17, -131, !dbg !6079
  %27 = or i24 %26, 128, !dbg !6079
  %28 = or i24 %25, %27, !dbg !6079
  store i24 %28, i24* %4, align 4, !dbg !6079
  br label %29, !dbg !6080

29:                                               ; preds = %12, %16, %9
  %30 = phi i8* [ %11, %9 ], [ %14, %16 ], [ %1, %12 ], !dbg !6058
  ret i8* %30, !dbg !6081
}

; Function Attrs: nofree noinline norecurse nosync nounwind optsize
define internal fastcc i8* @extract_prec(%struct.conversion* nocapture noundef %0, i8* noundef %1) unnamed_addr #20 !dbg !6082 {
  %3 = alloca i8*, align 4
  call void @llvm.dbg.value(metadata %struct.conversion* %0, metadata !6084, metadata !DIExpression()), !dbg !6087
  call void @llvm.dbg.value(metadata i8* %1, metadata !6085, metadata !DIExpression()), !dbg !6087
  %4 = load i8, i8* %1, align 1, !dbg !6088
  %5 = icmp eq i8 %4, 46, !dbg !6089
  %6 = bitcast %struct.conversion* %0 to i24*, !dbg !6090
  %7 = load i24, i24* %6, align 4, !dbg !6091
  %8 = select i1 %5, i24 512, i24 0, !dbg !6091
  %9 = and i24 %7, -513, !dbg !6091
  %10 = or i24 %9, %8, !dbg !6091
  store i24 %10, i24* %6, align 4, !dbg !6091
  br i1 %5, label %11, label %32, !dbg !6092

11:                                               ; preds = %2
  call void @llvm.dbg.value(metadata i8* %1, metadata !6085, metadata !DIExpression()), !dbg !6087
  %12 = getelementptr inbounds i8, i8* %1, i32 1, !dbg !6093
  call void @llvm.dbg.value(metadata i8* %12, metadata !6085, metadata !DIExpression()), !dbg !6087
  store i8* %12, i8** %3, align 4, !dbg !6093
  %13 = load i8, i8* %12, align 1, !dbg !6094
  %14 = icmp eq i8 %13, 42, !dbg !6096
  br i1 %14, label %15, label %18, !dbg !6097

15:                                               ; preds = %11
  %16 = or i24 %10, 1024, !dbg !6098
  store i24 %16, i24* %6, align 4, !dbg !6098
  call void @llvm.dbg.value(metadata i8* %12, metadata !6085, metadata !DIExpression()), !dbg !6087
  %17 = getelementptr inbounds i8, i8* %1, i32 2, !dbg !6100
  call void @llvm.dbg.value(metadata i8* %17, metadata !6085, metadata !DIExpression()), !dbg !6087
  store i8* %17, i8** %3, align 4, !dbg !6100
  br label %32, !dbg !6101

18:                                               ; preds = %11
  call void @llvm.dbg.value(metadata i8** %3, metadata !6085, metadata !DIExpression(DW_OP_deref)), !dbg !6087
  %19 = call fastcc i32 @extract_decimal(i8** noundef nonnull %3) #36, !dbg !6102
  call void @llvm.dbg.value(metadata i32 %19, metadata !6086, metadata !DIExpression()), !dbg !6087
  %20 = getelementptr inbounds %struct.conversion, %struct.conversion* %0, i32 0, i32 3, i32 0, !dbg !6103
  store i32 %19, i32* %20, align 4, !dbg !6104
  %21 = lshr i32 %19, 31, !dbg !6105
  %22 = load i24, i24* %6, align 4, !dbg !6106
  %23 = lshr i24 %22, 1, !dbg !6106
  %24 = and i24 %23, 1, !dbg !6106
  %25 = zext i24 %24 to i32, !dbg !6106
  %26 = or i32 %21, %25, !dbg !6106
  %27 = trunc i32 %26 to i24, !dbg !6106
  %28 = shl nuw nsw i24 %27, 1, !dbg !6106
  %29 = and i24 %22, -3, !dbg !6106
  %30 = or i24 %28, %29, !dbg !6106
  store i24 %30, i24* %6, align 4, !dbg !6106
  %31 = load i8*, i8** %3, align 4, !dbg !6107
  call void @llvm.dbg.value(metadata i8* %31, metadata !6085, metadata !DIExpression()), !dbg !6087
  br label %32

32:                                               ; preds = %2, %18, %15
  %33 = phi i8* [ %17, %15 ], [ %31, %18 ], [ %1, %2 ], !dbg !6087
  ret i8* %33, !dbg !6108
}

; Function Attrs: mustprogress nofree noinline norecurse nosync nounwind optsize willreturn
define internal fastcc i8* @extract_length(%struct.conversion* nocapture noundef %0, i8* noundef readonly %1) unnamed_addr #13 !dbg !6109 {
  call void @llvm.dbg.value(metadata %struct.conversion* %0, metadata !6111, metadata !DIExpression()), !dbg !6113
  call void @llvm.dbg.value(metadata i8* %1, metadata !6112, metadata !DIExpression()), !dbg !6113
  %3 = load i8, i8* %1, align 1, !dbg !6114
  switch i8 %3, label %52 [
    i8 104, label %4
    i8 108, label %16
    i8 106, label %28
    i8 122, label %34
    i8 116, label %40
    i8 76, label %46
  ], !dbg !6115

4:                                                ; preds = %2
  %5 = getelementptr inbounds i8, i8* %1, i32 1, !dbg !6116
  call void @llvm.dbg.value(metadata i8* %5, metadata !6112, metadata !DIExpression()), !dbg !6113
  %6 = load i8, i8* %5, align 1, !dbg !6119
  %7 = icmp eq i8 %6, 104, !dbg !6120
  %8 = bitcast %struct.conversion* %0 to i24*, !dbg !6121
  %9 = load i24, i24* %8, align 4, !dbg !6121
  %10 = and i24 %9, -30721, !dbg !6121
  br i1 %7, label %11, label %14, !dbg !6122

11:                                               ; preds = %4
  %12 = or i24 %10, 2048, !dbg !6123
  store i24 %12, i24* %8, align 4, !dbg !6123
  %13 = getelementptr inbounds i8, i8* %1, i32 2, !dbg !6125
  call void @llvm.dbg.value(metadata i8* %13, metadata !6112, metadata !DIExpression()), !dbg !6113
  br label %56, !dbg !6126

14:                                               ; preds = %4
  %15 = or i24 %10, 4096, !dbg !6127
  store i24 %15, i24* %8, align 4, !dbg !6127
  br label %56

16:                                               ; preds = %2
  %17 = getelementptr inbounds i8, i8* %1, i32 1, !dbg !6129
  call void @llvm.dbg.value(metadata i8* %17, metadata !6112, metadata !DIExpression()), !dbg !6113
  %18 = load i8, i8* %17, align 1, !dbg !6131
  %19 = icmp eq i8 %18, 108, !dbg !6132
  %20 = bitcast %struct.conversion* %0 to i24*, !dbg !6133
  %21 = load i24, i24* %20, align 4, !dbg !6133
  %22 = and i24 %21, -30721, !dbg !6133
  br i1 %19, label %23, label %26, !dbg !6134

23:                                               ; preds = %16
  %24 = or i24 %22, 8192, !dbg !6135
  store i24 %24, i24* %20, align 4, !dbg !6135
  %25 = getelementptr inbounds i8, i8* %1, i32 2, !dbg !6137
  call void @llvm.dbg.value(metadata i8* %25, metadata !6112, metadata !DIExpression()), !dbg !6113
  br label %56, !dbg !6138

26:                                               ; preds = %16
  %27 = or i24 %22, 6144, !dbg !6139
  store i24 %27, i24* %20, align 4, !dbg !6139
  br label %56

28:                                               ; preds = %2
  %29 = bitcast %struct.conversion* %0 to i24*, !dbg !6141
  %30 = load i24, i24* %29, align 4, !dbg !6142
  %31 = and i24 %30, -30721, !dbg !6142
  %32 = or i24 %31, 10240, !dbg !6142
  store i24 %32, i24* %29, align 4, !dbg !6142
  %33 = getelementptr inbounds i8, i8* %1, i32 1, !dbg !6143
  call void @llvm.dbg.value(metadata i8* %33, metadata !6112, metadata !DIExpression()), !dbg !6113
  br label %56, !dbg !6144

34:                                               ; preds = %2
  %35 = bitcast %struct.conversion* %0 to i24*, !dbg !6145
  %36 = load i24, i24* %35, align 4, !dbg !6146
  %37 = and i24 %36, -30721, !dbg !6146
  %38 = or i24 %37, 12288, !dbg !6146
  store i24 %38, i24* %35, align 4, !dbg !6146
  %39 = getelementptr inbounds i8, i8* %1, i32 1, !dbg !6147
  call void @llvm.dbg.value(metadata i8* %39, metadata !6112, metadata !DIExpression()), !dbg !6113
  br label %56, !dbg !6148

40:                                               ; preds = %2
  %41 = bitcast %struct.conversion* %0 to i24*, !dbg !6149
  %42 = load i24, i24* %41, align 4, !dbg !6150
  %43 = and i24 %42, -30721, !dbg !6150
  %44 = or i24 %43, 14336, !dbg !6150
  store i24 %44, i24* %41, align 4, !dbg !6150
  %45 = getelementptr inbounds i8, i8* %1, i32 1, !dbg !6151
  call void @llvm.dbg.value(metadata i8* %45, metadata !6112, metadata !DIExpression()), !dbg !6113
  br label %56, !dbg !6152

46:                                               ; preds = %2
  %47 = bitcast %struct.conversion* %0 to i24*, !dbg !6153
  %48 = load i24, i24* %47, align 4, !dbg !6154
  %49 = and i24 %48, -30723, !dbg !6154
  %50 = getelementptr inbounds i8, i8* %1, i32 1, !dbg !6155
  call void @llvm.dbg.value(metadata i8* %50, metadata !6112, metadata !DIExpression()), !dbg !6113
  %51 = or i24 %49, 16386, !dbg !6156
  store i24 %51, i24* %47, align 4, !dbg !6156
  br label %56, !dbg !6157

52:                                               ; preds = %2
  %53 = bitcast %struct.conversion* %0 to i24*, !dbg !6158
  %54 = load i24, i24* %53, align 4, !dbg !6159
  %55 = and i24 %54, -30721, !dbg !6159
  store i24 %55, i24* %53, align 4, !dbg !6159
  br label %56, !dbg !6160

56:                                               ; preds = %23, %26, %11, %14, %52, %46, %40, %34, %28
  %57 = phi i8* [ %1, %52 ], [ %50, %46 ], [ %45, %40 ], [ %39, %34 ], [ %33, %28 ], [ %25, %23 ], [ %17, %26 ], [ %13, %11 ], [ %5, %14 ]
  call void @llvm.dbg.value(metadata i8* %57, metadata !6112, metadata !DIExpression()), !dbg !6113
  ret i8* %57, !dbg !6161
}

; Function Attrs: mustprogress nofree noinline norecurse nosync nounwind optsize willreturn
define internal fastcc nonnull i8* @extract_specifier(%struct.conversion* nocapture noundef %0, i8* noundef readonly %1) unnamed_addr #13 !dbg !6162 {
  call void @llvm.dbg.value(metadata %struct.conversion* %0, metadata !6164, metadata !DIExpression()), !dbg !6169
  call void @llvm.dbg.value(metadata i8* %1, metadata !6165, metadata !DIExpression()), !dbg !6169
  call void @llvm.dbg.value(metadata i8 0, metadata !6166, metadata !DIExpression()), !dbg !6169
  call void @llvm.dbg.value(metadata i8* %1, metadata !6165, metadata !DIExpression(DW_OP_plus_uconst, 1, DW_OP_stack_value)), !dbg !6169
  %3 = load i8, i8* %1, align 1, !dbg !6170
  %4 = getelementptr inbounds %struct.conversion, %struct.conversion* %0, i32 0, i32 1, !dbg !6171
  store i8 %3, i8* %4, align 1, !dbg !6172
  switch i8 %3, label %39 [
    i8 100, label %6
    i8 105, label %6
    i8 111, label %5
    i8 99, label %5
    i8 117, label %5
    i8 120, label %5
    i8 88, label %5
    i8 97, label %20
    i8 65, label %20
    i8 101, label %20
    i8 69, label %20
    i8 102, label %20
    i8 70, label %20
    i8 103, label %20
    i8 71, label %20
    i8 110, label %25
    i8 115, label %32
    i8 112, label %32
  ], !dbg !6173

5:                                                ; preds = %2, %2, %2, %2, %2
  br label %6, !dbg !6174

6:                                                ; preds = %2, %2, %5
  %7 = phi i24 [ 131072, %5 ], [ 65536, %2 ], [ 65536, %2 ]
  %8 = bitcast %struct.conversion* %0 to i24*, !dbg !6175
  %9 = load i24, i24* %8, align 4, !dbg !6175
  %10 = and i24 %9, -458753, !dbg !6175
  %11 = or i24 %10, %7, !dbg !6175
  call void @llvm.dbg.label(metadata !6167), !dbg !6176
  %12 = and i24 %9, 30720, !dbg !6177
  %13 = icmp eq i24 %12, 16384, !dbg !6177
  %14 = zext i1 %13 to i24, !dbg !6179
  %15 = or i24 %11, %14, !dbg !6179
  %16 = icmp eq i8 %3, 99, !dbg !6180
  br i1 %16, label %17, label %43, !dbg !6182

17:                                               ; preds = %6
  %18 = and i24 %9, 30720, !dbg !6183
  %19 = icmp ne i24 %18, 0, !dbg !6183
  call void @llvm.dbg.value(metadata i1 %19, metadata !6166, metadata !DIExpression(DW_OP_LLVM_convert, 1, DW_ATE_unsigned, DW_OP_LLVM_convert, 8, DW_ATE_unsigned, DW_OP_stack_value)), !dbg !6169
  br label %43, !dbg !6185

20:                                               ; preds = %2, %2, %2, %2, %2, %2, %2, %2
  %21 = bitcast %struct.conversion* %0 to i24*, !dbg !6186
  %22 = load i24, i24* %21, align 4, !dbg !6187
  %23 = and i24 %22, -458753, !dbg !6187
  %24 = or i24 %23, 262144, !dbg !6187
  call void @llvm.dbg.value(metadata i8 1, metadata !6166, metadata !DIExpression()), !dbg !6169
  br label %43, !dbg !6188

25:                                               ; preds = %2
  %26 = bitcast %struct.conversion* %0 to i24*, !dbg !6191
  %27 = load i24, i24* %26, align 4, !dbg !6192
  %28 = and i24 %27, -458753, !dbg !6192
  %29 = or i24 %28, 196608, !dbg !6192
  %30 = and i24 %27, 30720, !dbg !6193
  %31 = icmp eq i24 %30, 16384, !dbg !6193
  br label %43, !dbg !6195

32:                                               ; preds = %2, %2
  %33 = bitcast %struct.conversion* %0 to i24*, !dbg !6196
  %34 = load i24, i24* %33, align 4, !dbg !6197
  %35 = and i24 %34, -458753, !dbg !6197
  %36 = or i24 %35, 196608, !dbg !6197
  %37 = and i24 %34, 30720, !dbg !6198
  %38 = icmp ne i24 %37, 0, !dbg !6198
  br label %43, !dbg !6200

39:                                               ; preds = %2
  %40 = bitcast %struct.conversion* %0 to i24*, !dbg !6201
  %41 = load i24, i24* %40, align 4, !dbg !6202
  %42 = or i24 %41, 1, !dbg !6202
  br label %43, !dbg !6203

43:                                               ; preds = %32, %25, %17, %6, %39, %20
  %44 = phi i24 [ %36, %32 ], [ %29, %25 ], [ %15, %17 ], [ %15, %6 ], [ %42, %39 ], [ %24, %20 ], !dbg !6204
  %45 = phi i1 [ %38, %32 ], [ %31, %25 ], [ %19, %17 ], [ false, %6 ], [ false, %39 ], [ true, %20 ]
  %46 = bitcast %struct.conversion* %0 to i24*, !dbg !6205
  %47 = zext i1 %45 to i32
  %48 = getelementptr inbounds i8, i8* %1, i32 1, !dbg !6206
  call void @llvm.dbg.value(metadata i8* %48, metadata !6165, metadata !DIExpression()), !dbg !6169
  call void @llvm.dbg.value(metadata i8 poison, metadata !6166, metadata !DIExpression()), !dbg !6169
  %49 = lshr i24 %44, 1, !dbg !6204
  %50 = and i24 %49, 1, !dbg !6204
  %51 = zext i24 %50 to i32, !dbg !6204
  %52 = or i32 %51, %47, !dbg !6204
  %53 = trunc i32 %52 to i24, !dbg !6204
  %54 = shl nuw nsw i24 %53, 1, !dbg !6204
  %55 = and i24 %44, -3, !dbg !6204
  %56 = or i24 %54, %55, !dbg !6204
  store i24 %56, i24* %46, align 4, !dbg !6204
  ret i8* %48, !dbg !6207
}

; Function Attrs: nofree noinline norecurse nosync nounwind optsize
define internal fastcc i32 @extract_decimal(i8** nocapture noundef %0) unnamed_addr #20 !dbg !6208 {
  call void @llvm.dbg.value(metadata i8** %0, metadata !6213, metadata !DIExpression()), !dbg !6216
  %2 = load i8*, i8** %0, align 4, !dbg !6217
  call void @llvm.dbg.value(metadata i8* %2, metadata !6214, metadata !DIExpression()), !dbg !6216
  call void @llvm.dbg.value(metadata i32 0, metadata !6215, metadata !DIExpression()), !dbg !6216
  %3 = load i8, i8* %2, align 1, !dbg !6218
  %4 = zext i8 %3 to i32, !dbg !6219
  %5 = tail call fastcc i32 @isdigit(i32 noundef %4) #36, !dbg !6220
  %6 = icmp eq i32 %5, 0, !dbg !6221
  br i1 %6, label %19, label %7, !dbg !6221

7:                                                ; preds = %1, %7
  %8 = phi i32 [ %16, %7 ], [ %4, %1 ]
  %9 = phi i32 [ %14, %7 ], [ 0, %1 ]
  %10 = phi i8* [ %12, %7 ], [ %2, %1 ]
  call void @llvm.dbg.value(metadata i32 %9, metadata !6215, metadata !DIExpression()), !dbg !6216
  call void @llvm.dbg.value(metadata i8* %10, metadata !6214, metadata !DIExpression()), !dbg !6216
  %11 = mul i32 %9, 10, !dbg !6222
  %12 = getelementptr inbounds i8, i8* %10, i32 1, !dbg !6224
  call void @llvm.dbg.value(metadata i8* %12, metadata !6214, metadata !DIExpression()), !dbg !6216
  %13 = add i32 %11, -48, !dbg !6225
  %14 = add i32 %13, %8, !dbg !6226
  call void @llvm.dbg.value(metadata i32 %14, metadata !6215, metadata !DIExpression()), !dbg !6216
  %15 = load i8, i8* %12, align 1, !dbg !6218
  %16 = zext i8 %15 to i32, !dbg !6219
  %17 = tail call fastcc i32 @isdigit(i32 noundef %16) #36, !dbg !6220
  %18 = icmp eq i32 %17, 0, !dbg !6221
  br i1 %18, label %19, label %7, !dbg !6221, !llvm.loop !6227

19:                                               ; preds = %7, %1
  %20 = phi i8* [ %2, %1 ], [ %12, %7 ], !dbg !6216
  %21 = phi i32 [ 0, %1 ], [ %14, %7 ], !dbg !6216
  store i8* %20, i8** %0, align 4, !dbg !6229
  ret i32 %21, !dbg !6230
}

; Function Attrs: mustprogress nofree noinline norecurse nosync nounwind optsize readnone willreturn
define internal fastcc i32 @isdigit(i32 noundef %0) unnamed_addr #17 !dbg !6231 {
  call void @llvm.dbg.value(metadata i32 %0, metadata !6233, metadata !DIExpression()), !dbg !6234
  %2 = add i32 %0, -48, !dbg !6235
  %3 = icmp ult i32 %2, 10, !dbg !6236
  %4 = zext i1 %3 to i32, !dbg !6236
  ret i32 %4, !dbg !6237
}

; Function Attrs: noinline nounwind optsize
define dso_local void @_ConfigAbsSyms() local_unnamed_addr #1 !dbg !6238 {
  tail call void asm sideeffect ".globl\09CONFIG_UART_INTERRUPT_DRIVEN\0A\09.equ\09CONFIG_UART_INTERRUPT_DRIVEN,1\0A\09.type\09CONFIG_UART_INTERRUPT_DRIVEN,%object", ""() #32, !dbg !6240, !srcloc !6241
  tail call void asm sideeffect ".globl\09CONFIG_BOARD\0A\09.equ\09CONFIG_BOARD,1\0A\09.type\09CONFIG_BOARD,%object", ""() #32, !dbg !6242, !srcloc !6243
  tail call void asm sideeffect ".globl\09CONFIG_SOC_SERIES\0A\09.equ\09CONFIG_SOC_SERIES,1\0A\09.type\09CONFIG_SOC_SERIES,%object", ""() #32, !dbg !6244, !srcloc !6245
  tail call void asm sideeffect ".globl\09CONFIG_NUM_IRQS\0A\09.equ\09CONFIG_NUM_IRQS,28\0A\09.type\09CONFIG_NUM_IRQS,%object", ""() #32, !dbg !6246, !srcloc !6247
  tail call void asm sideeffect ".globl\09CONFIG_SYS_CLOCK_HW_CYCLES_PER_SEC\0A\09.equ\09CONFIG_SYS_CLOCK_HW_CYCLES_PER_SEC,48000000\0A\09.type\09CONFIG_SYS_CLOCK_HW_CYCLES_PER_SEC,%object", ""() #32, !dbg !6248, !srcloc !6249
  tail call void asm sideeffect ".globl\09CONFIG_FLASH_SIZE\0A\09.equ\09CONFIG_FLASH_SIZE,256\0A\09.type\09CONFIG_FLASH_SIZE,%object", ""() #32, !dbg !6250, !srcloc !6251
  tail call void asm sideeffect ".globl\09CONFIG_FLASH_BASE_ADDRESS\0A\09.equ\09CONFIG_FLASH_BASE_ADDRESS,0x0\0A\09.type\09CONFIG_FLASH_BASE_ADDRESS,%object", ""() #32, !dbg !6252, !srcloc !6253
  tail call void asm sideeffect ".globl\09CONFIG_ICACHE_LINE_SIZE\0A\09.equ\09CONFIG_ICACHE_LINE_SIZE,32\0A\09.type\09CONFIG_ICACHE_LINE_SIZE,%object", ""() #32, !dbg !6254, !srcloc !6255
  tail call void asm sideeffect ".globl\09CONFIG_DCACHE_LINE_SIZE\0A\09.equ\09CONFIG_DCACHE_LINE_SIZE,32\0A\09.type\09CONFIG_DCACHE_LINE_SIZE,%object", ""() #32, !dbg !6256, !srcloc !6257
  tail call void asm sideeffect ".globl\09CONFIG_SOC_PART_NUMBER\0A\09.equ\09CONFIG_SOC_PART_NUMBER,1\0A\09.type\09CONFIG_SOC_PART_NUMBER,%object", ""() #32, !dbg !6258, !srcloc !6259
  tail call void asm sideeffect ".globl\09CONFIG_PINCTRL\0A\09.equ\09CONFIG_PINCTRL,1\0A\09.type\09CONFIG_PINCTRL,%object", ""() #32, !dbg !6260, !srcloc !6261
  tail call void asm sideeffect ".globl\09CONFIG_HEAP_MEM_POOL_SIZE\0A\09.equ\09CONFIG_HEAP_MEM_POOL_SIZE,0\0A\09.type\09CONFIG_HEAP_MEM_POOL_SIZE,%object", ""() #32, !dbg !6262, !srcloc !6263
  tail call void asm sideeffect ".globl\09CONFIG_ROM_START_OFFSET\0A\09.equ\09CONFIG_ROM_START_OFFSET,0x0\0A\09.type\09CONFIG_ROM_START_OFFSET,%object", ""() #32, !dbg !6264, !srcloc !6265
  tail call void asm sideeffect ".globl\09CONFIG_CORTEX_M_SYSTICK\0A\09.equ\09CONFIG_CORTEX_M_SYSTICK,1\0A\09.type\09CONFIG_CORTEX_M_SYSTICK,%object", ""() #32, !dbg !6266, !srcloc !6267
  tail call void asm sideeffect ".globl\09CONFIG_SYS_CLOCK_TICKS_PER_SEC\0A\09.equ\09CONFIG_SYS_CLOCK_TICKS_PER_SEC,10000\0A\09.type\09CONFIG_SYS_CLOCK_TICKS_PER_SEC,%object", ""() #32, !dbg !6268, !srcloc !6269
  tail call void asm sideeffect ".globl\09CONFIG_SERIAL_INIT_PRIORITY\0A\09.equ\09CONFIG_SERIAL_INIT_PRIORITY,55\0A\09.type\09CONFIG_SERIAL_INIT_PRIORITY,%object", ""() #32, !dbg !6270, !srcloc !6271
  tail call void asm sideeffect ".globl\09CONFIG_SERIAL\0A\09.equ\09CONFIG_SERIAL,1\0A\09.type\09CONFIG_SERIAL,%object", ""() #32, !dbg !6272, !srcloc !6273
  tail call void asm sideeffect ".globl\09CONFIG_MAIN_STACK_SIZE\0A\09.equ\09CONFIG_MAIN_STACK_SIZE,1024\0A\09.type\09CONFIG_MAIN_STACK_SIZE,%object", ""() #32, !dbg !6274, !srcloc !6275
  tail call void asm sideeffect ".globl\09CONFIG_MP_MAX_NUM_CPUS\0A\09.equ\09CONFIG_MP_MAX_NUM_CPUS,1\0A\09.type\09CONFIG_MP_MAX_NUM_CPUS,%object", ""() #32, !dbg !6276, !srcloc !6277
  tail call void asm sideeffect ".globl\09CONFIG_HAS_DTS\0A\09.equ\09CONFIG_HAS_DTS,1\0A\09.type\09CONFIG_HAS_DTS,%object", ""() #32, !dbg !6278, !srcloc !6279
  tail call void asm sideeffect ".globl\09CONFIG_DT_HAS_APA_APA102_ENABLED\0A\09.equ\09CONFIG_DT_HAS_APA_APA102_ENABLED,1\0A\09.type\09CONFIG_DT_HAS_APA_APA102_ENABLED,%object", ""() #32, !dbg !6280, !srcloc !6281
  tail call void asm sideeffect ".globl\09CONFIG_DT_HAS_ARM_ARMV6M_SYSTICK_ENABLED\0A\09.equ\09CONFIG_DT_HAS_ARM_ARMV6M_SYSTICK_ENABLED,1\0A\09.type\09CONFIG_DT_HAS_ARM_ARMV6M_SYSTICK_ENABLED,%object", ""() #32, !dbg !6282, !srcloc !6283
  tail call void asm sideeffect ".globl\09CONFIG_DT_HAS_ARM_CORTEX_M0__ENABLED\0A\09.equ\09CONFIG_DT_HAS_ARM_CORTEX_M0__ENABLED,1\0A\09.type\09CONFIG_DT_HAS_ARM_CORTEX_M0__ENABLED,%object", ""() #32, !dbg !6284, !srcloc !6285
  tail call void asm sideeffect ".globl\09CONFIG_DT_HAS_ARM_V6M_NVIC_ENABLED\0A\09.equ\09CONFIG_DT_HAS_ARM_V6M_NVIC_ENABLED,1\0A\09.type\09CONFIG_DT_HAS_ARM_V6M_NVIC_ENABLED,%object", ""() #32, !dbg !6286, !srcloc !6287
  tail call void asm sideeffect ".globl\09CONFIG_DT_HAS_ATMEL_SAM0_ADC_ENABLED\0A\09.equ\09CONFIG_DT_HAS_ATMEL_SAM0_ADC_ENABLED,1\0A\09.type\09CONFIG_DT_HAS_ATMEL_SAM0_ADC_ENABLED,%object", ""() #32, !dbg !6288, !srcloc !6289
  tail call void asm sideeffect ".globl\09CONFIG_DT_HAS_ATMEL_SAM0_DMAC_ENABLED\0A\09.equ\09CONFIG_DT_HAS_ATMEL_SAM0_DMAC_ENABLED,1\0A\09.type\09CONFIG_DT_HAS_ATMEL_SAM0_DMAC_ENABLED,%object", ""() #32, !dbg !6290, !srcloc !6291
  tail call void asm sideeffect ".globl\09CONFIG_DT_HAS_ATMEL_SAM0_EIC_ENABLED\0A\09.equ\09CONFIG_DT_HAS_ATMEL_SAM0_EIC_ENABLED,1\0A\09.type\09CONFIG_DT_HAS_ATMEL_SAM0_EIC_ENABLED,%object", ""() #32, !dbg !6292, !srcloc !6293
  tail call void asm sideeffect ".globl\09CONFIG_DT_HAS_ATMEL_SAM0_GPIO_ENABLED\0A\09.equ\09CONFIG_DT_HAS_ATMEL_SAM0_GPIO_ENABLED,1\0A\09.type\09CONFIG_DT_HAS_ATMEL_SAM0_GPIO_ENABLED,%object", ""() #32, !dbg !6294, !srcloc !6295
  tail call void asm sideeffect ".globl\09CONFIG_DT_HAS_ATMEL_SAM0_ID_ENABLED\0A\09.equ\09CONFIG_DT_HAS_ATMEL_SAM0_ID_ENABLED,1\0A\09.type\09CONFIG_DT_HAS_ATMEL_SAM0_ID_ENABLED,%object", ""() #32, !dbg !6296, !srcloc !6297
  tail call void asm sideeffect ".globl\09CONFIG_DT_HAS_ATMEL_SAM0_NVMCTRL_ENABLED\0A\09.equ\09CONFIG_DT_HAS_ATMEL_SAM0_NVMCTRL_ENABLED,1\0A\09.type\09CONFIG_DT_HAS_ATMEL_SAM0_NVMCTRL_ENABLED,%object", ""() #32, !dbg !6298, !srcloc !6299
  tail call void asm sideeffect ".globl\09CONFIG_DT_HAS_ATMEL_SAM0_PINCTRL_ENABLED\0A\09.equ\09CONFIG_DT_HAS_ATMEL_SAM0_PINCTRL_ENABLED,1\0A\09.type\09CONFIG_DT_HAS_ATMEL_SAM0_PINCTRL_ENABLED,%object", ""() #32, !dbg !6300, !srcloc !6301
  tail call void asm sideeffect ".globl\09CONFIG_DT_HAS_ATMEL_SAM0_PINMUX_ENABLED\0A\09.equ\09CONFIG_DT_HAS_ATMEL_SAM0_PINMUX_ENABLED,1\0A\09.type\09CONFIG_DT_HAS_ATMEL_SAM0_PINMUX_ENABLED,%object", ""() #32, !dbg !6302, !srcloc !6303
  tail call void asm sideeffect ".globl\09CONFIG_DT_HAS_ATMEL_SAM0_SPI_ENABLED\0A\09.equ\09CONFIG_DT_HAS_ATMEL_SAM0_SPI_ENABLED,1\0A\09.type\09CONFIG_DT_HAS_ATMEL_SAM0_SPI_ENABLED,%object", ""() #32, !dbg !6304, !srcloc !6305
  tail call void asm sideeffect ".globl\09CONFIG_DT_HAS_ATMEL_SAM0_TC32_ENABLED\0A\09.equ\09CONFIG_DT_HAS_ATMEL_SAM0_TC32_ENABLED,1\0A\09.type\09CONFIG_DT_HAS_ATMEL_SAM0_TC32_ENABLED,%object", ""() #32, !dbg !6306, !srcloc !6307
  tail call void asm sideeffect ".globl\09CONFIG_DT_HAS_ATMEL_SAM0_TCC_PWM_ENABLED\0A\09.equ\09CONFIG_DT_HAS_ATMEL_SAM0_TCC_PWM_ENABLED,1\0A\09.type\09CONFIG_DT_HAS_ATMEL_SAM0_TCC_PWM_ENABLED,%object", ""() #32, !dbg !6308, !srcloc !6309
  tail call void asm sideeffect ".globl\09CONFIG_DT_HAS_ATMEL_SAM0_UART_ENABLED\0A\09.equ\09CONFIG_DT_HAS_ATMEL_SAM0_UART_ENABLED,1\0A\09.type\09CONFIG_DT_HAS_ATMEL_SAM0_UART_ENABLED,%object", ""() #32, !dbg !6310, !srcloc !6311
  tail call void asm sideeffect ".globl\09CONFIG_DT_HAS_ATMEL_SAM0_USB_ENABLED\0A\09.equ\09CONFIG_DT_HAS_ATMEL_SAM0_USB_ENABLED,1\0A\09.type\09CONFIG_DT_HAS_ATMEL_SAM0_USB_ENABLED,%object", ""() #32, !dbg !6312, !srcloc !6313
  tail call void asm sideeffect ".globl\09CONFIG_DT_HAS_ATMEL_SAM0_WATCHDOG_ENABLED\0A\09.equ\09CONFIG_DT_HAS_ATMEL_SAM0_WATCHDOG_ENABLED,1\0A\09.type\09CONFIG_DT_HAS_ATMEL_SAM0_WATCHDOG_ENABLED,%object", ""() #32, !dbg !6314, !srcloc !6315
  tail call void asm sideeffect ".globl\09CONFIG_DT_HAS_ATMEL_SAMD2X_GCLK_ENABLED\0A\09.equ\09CONFIG_DT_HAS_ATMEL_SAMD2X_GCLK_ENABLED,1\0A\09.type\09CONFIG_DT_HAS_ATMEL_SAMD2X_GCLK_ENABLED,%object", ""() #32, !dbg !6316, !srcloc !6317
  tail call void asm sideeffect ".globl\09CONFIG_DT_HAS_ATMEL_SAMD2X_PM_ENABLED\0A\09.equ\09CONFIG_DT_HAS_ATMEL_SAMD2X_PM_ENABLED,1\0A\09.type\09CONFIG_DT_HAS_ATMEL_SAMD2X_PM_ENABLED,%object", ""() #32, !dbg !6318, !srcloc !6319
  tail call void asm sideeffect ".globl\09CONFIG_DT_HAS_FIXED_PARTITIONS_ENABLED\0A\09.equ\09CONFIG_DT_HAS_FIXED_PARTITIONS_ENABLED,1\0A\09.type\09CONFIG_DT_HAS_FIXED_PARTITIONS_ENABLED,%object", ""() #32, !dbg !6320, !srcloc !6321
  tail call void asm sideeffect ".globl\09CONFIG_DT_HAS_GPIO_LEDS_ENABLED\0A\09.equ\09CONFIG_DT_HAS_GPIO_LEDS_ENABLED,1\0A\09.type\09CONFIG_DT_HAS_GPIO_LEDS_ENABLED,%object", ""() #32, !dbg !6322, !srcloc !6323
  tail call void asm sideeffect ".globl\09CONFIG_DT_HAS_MMIO_SRAM_ENABLED\0A\09.equ\09CONFIG_DT_HAS_MMIO_SRAM_ENABLED,1\0A\09.type\09CONFIG_DT_HAS_MMIO_SRAM_ENABLED,%object", ""() #32, !dbg !6324, !srcloc !6325
  tail call void asm sideeffect ".globl\09CONFIG_DT_HAS_PWM_LEDS_ENABLED\0A\09.equ\09CONFIG_DT_HAS_PWM_LEDS_ENABLED,1\0A\09.type\09CONFIG_DT_HAS_PWM_LEDS_ENABLED,%object", ""() #32, !dbg !6326, !srcloc !6327
  tail call void asm sideeffect ".globl\09CONFIG_DT_HAS_SOC_NV_FLASH_ENABLED\0A\09.equ\09CONFIG_DT_HAS_SOC_NV_FLASH_ENABLED,1\0A\09.type\09CONFIG_DT_HAS_SOC_NV_FLASH_ENABLED,%object", ""() #32, !dbg !6328, !srcloc !6329
  tail call void asm sideeffect ".globl\09CONFIG_ZEPHYR_CANOPENNODE_MODULE\0A\09.equ\09CONFIG_ZEPHYR_CANOPENNODE_MODULE,1\0A\09.type\09CONFIG_ZEPHYR_CANOPENNODE_MODULE,%object", ""() #32, !dbg !6330, !srcloc !6331
  tail call void asm sideeffect ".globl\09CONFIG_ZEPHYR_CHRE_MODULE\0A\09.equ\09CONFIG_ZEPHYR_CHRE_MODULE,1\0A\09.type\09CONFIG_ZEPHYR_CHRE_MODULE,%object", ""() #32, !dbg !6332, !srcloc !6333
  tail call void asm sideeffect ".globl\09CONFIG_ZEPHYR_FATFS_MODULE\0A\09.equ\09CONFIG_ZEPHYR_FATFS_MODULE,1\0A\09.type\09CONFIG_ZEPHYR_FATFS_MODULE,%object", ""() #32, !dbg !6334, !srcloc !6335
  tail call void asm sideeffect ".globl\09CONFIG_ZEPHYR_HAL_ESPRESSIF_MODULE\0A\09.equ\09CONFIG_ZEPHYR_HAL_ESPRESSIF_MODULE,1\0A\09.type\09CONFIG_ZEPHYR_HAL_ESPRESSIF_MODULE,%object", ""() #32, !dbg !6336, !srcloc !6337
  tail call void asm sideeffect ".globl\09CONFIG_ZEPHYR_HAL_ETHOS_U_MODULE\0A\09.equ\09CONFIG_ZEPHYR_HAL_ETHOS_U_MODULE,1\0A\09.type\09CONFIG_ZEPHYR_HAL_ETHOS_U_MODULE,%object", ""() #32, !dbg !6338, !srcloc !6339
  tail call void asm sideeffect ".globl\09CONFIG_ZEPHYR_HAL_GIGADEVICE_MODULE\0A\09.equ\09CONFIG_ZEPHYR_HAL_GIGADEVICE_MODULE,1\0A\09.type\09CONFIG_ZEPHYR_HAL_GIGADEVICE_MODULE,%object", ""() #32, !dbg !6340, !srcloc !6341
  tail call void asm sideeffect ".globl\09CONFIG_ZEPHYR_HAL_INFINEON_MODULE\0A\09.equ\09CONFIG_ZEPHYR_HAL_INFINEON_MODULE,1\0A\09.type\09CONFIG_ZEPHYR_HAL_INFINEON_MODULE,%object", ""() #32, !dbg !6342, !srcloc !6343
  tail call void asm sideeffect ".globl\09CONFIG_ZEPHYR_HAL_NORDIC_MODULE\0A\09.equ\09CONFIG_ZEPHYR_HAL_NORDIC_MODULE,1\0A\09.type\09CONFIG_ZEPHYR_HAL_NORDIC_MODULE,%object", ""() #32, !dbg !6344, !srcloc !6345
  tail call void asm sideeffect ".globl\09CONFIG_ZEPHYR_HAL_NXP_MODULE\0A\09.equ\09CONFIG_ZEPHYR_HAL_NXP_MODULE,1\0A\09.type\09CONFIG_ZEPHYR_HAL_NXP_MODULE,%object", ""() #32, !dbg !6346, !srcloc !6347
  tail call void asm sideeffect ".globl\09CONFIG_ZEPHYR_HAL_RPI_PICO_MODULE\0A\09.equ\09CONFIG_ZEPHYR_HAL_RPI_PICO_MODULE,1\0A\09.type\09CONFIG_ZEPHYR_HAL_RPI_PICO_MODULE,%object", ""() #32, !dbg !6348, !srcloc !6349
  tail call void asm sideeffect ".globl\09CONFIG_ZEPHYR_HAL_TELINK_MODULE\0A\09.equ\09CONFIG_ZEPHYR_HAL_TELINK_MODULE,1\0A\09.type\09CONFIG_ZEPHYR_HAL_TELINK_MODULE,%object", ""() #32, !dbg !6350, !srcloc !6351
  tail call void asm sideeffect ".globl\09CONFIG_ZEPHYR_LIBLC3_MODULE\0A\09.equ\09CONFIG_ZEPHYR_LIBLC3_MODULE,1\0A\09.type\09CONFIG_ZEPHYR_LIBLC3_MODULE,%object", ""() #32, !dbg !6352, !srcloc !6353
  tail call void asm sideeffect ".globl\09CONFIG_ZEPHYR_LITTLEFS_MODULE\0A\09.equ\09CONFIG_ZEPHYR_LITTLEFS_MODULE,1\0A\09.type\09CONFIG_ZEPHYR_LITTLEFS_MODULE,%object", ""() #32, !dbg !6354, !srcloc !6355
  tail call void asm sideeffect ".globl\09CONFIG_ZEPHYR_LORAMAC_NODE_MODULE\0A\09.equ\09CONFIG_ZEPHYR_LORAMAC_NODE_MODULE,1\0A\09.type\09CONFIG_ZEPHYR_LORAMAC_NODE_MODULE,%object", ""() #32, !dbg !6356, !srcloc !6357
  tail call void asm sideeffect ".globl\09CONFIG_ZEPHYR_LVGL_MODULE\0A\09.equ\09CONFIG_ZEPHYR_LVGL_MODULE,1\0A\09.type\09CONFIG_ZEPHYR_LVGL_MODULE,%object", ""() #32, !dbg !6358, !srcloc !6359
  tail call void asm sideeffect ".globl\09CONFIG_ZEPHYR_LZ4_MODULE\0A\09.equ\09CONFIG_ZEPHYR_LZ4_MODULE,1\0A\09.type\09CONFIG_ZEPHYR_LZ4_MODULE,%object", ""() #32, !dbg !6360, !srcloc !6361
  tail call void asm sideeffect ".globl\09CONFIG_ZEPHYR_MBEDTLS_MODULE\0A\09.equ\09CONFIG_ZEPHYR_MBEDTLS_MODULE,1\0A\09.type\09CONFIG_ZEPHYR_MBEDTLS_MODULE,%object", ""() #32, !dbg !6362, !srcloc !6363
  tail call void asm sideeffect ".globl\09CONFIG_ZEPHYR_NANOPB_MODULE\0A\09.equ\09CONFIG_ZEPHYR_NANOPB_MODULE,1\0A\09.type\09CONFIG_ZEPHYR_NANOPB_MODULE,%object", ""() #32, !dbg !6364, !srcloc !6365
  tail call void asm sideeffect ".globl\09CONFIG_ZEPHYR_OPENTHREAD_MODULE\0A\09.equ\09CONFIG_ZEPHYR_OPENTHREAD_MODULE,1\0A\09.type\09CONFIG_ZEPHYR_OPENTHREAD_MODULE,%object", ""() #32, !dbg !6366, !srcloc !6367
  tail call void asm sideeffect ".globl\09CONFIG_ZEPHYR_PICOLIBC_MODULE\0A\09.equ\09CONFIG_ZEPHYR_PICOLIBC_MODULE,1\0A\09.type\09CONFIG_ZEPHYR_PICOLIBC_MODULE,%object", ""() #32, !dbg !6368, !srcloc !6369
  tail call void asm sideeffect ".globl\09CONFIG_ZEPHYR_SOF_MODULE\0A\09.equ\09CONFIG_ZEPHYR_SOF_MODULE,1\0A\09.type\09CONFIG_ZEPHYR_SOF_MODULE,%object", ""() #32, !dbg !6370, !srcloc !6371
  tail call void asm sideeffect ".globl\09CONFIG_ZEPHYR_TFLITE_MICRO_MODULE\0A\09.equ\09CONFIG_ZEPHYR_TFLITE_MICRO_MODULE,1\0A\09.type\09CONFIG_ZEPHYR_TFLITE_MICRO_MODULE,%object", ""() #32, !dbg !6372, !srcloc !6373
  tail call void asm sideeffect ".globl\09CONFIG_ZEPHYR_TRACERECORDER_MODULE\0A\09.equ\09CONFIG_ZEPHYR_TRACERECORDER_MODULE,1\0A\09.type\09CONFIG_ZEPHYR_TRACERECORDER_MODULE,%object", ""() #32, !dbg !6374, !srcloc !6375
  tail call void asm sideeffect ".globl\09CONFIG_ZEPHYR_TRUSTED_FIRMWARE_M_MODULE\0A\09.equ\09CONFIG_ZEPHYR_TRUSTED_FIRMWARE_M_MODULE,1\0A\09.type\09CONFIG_ZEPHYR_TRUSTED_FIRMWARE_M_MODULE,%object", ""() #32, !dbg !6376, !srcloc !6377
  tail call void asm sideeffect ".globl\09CONFIG_ZEPHYR_TRUSTED_FIRMWARE_A_MODULE\0A\09.equ\09CONFIG_ZEPHYR_TRUSTED_FIRMWARE_A_MODULE,1\0A\09.type\09CONFIG_ZEPHYR_TRUSTED_FIRMWARE_A_MODULE,%object", ""() #32, !dbg !6378, !srcloc !6379
  tail call void asm sideeffect ".globl\09CONFIG_ZEPHYR_UOSCORE_UEDHOC_MODULE\0A\09.equ\09CONFIG_ZEPHYR_UOSCORE_UEDHOC_MODULE,1\0A\09.type\09CONFIG_ZEPHYR_UOSCORE_UEDHOC_MODULE,%object", ""() #32, !dbg !6380, !srcloc !6381
  tail call void asm sideeffect ".globl\09CONFIG_ZEPHYR_ZCBOR_MODULE\0A\09.equ\09CONFIG_ZEPHYR_ZCBOR_MODULE,1\0A\09.type\09CONFIG_ZEPHYR_ZCBOR_MODULE,%object", ""() #32, !dbg !6382, !srcloc !6383
  tail call void asm sideeffect ".globl\09CONFIG_ZEPHYR_ZSCILIB_MODULE\0A\09.equ\09CONFIG_ZEPHYR_ZSCILIB_MODULE,1\0A\09.type\09CONFIG_ZEPHYR_ZSCILIB_MODULE,%object", ""() #32, !dbg !6384, !srcloc !6385
  tail call void asm sideeffect ".globl\09CONFIG_ASF\0A\09.equ\09CONFIG_ASF,1\0A\09.type\09CONFIG_ASF,%object", ""() #32, !dbg !6386, !srcloc !6387
  tail call void asm sideeffect ".globl\09CONFIG_HAS_CMSIS_CORE\0A\09.equ\09CONFIG_HAS_CMSIS_CORE,1\0A\09.type\09CONFIG_HAS_CMSIS_CORE,%object", ""() #32, !dbg !6388, !srcloc !6389
  tail call void asm sideeffect ".globl\09CONFIG_HAS_CMSIS_CORE_M\0A\09.equ\09CONFIG_HAS_CMSIS_CORE_M,1\0A\09.type\09CONFIG_HAS_CMSIS_CORE_M,%object", ""() #32, !dbg !6390, !srcloc !6391
  tail call void asm sideeffect ".globl\09CONFIG_BOARD_REVISION\0A\09.equ\09CONFIG_BOARD_REVISION,1\0A\09.type\09CONFIG_BOARD_REVISION,%object", ""() #32, !dbg !6392, !srcloc !6393
  tail call void asm sideeffect ".globl\09CONFIG_BOARD_ADAFRUIT_TRINKET_M0\0A\09.equ\09CONFIG_BOARD_ADAFRUIT_TRINKET_M0,1\0A\09.type\09CONFIG_BOARD_ADAFRUIT_TRINKET_M0,%object", ""() #32, !dbg !6394, !srcloc !6395
  tail call void asm sideeffect ".globl\09CONFIG_SOC_SERIES_SAMD21\0A\09.equ\09CONFIG_SOC_SERIES_SAMD21,1\0A\09.type\09CONFIG_SOC_SERIES_SAMD21,%object", ""() #32, !dbg !6396, !srcloc !6397
  tail call void asm sideeffect ".globl\09CONFIG_SOC_FAMILY\0A\09.equ\09CONFIG_SOC_FAMILY,1\0A\09.type\09CONFIG_SOC_FAMILY,%object", ""() #32, !dbg !6398, !srcloc !6399
  tail call void asm sideeffect ".globl\09CONFIG_SOC_FAMILY_SAM0\0A\09.equ\09CONFIG_SOC_FAMILY_SAM0,1\0A\09.type\09CONFIG_SOC_FAMILY_SAM0,%object", ""() #32, !dbg !6400, !srcloc !6401
  tail call void asm sideeffect ".globl\09CONFIG_SOC_ATMEL_SAMD_OSC8M_AS_MAIN\0A\09.equ\09CONFIG_SOC_ATMEL_SAMD_OSC8M_AS_MAIN,1\0A\09.type\09CONFIG_SOC_ATMEL_SAMD_OSC8M_AS_MAIN,%object", ""() #32, !dbg !6402, !srcloc !6403
  tail call void asm sideeffect ".globl\09CONFIG_SOC_PART_NUMBER_SAMD21E18A\0A\09.equ\09CONFIG_SOC_PART_NUMBER_SAMD21E18A,1\0A\09.type\09CONFIG_SOC_PART_NUMBER_SAMD21E18A,%object", ""() #32, !dbg !6404, !srcloc !6405
  tail call void asm sideeffect ".globl\09CONFIG_SOC_SERIES_REVISION\0A\09.equ\09CONFIG_SOC_SERIES_REVISION,1\0A\09.type\09CONFIG_SOC_SERIES_REVISION,%object", ""() #32, !dbg !6406, !srcloc !6407
  tail call void asm sideeffect ".globl\09CONFIG_ARCH\0A\09.equ\09CONFIG_ARCH,1\0A\09.type\09CONFIG_ARCH,%object", ""() #32, !dbg !6408, !srcloc !6409
  tail call void asm sideeffect ".globl\09CONFIG_CPU_CORTEX\0A\09.equ\09CONFIG_CPU_CORTEX,1\0A\09.type\09CONFIG_CPU_CORTEX,%object", ""() #32, !dbg !6410, !srcloc !6411
  tail call void asm sideeffect ".globl\09CONFIG_CPU_CORTEX_M\0A\09.equ\09CONFIG_CPU_CORTEX_M,1\0A\09.type\09CONFIG_CPU_CORTEX_M,%object", ""() #32, !dbg !6412, !srcloc !6413
  tail call void asm sideeffect ".globl\09CONFIG_ISA_THUMB2\0A\09.equ\09CONFIG_ISA_THUMB2,1\0A\09.type\09CONFIG_ISA_THUMB2,%object", ""() #32, !dbg !6414, !srcloc !6415
  tail call void asm sideeffect ".globl\09CONFIG_ASSEMBLER_ISA_THUMB2\0A\09.equ\09CONFIG_ASSEMBLER_ISA_THUMB2,1\0A\09.type\09CONFIG_ASSEMBLER_ISA_THUMB2,%object", ""() #32, !dbg !6416, !srcloc !6417
  tail call void asm sideeffect ".globl\09CONFIG_COMPILER_ISA_THUMB2\0A\09.equ\09CONFIG_COMPILER_ISA_THUMB2,1\0A\09.type\09CONFIG_COMPILER_ISA_THUMB2,%object", ""() #32, !dbg !6418, !srcloc !6419
  tail call void asm sideeffect ".globl\09CONFIG_STACK_ALIGN_DOUBLE_WORD\0A\09.equ\09CONFIG_STACK_ALIGN_DOUBLE_WORD,1\0A\09.type\09CONFIG_STACK_ALIGN_DOUBLE_WORD,%object", ""() #32, !dbg !6420, !srcloc !6421
  tail call void asm sideeffect ".globl\09CONFIG_FAULT_DUMP\0A\09.equ\09CONFIG_FAULT_DUMP,2\0A\09.type\09CONFIG_FAULT_DUMP,%object", ""() #32, !dbg !6422, !srcloc !6423
  tail call void asm sideeffect ".globl\09CONFIG_FP16\0A\09.equ\09CONFIG_FP16,1\0A\09.type\09CONFIG_FP16,%object", ""() #32, !dbg !6424, !srcloc !6425
  tail call void asm sideeffect ".globl\09CONFIG_FP16_IEEE\0A\09.equ\09CONFIG_FP16_IEEE,1\0A\09.type\09CONFIG_FP16_IEEE,%object", ""() #32, !dbg !6426, !srcloc !6427
  tail call void asm sideeffect ".globl\09CONFIG_CPU_CORTEX_M0PLUS\0A\09.equ\09CONFIG_CPU_CORTEX_M0PLUS,1\0A\09.type\09CONFIG_CPU_CORTEX_M0PLUS,%object", ""() #32, !dbg !6428, !srcloc !6429
  tail call void asm sideeffect ".globl\09CONFIG_CPU_CORTEX_M_HAS_SYSTICK\0A\09.equ\09CONFIG_CPU_CORTEX_M_HAS_SYSTICK,1\0A\09.type\09CONFIG_CPU_CORTEX_M_HAS_SYSTICK,%object", ""() #32, !dbg !6430, !srcloc !6431
  tail call void asm sideeffect ".globl\09CONFIG_CPU_CORTEX_M_HAS_VTOR\0A\09.equ\09CONFIG_CPU_CORTEX_M_HAS_VTOR,1\0A\09.type\09CONFIG_CPU_CORTEX_M_HAS_VTOR,%object", ""() #32, !dbg !6432, !srcloc !6433
  tail call void asm sideeffect ".globl\09CONFIG_ARMV6_M_ARMV8_M_BASELINE\0A\09.equ\09CONFIG_ARMV6_M_ARMV8_M_BASELINE,1\0A\09.type\09CONFIG_ARMV6_M_ARMV8_M_BASELINE,%object", ""() #32, !dbg !6434, !srcloc !6435
  tail call void asm sideeffect ".globl\09CONFIG_GEN_ISR_TABLES\0A\09.equ\09CONFIG_GEN_ISR_TABLES,1\0A\09.type\09CONFIG_GEN_ISR_TABLES,%object", ""() #32, !dbg !6436, !srcloc !6437
  tail call void asm sideeffect ".globl\09CONFIG_NULL_POINTER_EXCEPTION_DETECTION_NONE\0A\09.equ\09CONFIG_NULL_POINTER_EXCEPTION_DETECTION_NONE,1\0A\09.type\09CONFIG_NULL_POINTER_EXCEPTION_DETECTION_NONE,%object", ""() #32, !dbg !6438, !srcloc !6439
  tail call void asm sideeffect ".globl\09CONFIG_GEN_IRQ_VECTOR_TABLE\0A\09.equ\09CONFIG_GEN_IRQ_VECTOR_TABLE,1\0A\09.type\09CONFIG_GEN_IRQ_VECTOR_TABLE,%object", ""() #32, !dbg !6440, !srcloc !6441
  tail call void asm sideeffect ".globl\09CONFIG_ARM\0A\09.equ\09CONFIG_ARM,1\0A\09.type\09CONFIG_ARM,%object", ""() #32, !dbg !6442, !srcloc !6443
  tail call void asm sideeffect ".globl\09CONFIG_ARCH_IS_SET\0A\09.equ\09CONFIG_ARCH_IS_SET,1\0A\09.type\09CONFIG_ARCH_IS_SET,%object", ""() #32, !dbg !6444, !srcloc !6445
  tail call void asm sideeffect ".globl\09CONFIG_LITTLE_ENDIAN\0A\09.equ\09CONFIG_LITTLE_ENDIAN,1\0A\09.type\09CONFIG_LITTLE_ENDIAN,%object", ""() #32, !dbg !6446, !srcloc !6447
  tail call void asm sideeffect ".globl\09CONFIG_SRAM_SIZE\0A\09.equ\09CONFIG_SRAM_SIZE,32\0A\09.type\09CONFIG_SRAM_SIZE,%object", ""() #32, !dbg !6448, !srcloc !6449
  tail call void asm sideeffect ".globl\09CONFIG_SRAM_BASE_ADDRESS\0A\09.equ\09CONFIG_SRAM_BASE_ADDRESS,0x20000000\0A\09.type\09CONFIG_SRAM_BASE_ADDRESS,%object", ""() #32, !dbg !6450, !srcloc !6451
  tail call void asm sideeffect ".globl\09CONFIG_GEN_PRIV_STACKS\0A\09.equ\09CONFIG_GEN_PRIV_STACKS,1\0A\09.type\09CONFIG_GEN_PRIV_STACKS,%object", ""() #32, !dbg !6452, !srcloc !6453
  tail call void asm sideeffect ".globl\09CONFIG_ARCH_IRQ_VECTOR_TABLE_ALIGN\0A\09.equ\09CONFIG_ARCH_IRQ_VECTOR_TABLE_ALIGN,4\0A\09.type\09CONFIG_ARCH_IRQ_VECTOR_TABLE_ALIGN,%object", ""() #32, !dbg !6454, !srcloc !6455
  tail call void asm sideeffect ".globl\09CONFIG_IRQ_VECTOR_TABLE_JUMP_BY_ADDRESS\0A\09.equ\09CONFIG_IRQ_VECTOR_TABLE_JUMP_BY_ADDRESS,1\0A\09.type\09CONFIG_IRQ_VECTOR_TABLE_JUMP_BY_ADDRESS,%object", ""() #32, !dbg !6456, !srcloc !6457
  tail call void asm sideeffect ".globl\09CONFIG_GEN_SW_ISR_TABLE\0A\09.equ\09CONFIG_GEN_SW_ISR_TABLE,1\0A\09.type\09CONFIG_GEN_SW_ISR_TABLE,%object", ""() #32, !dbg !6458, !srcloc !6459
  tail call void asm sideeffect ".globl\09CONFIG_ARCH_SW_ISR_TABLE_ALIGN\0A\09.equ\09CONFIG_ARCH_SW_ISR_TABLE_ALIGN,4\0A\09.type\09CONFIG_ARCH_SW_ISR_TABLE_ALIGN,%object", ""() #32, !dbg !6460, !srcloc !6461
  tail call void asm sideeffect ".globl\09CONFIG_GEN_IRQ_START_VECTOR\0A\09.equ\09CONFIG_GEN_IRQ_START_VECTOR,0\0A\09.type\09CONFIG_GEN_IRQ_START_VECTOR,%object", ""() #32, !dbg !6462, !srcloc !6463
  tail call void asm sideeffect ".globl\09CONFIG_ARCH_HAS_SINGLE_THREAD_SUPPORT\0A\09.equ\09CONFIG_ARCH_HAS_SINGLE_THREAD_SUPPORT,1\0A\09.type\09CONFIG_ARCH_HAS_SINGLE_THREAD_SUPPORT,%object", ""() #32, !dbg !6464, !srcloc !6465
  tail call void asm sideeffect ".globl\09CONFIG_ARCH_HAS_RAMFUNC_SUPPORT\0A\09.equ\09CONFIG_ARCH_HAS_RAMFUNC_SUPPORT,1\0A\09.type\09CONFIG_ARCH_HAS_RAMFUNC_SUPPORT,%object", ""() #32, !dbg !6466, !srcloc !6467
  tail call void asm sideeffect ".globl\09CONFIG_ARCH_HAS_NESTED_EXCEPTION_DETECTION\0A\09.equ\09CONFIG_ARCH_HAS_NESTED_EXCEPTION_DETECTION,1\0A\09.type\09CONFIG_ARCH_HAS_NESTED_EXCEPTION_DETECTION,%object", ""() #32, !dbg !6468, !srcloc !6469
  tail call void asm sideeffect ".globl\09CONFIG_ARCH_SUPPORTS_COREDUMP\0A\09.equ\09CONFIG_ARCH_SUPPORTS_COREDUMP,1\0A\09.type\09CONFIG_ARCH_SUPPORTS_COREDUMP,%object", ""() #32, !dbg !6470, !srcloc !6471
  tail call void asm sideeffect ".globl\09CONFIG_ARCH_SUPPORTS_ARCH_HW_INIT\0A\09.equ\09CONFIG_ARCH_SUPPORTS_ARCH_HW_INIT,1\0A\09.type\09CONFIG_ARCH_SUPPORTS_ARCH_HW_INIT,%object", ""() #32, !dbg !6472, !srcloc !6473
  tail call void asm sideeffect ".globl\09CONFIG_ARCH_HAS_EXTRA_EXCEPTION_INFO\0A\09.equ\09CONFIG_ARCH_HAS_EXTRA_EXCEPTION_INFO,1\0A\09.type\09CONFIG_ARCH_HAS_EXTRA_EXCEPTION_INFO,%object", ""() #32, !dbg !6474, !srcloc !6475
  tail call void asm sideeffect ".globl\09CONFIG_ARCH_HAS_THREAD_LOCAL_STORAGE\0A\09.equ\09CONFIG_ARCH_HAS_THREAD_LOCAL_STORAGE,1\0A\09.type\09CONFIG_ARCH_HAS_THREAD_LOCAL_STORAGE,%object", ""() #32, !dbg !6476, !srcloc !6477
  tail call void asm sideeffect ".globl\09CONFIG_ARCH_HAS_SUSPEND_TO_RAM\0A\09.equ\09CONFIG_ARCH_HAS_SUSPEND_TO_RAM,1\0A\09.type\09CONFIG_ARCH_HAS_SUSPEND_TO_RAM,%object", ""() #32, !dbg !6478, !srcloc !6479
  tail call void asm sideeffect ".globl\09CONFIG_ARCH_HAS_THREAD_ABORT\0A\09.equ\09CONFIG_ARCH_HAS_THREAD_ABORT,1\0A\09.type\09CONFIG_ARCH_HAS_THREAD_ABORT,%object", ""() #32, !dbg !6480, !srcloc !6481
  tail call void asm sideeffect ".globl\09CONFIG_ARCH_HAS_CODE_DATA_RELOCATION\0A\09.equ\09CONFIG_ARCH_HAS_CODE_DATA_RELOCATION,1\0A\09.type\09CONFIG_ARCH_HAS_CODE_DATA_RELOCATION,%object", ""() #32, !dbg !6482, !srcloc !6483
  tail call void asm sideeffect ".globl\09CONFIG_TOOLCHAIN_HAS_BUILTIN_FFS\0A\09.equ\09CONFIG_TOOLCHAIN_HAS_BUILTIN_FFS,1\0A\09.type\09CONFIG_TOOLCHAIN_HAS_BUILTIN_FFS,%object", ""() #32, !dbg !6484, !srcloc !6485
  tail call void asm sideeffect ".globl\09CONFIG_MULTITHREADING\0A\09.equ\09CONFIG_MULTITHREADING,1\0A\09.type\09CONFIG_MULTITHREADING,%object", ""() #32, !dbg !6486, !srcloc !6487
  tail call void asm sideeffect ".globl\09CONFIG_NUM_COOP_PRIORITIES\0A\09.equ\09CONFIG_NUM_COOP_PRIORITIES,16\0A\09.type\09CONFIG_NUM_COOP_PRIORITIES,%object", ""() #32, !dbg !6488, !srcloc !6489
  tail call void asm sideeffect ".globl\09CONFIG_NUM_PREEMPT_PRIORITIES\0A\09.equ\09CONFIG_NUM_PREEMPT_PRIORITIES,15\0A\09.type\09CONFIG_NUM_PREEMPT_PRIORITIES,%object", ""() #32, !dbg !6490, !srcloc !6491
  tail call void asm sideeffect ".globl\09CONFIG_MAIN_THREAD_PRIORITY\0A\09.equ\09CONFIG_MAIN_THREAD_PRIORITY,0\0A\09.type\09CONFIG_MAIN_THREAD_PRIORITY,%object", ""() #32, !dbg !6492, !srcloc !6493
  tail call void asm sideeffect ".globl\09CONFIG_COOP_ENABLED\0A\09.equ\09CONFIG_COOP_ENABLED,1\0A\09.type\09CONFIG_COOP_ENABLED,%object", ""() #32, !dbg !6494, !srcloc !6495
  tail call void asm sideeffect ".globl\09CONFIG_PREEMPT_ENABLED\0A\09.equ\09CONFIG_PREEMPT_ENABLED,1\0A\09.type\09CONFIG_PREEMPT_ENABLED,%object", ""() #32, !dbg !6496, !srcloc !6497
  tail call void asm sideeffect ".globl\09CONFIG_PRIORITY_CEILING\0A\09.equ\09CONFIG_PRIORITY_CEILING,-127\0A\09.type\09CONFIG_PRIORITY_CEILING,%object", ""() #32, !dbg !6498, !srcloc !6499
  tail call void asm sideeffect ".globl\09CONFIG_NUM_METAIRQ_PRIORITIES\0A\09.equ\09CONFIG_NUM_METAIRQ_PRIORITIES,0\0A\09.type\09CONFIG_NUM_METAIRQ_PRIORITIES,%object", ""() #32, !dbg !6500, !srcloc !6501
  tail call void asm sideeffect ".globl\09CONFIG_IDLE_STACK_SIZE\0A\09.equ\09CONFIG_IDLE_STACK_SIZE,256\0A\09.type\09CONFIG_IDLE_STACK_SIZE,%object", ""() #32, !dbg !6502, !srcloc !6503
  tail call void asm sideeffect ".globl\09CONFIG_ISR_STACK_SIZE\0A\09.equ\09CONFIG_ISR_STACK_SIZE,2048\0A\09.type\09CONFIG_ISR_STACK_SIZE,%object", ""() #32, !dbg !6504, !srcloc !6505
  tail call void asm sideeffect ".globl\09CONFIG_ERRNO\0A\09.equ\09CONFIG_ERRNO,1\0A\09.type\09CONFIG_ERRNO,%object", ""() #32, !dbg !6506, !srcloc !6507
  tail call void asm sideeffect ".globl\09CONFIG_SCHED_DUMB\0A\09.equ\09CONFIG_SCHED_DUMB,1\0A\09.type\09CONFIG_SCHED_DUMB,%object", ""() #32, !dbg !6508, !srcloc !6509
  tail call void asm sideeffect ".globl\09CONFIG_WAITQ_DUMB\0A\09.equ\09CONFIG_WAITQ_DUMB,1\0A\09.type\09CONFIG_WAITQ_DUMB,%object", ""() #32, !dbg !6510, !srcloc !6511
  tail call void asm sideeffect ".globl\09CONFIG_BOOT_BANNER\0A\09.equ\09CONFIG_BOOT_BANNER,1\0A\09.type\09CONFIG_BOOT_BANNER,%object", ""() #32, !dbg !6512, !srcloc !6513
  tail call void asm sideeffect ".globl\09CONFIG_BOOT_DELAY\0A\09.equ\09CONFIG_BOOT_DELAY,0\0A\09.type\09CONFIG_BOOT_DELAY,%object", ""() #32, !dbg !6514, !srcloc !6515
  tail call void asm sideeffect ".globl\09CONFIG_SYSTEM_WORKQUEUE_STACK_SIZE\0A\09.equ\09CONFIG_SYSTEM_WORKQUEUE_STACK_SIZE,1024\0A\09.type\09CONFIG_SYSTEM_WORKQUEUE_STACK_SIZE,%object", ""() #32, !dbg !6516, !srcloc !6517
  tail call void asm sideeffect ".globl\09CONFIG_SYSTEM_WORKQUEUE_PRIORITY\0A\09.equ\09CONFIG_SYSTEM_WORKQUEUE_PRIORITY,-1\0A\09.type\09CONFIG_SYSTEM_WORKQUEUE_PRIORITY,%object", ""() #32, !dbg !6518, !srcloc !6519
  tail call void asm sideeffect ".globl\09CONFIG_ATOMIC_OPERATIONS_C\0A\09.equ\09CONFIG_ATOMIC_OPERATIONS_C,1\0A\09.type\09CONFIG_ATOMIC_OPERATIONS_C,%object", ""() #32, !dbg !6520, !srcloc !6521
  tail call void asm sideeffect ".globl\09CONFIG_TIMESLICING\0A\09.equ\09CONFIG_TIMESLICING,1\0A\09.type\09CONFIG_TIMESLICING,%object", ""() #32, !dbg !6522, !srcloc !6523
  tail call void asm sideeffect ".globl\09CONFIG_TIMESLICE_SIZE\0A\09.equ\09CONFIG_TIMESLICE_SIZE,0\0A\09.type\09CONFIG_TIMESLICE_SIZE,%object", ""() #32, !dbg !6524, !srcloc !6525
  tail call void asm sideeffect ".globl\09CONFIG_TIMESLICE_PRIORITY\0A\09.equ\09CONFIG_TIMESLICE_PRIORITY,0\0A\09.type\09CONFIG_TIMESLICE_PRIORITY,%object", ""() #32, !dbg !6526, !srcloc !6527
  tail call void asm sideeffect ".globl\09CONFIG_NUM_MBOX_ASYNC_MSGS\0A\09.equ\09CONFIG_NUM_MBOX_ASYNC_MSGS,10\0A\09.type\09CONFIG_NUM_MBOX_ASYNC_MSGS,%object", ""() #32, !dbg !6528, !srcloc !6529
  tail call void asm sideeffect ".globl\09CONFIG_KERNEL_MEM_POOL\0A\09.equ\09CONFIG_KERNEL_MEM_POOL,1\0A\09.type\09CONFIG_KERNEL_MEM_POOL,%object", ""() #32, !dbg !6530, !srcloc !6531
  tail call void asm sideeffect ".globl\09CONFIG_ARCH_HAS_CUSTOM_SWAP_TO_MAIN\0A\09.equ\09CONFIG_ARCH_HAS_CUSTOM_SWAP_TO_MAIN,1\0A\09.type\09CONFIG_ARCH_HAS_CUSTOM_SWAP_TO_MAIN,%object", ""() #32, !dbg !6532, !srcloc !6533
  tail call void asm sideeffect ".globl\09CONFIG_SWAP_NONATOMIC\0A\09.equ\09CONFIG_SWAP_NONATOMIC,1\0A\09.type\09CONFIG_SWAP_NONATOMIC,%object", ""() #32, !dbg !6534, !srcloc !6535
  tail call void asm sideeffect ".globl\09CONFIG_SYS_CLOCK_EXISTS\0A\09.equ\09CONFIG_SYS_CLOCK_EXISTS,1\0A\09.type\09CONFIG_SYS_CLOCK_EXISTS,%object", ""() #32, !dbg !6536, !srcloc !6537
  tail call void asm sideeffect ".globl\09CONFIG_TIMEOUT_64BIT\0A\09.equ\09CONFIG_TIMEOUT_64BIT,1\0A\09.type\09CONFIG_TIMEOUT_64BIT,%object", ""() #32, !dbg !6538, !srcloc !6539
  tail call void asm sideeffect ".globl\09CONFIG_SYS_CLOCK_MAX_TIMEOUT_DAYS\0A\09.equ\09CONFIG_SYS_CLOCK_MAX_TIMEOUT_DAYS,365\0A\09.type\09CONFIG_SYS_CLOCK_MAX_TIMEOUT_DAYS,%object", ""() #32, !dbg !6540, !srcloc !6541
  tail call void asm sideeffect ".globl\09CONFIG_XIP\0A\09.equ\09CONFIG_XIP,1\0A\09.type\09CONFIG_XIP,%object", ""() #32, !dbg !6542, !srcloc !6543
  tail call void asm sideeffect ".globl\09CONFIG_KERNEL_INIT_PRIORITY_OBJECTS\0A\09.equ\09CONFIG_KERNEL_INIT_PRIORITY_OBJECTS,30\0A\09.type\09CONFIG_KERNEL_INIT_PRIORITY_OBJECTS,%object", ""() #32, !dbg !6544, !srcloc !6545
  tail call void asm sideeffect ".globl\09CONFIG_KERNEL_INIT_PRIORITY_DEFAULT\0A\09.equ\09CONFIG_KERNEL_INIT_PRIORITY_DEFAULT,40\0A\09.type\09CONFIG_KERNEL_INIT_PRIORITY_DEFAULT,%object", ""() #32, !dbg !6546, !srcloc !6547
  tail call void asm sideeffect ".globl\09CONFIG_KERNEL_INIT_PRIORITY_DEVICE\0A\09.equ\09CONFIG_KERNEL_INIT_PRIORITY_DEVICE,50\0A\09.type\09CONFIG_KERNEL_INIT_PRIORITY_DEVICE,%object", ""() #32, !dbg !6548, !srcloc !6549
  tail call void asm sideeffect ".globl\09CONFIG_APPLICATION_INIT_PRIORITY\0A\09.equ\09CONFIG_APPLICATION_INIT_PRIORITY,90\0A\09.type\09CONFIG_APPLICATION_INIT_PRIORITY,%object", ""() #32, !dbg !6550, !srcloc !6551
  tail call void asm sideeffect ".globl\09CONFIG_MP_NUM_CPUS\0A\09.equ\09CONFIG_MP_NUM_CPUS,1\0A\09.type\09CONFIG_MP_NUM_CPUS,%object", ""() #32, !dbg !6552, !srcloc !6553
  tail call void asm sideeffect ".globl\09CONFIG_TICKLESS_KERNEL\0A\09.equ\09CONFIG_TICKLESS_KERNEL,1\0A\09.type\09CONFIG_TICKLESS_KERNEL,%object", ""() #32, !dbg !6554, !srcloc !6555
  tail call void asm sideeffect ".globl\09CONFIG_TOOLCHAIN_SUPPORTS_THREAD_LOCAL_STORAGE\0A\09.equ\09CONFIG_TOOLCHAIN_SUPPORTS_THREAD_LOCAL_STORAGE,1\0A\09.type\09CONFIG_TOOLCHAIN_SUPPORTS_THREAD_LOCAL_STORAGE,%object", ""() #32, !dbg !6556, !srcloc !6557
  tail call void asm sideeffect ".globl\09CONFIG_CONSOLE\0A\09.equ\09CONFIG_CONSOLE,1\0A\09.type\09CONFIG_CONSOLE,%object", ""() #32, !dbg !6558, !srcloc !6559
  tail call void asm sideeffect ".globl\09CONFIG_CONSOLE_INPUT_MAX_LINE_LEN\0A\09.equ\09CONFIG_CONSOLE_INPUT_MAX_LINE_LEN,128\0A\09.type\09CONFIG_CONSOLE_INPUT_MAX_LINE_LEN,%object", ""() #32, !dbg !6560, !srcloc !6561
  tail call void asm sideeffect ".globl\09CONFIG_CONSOLE_HAS_DRIVER\0A\09.equ\09CONFIG_CONSOLE_HAS_DRIVER,1\0A\09.type\09CONFIG_CONSOLE_HAS_DRIVER,%object", ""() #32, !dbg !6562, !srcloc !6563
  tail call void asm sideeffect ".globl\09CONFIG_CONSOLE_INIT_PRIORITY\0A\09.equ\09CONFIG_CONSOLE_INIT_PRIORITY,60\0A\09.type\09CONFIG_CONSOLE_INIT_PRIORITY,%object", ""() #32, !dbg !6564, !srcloc !6565
  tail call void asm sideeffect ".globl\09CONFIG_UART_CONSOLE\0A\09.equ\09CONFIG_UART_CONSOLE,1\0A\09.type\09CONFIG_UART_CONSOLE,%object", ""() #32, !dbg !6566, !srcloc !6567
  tail call void asm sideeffect ".globl\09CONFIG_HAS_SEGGER_RTT\0A\09.equ\09CONFIG_HAS_SEGGER_RTT,1\0A\09.type\09CONFIG_HAS_SEGGER_RTT,%object", ""() #32, !dbg !6568, !srcloc !6569
  tail call void asm sideeffect ".globl\09CONFIG_ETH_INIT_PRIORITY\0A\09.equ\09CONFIG_ETH_INIT_PRIORITY,80\0A\09.type\09CONFIG_ETH_INIT_PRIORITY,%object", ""() #32, !dbg !6570, !srcloc !6571
  tail call void asm sideeffect ".globl\09CONFIG_SERIAL_HAS_DRIVER\0A\09.equ\09CONFIG_SERIAL_HAS_DRIVER,1\0A\09.type\09CONFIG_SERIAL_HAS_DRIVER,%object", ""() #32, !dbg !6572, !srcloc !6573
  tail call void asm sideeffect ".globl\09CONFIG_SERIAL_SUPPORT_ASYNC\0A\09.equ\09CONFIG_SERIAL_SUPPORT_ASYNC,1\0A\09.type\09CONFIG_SERIAL_SUPPORT_ASYNC,%object", ""() #32, !dbg !6574, !srcloc !6575
  tail call void asm sideeffect ".globl\09CONFIG_SERIAL_SUPPORT_INTERRUPT\0A\09.equ\09CONFIG_SERIAL_SUPPORT_INTERRUPT,1\0A\09.type\09CONFIG_SERIAL_SUPPORT_INTERRUPT,%object", ""() #32, !dbg !6576, !srcloc !6577
  tail call void asm sideeffect ".globl\09CONFIG_UART_USE_RUNTIME_CONFIGURE\0A\09.equ\09CONFIG_UART_USE_RUNTIME_CONFIGURE,1\0A\09.type\09CONFIG_UART_USE_RUNTIME_CONFIGURE,%object", ""() #32, !dbg !6578, !srcloc !6579
  tail call void asm sideeffect ".globl\09CONFIG_UART_SAM0\0A\09.equ\09CONFIG_UART_SAM0,1\0A\09.type\09CONFIG_UART_SAM0,%object", ""() #32, !dbg !6580, !srcloc !6581
  tail call void asm sideeffect ".globl\09CONFIG_INTC_INIT_PRIORITY\0A\09.equ\09CONFIG_INTC_INIT_PRIORITY,40\0A\09.type\09CONFIG_INTC_INIT_PRIORITY,%object", ""() #32, !dbg !6582, !srcloc !6583
  tail call void asm sideeffect ".globl\09CONFIG_SAM0_EIC\0A\09.equ\09CONFIG_SAM0_EIC,1\0A\09.type\09CONFIG_SAM0_EIC,%object", ""() #32, !dbg !6584, !srcloc !6585
  tail call void asm sideeffect ".globl\09CONFIG_SYSTEM_CLOCK_INIT_PRIORITY\0A\09.equ\09CONFIG_SYSTEM_CLOCK_INIT_PRIORITY,0\0A\09.type\09CONFIG_SYSTEM_CLOCK_INIT_PRIORITY,%object", ""() #32, !dbg !6586, !srcloc !6587
  tail call void asm sideeffect ".globl\09CONFIG_TICKLESS_CAPABLE\0A\09.equ\09CONFIG_TICKLESS_CAPABLE,1\0A\09.type\09CONFIG_TICKLESS_CAPABLE,%object", ""() #32, !dbg !6588, !srcloc !6589
  tail call void asm sideeffect ".globl\09CONFIG_SYSTEM_TIMER_HAS_DISABLE_SUPPORT\0A\09.equ\09CONFIG_SYSTEM_TIMER_HAS_DISABLE_SUPPORT,1\0A\09.type\09CONFIG_SYSTEM_TIMER_HAS_DISABLE_SUPPORT,%object", ""() #32, !dbg !6590, !srcloc !6591
  tail call void asm sideeffect ".globl\09CONFIG_CORTEX_M_SYSTICK_INSTALL_ISR\0A\09.equ\09CONFIG_CORTEX_M_SYSTICK_INSTALL_ISR,1\0A\09.type\09CONFIG_CORTEX_M_SYSTICK_INSTALL_ISR,%object", ""() #32, !dbg !6592, !srcloc !6593
  tail call void asm sideeffect ".globl\09CONFIG_PINCTRL_SAM0\0A\09.equ\09CONFIG_PINCTRL_SAM0,1\0A\09.type\09CONFIG_PINCTRL_SAM0,%object", ""() #32, !dbg !6594, !srcloc !6595
  tail call void asm sideeffect ".globl\09CONFIG_SUPPORT_MINIMAL_LIBC\0A\09.equ\09CONFIG_SUPPORT_MINIMAL_LIBC,1\0A\09.type\09CONFIG_SUPPORT_MINIMAL_LIBC,%object", ""() #32, !dbg !6596, !srcloc !6597
  tail call void asm sideeffect ".globl\09CONFIG_PICOLIBC_SUPPORTED\0A\09.equ\09CONFIG_PICOLIBC_SUPPORTED,1\0A\09.type\09CONFIG_PICOLIBC_SUPPORTED,%object", ""() #32, !dbg !6598, !srcloc !6599
  tail call void asm sideeffect ".globl\09CONFIG_MINIMAL_LIBC\0A\09.equ\09CONFIG_MINIMAL_LIBC,1\0A\09.type\09CONFIG_MINIMAL_LIBC,%object", ""() #32, !dbg !6600, !srcloc !6601
  tail call void asm sideeffect ".globl\09CONFIG_HAS_NEWLIB_LIBC_NANO\0A\09.equ\09CONFIG_HAS_NEWLIB_LIBC_NANO,1\0A\09.type\09CONFIG_HAS_NEWLIB_LIBC_NANO,%object", ""() #32, !dbg !6602, !srcloc !6603
  tail call void asm sideeffect ".globl\09CONFIG_MINIMAL_LIBC_NON_REENTRANT_FUNCTIONS\0A\09.equ\09CONFIG_MINIMAL_LIBC_NON_REENTRANT_FUNCTIONS,1\0A\09.type\09CONFIG_MINIMAL_LIBC_NON_REENTRANT_FUNCTIONS,%object", ""() #32, !dbg !6604, !srcloc !6605
  tail call void asm sideeffect ".globl\09CONFIG_MINIMAL_LIBC_MALLOC\0A\09.equ\09CONFIG_MINIMAL_LIBC_MALLOC,1\0A\09.type\09CONFIG_MINIMAL_LIBC_MALLOC,%object", ""() #32, !dbg !6606, !srcloc !6607
  tail call void asm sideeffect ".globl\09CONFIG_MINIMAL_LIBC_MALLOC_ARENA_SIZE\0A\09.equ\09CONFIG_MINIMAL_LIBC_MALLOC_ARENA_SIZE,128\0A\09.type\09CONFIG_MINIMAL_LIBC_MALLOC_ARENA_SIZE,%object", ""() #32, !dbg !6608, !srcloc !6609
  tail call void asm sideeffect ".globl\09CONFIG_MINIMAL_LIBC_CALLOC\0A\09.equ\09CONFIG_MINIMAL_LIBC_CALLOC,1\0A\09.type\09CONFIG_MINIMAL_LIBC_CALLOC,%object", ""() #32, !dbg !6610, !srcloc !6611
  tail call void asm sideeffect ".globl\09CONFIG_MINIMAL_LIBC_REALLOCARRAY\0A\09.equ\09CONFIG_MINIMAL_LIBC_REALLOCARRAY,1\0A\09.type\09CONFIG_MINIMAL_LIBC_REALLOCARRAY,%object", ""() #32, !dbg !6612, !srcloc !6613
  tail call void asm sideeffect ".globl\09CONFIG_MINIMAL_LIBC_OPTIMIZE_STRING_FOR_SIZE\0A\09.equ\09CONFIG_MINIMAL_LIBC_OPTIMIZE_STRING_FOR_SIZE,1\0A\09.type\09CONFIG_MINIMAL_LIBC_OPTIMIZE_STRING_FOR_SIZE,%object", ""() #32, !dbg !6614, !srcloc !6615
  tail call void asm sideeffect ".globl\09CONFIG_MINIMAL_LIBC_TIME\0A\09.equ\09CONFIG_MINIMAL_LIBC_TIME,1\0A\09.type\09CONFIG_MINIMAL_LIBC_TIME,%object", ""() #32, !dbg !6616, !srcloc !6617
  tail call void asm sideeffect ".globl\09CONFIG_STDOUT_CONSOLE\0A\09.equ\09CONFIG_STDOUT_CONSOLE,1\0A\09.type\09CONFIG_STDOUT_CONSOLE,%object", ""() #32, !dbg !6618, !srcloc !6619
  tail call void asm sideeffect ".globl\09CONFIG_NEED_LIBC_MEM_PARTITION\0A\09.equ\09CONFIG_NEED_LIBC_MEM_PARTITION,1\0A\09.type\09CONFIG_NEED_LIBC_MEM_PARTITION,%object", ""() #32, !dbg !6620, !srcloc !6621
  tail call void asm sideeffect ".globl\09CONFIG_CRC\0A\09.equ\09CONFIG_CRC,1\0A\09.type\09CONFIG_CRC,%object", ""() #32, !dbg !6622, !srcloc !6623
  tail call void asm sideeffect ".globl\09CONFIG_CBPRINTF_COMPLETE\0A\09.equ\09CONFIG_CBPRINTF_COMPLETE,1\0A\09.type\09CONFIG_CBPRINTF_COMPLETE,%object", ""() #32, !dbg !6624, !srcloc !6625
  tail call void asm sideeffect ".globl\09CONFIG_CBPRINTF_FULL_INTEGRAL\0A\09.equ\09CONFIG_CBPRINTF_FULL_INTEGRAL,1\0A\09.type\09CONFIG_CBPRINTF_FULL_INTEGRAL,%object", ""() #32, !dbg !6626, !srcloc !6627
  tail call void asm sideeffect ".globl\09CONFIG_CBPRINTF_N_SPECIFIER\0A\09.equ\09CONFIG_CBPRINTF_N_SPECIFIER,1\0A\09.type\09CONFIG_CBPRINTF_N_SPECIFIER,%object", ""() #32, !dbg !6628, !srcloc !6629
  tail call void asm sideeffect ".globl\09CONFIG_SYS_HEAP_ALLOC_LOOPS\0A\09.equ\09CONFIG_SYS_HEAP_ALLOC_LOOPS,3\0A\09.type\09CONFIG_SYS_HEAP_ALLOC_LOOPS,%object", ""() #32, !dbg !6630, !srcloc !6631
  tail call void asm sideeffect ".globl\09CONFIG_SYS_HEAP_SMALL_ONLY\0A\09.equ\09CONFIG_SYS_HEAP_SMALL_ONLY,1\0A\09.type\09CONFIG_SYS_HEAP_SMALL_ONLY,%object", ""() #32, !dbg !6632, !srcloc !6633
  tail call void asm sideeffect ".globl\09CONFIG_POSIX_MAX_FDS\0A\09.equ\09CONFIG_POSIX_MAX_FDS,4\0A\09.type\09CONFIG_POSIX_MAX_FDS,%object", ""() #32, !dbg !6634, !srcloc !6635
  tail call void asm sideeffect ".globl\09CONFIG_MAX_TIMER_COUNT\0A\09.equ\09CONFIG_MAX_TIMER_COUNT,5\0A\09.type\09CONFIG_MAX_TIMER_COUNT,%object", ""() #32, !dbg !6636, !srcloc !6637
  tail call void asm sideeffect ".globl\09CONFIG_CPLUSPLUS\0A\09.equ\09CONFIG_CPLUSPLUS,1\0A\09.type\09CONFIG_CPLUSPLUS,%object", ""() #32, !dbg !6638, !srcloc !6639
  tail call void asm sideeffect ".globl\09CONFIG_STD_CPP11\0A\09.equ\09CONFIG_STD_CPP11,1\0A\09.type\09CONFIG_STD_CPP11,%object", ""() #32, !dbg !6640, !srcloc !6641
  tail call void asm sideeffect ".globl\09CONFIG_CPP_MAIN\0A\09.equ\09CONFIG_CPP_MAIN,1\0A\09.type\09CONFIG_CPP_MAIN,%object", ""() #32, !dbg !6642, !srcloc !6643
  tail call void asm sideeffect ".globl\09CONFIG_CPP_STATIC_INIT_GNU\0A\09.equ\09CONFIG_CPP_STATIC_INIT_GNU,1\0A\09.type\09CONFIG_CPP_STATIC_INIT_GNU,%object", ""() #32, !dbg !6644, !srcloc !6645
  tail call void asm sideeffect ".globl\09CONFIG_PRINTK\0A\09.equ\09CONFIG_PRINTK,1\0A\09.type\09CONFIG_PRINTK,%object", ""() #32, !dbg !6646, !srcloc !6647
  tail call void asm sideeffect ".globl\09CONFIG_EARLY_CONSOLE\0A\09.equ\09CONFIG_EARLY_CONSOLE,1\0A\09.type\09CONFIG_EARLY_CONSOLE,%object", ""() #32, !dbg !6648, !srcloc !6649
  tail call void asm sideeffect ".globl\09CONFIG_ASSERT_VERBOSE\0A\09.equ\09CONFIG_ASSERT_VERBOSE,1\0A\09.type\09CONFIG_ASSERT_VERBOSE,%object", ""() #32, !dbg !6650, !srcloc !6651
  tail call void asm sideeffect ".globl\09CONFIG_COVERAGE_GCOV_HEAP_SIZE\0A\09.equ\09CONFIG_COVERAGE_GCOV_HEAP_SIZE,16384\0A\09.type\09CONFIG_COVERAGE_GCOV_HEAP_SIZE,%object", ""() #32, !dbg !6652, !srcloc !6653
  tail call void asm sideeffect ".globl\09CONFIG_TOOLCHAIN_ZEPHYR_0_15\0A\09.equ\09CONFIG_TOOLCHAIN_ZEPHYR_0_15,1\0A\09.type\09CONFIG_TOOLCHAIN_ZEPHYR_0_15,%object", ""() #32, !dbg !6654, !srcloc !6655
  tail call void asm sideeffect ".globl\09CONFIG_TOOLCHAIN_ZEPHYR_SUPPORTS_THREAD_LOCAL_STORAGE\0A\09.equ\09CONFIG_TOOLCHAIN_ZEPHYR_SUPPORTS_THREAD_LOCAL_STORAGE,1\0A\09.type\09CONFIG_TOOLCHAIN_ZEPHYR_SUPPORTS_THREAD_LOCAL_STORAGE,%object", ""() #32, !dbg !6656, !srcloc !6657
  tail call void asm sideeffect ".globl\09CONFIG_LINKER_ORPHAN_SECTION_WARN\0A\09.equ\09CONFIG_LINKER_ORPHAN_SECTION_WARN,1\0A\09.type\09CONFIG_LINKER_ORPHAN_SECTION_WARN,%object", ""() #32, !dbg !6658, !srcloc !6659
  tail call void asm sideeffect ".globl\09CONFIG_HAS_FLASH_LOAD_OFFSET\0A\09.equ\09CONFIG_HAS_FLASH_LOAD_OFFSET,1\0A\09.type\09CONFIG_HAS_FLASH_LOAD_OFFSET,%object", ""() #32, !dbg !6660, !srcloc !6661
  tail call void asm sideeffect ".globl\09CONFIG_USE_DT_CODE_PARTITION\0A\09.equ\09CONFIG_USE_DT_CODE_PARTITION,1\0A\09.type\09CONFIG_USE_DT_CODE_PARTITION,%object", ""() #32, !dbg !6662, !srcloc !6663
  tail call void asm sideeffect ".globl\09CONFIG_FLASH_LOAD_OFFSET\0A\09.equ\09CONFIG_FLASH_LOAD_OFFSET,0x2000\0A\09.type\09CONFIG_FLASH_LOAD_OFFSET,%object", ""() #32, !dbg !6664, !srcloc !6665
  tail call void asm sideeffect ".globl\09CONFIG_FLASH_LOAD_SIZE\0A\09.equ\09CONFIG_FLASH_LOAD_SIZE,0x3a000\0A\09.type\09CONFIG_FLASH_LOAD_SIZE,%object", ""() #32, !dbg !6666, !srcloc !6667
  tail call void asm sideeffect ".globl\09CONFIG_LD_LINKER_SCRIPT_SUPPORTED\0A\09.equ\09CONFIG_LD_LINKER_SCRIPT_SUPPORTED,1\0A\09.type\09CONFIG_LD_LINKER_SCRIPT_SUPPORTED,%object", ""() #32, !dbg !6668, !srcloc !6669
  tail call void asm sideeffect ".globl\09CONFIG_LD_LINKER_TEMPLATE\0A\09.equ\09CONFIG_LD_LINKER_TEMPLATE,1\0A\09.type\09CONFIG_LD_LINKER_TEMPLATE,%object", ""() #32, !dbg !6670, !srcloc !6671
  tail call void asm sideeffect ".globl\09CONFIG_KERNEL_ENTRY\0A\09.equ\09CONFIG_KERNEL_ENTRY,1\0A\09.type\09CONFIG_KERNEL_ENTRY,%object", ""() #32, !dbg !6672, !srcloc !6673
  tail call void asm sideeffect ".globl\09CONFIG_LINKER_SORT_BY_ALIGNMENT\0A\09.equ\09CONFIG_LINKER_SORT_BY_ALIGNMENT,1\0A\09.type\09CONFIG_LINKER_SORT_BY_ALIGNMENT,%object", ""() #32, !dbg !6674, !srcloc !6675
  tail call void asm sideeffect ".globl\09CONFIG_SRAM_OFFSET\0A\09.equ\09CONFIG_SRAM_OFFSET,0x0\0A\09.type\09CONFIG_SRAM_OFFSET,%object", ""() #32, !dbg !6676, !srcloc !6677
  tail call void asm sideeffect ".globl\09CONFIG_LINKER_GENERIC_SECTIONS_PRESENT_AT_BOOT\0A\09.equ\09CONFIG_LINKER_GENERIC_SECTIONS_PRESENT_AT_BOOT,1\0A\09.type\09CONFIG_LINKER_GENERIC_SECTIONS_PRESENT_AT_BOOT,%object", ""() #32, !dbg !6678, !srcloc !6679
  tail call void asm sideeffect ".globl\09CONFIG_LINKER_LAST_SECTION_ID\0A\09.equ\09CONFIG_LINKER_LAST_SECTION_ID,1\0A\09.type\09CONFIG_LINKER_LAST_SECTION_ID,%object", ""() #32, !dbg !6680, !srcloc !6681
  tail call void asm sideeffect ".globl\09CONFIG_LINKER_LAST_SECTION_ID_PATTERN\0A\09.equ\09CONFIG_LINKER_LAST_SECTION_ID_PATTERN,0xE015E015\0A\09.type\09CONFIG_LINKER_LAST_SECTION_ID_PATTERN,%object", ""() #32, !dbg !6682, !srcloc !6683
  tail call void asm sideeffect ".globl\09CONFIG_SIZE_OPTIMIZATIONS\0A\09.equ\09CONFIG_SIZE_OPTIMIZATIONS,1\0A\09.type\09CONFIG_SIZE_OPTIMIZATIONS,%object", ""() #32, !dbg !6684, !srcloc !6685
  tail call void asm sideeffect ".globl\09CONFIG_COMPILER_COLOR_DIAGNOSTICS\0A\09.equ\09CONFIG_COMPILER_COLOR_DIAGNOSTICS,1\0A\09.type\09CONFIG_COMPILER_COLOR_DIAGNOSTICS,%object", ""() #32, !dbg !6686, !srcloc !6687
  tail call void asm sideeffect ".globl\09CONFIG_FORTIFY_SOURCE_NONE\0A\09.equ\09CONFIG_FORTIFY_SOURCE_NONE,1\0A\09.type\09CONFIG_FORTIFY_SOURCE_NONE,%object", ""() #32, !dbg !6688, !srcloc !6689
  tail call void asm sideeffect ".globl\09CONFIG_COMPILER_OPT\0A\09.equ\09CONFIG_COMPILER_OPT,1\0A\09.type\09CONFIG_COMPILER_OPT,%object", ""() #32, !dbg !6690, !srcloc !6691
  tail call void asm sideeffect ".globl\09CONFIG_RUNTIME_ERROR_CHECKS\0A\09.equ\09CONFIG_RUNTIME_ERROR_CHECKS,1\0A\09.type\09CONFIG_RUNTIME_ERROR_CHECKS,%object", ""() #32, !dbg !6692, !srcloc !6693
  tail call void asm sideeffect ".globl\09CONFIG_KERNEL_BIN_NAME\0A\09.equ\09CONFIG_KERNEL_BIN_NAME,1\0A\09.type\09CONFIG_KERNEL_BIN_NAME,%object", ""() #32, !dbg !6694, !srcloc !6695
  tail call void asm sideeffect ".globl\09CONFIG_OUTPUT_STAT\0A\09.equ\09CONFIG_OUTPUT_STAT,1\0A\09.type\09CONFIG_OUTPUT_STAT,%object", ""() #32, !dbg !6696, !srcloc !6697
  tail call void asm sideeffect ".globl\09CONFIG_OUTPUT_DISASSEMBLY\0A\09.equ\09CONFIG_OUTPUT_DISASSEMBLY,1\0A\09.type\09CONFIG_OUTPUT_DISASSEMBLY,%object", ""() #32, !dbg !6698, !srcloc !6699
  tail call void asm sideeffect ".globl\09CONFIG_OUTPUT_PRINT_MEMORY_USAGE\0A\09.equ\09CONFIG_OUTPUT_PRINT_MEMORY_USAGE,1\0A\09.type\09CONFIG_OUTPUT_PRINT_MEMORY_USAGE,%object", ""() #32, !dbg !6700, !srcloc !6701
  tail call void asm sideeffect ".globl\09CONFIG_BUILD_OUTPUT_BIN\0A\09.equ\09CONFIG_BUILD_OUTPUT_BIN,1\0A\09.type\09CONFIG_BUILD_OUTPUT_BIN,%object", ""() #32, !dbg !6702, !srcloc !6703
  tail call void asm sideeffect ".globl\09CONFIG_WARN_DEPRECATED\0A\09.equ\09CONFIG_WARN_DEPRECATED,1\0A\09.type\09CONFIG_WARN_DEPRECATED,%object", ""() #32, !dbg !6704, !srcloc !6705
  tail call void asm sideeffect ".globl\09CONFIG_ENFORCE_ZEPHYR_STDINT\0A\09.equ\09CONFIG_ENFORCE_ZEPHYR_STDINT,1\0A\09.type\09CONFIG_ENFORCE_ZEPHYR_STDINT,%object", ""() #32, !dbg !6706, !srcloc !6707
  tail call void asm sideeffect ".globl\09CONFIG_BOOTLOADER_BOSSA\0A\09.equ\09CONFIG_BOOTLOADER_BOSSA,1\0A\09.type\09CONFIG_BOOTLOADER_BOSSA,%object", ""() #32, !dbg !6708, !srcloc !6709
  tail call void asm sideeffect ".globl\09CONFIG_BOOTLOADER_BOSSA_ADAFRUIT_UF2\0A\09.equ\09CONFIG_BOOTLOADER_BOSSA_ADAFRUIT_UF2,1\0A\09.type\09CONFIG_BOOTLOADER_BOSSA_ADAFRUIT_UF2,%object", ""() #32, !dbg !6710, !srcloc !6711
