; ModuleID = 'build/arduino_nano_33_ble/subsys/cpp/cpp_synchronization/zephyr/zephyr.elf.bc'
source_filename = "llvm-link"
target datalayout = "e-m:e-p:32:32-Fi8-i64:64-v128:64:128-a:0:32-n32-S64"
target triple = "thumbv7em-none-unknown-eabi"

%struct._isr_table_entry = type { i8*, void (i8*)* }
%struct.k_thread = type { %struct._thread_base, %struct._callee_saved, i8*, %union.anon, i32, %struct._thread_stack_info, %struct.k_heap*, %struct._thread_arch }
%struct._thread_base = type { %union.anon, %union.anon*, i8, i8, %union.anon.2, i32, i8*, %struct._timeout }
%union.anon.2 = type { i16 }
%struct._timeout = type { %struct._dnode, void (%struct._timeout*)*, i64 }
%struct._dnode = type { %union.anon.0, %union.anon.0 }
%union.anon.0 = type { %struct._dnode* }
%struct._callee_saved = type { i32, i32, i32, i32, i32, i32, i32, i32, i32 }
%union.anon = type { %struct._dnode }
%struct._thread_stack_info = type { i32, i32, i32 }
%struct.k_heap = type { %struct.sys_heap, %union.anon, %struct.k_spinlock }
%struct.sys_heap = type { %struct.z_heap*, i8*, i32 }
%struct.z_heap = type { [2 x i32], i32, i32, [0 x %struct.z_heap_bucket] }
%struct.z_heap_bucket = type { i32 }
%struct.k_spinlock = type { i8 }
%struct._thread_arch = type { i32, i32 }
%class.cpp_semaphore = type { %class.semaphore, %struct.k_sem }
%class.semaphore = type { i32 (...)** }
%struct.k_sem = type { %union.anon, i32, i32 }
%struct.pm_state_info = type { i32, i8, i32, i32 }
%struct._snode = type { %struct._snode* }
%struct._slist = type { %struct._snode*, %struct._snode* }
%struct.z_arm_mpu_partition = type { i32, i32, %struct.z_heap_bucket }
%struct.sys_mutex = type { %struct.k_mutex }
%struct.k_mutex = type { %union.anon, %struct.k_thread*, i32, i32 }
%struct.init_entry = type { i32 (%struct.device*)*, %struct.device* }
%struct.device = type { i8*, i8*, i8*, %struct.device_state*, i8*, i16* }
%struct.device_state = type { i8, i8 }
%struct.arm_mpu_region = type { i32, i8*, %struct.z_heap_bucket }
%struct.arm_mpu_config = type { i32, %struct.arm_mpu_region* }
%struct.gpio_dt_spec = type { %struct.device*, i8, i16 }
%struct.onoff_client = type { %struct._snode, %struct.sys_notify }
%struct.sys_notify = type { %union.method, i32, i32 }
%union.method = type { %struct.k_poll_signal* }
%struct.k_poll_signal = type { %struct._dnode, i32, i32 }
%struct.nrf_clock_control_config = type { [2 x %struct.nrf_clock_control_sub_config] }
%struct.nrf_clock_control_sub_config = type { void ()*, void ()* }
%struct.clock_control_driver_api = type { i32 (%struct.device*, i8*)*, i32 (%struct.device*, i8*)*, i32 (%struct.device*, i8*, void (%struct.device*, i8*, i8*)*, i8*)*, i32 (%struct.device*, i8*, i32*)*, i32 (%struct.device*, i8*)*, i32 (%struct.device*, i8*, i8*)*, i32 (%struct.device*, i8*, i8*)* }
%struct.nrf_clock_control_data = type { [2 x %struct.onoff_manager], [2 x %struct.nrf_clock_control_sub_data] }
%struct.onoff_manager = type { %struct._slist, %struct._slist, %struct.onoff_transitions*, %struct.k_spinlock, i32, i16, i16 }
%struct.onoff_transitions = type { void (%struct.onoff_manager*, void (%struct.onoff_manager*, i32)*)*, void (%struct.onoff_manager*, void (%struct.onoff_manager*, i32)*)*, void (%struct.onoff_manager*, void (%struct.onoff_manager*, i32)*)* }
%struct.nrf_clock_control_sub_data = type { void (%struct.device*, i8*, i8*)*, i8*, i32 }
%struct._isr_list = type { i32, i32, i8*, i8* }
%struct.gpio_nrfx_cfg = type { %struct.z_heap_bucket, %struct.NRF_GPIO_Type*, i32, i8 }
%struct.NRF_GPIO_Type = type { [321 x i32], i32, i32, i32, i32, i32, i32, i32, i32, i32, [118 x i32], [32 x i32] }
%struct.gpio_driver_api = type { i32 (%struct.device*, i8, i32)*, i32 (%struct.device*, i32*)*, i32 (%struct.device*, i32, i32)*, i32 (%struct.device*, i32)*, i32 (%struct.device*, i32)*, i32 (%struct.device*, i32)*, i32 (%struct.device*, i8, i32, i32)*, i32 (%struct.device*, %struct.gpio_callback*, i1)*, i32 (%struct.device*)* }
%struct.gpio_callback = type { %struct._snode, void (%struct.device*, %struct.gpio_callback*, i32)*, i32 }
%struct.gpio_nrfx_data = type { %struct.z_heap_bucket, %struct._slist }
%struct.uart_nrfx_config = type { %struct.pinctrl_dev_config* }
%struct.pinctrl_dev_config = type { i32, %struct.pinctrl_state*, i8 }
%struct.pinctrl_state = type { i32*, i8, i8 }
%struct.uart_driver_api = type { i32 (%struct.device*, i8*)*, void (%struct.device*, i8)*, i32 (%struct.device*)*, i32 (%struct.device*, %struct.uart_config*)*, i32 (%struct.device*, %struct.uart_config*)* }
%struct.uart_config = type { i32, i8, i8, i8, i8 }
%struct.uart_nrfx_data = type { %struct.uart_config }
%struct.z_nrf_rtc_timer_chan_data = type { void (i32, i64, i8*)*, i8*, i64 }
%struct.gpiote_control_block_t = type { [1 x %struct.nrfx_gpiote_handler_config_t], %struct.nrfx_gpiote_handler_config_t, [48 x i16], i32, i32, i32 }
%struct.nrfx_gpiote_handler_config_t = type { void (i32, i32, i8*)*, i8* }
%struct._static_thread_data = type { %struct.k_thread*, %struct.k_spinlock*, i32, void (i8*, i8*, i8*)*, i8*, i8*, i8*, i32, i32, i32, void ()*, i8* }
%struct.z_kernel = type { [1 x %struct._cpu], i32, %struct._ready_q }
%struct._cpu = type { i32, i8*, %struct.k_thread*, %struct.k_thread*, i32, i8, %struct._cpu_arch }
%struct._cpu_arch = type {}
%struct._ready_q = type { %struct.k_thread*, %struct._dnode }
%struct.k_timer = type { %struct._timeout, %union.anon, void (%struct.k_timer*)*, void (%struct.k_timer*)*, %struct.k_timeout_t, i32, i8* }
%struct.k_timeout_t = type { i64 }
%struct.__va_list = type { i8* }
%struct.str_context = type { i8*, i32, i32 }
%struct.chunk_unit_t = type { [8 x i8] }
%struct.onoff_monitor = type { %struct._snode, void (%struct.onoff_manager*, %struct.onoff_monitor*, i32, i32)* }
%struct.onoff_sync_service = type { %struct.k_spinlock, i32 }
%struct.anon = type { %struct.k_timeout_t, %struct.conversion }
%struct.conversion = type { [3 x i8], i8, %struct.z_heap_bucket, %struct.z_heap_bucket }
%struct.pm_notifier = type { %struct._snode, void (i32)*, void (i32)* }
%struct.pm_policy_latency_request = type { %struct._snode, i32 }
%struct.pm_policy_latency_subscription = type { %struct._snode, void (i32)* }
%struct.__esf = type { %struct.__basic_sf }
%struct.__basic_sf = type { %struct.z_heap_bucket, %struct.z_heap_bucket, %struct.z_heap_bucket, %struct.z_heap_bucket, %struct.z_heap_bucket, %struct.z_heap_bucket, %struct.z_heap_bucket, i32 }
%struct.NRF_POWER_Type = type { [30 x i32], i32, i32, [34 x i32], i32, [2 x i32], i32, i32, i32, i32, i32, [119 x i32], i32, i32, [61 x i32], i32, [9 x i32], i32, [3 x i32], i32, [49 x i32], i32, [3 x i32], i32, [2 x i32], i32, i32, [21 x i32], i32, i32, i32, [47 x i32], i32, [175 x i32], [9 x %struct.POWER_RAM_Type] }
%struct.POWER_RAM_Type = type { i32, i32, i32, i32 }
%struct.NRF_CLOCK_Type = type { i32, i32, i32, i32, i32, i32, i32, [57 x i32], i32, i32, i32, i32, i32, [5 x i32], i32, i32, [117 x i32], i32, i32, [63 x i32], i32, i32, i32, i32, i32, i32, [62 x i32], i32, [3 x i32], i32, [3 x i32], i32, [8 x i32], i32, [21 x i32], i32 }
%struct.k_fifo = type { %struct.k_queue }
%struct.k_queue = type { %struct._sflist, %struct.k_spinlock, %union.anon }
%struct._sflist = type { %struct.z_heap_bucket*, %struct.z_heap_bucket* }
%struct.nrfx_gpiote_trigger_config_t = type { i32, i8* }
%struct.nrfx_gpiote_task_config_t = type { i8, i32, i32 }
%struct.NRF_UART_Type = type { i32, i32, i32, i32, [3 x i32], i32, [56 x i32], i32, i32, i32, [4 x i32], i32, i32, i32, [7 x i32], i32, [46 x i32], i32, [64 x i32], i32, i32, [93 x i32], i32, [31 x i32], i32, i32, %struct.POWER_RAM_Type, i32, i32, i32, i32, [17 x i32], i32 }
%struct.NRF_RTC_Type = type { i32, i32, i32, i32, [60 x i32], i32, i32, [14 x i32], [4 x i32], [109 x i32], i32, i32, [13 x i32], i32, i32, i32, [110 x i32], i32, i32, [13 x i32], [4 x i32] }
%struct.NRF_PWM_Type = type { i32, i32, [2 x i32], i32, [60 x i32], i32, [2 x i32], [2 x i32], i32, i32, [56 x i32], i32, [63 x i32], i32, i32, i32, [125 x i32], i32, i32, i32, i32, i32, i32, [2 x i32], [2 x %struct.PWM_SEQ_Type], %struct.PWM_PSEL_Type }
%struct.PWM_SEQ_Type = type { i32, i32, i32, i32, [4 x i32] }
%struct.PWM_PSEL_Type = type { [4 x i32] }
%struct.NRF_TWIM_Type = type { i32, i32, i32, [2 x i32], i32, i32, i32, i32, [56 x i32], i32, [7 x i32], i32, [8 x i32], i32, i32, i32, [2 x i32], i32, i32, [39 x i32], i32, [63 x i32], i32, i32, i32, [110 x i32], i32, [14 x i32], i32, i32, %struct._thread_arch, [5 x i32], i32, [3 x i32], %struct.POWER_RAM_Type, %struct.POWER_RAM_Type, [13 x i32], i32 }
%struct.NRF_SPIM_Type = type { [4 x i32], i32, i32, i32, i32, i32, [56 x i32], i32, [2 x i32], i32, i32, i32, i32, i32, [10 x i32], i32, [44 x i32], i32, [64 x i32], i32, i32, [61 x i32], i32, [63 x i32], i32, i32, %struct.POWER_RAM_Type, [3 x i32], i32, [3 x i32], %struct.POWER_RAM_Type, %struct.POWER_RAM_Type, i32, [2 x i32], %struct._thread_arch, i32, i32, i32, [19 x i32], i32 }
%struct.NRF_GPIOTE_Type = type { [8 x i32], [4 x i32], [8 x i32], [4 x i32], [8 x i32], [32 x i32], [8 x i32], [23 x i32], i32, [97 x i32], i32, i32, [129 x i32], [8 x i32] }
%struct.nrfx_gpiote_out_config_t = type { i32, i32, i8 }
%struct.rbnode = type { [2 x %struct.rbnode*] }
%struct._priq_rb = type { %struct.rbtree, i32 }
%struct.rbtree = type { %struct.rbnode*, i1 (%struct.rbnode*, %struct.rbnode*)*, i32 }
%struct._rb_foreach = type { %struct.rbnode**, i8*, i32 }
%struct._priq_mq = type { [32 x %struct._dnode], i32 }

$_ZN13cpp_semaphoreD2Ev = comdat any

$_ZN13cpp_semaphoreD0Ev = comdat any

$_ZN9semaphoreC2Ev = comdat any

$_ZTV9semaphore = comdat any

@_irq_vector_table = dso_local local_unnamed_addr global [48 x i32] [i32 ptrtoint (void ()* @_isr_wrapper to i32), i32 ptrtoint (void ()* @_isr_wrapper to i32), i32 ptrtoint (void ()* @_isr_wrapper to i32), i32 ptrtoint (void ()* @_isr_wrapper to i32), i32 ptrtoint (void ()* @_isr_wrapper to i32), i32 ptrtoint (void ()* @_isr_wrapper to i32), i32 ptrtoint (void ()* @_isr_wrapper to i32), i32 ptrtoint (void ()* @_isr_wrapper to i32), i32 ptrtoint (void ()* @_isr_wrapper to i32), i32 ptrtoint (void ()* @_isr_wrapper to i32), i32 ptrtoint (void ()* @_isr_wrapper to i32), i32 ptrtoint (void ()* @_isr_wrapper to i32), i32 ptrtoint (void ()* @_isr_wrapper to i32), i32 ptrtoint (void ()* @_isr_wrapper to i32), i32 ptrtoint (void ()* @_isr_wrapper to i32), i32 ptrtoint (void ()* @_isr_wrapper to i32), i32 ptrtoint (void ()* @_isr_wrapper to i32), i32 ptrtoint (void ()* @_isr_wrapper to i32), i32 ptrtoint (void ()* @_isr_wrapper to i32), i32 ptrtoint (void ()* @_isr_wrapper to i32), i32 ptrtoint (void ()* @_isr_wrapper to i32), i32 ptrtoint (void ()* @_isr_wrapper to i32), i32 ptrtoint (void ()* @_isr_wrapper to i32), i32 ptrtoint (void ()* @_isr_wrapper to i32), i32 ptrtoint (void ()* @_isr_wrapper to i32), i32 ptrtoint (void ()* @_isr_wrapper to i32), i32 ptrtoint (void ()* @_isr_wrapper to i32), i32 ptrtoint (void ()* @_isr_wrapper to i32), i32 ptrtoint (void ()* @_isr_wrapper to i32), i32 ptrtoint (void ()* @_isr_wrapper to i32), i32 ptrtoint (void ()* @_isr_wrapper to i32), i32 ptrtoint (void ()* @_isr_wrapper to i32), i32 ptrtoint (void ()* @_isr_wrapper to i32), i32 ptrtoint (void ()* @_isr_wrapper to i32), i32 ptrtoint (void ()* @_isr_wrapper to i32), i32 ptrtoint (void ()* @_isr_wrapper to i32), i32 ptrtoint (void ()* @_isr_wrapper to i32), i32 ptrtoint (void ()* @_isr_wrapper to i32), i32 ptrtoint (void ()* @_isr_wrapper to i32), i32 ptrtoint (void ()* @_isr_wrapper to i32), i32 ptrtoint (void ()* @_isr_wrapper to i32), i32 ptrtoint (void ()* @_isr_wrapper to i32), i32 ptrtoint (void ()* @_isr_wrapper to i32), i32 ptrtoint (void ()* @_isr_wrapper to i32), i32 ptrtoint (void ()* @_isr_wrapper to i32), i32 ptrtoint (void ()* @_isr_wrapper to i32), i32 ptrtoint (void ()* @_isr_wrapper to i32), i32 ptrtoint (void ()* @_isr_wrapper to i32)], section ".gnu.linkonce.irq_vector_table", align 4, !dbg !0
@_sw_isr_table = dso_local local_unnamed_addr global [48 x %struct._isr_table_entry] [%struct._isr_table_entry { i8* inttoptr (i32 76345 to i8*), void (i8*)* inttoptr (i32 84413 to void (i8*)*) }, %struct._isr_table_entry { i8* null, void (i8*)* @z_irq_spurious }, %struct._isr_table_entry { i8* null, void (i8*)* @z_irq_spurious }, %struct._isr_table_entry { i8* null, void (i8*)* @z_irq_spurious }, %struct._isr_table_entry { i8* null, void (i8*)* @z_irq_spurious }, %struct._isr_table_entry { i8* null, void (i8*)* @z_irq_spurious }, %struct._isr_table_entry { i8* inttoptr (i32 77749 to i8*), void (i8*)* inttoptr (i32 84413 to void (i8*)*) }, %struct._isr_table_entry { i8* null, void (i8*)* @z_irq_spurious }, %struct._isr_table_entry { i8* null, void (i8*)* @z_irq_spurious }, %struct._isr_table_entry { i8* null, void (i8*)* @z_irq_spurious }, %struct._isr_table_entry { i8* null, void (i8*)* @z_irq_spurious }, %struct._isr_table_entry { i8* null, void (i8*)* @z_irq_spurious }, %struct._isr_table_entry { i8* null, void (i8*)* @z_irq_spurious }, %struct._isr_table_entry { i8* null, void (i8*)* @z_irq_spurious }, %struct._isr_table_entry { i8* null, void (i8*)* @z_irq_spurious }, %struct._isr_table_entry { i8* null, void (i8*)* @z_irq_spurious }, %struct._isr_table_entry { i8* null, void (i8*)* @z_irq_spurious }, %struct._isr_table_entry { i8* null, void (i8*)* inttoptr (i32 74809 to void (i8*)*) }, %struct._isr_table_entry { i8* null, void (i8*)* @z_irq_spurious }, %struct._isr_table_entry { i8* null, void (i8*)* @z_irq_spurious }, %struct._isr_table_entry { i8* null, void (i8*)* @z_irq_spurious }, %struct._isr_table_entry { i8* null, void (i8*)* @z_irq_spurious }, %struct._isr_table_entry { i8* null, void (i8*)* @z_irq_spurious }, %struct._isr_table_entry { i8* null, void (i8*)* @z_irq_spurious }, %struct._isr_table_entry { i8* null, void (i8*)* @z_irq_spurious }, %struct._isr_table_entry { i8* null, void (i8*)* @z_irq_spurious }, %struct._isr_table_entry { i8* null, void (i8*)* @z_irq_spurious }, %struct._isr_table_entry { i8* null, void (i8*)* @z_irq_spurious }, %struct._isr_table_entry { i8* null, void (i8*)* @z_irq_spurious }, %struct._isr_table_entry { i8* null, void (i8*)* @z_irq_spurious }, %struct._isr_table_entry { i8* null, void (i8*)* @z_irq_spurious }, %struct._isr_table_entry { i8* null, void (i8*)* @z_irq_spurious }, %struct._isr_table_entry { i8* null, void (i8*)* @z_irq_spurious }, %struct._isr_table_entry { i8* null, void (i8*)* @z_irq_spurious }, %struct._isr_table_entry { i8* null, void (i8*)* @z_irq_spurious }, %struct._isr_table_entry { i8* null, void (i8*)* @z_irq_spurious }, %struct._isr_table_entry { i8* null, void (i8*)* @z_irq_spurious }, %struct._isr_table_entry { i8* null, void (i8*)* @z_irq_spurious }, %struct._isr_table_entry { i8* null, void (i8*)* @z_irq_spurious }, %struct._isr_table_entry { i8* null, void (i8*)* @z_irq_spurious }, %struct._isr_table_entry { i8* null, void (i8*)* @z_irq_spurious }, %struct._isr_table_entry { i8* null, void (i8*)* @z_irq_spurious }, %struct._isr_table_entry { i8* null, void (i8*)* @z_irq_spurious }, %struct._isr_table_entry { i8* null, void (i8*)* @z_irq_spurious }, %struct._isr_table_entry { i8* null, void (i8*)* @z_irq_spurious }, %struct._isr_table_entry { i8* null, void (i8*)* @z_irq_spurious }, %struct._isr_table_entry { i8* null, void (i8*)* @z_irq_spurious }, %struct._isr_table_entry { i8* null, void (i8*)* @z_irq_spurious }], section ".gnu.linkonce.sw_isr_table", align 4, !dbg !5
@llvm.global_ctors = appending global [1 x { i32, void ()*, i8* }] [{ i32, void ()*, i8* } { i32 65535, void ()* @_GLOBAL__sub_I_main.cpp, i8* null }]
@coop_thread = dso_local global %struct.k_thread zeroinitializer, align 8, !dbg !25
@coop_stack = dso_local global [2064 x %struct.k_spinlock] zeroinitializer, section ".noinit.\22CMAKE_SOURCE_DIR/src/main.cpp\22.0", align 64, !dbg !106
@_ZTV13cpp_semaphore = dso_local unnamed_addr constant { [7 x i8*] } { [7 x i8*] [i8* null, i8* null, i8* bitcast (i32 (%class.cpp_semaphore*)* @_ZN13cpp_semaphore4waitEv to i8*), i8* bitcast (i32 (%class.cpp_semaphore*, i32)* @_ZN13cpp_semaphore4waitEi to i8*), i8* bitcast (void (%class.cpp_semaphore*)* @_ZN13cpp_semaphore4giveEv to i8*), i8* bitcast (%class.cpp_semaphore* (%class.cpp_semaphore*)* @_ZN13cpp_semaphoreD2Ev to i8*), i8* bitcast (void (%class.cpp_semaphore*)* @_ZN13cpp_semaphoreD0Ev to i8*)] }, align 4
@.str = private unnamed_addr constant [21 x i8] c"Create semaphore %p\0A\00", align 1
@sem_main = dso_local global %class.cpp_semaphore zeroinitializer, align 4, !dbg !116
@sem_coop = dso_local global %class.cpp_semaphore zeroinitializer, align 4, !dbg !118
@.str.2 = private unnamed_addr constant [18 x i8] c"%s: Hello World!\0A\00", align 1
@__FUNCTION__._Z17coop_thread_entryv = private unnamed_addr constant [18 x i8] c"coop_thread_entry\00", align 1
@__FUNCTION__.main = private unnamed_addr constant [5 x i8] c"main\00", align 1
@_ZTV9semaphore = linkonce_odr dso_local unnamed_addr constant { [5 x i8*] } { [5 x i8*] [i8* null, i8* null, i8* bitcast (void ()* @__cxa_pure_virtual to i8*), i8* bitcast (void ()* @__cxa_pure_virtual to i8*), i8* bitcast (void ()* @__cxa_pure_virtual to i8*)] }, comdat, align 4
@_char_out = dso_local local_unnamed_addr global i32 (i32)* @arch_printk_char_out, align 4, !dbg !204
@.str.9 = private unnamed_addr constant [6 x i8] c"(nil)\00", align 1
@__zephyr_init_array_start = external dso_local global [0 x void ()*], align 4
@__zephyr_init_array_end = external dso_local global [0 x void ()*], align 4
@__ZEPHYR_CTOR_LIST__ = external dso_local local_unnamed_addr global [0 x void ()*], align 4
@__dso_handle = weak dso_local local_unnamed_addr global i8* null, align 4, !dbg !285
@z_post_ops_required = internal global [1 x i32] zeroinitializer, align 4, !dbg !291
@z_cpus_pm_state = internal global [1 x %struct.pm_state_info] zeroinitializer, align 4, !dbg !335
@z_cpus_pm_forced_state = internal unnamed_addr global [1 x %struct.pm_state_info] zeroinitializer, align 4, !dbg !346
@pm_notifiers.0 = internal unnamed_addr global %struct._snode* null, align 4, !dbg !360
@pm_notifiers.1 = internal unnamed_addr global %struct._snode* null, align 4, !dbg !361
@max_latency_ticks = internal unnamed_addr global i32 -1, align 4, !dbg !362
@latency_reqs = internal global %struct._slist zeroinitializer, align 4, !dbg !397
@latency_subs = internal global %struct._slist zeroinitializer, align 4, !dbg !405
@max_latency_us = internal unnamed_addr global i32 -1, align 4, !dbg !417
@pmstates_DT_N_S_cpus_S_cpu_0 = internal constant [0 x %struct.pm_state_info] zeroinitializer, align 4, !dbg !419
@_vector_start = external dso_local global [0 x i8], align 1
@static_regions = internal constant [1 x %struct.z_arm_mpu_partition] [%struct.z_arm_mpu_partition { i32 ptrtoint ([0 x i8]* @__ramfunc_start to i32), i32 ptrtoint ([0 x i8]* @__ramfunc_size to i32), %struct.z_heap_bucket { i32 101384192 } }], align 4, !dbg !443
@_image_ram_start = external dso_local global [0 x i8], align 1
@__kernel_ram_end = external dso_local global [0 x i8], align 1
@z_arm_configure_dynamic_mpu_regions.dynamic_regions = internal global [1 x %struct.z_arm_mpu_partition] zeroinitializer, align 4, !dbg !449
@static_regions_num = internal unnamed_addr global i8 0, align 1, !dbg !579
@llvm.compiler.used = appending global [17 x i8*] [i8* bitcast (%struct.init_entry* @__init_malloc_prepare to i8*), i8* bitcast (%struct.init_entry* @__init_nordicsemi_nrf52_init to i8*), i8* bitcast (%struct.init_entry* @__init_board_init to i8*), i8* bitcast (%struct.device* @__device_dts_ord_68 to i8*), i8* bitcast (%struct.init_entry* @__init___device_dts_ord_68 to i8*), i8* bitcast (%struct._isr_list* @clk_init.__isr_nrfx_isr_irq_0 to i8*), i8* bitcast (%struct.init_entry* @__init_uart_console_init to i8*), i8* bitcast (%struct.device* @__device_dts_ord_11 to i8*), i8* bitcast (%struct.device* @__device_dts_ord_9 to i8*), i8* bitcast (%struct.init_entry* @__init___device_dts_ord_11 to i8*), i8* bitcast (%struct.init_entry* @__init___device_dts_ord_9 to i8*), i8* bitcast (%struct._isr_list* @gpio_nrfx_init.__isr_nrfx_isr_irq_0 to i8*), i8* bitcast (%struct.device* @__device_dts_ord_105 to i8*), i8* bitcast (%struct.init_entry* @__init___device_dts_ord_105 to i8*), i8* bitcast (%struct.init_entry* @__init_sys_clock_driver_init to i8*), i8* bitcast (%struct._isr_list* @sys_clock_driver_init.__isr_rtc_nrf_isr_irq_0 to i8*), i8* bitcast (i32* @SystemCoreClock to i8*)], section "llvm.metadata"
@z_malloc_heap_mutex = dso_local global %struct.sys_mutex zeroinitializer, section ".bss", align 4, !dbg !618
@z_malloc_heap = internal global %struct.sys_heap zeroinitializer, section ".bss", align 4, !dbg !639
@__init_malloc_prepare = internal constant %struct.init_entry { i32 (%struct.device*)* @malloc_prepare, %struct.device* null }, section ".z_init_POST_KERNEL40_", align 4, !dbg !624
@z_malloc_heap_mem = internal global [128 x i8] zeroinitializer, section ".bss", align 1, !dbg !646
@_stdout_hook = internal unnamed_addr global i32 (i32)* @_stdout_hook_default, align 4, !dbg !758
@mpu_regions = internal constant [2 x %struct.arm_mpu_region] [%struct.arm_mpu_region { i32 0, i8* getelementptr inbounds ([8 x i8], [8 x i8]* @.str.70, i32 0, i32 0), %struct.z_heap_bucket { i32 117571622 } }, %struct.arm_mpu_region { i32 536870912, i8* getelementptr inbounds ([7 x i8], [7 x i8]* @.str.1, i32 0, i32 0), %struct.z_heap_bucket { i32 285933602 } }], align 4, !dbg !768
@mpu_config = dso_local local_unnamed_addr constant %struct.arm_mpu_config { i32 2, %struct.arm_mpu_region* getelementptr inbounds ([2 x %struct.arm_mpu_region], [2 x %struct.arm_mpu_region]* @mpu_regions, i32 0, i32 0) }, align 4, !dbg !773
@.str.70 = private unnamed_addr constant [8 x i8] c"FLASH_0\00", align 1
@.str.1 = private unnamed_addr constant [7 x i8] c"SRAM_0\00", align 1
@__init_nordicsemi_nrf52_init = internal constant %struct.init_entry { i32 (%struct.device*)* @nordicsemi_nrf52_init, %struct.device* null }, section ".z_init_PRE_KERNEL_10_", align 4, !dbg !793
@nrfx_coredep_delay_us.delay_machine_code = internal constant [3 x i16] [i16 14339, i16 -9987, i16 18288], align 16, !dbg !961
@__init_board_init = internal constant %struct.init_entry { i32 (%struct.device*)* @board_init, %struct.device* null }, section ".z_init_POST_KERNEL50_", align 4, !dbg !971
@board_init.pull_up = internal constant %struct.gpio_dt_spec { %struct.device* @__device_dts_ord_11, i8 0, i16 0 }, align 4, !dbg !1074
@board_init.user_led = internal constant %struct.gpio_dt_spec { %struct.device* @__device_dts_ord_11, i8 9, i16 0 }, align 4, !dbg !1090
@__device_dts_ord_68 = dso_local constant %struct.device { i8* getelementptr inbounds ([15 x i8], [15 x i8]* @.str.77, i32 0, i32 0), i8* bitcast (%struct.nrf_clock_control_config* @config to i8*), i8* bitcast (%struct.clock_control_driver_api* @clock_control_api to i8*), %struct.device_state* @__devstate_dts_ord_68, i8* bitcast (%struct.nrf_clock_control_data* @data to i8*), i16* getelementptr inbounds ([3 x i16], [3 x i16]* @__devicehdl_dts_ord_68, i32 0, i32 0) }, section ".z_device_PRE_KERNEL_130_", align 4, !dbg !1098
@hfclk_users = internal global i32 0, align 4, !dbg !1453
@z_nrf_clock_control_lf_on.on = internal global i32 0, align 4, !dbg !1332
@z_nrf_clock_control_lf_on.cli = internal global %struct.onoff_client zeroinitializer, align 4, !dbg !1384
@__devicehdl_dts_ord_68 = dso_local constant [3 x i16] [i16 -32768, i16 -32768, i16 32767], section ".__device_handles_pass2", align 2, !dbg !1562
@.str.77 = private unnamed_addr constant [15 x i8] c"clock@40000000\00", align 1
@config = internal constant %struct.nrf_clock_control_config { [2 x %struct.nrf_clock_control_sub_config] [%struct.nrf_clock_control_sub_config { void ()* @generic_hfclk_start, void ()* @generic_hfclk_stop }, %struct.nrf_clock_control_sub_config { void ()* @lfclk_start, void ()* @lfclk_stop }] }, align 4, !dbg !1487
@clock_control_api = internal constant %struct.clock_control_driver_api { i32 (%struct.device*, i8*)* @api_blocking_start, i32 (%struct.device*, i8*)* @api_stop, i32 (%struct.device*, i8*, void (%struct.device*, i8*, i8*)*, i8*)* @api_start, i32 (%struct.device*, i8*, i32*)* null, i32 (%struct.device*, i8*)* @get_status, i32 (%struct.device*, i8*, i8*)* null, i32 (%struct.device*, i8*, i8*)* null }, align 4, !dbg !1502
@__devstate_dts_ord_68 = internal global %struct.device_state zeroinitializer, section ".z_devstate", align 1, !dbg !1472
@data = internal global %struct.nrf_clock_control_data zeroinitializer, align 4, !dbg !1455
@__init___device_dts_ord_68 = internal constant %struct.init_entry { i32 (%struct.device*)* @clk_init, %struct.device* @__device_dts_ord_68 }, section ".z_init_PRE_KERNEL_130_", align 4, !dbg !1428
@clk_init.transitions = internal constant %struct.onoff_transitions { void (%struct.onoff_manager*, void (%struct.onoff_manager*, i32)*)* @onoff_start, void (%struct.onoff_manager*, void (%struct.onoff_manager*, i32)*)* @onoff_stop, void (%struct.onoff_manager*, void (%struct.onoff_manager*, i32)*)* null }, align 4, !dbg !1540
@clk_init.__isr_nrfx_isr_irq_0 = internal global %struct._isr_list { i32 0, i32 0, i8* bitcast (void (i8*)* @nrfx_isr to i8*), i8* bitcast (void ()* @nrfx_power_clock_irq_handler to i8*) }, section ".intList", align 4, !dbg !1554
@__init_uart_console_init = internal constant %struct.init_entry { i32 (%struct.device*)* @uart_console_init, %struct.device* null }, section ".z_init_PRE_KERNEL_160_", align 4, !dbg !1575
@__devicehdl_dts_ord_9 = dso_local constant [3 x i16] [i16 -32768, i16 -32768, i16 32767], section ".__device_handles_pass2", align 2, !dbg !1571
@.str.83 = private unnamed_addr constant [14 x i8] c"gpio@50000000\00", align 1
@gpio_nrfx_p0_cfg = internal constant %struct.gpio_nrfx_cfg { %struct.z_heap_bucket { i32 -1 }, %struct.NRF_GPIO_Type* inttoptr (i32 1342177280 to %struct.NRF_GPIO_Type*), i32 0, i8 0 }, align 4, !dbg !1641
@gpio_nrfx_drv_api_funcs = internal constant %struct.gpio_driver_api { i32 (%struct.device*, i8, i32)* @gpio_nrfx_pin_configure, i32 (%struct.device*, i32*)* @gpio_nrfx_port_get_raw, i32 (%struct.device*, i32, i32)* @gpio_nrfx_port_set_masked_raw, i32 (%struct.device*, i32)* @gpio_nrfx_port_set_bits_raw, i32 (%struct.device*, i32)* @gpio_nrfx_port_clear_bits_raw, i32 (%struct.device*, i32)* @gpio_nrfx_port_toggle_bits, i32 (%struct.device*, i8, i32, i32)* @gpio_nrfx_pin_interrupt_configure, i32 (%struct.device*, %struct.gpio_callback*, i1)* @gpio_nrfx_manage_callback, i32 (%struct.device*)* null }, align 4, !dbg !1837
@__devstate_dts_ord_9 = internal global %struct.device_state zeroinitializer, section ".z_devstate", align 1, !dbg !1831
@gpio_nrfx_p0_data = internal global %struct.gpio_nrfx_data zeroinitializer, align 4, !dbg !1819
@__device_dts_ord_9 = dso_local constant %struct.device { i8* getelementptr inbounds ([14 x i8], [14 x i8]* @.str.83, i32 0, i32 0), i8* bitcast (%struct.gpio_nrfx_cfg* @gpio_nrfx_p0_cfg to i8*), i8* bitcast (%struct.gpio_driver_api* @gpio_nrfx_drv_api_funcs to i8*), %struct.device_state* @__devstate_dts_ord_9, i8* bitcast (%struct.gpio_nrfx_data* @gpio_nrfx_p0_data to i8*), i16* getelementptr inbounds ([3 x i16], [3 x i16]* @__devicehdl_dts_ord_9, i32 0, i32 0) }, section ".z_device_PRE_KERNEL_140_", align 4, !dbg !1798
@__init___device_dts_ord_9 = internal constant %struct.init_entry { i32 (%struct.device*)* @gpio_nrfx_init, %struct.device* @__device_dts_ord_9 }, section ".z_init_PRE_KERNEL_140_", align 4, !dbg !1800
@__devicehdl_dts_ord_11 = dso_local constant [3 x i16] [i16 -32768, i16 -32768, i16 32767], section ".__device_handles_pass2", align 2, !dbg !1567
@.str.1.97 = private unnamed_addr constant [14 x i8] c"gpio@50000300\00", align 1
@gpio_nrfx_p1_cfg = internal constant %struct.gpio_nrfx_cfg { %struct.z_heap_bucket { i32 65535 }, %struct.NRF_GPIO_Type* inttoptr (i32 1342178048 to %struct.NRF_GPIO_Type*), i32 0, i8 1 }, align 4, !dbg !1851
@__devstate_dts_ord_11 = internal global %struct.device_state zeroinitializer, section ".z_devstate", align 1, !dbg !1835
@gpio_nrfx_p1_data = internal global %struct.gpio_nrfx_data zeroinitializer, align 4, !dbg !1833
@__device_dts_ord_11 = dso_local constant %struct.device { i8* getelementptr inbounds ([14 x i8], [14 x i8]* @.str.1.97, i32 0, i32 0), i8* bitcast (%struct.gpio_nrfx_cfg* @gpio_nrfx_p1_cfg to i8*), i8* bitcast (%struct.gpio_driver_api* @gpio_nrfx_drv_api_funcs to i8*), %struct.device_state* @__devstate_dts_ord_11, i8* bitcast (%struct.gpio_nrfx_data* @gpio_nrfx_p1_data to i8*), i16* getelementptr inbounds ([3 x i16], [3 x i16]* @__devicehdl_dts_ord_11, i32 0, i32 0) }, section ".z_device_PRE_KERNEL_140_", align 4, !dbg !1815
@__init___device_dts_ord_11 = internal constant %struct.init_entry { i32 (%struct.device*)* @gpio_nrfx_init, %struct.device* @__device_dts_ord_11 }, section ".z_init_PRE_KERNEL_140_", align 4, !dbg !1817
@gpio_nrfx_init.__isr_nrfx_isr_irq_0 = internal global %struct._isr_list { i32 6, i32 0, i8* bitcast (void (i8*)* @nrfx_isr to i8*), i8* bitcast (void ()* @nrfx_gpiote_irq_handler to i8*) }, section ".intList", align 4, !dbg !1839
@__devicehdl_dts_ord_105 = dso_local constant [3 x i16] [i16 -32768, i16 -32768, i16 32767], section ".__device_handles_pass2", align 2, !dbg !1573
@.str.101 = private unnamed_addr constant [14 x i8] c"uart@40002000\00", align 1
@uart_nrfx_uart0_config = internal constant %struct.uart_nrfx_config { %struct.pinctrl_dev_config* @__pinctrl_dev_config__device_dts_ord_105 }, align 4, !dbg !1860
@uart_nrfx_uart_driver_api = internal constant %struct.uart_driver_api { i32 (%struct.device*, i8*)* @uart_nrfx_poll_in, void (%struct.device*, i8)* @uart_nrfx_poll_out, i32 (%struct.device*)* @uart_nrfx_err_check, i32 (%struct.device*, %struct.uart_config*)* @uart_nrfx_configure, i32 (%struct.device*, %struct.uart_config*)* @uart_nrfx_config_get }, align 4, !dbg !2016
@__devstate_dts_ord_105 = internal global %struct.device_state zeroinitializer, section ".z_devstate", align 1, !dbg !1988
@uart_nrfx_uart0_data = internal global %struct.uart_nrfx_data { %struct.uart_config { i32 115200, i8 0, i8 1, i8 3, i8 0 } }, align 4, !dbg !2096
@__device_dts_ord_105 = dso_local constant %struct.device { i8* getelementptr inbounds ([14 x i8], [14 x i8]* @.str.101, i32 0, i32 0), i8* bitcast (%struct.uart_nrfx_config* @uart_nrfx_uart0_config to i8*), i8* bitcast (%struct.uart_driver_api* @uart_nrfx_uart_driver_api to i8*), %struct.device_state* @__devstate_dts_ord_105, i8* bitcast (%struct.uart_nrfx_data* @uart_nrfx_uart0_data to i8*), i16* getelementptr inbounds ([3 x i16], [3 x i16]* @__devicehdl_dts_ord_105, i32 0, i32 0) }, section ".z_device_PRE_KERNEL_155_", align 4, !dbg !1979
@__init___device_dts_ord_105 = internal constant %struct.init_entry { i32 (%struct.device*)* @uart_nrfx_init, %struct.device* @__device_dts_ord_105 }, section ".z_init_PRE_KERNEL_155_", align 4, !dbg !1981
@__pinctrl_dev_config__device_dts_ord_105 = internal constant %struct.pinctrl_dev_config { i32 1073750016, %struct.pinctrl_state* getelementptr inbounds ([1 x %struct.pinctrl_state], [1 x %struct.pinctrl_state]* @__pinctrl_states__device_dts_ord_105, i32 0, i32 0), i8 1 }, align 4, !dbg !1990
@__pinctrl_states__device_dts_ord_105 = internal constant [1 x %struct.pinctrl_state] [%struct.pinctrl_state { i32* getelementptr inbounds ([2 x i32], [2 x i32]* @__pinctrl_state_pins_0__device_dts_ord_105, i32 0, i32 0), i8 2, i8 0 }], align 4, !dbg !2010
@__pinctrl_state_pins_0__device_dts_ord_105 = internal constant [2 x i32] [i32 35, i32 65578], align 4, !dbg !2013
@uart_nrfx_poll_out.poll_out_lock = internal global i32 0, align 4, !dbg !2083
@cc_data = internal global [1 x %struct.z_nrf_rtc_timer_chan_data] zeroinitializer, align 8, !dbg !2106
@force_isr_mask = internal global i32 0, align 4, !dbg !2232
@overflow_cnt = internal global i32 0, align 4, !dbg !2221
@anchor = internal global i64 0, align 8, !dbg !2223
@alloc_mask = internal global i32 0, align 4, !dbg !2230
@last_count = internal unnamed_addr global i64 0, align 8, !dbg !2226
@__init_sys_clock_driver_init = internal constant %struct.init_entry { i32 (%struct.device*)* @sys_clock_driver_init, %struct.device* null }, section ".z_init_PRE_KERNEL_20_", align 4, !dbg !2195
@int_mask = internal global i32 0, align 4, !dbg !2234
@sys_clock_driver_init.__isr_rtc_nrf_isr_irq_0 = internal global %struct._isr_list { i32 17, i32 0, i8* bitcast (void (i8*)* @rtc_nrf_isr to i8*), i8* null }, section ".intList", align 4, !dbg !2245
@SystemCoreClock = dso_local global i32 64000000, align 4, !dbg !2264
@.str.131 = private unnamed_addr constant [13 x i8] c"NRFX_SUCCESS\00", align 1
@.str.1.130 = private unnamed_addr constant [20 x i8] c"NRFX_ERROR_INTERNAL\00", align 1
@.str.2.129 = private unnamed_addr constant [18 x i8] c"NRFX_ERROR_NO_MEM\00", align 1
@.str.3 = private unnamed_addr constant [25 x i8] c"NRFX_ERROR_NOT_SUPPORTED\00", align 1
@.str.4 = private unnamed_addr constant [25 x i8] c"NRFX_ERROR_INVALID_PARAM\00", align 1
@.str.5 = private unnamed_addr constant [25 x i8] c"NRFX_ERROR_INVALID_STATE\00", align 1
@.str.6 = private unnamed_addr constant [26 x i8] c"NRFX_ERROR_INVALID_LENGTH\00", align 1
@.str.7 = private unnamed_addr constant [19 x i8] c"NRFX_ERROR_TIMEOUT\00", align 1
@.str.8 = private unnamed_addr constant [21 x i8] c"NRFX_ERROR_FORBIDDEN\00", align 1
@.str.9.128 = private unnamed_addr constant [16 x i8] c"NRFX_ERROR_NULL\00", align 1
@.str.10 = private unnamed_addr constant [24 x i8] c"NRFX_ERROR_INVALID_ADDR\00", align 1
@.str.11 = private unnamed_addr constant [16 x i8] c"NRFX_ERROR_BUSY\00", align 1
@.str.12 = private unnamed_addr constant [31 x i8] c"NRFX_ERROR_ALREADY_INITIALIZED\00", align 1
@.str.13 = private unnamed_addr constant [31 x i8] c"NRFX_ERROR_DRV_TWI_ERR_OVERRUN\00", align 1
@.str.14 = private unnamed_addr constant [29 x i8] c"NRFX_ERROR_DRV_TWI_ERR_ANACK\00", align 1
@.str.15 = private unnamed_addr constant [29 x i8] c"NRFX_ERROR_DRV_TWI_ERR_DNACK\00", align 1
@.str.16 = private unnamed_addr constant [8 x i8] c"unknown\00", align 1
@m_clock_cb.0 = internal unnamed_addr global void (i32)* null, align 4, !dbg !2595
@m_clock_cb.1 = internal unnamed_addr global i1 false, align 4, !dbg !2656
@m_clock_cb.2 = internal unnamed_addr global i1 false, align 4, !dbg !2657
@m_cb = internal global %struct.gpiote_control_block_t { [1 x %struct.nrfx_gpiote_handler_config_t] zeroinitializer, %struct.nrfx_gpiote_handler_config_t zeroinitializer, [48 x i16] zeroinitializer, i32 255, i32 0, i32 0 }, align 4, !dbg !2658
@__const.nrfx_gpiote_out_prealloc_init.config = private unnamed_addr constant %struct._thread_stack_info { i32 0, i32 1, i32 0 }, align 4
@__const.nrf_gpio_latches_read_and_clear.gpio_regs = private unnamed_addr constant [2 x %struct.NRF_GPIO_Type*] [%struct.NRF_GPIO_Type* inttoptr (i32 1342177280 to %struct.NRF_GPIO_Type*), %struct.NRF_GPIO_Type* inttoptr (i32 1342178048 to %struct.NRF_GPIO_Type*)], align 4
@__device_start = external dso_local constant [0 x %struct.device], align 4
@__device_end = external dso_local constant [0 x %struct.device], align 4
@_k_neg_eagain = dso_local local_unnamed_addr constant i32 -11, align 4, !dbg !2800
@__bss_start = external dso_local global [0 x i8], align 1
@__bss_end = external dso_local global [0 x i8], align 1
@z_interrupt_stacks = dso_local global [1 x [2112 x %struct.k_spinlock]] zeroinitializer, section ".noinit.\22ZEPHYR_BASE/kernel/init.c\22.2", align 64, !dbg !2807
@z_main_stack = dso_local global [1088 x %struct.k_spinlock] zeroinitializer, section ".noinit.\22ZEPHYR_BASE/kernel/init.c\22.0", align 64, !dbg !3020
@z_main_thread = dso_local global %struct.k_thread zeroinitializer, align 8, !dbg !3028
@z_idle_stacks = internal global [1 x [384 x %struct.k_spinlock]] zeroinitializer, section ".noinit.\22ZEPHYR_BASE/kernel/init.c\22.1", align 64, !dbg !3035
@z_sys_init_run_level.levels = internal unnamed_addr constant [6 x %struct.init_entry*] [%struct.init_entry* getelementptr inbounds ([0 x %struct.init_entry], [0 x %struct.init_entry]* @__init_EARLY_start, i32 0, i32 0), %struct.init_entry* getelementptr inbounds ([0 x %struct.init_entry], [0 x %struct.init_entry]* @__init_PRE_KERNEL_1_start, i32 0, i32 0), %struct.init_entry* getelementptr inbounds ([0 x %struct.init_entry], [0 x %struct.init_entry]* @__init_PRE_KERNEL_2_start, i32 0, i32 0), %struct.init_entry* getelementptr inbounds ([0 x %struct.init_entry], [0 x %struct.init_entry]* @__init_POST_KERNEL_start, i32 0, i32 0), %struct.init_entry* getelementptr inbounds ([0 x %struct.init_entry], [0 x %struct.init_entry]* @__init_APPLICATION_start, i32 0, i32 0), %struct.init_entry* getelementptr inbounds ([0 x %struct.init_entry], [0 x %struct.init_entry]* @__init_end, i32 0, i32 0)], align 4, !dbg !3040
@__init_EARLY_start = external dso_local constant [0 x %struct.init_entry], align 4
@__init_PRE_KERNEL_1_start = external dso_local constant [0 x %struct.init_entry], align 4
@__init_PRE_KERNEL_2_start = external dso_local constant [0 x %struct.init_entry], align 4
@__init_POST_KERNEL_start = external dso_local constant [0 x %struct.init_entry], align 4
@__init_APPLICATION_start = external dso_local constant [0 x %struct.init_entry], align 4
@__init_end = external dso_local constant [0 x %struct.init_entry], align 4
@.str.206 = private unnamed_addr constant [5 x i8] c"main\00", align 1
@k_thread_state_str.states_str = internal unnamed_addr constant [8 x i8*] [i8* getelementptr inbounds ([6 x i8], [6 x i8]* @.str.211, i32 0, i32 0), i8* getelementptr inbounds ([8 x i8], [8 x i8]* @.str.1.212, i32 0, i32 0), i8* getelementptr inbounds ([9 x i8], [9 x i8]* @.str.2.213, i32 0, i32 0), i8* getelementptr inbounds ([5 x i8], [5 x i8]* @.str.3.214, i32 0, i32 0), i8* getelementptr inbounds ([10 x i8], [10 x i8]* @.str.4.215, i32 0, i32 0), i8* getelementptr inbounds ([9 x i8], [9 x i8]* @.str.5.216, i32 0, i32 0), i8* getelementptr inbounds ([1 x i8], [1 x i8]* @.str.6.210, i32 0, i32 0), i8* getelementptr inbounds ([7 x i8], [7 x i8]* @.str.7.217, i32 0, i32 0)], align 4, !dbg !3066
@.str.211 = private unnamed_addr constant [6 x i8] c"dummy\00", align 1
@.str.1.212 = private unnamed_addr constant [8 x i8] c"pending\00", align 1
@.str.2.213 = private unnamed_addr constant [9 x i8] c"prestart\00", align 1
@.str.3.214 = private unnamed_addr constant [5 x i8] c"dead\00", align 1
@.str.4.215 = private unnamed_addr constant [10 x i8] c"suspended\00", align 1
@.str.5.216 = private unnamed_addr constant [9 x i8] c"aborting\00", align 1
@.str.6.210 = private unnamed_addr constant [1 x i8] zeroinitializer, align 1
@.str.7.217 = private unnamed_addr constant [7 x i8] c"queued\00", align 1
@k_thread_state_str.states_sz = internal unnamed_addr constant [8 x i32] [i32 5, i32 7, i32 8, i32 4, i32 9, i32 8, i32 0, i32 6], align 4, !dbg !3180
@.str.8.209 = private unnamed_addr constant [2 x i8] c"+\00", align 1
@__static_thread_data_list_start = external dso_local global [0 x %struct._static_thread_data], align 4
@__static_thread_data_list_end = external dso_local global [0 x %struct._static_thread_data], align 4
@lock = internal global %struct.k_spinlock zeroinitializer, align 1, !dbg !3194
@lock.245 = internal global %struct.k_spinlock zeroinitializer, align 1, !dbg !3304
@sched_spinlock = dso_local local_unnamed_addr global %struct.k_spinlock zeroinitializer, align 1, !dbg !3329
@slice_ticks = internal unnamed_addr global i32 0, align 4, !dbg !3439
@slice_max_prio = internal unnamed_addr global i32 0, align 4, !dbg !3442
@pending_current = internal unnamed_addr global %struct.k_thread* null, align 4, !dbg !3444
@z_sys_post_kernel = dso_local local_unnamed_addr global i8 0, align 1, !dbg !3033
@z_idle_threads = dso_local global [1 x %struct.k_thread] zeroinitializer, align 8, !dbg !3030
@__data_region_start = external dso_local global [0 x i8], align 1
@__data_region_load_start = external dso_local global [0 x i8], align 1
@__data_region_end = external dso_local global [0 x i8], align 1
@__ramfunc_start = external dso_local global [0 x i8], align 1
@__ramfunc_load_start = external dso_local global [0 x i8], align 1
@__ramfunc_size = external dso_local global [0 x i8], align 1
@curr_tick = internal unnamed_addr global i64 0, align 8, !dbg !3446
@timeout_list = internal global %struct._dnode { %union.anon.0 { %struct._dnode* @timeout_list }, %union.anon.0 { %struct._dnode* @timeout_list } }, align 4, !dbg !3484
@_kernel = dso_local global %struct.z_kernel zeroinitializer, align 4, !dbg !2894
@announce_remaining = internal unnamed_addr global i32 0, align 4, !dbg !3482
@lock.327 = internal global %struct.k_spinlock zeroinitializer, align 1, !dbg !3487
@.str.331 = private unnamed_addr constant [66 x i8] c"*** Booting Zephyr OS build zephyr-v3.2.0-2126-gffed8388e7cb ***\0A\00", align 1

@_ZN13cpp_semaphoreC1Ev = dso_local unnamed_addr alias %class.cpp_semaphore* (%class.cpp_semaphore*), %class.cpp_semaphore* (%class.cpp_semaphore*)* @_ZN13cpp_semaphoreC2Ev

; Function Attrs: optsize
declare dso_local void @_isr_wrapper() #0

; Function Attrs: noinline nounwind optsize
define dso_local void @_OffsetAbsSyms() local_unnamed_addr #1 !dbg !4480 {
  tail call void asm sideeffect ".globl\09___cpu_t_current_OFFSET\0A\09.equ\09___cpu_t_current_OFFSET,${0:B}\0A\09.type\09___cpu_t_current_OFFSET,%object", "n"(i32 -9) #33, !dbg !4482, !srcloc !4483
  tail call void asm sideeffect ".globl\09___cpu_t_nested_OFFSET\0A\09.equ\09___cpu_t_nested_OFFSET,${0:B}\0A\09.type\09___cpu_t_nested_OFFSET,%object", "n"(i32 -1) #33, !dbg !4484, !srcloc !4485
  tail call void asm sideeffect ".globl\09___cpu_t_irq_stack_OFFSET\0A\09.equ\09___cpu_t_irq_stack_OFFSET,${0:B}\0A\09.type\09___cpu_t_irq_stack_OFFSET,%object", "n"(i32 -5) #33, !dbg !4486, !srcloc !4487
  tail call void asm sideeffect ".globl\09___cpu_t_arch_OFFSET\0A\09.equ\09___cpu_t_arch_OFFSET,${0:B}\0A\09.type\09___cpu_t_arch_OFFSET,%object", "n"(i32 -22) #33, !dbg !4488, !srcloc !4489
  tail call void asm sideeffect ".globl\09___cpu_t_SIZEOF\0A\09.equ\09___cpu_t_SIZEOF,${0:B}\0A\09.type\09___cpu_t_SIZEOF,%object", "n"(i32 -25) #33, !dbg !4490, !srcloc !4491
  tail call void asm sideeffect ".globl\09___kernel_t_cpus_OFFSET\0A\09.equ\09___kernel_t_cpus_OFFSET,${0:B}\0A\09.type\09___kernel_t_cpus_OFFSET,%object", "n"(i32 -1) #33, !dbg !4492, !srcloc !4493
  tail call void asm sideeffect ".globl\09___kernel_t_idle_OFFSET\0A\09.equ\09___kernel_t_idle_OFFSET,${0:B}\0A\09.type\09___kernel_t_idle_OFFSET,%object", "n"(i32 -25) #33, !dbg !4494, !srcloc !4495
  tail call void asm sideeffect ".globl\09___kernel_t_ready_q_OFFSET\0A\09.equ\09___kernel_t_ready_q_OFFSET,${0:B}\0A\09.type\09___kernel_t_ready_q_OFFSET,%object", "n"(i32 -29) #33, !dbg !4496, !srcloc !4497
  tail call void asm sideeffect ".globl\09___ready_q_t_cache_OFFSET\0A\09.equ\09___ready_q_t_cache_OFFSET,${0:B}\0A\09.type\09___ready_q_t_cache_OFFSET,%object", "n"(i32 -1) #33, !dbg !4498, !srcloc !4499
  tail call void asm sideeffect ".globl\09_STRUCT_KERNEL_SIZE\0A\09.equ\09_STRUCT_KERNEL_SIZE,${0:B}\0A\09.type\09_STRUCT_KERNEL_SIZE,%object", "n"(i32 -41) #33, !dbg !4500, !srcloc !4501
  tail call void asm sideeffect ".globl\09___thread_base_t_user_options_OFFSET\0A\09.equ\09___thread_base_t_user_options_OFFSET,${0:B}\0A\09.type\09___thread_base_t_user_options_OFFSET,%object", "n"(i32 -13) #33, !dbg !4502, !srcloc !4503
  tail call void asm sideeffect ".globl\09___thread_base_t_thread_state_OFFSET\0A\09.equ\09___thread_base_t_thread_state_OFFSET,${0:B}\0A\09.type\09___thread_base_t_thread_state_OFFSET,%object", "n"(i32 -14) #33, !dbg !4504, !srcloc !4505
  tail call void asm sideeffect ".globl\09___thread_base_t_prio_OFFSET\0A\09.equ\09___thread_base_t_prio_OFFSET,${0:B}\0A\09.type\09___thread_base_t_prio_OFFSET,%object", "n"(i32 -15) #33, !dbg !4506, !srcloc !4507
  tail call void asm sideeffect ".globl\09___thread_base_t_sched_locked_OFFSET\0A\09.equ\09___thread_base_t_sched_locked_OFFSET,${0:B}\0A\09.type\09___thread_base_t_sched_locked_OFFSET,%object", "n"(i32 -16) #33, !dbg !4508, !srcloc !4509
  tail call void asm sideeffect ".globl\09___thread_base_t_preempt_OFFSET\0A\09.equ\09___thread_base_t_preempt_OFFSET,${0:B}\0A\09.type\09___thread_base_t_preempt_OFFSET,%object", "n"(i32 -15) #33, !dbg !4510, !srcloc !4511
  tail call void asm sideeffect ".globl\09___thread_base_t_swap_data_OFFSET\0A\09.equ\09___thread_base_t_swap_data_OFFSET,${0:B}\0A\09.type\09___thread_base_t_swap_data_OFFSET,%object", "n"(i32 -21) #33, !dbg !4512, !srcloc !4513
  tail call void asm sideeffect ".globl\09___thread_t_base_OFFSET\0A\09.equ\09___thread_t_base_OFFSET,${0:B}\0A\09.type\09___thread_t_base_OFFSET,%object", "n"(i32 -1) #33, !dbg !4514, !srcloc !4515
  tail call void asm sideeffect ".globl\09___thread_t_callee_saved_OFFSET\0A\09.equ\09___thread_t_callee_saved_OFFSET,${0:B}\0A\09.type\09___thread_t_callee_saved_OFFSET,%object", "n"(i32 -49) #33, !dbg !4516, !srcloc !4517
  tail call void asm sideeffect ".globl\09___thread_t_arch_OFFSET\0A\09.equ\09___thread_t_arch_OFFSET,${0:B}\0A\09.type\09___thread_t_arch_OFFSET,%object", "n"(i32 -117) #33, !dbg !4518, !srcloc !4519
  tail call void asm sideeffect ".globl\09___thread_stack_info_t_start_OFFSET\0A\09.equ\09___thread_stack_info_t_start_OFFSET,${0:B}\0A\09.type\09___thread_stack_info_t_start_OFFSET,%object", "n"(i32 -1) #33, !dbg !4520, !srcloc !4521
  tail call void asm sideeffect ".globl\09___thread_stack_info_t_size_OFFSET\0A\09.equ\09___thread_stack_info_t_size_OFFSET,${0:B}\0A\09.type\09___thread_stack_info_t_size_OFFSET,%object", "n"(i32 -5) #33, !dbg !4522, !srcloc !4523
  tail call void asm sideeffect ".globl\09___thread_t_stack_info_OFFSET\0A\09.equ\09___thread_t_stack_info_OFFSET,${0:B}\0A\09.type\09___thread_t_stack_info_OFFSET,%object", "n"(i32 -101) #33, !dbg !4524, !srcloc !4525
  tail call void asm sideeffect ".globl\09K_THREAD_SIZEOF\0A\09.equ\09K_THREAD_SIZEOF,${0:B}\0A\09.type\09K_THREAD_SIZEOF,%object", "n"(i32 -129) #33, !dbg !4526, !srcloc !4527
  tail call void asm sideeffect ".globl\09__z_interrupt_stack_SIZEOF\0A\09.equ\09__z_interrupt_stack_SIZEOF,${0:B}\0A\09.type\09__z_interrupt_stack_SIZEOF,%object", "n"(i32 -2113) #33, !dbg !4528, !srcloc !4529
  tail call void asm sideeffect ".globl\09_DEVICE_STRUCT_SIZEOF\0A\09.equ\09_DEVICE_STRUCT_SIZEOF,${0:B}\0A\09.type\09_DEVICE_STRUCT_SIZEOF,%object", "n"(i32 -25) #33, !dbg !4530, !srcloc !4531
  tail call void asm sideeffect ".globl\09_DEVICE_STRUCT_HANDLES_OFFSET\0A\09.equ\09_DEVICE_STRUCT_HANDLES_OFFSET,${0:B}\0A\09.type\09_DEVICE_STRUCT_HANDLES_OFFSET,%object", "n"(i32 -21) #33, !dbg !4532, !srcloc !4533
  tail call void asm sideeffect ".globl\09_PM_DEVICE_STRUCT_FLAGS_OFFSET\0A\09.equ\09_PM_DEVICE_STRUCT_FLAGS_OFFSET,${0:B}\0A\09.type\09_PM_DEVICE_STRUCT_FLAGS_OFFSET,%object", "n"(i32 -1) #33, !dbg !4534, !srcloc !4535
  tail call void asm sideeffect ".globl\09_PM_DEVICE_FLAG_PD\0A\09.equ\09_PM_DEVICE_FLAG_PD,${0:B}\0A\09.type\09_PM_DEVICE_FLAG_PD,%object", "n"(i32 -7) #33, !dbg !4536, !srcloc !4537
  tail call void asm sideeffect ".globl\09___thread_arch_t_basepri_OFFSET\0A\09.equ\09___thread_arch_t_basepri_OFFSET,${0:B}\0A\09.type\09___thread_arch_t_basepri_OFFSET,%object", "n"(i32 -1) #33, !dbg !4538, !srcloc !4541
  tail call void asm sideeffect ".globl\09___thread_arch_t_swap_return_value_OFFSET\0A\09.equ\09___thread_arch_t_swap_return_value_OFFSET,${0:B}\0A\09.type\09___thread_arch_t_swap_return_value_OFFSET,%object", "n"(i32 -5) #33, !dbg !4542, !srcloc !4543
  tail call void asm sideeffect ".globl\09___basic_sf_t_a1_OFFSET\0A\09.equ\09___basic_sf_t_a1_OFFSET,${0:B}\0A\09.type\09___basic_sf_t_a1_OFFSET,%object", "n"(i32 -1) #33, !dbg !4544, !srcloc !4545
  tail call void asm sideeffect ".globl\09___basic_sf_t_a2_OFFSET\0A\09.equ\09___basic_sf_t_a2_OFFSET,${0:B}\0A\09.type\09___basic_sf_t_a2_OFFSET,%object", "n"(i32 -5) #33, !dbg !4546, !srcloc !4547
  tail call void asm sideeffect ".globl\09___basic_sf_t_a3_OFFSET\0A\09.equ\09___basic_sf_t_a3_OFFSET,${0:B}\0A\09.type\09___basic_sf_t_a3_OFFSET,%object", "n"(i32 -9) #33, !dbg !4548, !srcloc !4549
  tail call void asm sideeffect ".globl\09___basic_sf_t_a4_OFFSET\0A\09.equ\09___basic_sf_t_a4_OFFSET,${0:B}\0A\09.type\09___basic_sf_t_a4_OFFSET,%object", "n"(i32 -13) #33, !dbg !4550, !srcloc !4551
  tail call void asm sideeffect ".globl\09___basic_sf_t_ip_OFFSET\0A\09.equ\09___basic_sf_t_ip_OFFSET,${0:B}\0A\09.type\09___basic_sf_t_ip_OFFSET,%object", "n"(i32 -17) #33, !dbg !4552, !srcloc !4553
  tail call void asm sideeffect ".globl\09___basic_sf_t_lr_OFFSET\0A\09.equ\09___basic_sf_t_lr_OFFSET,${0:B}\0A\09.type\09___basic_sf_t_lr_OFFSET,%object", "n"(i32 -21) #33, !dbg !4554, !srcloc !4555
  tail call void asm sideeffect ".globl\09___basic_sf_t_pc_OFFSET\0A\09.equ\09___basic_sf_t_pc_OFFSET,${0:B}\0A\09.type\09___basic_sf_t_pc_OFFSET,%object", "n"(i32 -25) #33, !dbg !4556, !srcloc !4557
  tail call void asm sideeffect ".globl\09___basic_sf_t_xpsr_OFFSET\0A\09.equ\09___basic_sf_t_xpsr_OFFSET,${0:B}\0A\09.type\09___basic_sf_t_xpsr_OFFSET,%object", "n"(i32 -29) #33, !dbg !4558, !srcloc !4559
  tail call void asm sideeffect ".globl\09___basic_sf_t_SIZEOF\0A\09.equ\09___basic_sf_t_SIZEOF,${0:B}\0A\09.type\09___basic_sf_t_SIZEOF,%object", "n"(i32 -33) #33, !dbg !4560, !srcloc !4561
  tail call void asm sideeffect ".globl\09___esf_t_SIZEOF\0A\09.equ\09___esf_t_SIZEOF,${0:B}\0A\09.type\09___esf_t_SIZEOF,%object", "n"(i32 -33) #33, !dbg !4562, !srcloc !4563
  tail call void asm sideeffect ".globl\09___callee_saved_t_v1_OFFSET\0A\09.equ\09___callee_saved_t_v1_OFFSET,${0:B}\0A\09.type\09___callee_saved_t_v1_OFFSET,%object", "n"(i32 -1) #33, !dbg !4564, !srcloc !4565
  tail call void asm sideeffect ".globl\09___callee_saved_t_v2_OFFSET\0A\09.equ\09___callee_saved_t_v2_OFFSET,${0:B}\0A\09.type\09___callee_saved_t_v2_OFFSET,%object", "n"(i32 -5) #33, !dbg !4566, !srcloc !4567
  tail call void asm sideeffect ".globl\09___callee_saved_t_v3_OFFSET\0A\09.equ\09___callee_saved_t_v3_OFFSET,${0:B}\0A\09.type\09___callee_saved_t_v3_OFFSET,%object", "n"(i32 -9) #33, !dbg !4568, !srcloc !4569
  tail call void asm sideeffect ".globl\09___callee_saved_t_v4_OFFSET\0A\09.equ\09___callee_saved_t_v4_OFFSET,${0:B}\0A\09.type\09___callee_saved_t_v4_OFFSET,%object", "n"(i32 -13) #33, !dbg !4570, !srcloc !4571
  tail call void asm sideeffect ".globl\09___callee_saved_t_v5_OFFSET\0A\09.equ\09___callee_saved_t_v5_OFFSET,${0:B}\0A\09.type\09___callee_saved_t_v5_OFFSET,%object", "n"(i32 -17) #33, !dbg !4572, !srcloc !4573
  tail call void asm sideeffect ".globl\09___callee_saved_t_v6_OFFSET\0A\09.equ\09___callee_saved_t_v6_OFFSET,${0:B}\0A\09.type\09___callee_saved_t_v6_OFFSET,%object", "n"(i32 -21) #33, !dbg !4574, !srcloc !4575
  tail call void asm sideeffect ".globl\09___callee_saved_t_v7_OFFSET\0A\09.equ\09___callee_saved_t_v7_OFFSET,${0:B}\0A\09.type\09___callee_saved_t_v7_OFFSET,%object", "n"(i32 -25) #33, !dbg !4576, !srcloc !4577
  tail call void asm sideeffect ".globl\09___callee_saved_t_v8_OFFSET\0A\09.equ\09___callee_saved_t_v8_OFFSET,${0:B}\0A\09.type\09___callee_saved_t_v8_OFFSET,%object", "n"(i32 -29) #33, !dbg !4578, !srcloc !4579
  tail call void asm sideeffect ".globl\09___callee_saved_t_psp_OFFSET\0A\09.equ\09___callee_saved_t_psp_OFFSET,${0:B}\0A\09.type\09___callee_saved_t_psp_OFFSET,%object", "n"(i32 -33) #33, !dbg !4580, !srcloc !4581
  tail call void asm sideeffect ".globl\09___callee_saved_t_SIZEOF\0A\09.equ\09___callee_saved_t_SIZEOF,${0:B}\0A\09.type\09___callee_saved_t_SIZEOF,%object", "n"(i32 -37) #33, !dbg !4582, !srcloc !4583
  tail call void asm sideeffect ".globl\09___thread_stack_info_t_start_OFFSET\0A\09.equ\09___thread_stack_info_t_start_OFFSET,${0:B}\0A\09.type\09___thread_stack_info_t_start_OFFSET,%object", "n"(i32 -1) #33, !dbg !4584, !srcloc !4585
  tail call void asm sideeffect ".globl\09___thread_stack_info_t_SIZEOF\0A\09.equ\09___thread_stack_info_t_SIZEOF,${0:B}\0A\09.type\09___thread_stack_info_t_SIZEOF,%object", "n"(i32 -13) #33, !dbg !4586, !srcloc !4587
  tail call void asm sideeffect ".globl\09_K_THREAD_NO_FLOAT_SIZEOF\0A\09.equ\09_K_THREAD_NO_FLOAT_SIZEOF,${0:B}\0A\09.type\09_K_THREAD_NO_FLOAT_SIZEOF,%object", "n"(i32 -129) #33, !dbg !4588, !srcloc !4589
  ret void, !dbg !4590
}

; Function Attrs: mustprogress noinline nounwind optsize
define dso_local noundef i32 @_ZN13cpp_semaphore4waitEv(%class.cpp_semaphore* noundef nonnull align 4 dereferenceable(20) %0) unnamed_addr #2 align 2 !dbg !4593 {
  call void @llvm.dbg.value(metadata %class.cpp_semaphore* %0, metadata !4595, metadata !DIExpression()), !dbg !4597
  %2 = getelementptr inbounds %class.cpp_semaphore, %class.cpp_semaphore* %0, i32 0, i32 1, !dbg !4598
  %3 = tail call fastcc noundef i32 @_ZL10k_sem_takeP5k_sem11k_timeout_t(%struct.k_sem* noundef nonnull %2, [1 x i64] [i64 -1]) #34, !dbg !4599
  ret i32 1, !dbg !4600
}

; Function Attrs: mustprogress noinline nounwind optsize
define dso_local noundef i32 @_ZN13cpp_semaphore4waitEi(%class.cpp_semaphore* noundef nonnull align 4 dereferenceable(20) %0, i32 noundef %1) unnamed_addr #2 align 2 !dbg !4601 {
  call void @llvm.dbg.value(metadata %class.cpp_semaphore* %0, metadata !4603, metadata !DIExpression()), !dbg !4605
  call void @llvm.dbg.value(metadata i32 %1, metadata !4604, metadata !DIExpression()), !dbg !4605
  %3 = getelementptr inbounds %class.cpp_semaphore, %class.cpp_semaphore* %0, i32 0, i32 1, !dbg !4606
  %4 = icmp sgt i32 %1, 0, !dbg !4607
  %5 = select i1 %4, i32 %1, i32 0, !dbg !4607
  %6 = zext i32 %5 to i64, !dbg !4607
  %7 = tail call fastcc noundef i64 @_ZL20k_ms_to_ticks_ceil64y(i64 noundef %6) #34, !dbg !4607, !range !4608
  %8 = insertvalue [1 x i64] poison, i64 %7, 0, !dbg !4609
  %9 = tail call fastcc noundef i32 @_ZL10k_sem_takeP5k_sem11k_timeout_t(%struct.k_sem* noundef nonnull %3, [1 x i64] %8) #34, !dbg !4609
  ret i32 %9, !dbg !4610
}

; Function Attrs: mustprogress noinline nounwind optsize
define dso_local void @_ZN13cpp_semaphore4giveEv(%class.cpp_semaphore* noundef nonnull align 4 dereferenceable(20) %0) unnamed_addr #2 align 2 !dbg !4611 {
  call void @llvm.dbg.value(metadata %class.cpp_semaphore* %0, metadata !4613, metadata !DIExpression()), !dbg !4614
  %2 = getelementptr inbounds %class.cpp_semaphore, %class.cpp_semaphore* %0, i32 0, i32 1, !dbg !4615
  tail call fastcc void @_ZL10k_sem_giveP5k_sem(%struct.k_sem* noundef nonnull %2) #34, !dbg !4616
  ret void, !dbg !4617
}

; Function Attrs: noinline nounwind optsize
define linkonce_odr dso_local noundef %class.cpp_semaphore* @_ZN13cpp_semaphoreD2Ev(%class.cpp_semaphore* noundef nonnull returned align 4 dereferenceable(20) %0) unnamed_addr #3 comdat align 2 !dbg !4618 {
  call void @llvm.dbg.value(metadata %class.cpp_semaphore* %0, metadata !4620, metadata !DIExpression()), !dbg !4621
  ret %class.cpp_semaphore* %0, !dbg !4622
}

; Function Attrs: noinline nounwind optsize
define linkonce_odr dso_local void @_ZN13cpp_semaphoreD0Ev(%class.cpp_semaphore* noundef nonnull align 4 dereferenceable(20) %0) unnamed_addr #3 comdat align 2 !dbg !4623 {
  call void @llvm.dbg.value(metadata %class.cpp_semaphore* %0, metadata !4625, metadata !DIExpression()), !dbg !4626
  %2 = tail call noundef %class.cpp_semaphore* @_ZN13cpp_semaphoreD2Ev(%class.cpp_semaphore* noundef nonnull align 4 dereferenceable(20) %0) #35, !dbg !4627
  %3 = bitcast %class.cpp_semaphore* %0 to i8*, !dbg !4627
  tail call void @_ZdlPv(i8* noundef nonnull %3) #36, !dbg !4627
  ret void, !dbg !4628
}

; Function Attrs: nofree nosync nounwind readnone speculatable willreturn
declare void @llvm.dbg.value(metadata, metadata, metadata) #4

; Function Attrs: mustprogress noinline nounwind optsize
define internal fastcc void @_ZL10k_sem_giveP5k_sem(%struct.k_sem* noundef %0) unnamed_addr #2 !dbg !4629 {
  call void @llvm.dbg.value(metadata %struct.k_sem* %0, metadata !4635, metadata !DIExpression()), !dbg !4636
  tail call void asm sideeffect "", "~{memory}"() #33, !dbg !4637, !srcloc !4639
  tail call void @z_impl_k_sem_give(%struct.k_sem* noundef %0) #35, !dbg !4640
  ret void, !dbg !4641
}

; Function Attrs: mustprogress nofree noinline norecurse nosync nounwind optsize readnone willreturn
define internal fastcc noundef i64 @_ZL20k_ms_to_ticks_ceil64y(i64 noundef %0) unnamed_addr #5 !dbg !4642 {
  call void @llvm.dbg.value(metadata i64 %0, metadata !4647, metadata !DIExpression()), !dbg !4648
  call void @llvm.dbg.value(metadata i64 %0, metadata !4649, metadata !DIExpression()), !dbg !4667
  call void @llvm.dbg.value(metadata i32 1000, metadata !4655, metadata !DIExpression()), !dbg !4667
  call void @llvm.dbg.value(metadata i32 32768, metadata !4656, metadata !DIExpression()), !dbg !4667
  call void @llvm.dbg.value(metadata i8 1, metadata !4657, metadata !DIExpression()), !dbg !4667
  call void @llvm.dbg.value(metadata i8 0, metadata !4658, metadata !DIExpression()), !dbg !4667
  call void @llvm.dbg.value(metadata i8 1, metadata !4659, metadata !DIExpression()), !dbg !4667
  call void @llvm.dbg.value(metadata i8 0, metadata !4660, metadata !DIExpression()), !dbg !4667
  call void @llvm.dbg.value(metadata i8 0, metadata !4661, metadata !DIExpression()), !dbg !4667
  call void @llvm.dbg.value(metadata i8 0, metadata !4662, metadata !DIExpression()), !dbg !4667
  call void @llvm.dbg.value(metadata i64 0, metadata !4663, metadata !DIExpression()), !dbg !4667
  call void @llvm.dbg.value(metadata i64 999, metadata !4663, metadata !DIExpression()), !dbg !4667
  call void @llvm.dbg.value(metadata i64 999, metadata !4663, metadata !DIExpression()), !dbg !4667
  call void @llvm.dbg.value(metadata i64 999, metadata !4663, metadata !DIExpression()), !dbg !4667
  call void @llvm.dbg.value(metadata i64 999, metadata !4663, metadata !DIExpression()), !dbg !4667
  %2 = shl i64 %0, 15, !dbg !4669
  %3 = or i64 %2, 992, !dbg !4676
  %4 = udiv i64 %3, 1000, !dbg !4677
  ret i64 %4, !dbg !4678
}

; Function Attrs: mustprogress noinline nounwind optsize
define internal fastcc noundef i32 @_ZL10k_sem_takeP5k_sem11k_timeout_t(%struct.k_sem* noundef %0, [1 x i64] %1) unnamed_addr #2 !dbg !4679 {
  call void @llvm.dbg.value(metadata i64 undef, metadata !4688, metadata !DIExpression()), !dbg !4689
  call void @llvm.dbg.value(metadata %struct.k_sem* %0, metadata !4687, metadata !DIExpression()), !dbg !4689
  tail call void asm sideeffect "", "~{memory}"() #33, !dbg !4690, !srcloc !4692
  %3 = tail call i32 @z_impl_k_sem_take(%struct.k_sem* noundef %0, [1 x i64] %1) #35, !dbg !4693
  ret i32 %3, !dbg !4694
}

; Function Attrs: noinline nounwind optsize
define internal void @_GLOBAL__sub_I_main.cpp() #3 !dbg !4695 {
  tail call fastcc void @__cxx_global_var_init(), !dbg !4697
  tail call fastcc void @__cxx_global_var_init.1(), !dbg !4697
  ret void
}

; Function Attrs: noinline nounwind optsize
define internal fastcc void @__cxx_global_var_init() unnamed_addr #3 !dbg !4698 {
  %1 = tail call noundef %class.cpp_semaphore* @_ZN13cpp_semaphoreC2Ev(%class.cpp_semaphore* noundef nonnull align 4 dereferenceable(20) @sem_main) #34, !dbg !4699
  ret void, !dbg !4699
}

; Function Attrs: noinline nounwind optsize
define internal fastcc void @__cxx_global_var_init.1() unnamed_addr #3 !dbg !4700 {
  %1 = tail call noundef %class.cpp_semaphore* @_ZN13cpp_semaphoreC2Ev(%class.cpp_semaphore* noundef nonnull align 4 dereferenceable(20) @sem_coop) #34, !dbg !4701
  ret void, !dbg !4701
}

; Function Attrs: noinline nounwind optsize
define dso_local noundef nonnull %class.cpp_semaphore* @_ZN13cpp_semaphoreC2Ev(%class.cpp_semaphore* noundef nonnull returned align 4 dereferenceable(20) %0) unnamed_addr #3 align 2 !dbg !4702 {
  call void @llvm.dbg.value(metadata %class.cpp_semaphore* %0, metadata !4704, metadata !DIExpression()), !dbg !4705
  %2 = getelementptr inbounds %class.cpp_semaphore, %class.cpp_semaphore* %0, i32 0, i32 0, !dbg !4706
  %3 = tail call noundef %class.semaphore* @_ZN9semaphoreC2Ev(%class.semaphore* noundef nonnull align 4 dereferenceable(4) %2) #35, !dbg !4707
  %4 = getelementptr inbounds %class.cpp_semaphore, %class.cpp_semaphore* %0, i32 0, i32 0, i32 0, !dbg !4706
  store i32 (...)** bitcast (i8** getelementptr inbounds ({ [7 x i8*] }, { [7 x i8*] }* @_ZTV13cpp_semaphore, i32 0, inrange i32 0, i32 2) to i32 (...)**), i32 (...)*** %4, align 4, !dbg !4706
  tail call void (i8*, ...) @printk(i8* noundef getelementptr inbounds ([21 x i8], [21 x i8]* @.str, i32 0, i32 0), %class.cpp_semaphore* noundef nonnull %0) #35, !dbg !4708
  %5 = getelementptr inbounds %class.cpp_semaphore, %class.cpp_semaphore* %0, i32 0, i32 1, !dbg !4710
  tail call fastcc void @_ZL10k_sem_initP5k_semjj(%struct.k_sem* noundef nonnull %5) #34, !dbg !4711
  ret %class.cpp_semaphore* %0, !dbg !4712
}

; Function Attrs: noinline nounwind optsize
define linkonce_odr dso_local noundef %class.semaphore* @_ZN9semaphoreC2Ev(%class.semaphore* noundef nonnull returned align 4 dereferenceable(4) %0) unnamed_addr #3 comdat align 2 !dbg !4713 {
  call void @llvm.dbg.value(metadata %class.semaphore* %0, metadata !4716, metadata !DIExpression()), !dbg !4718
  %2 = getelementptr inbounds %class.semaphore, %class.semaphore* %0, i32 0, i32 0, !dbg !4719
  store i32 (...)** bitcast (i8** getelementptr inbounds ({ [5 x i8*] }, { [5 x i8*] }* @_ZTV9semaphore, i32 0, inrange i32 0, i32 2) to i32 (...)**), i32 (...)*** %2, align 4, !dbg !4719
  ret %class.semaphore* %0, !dbg !4719
}

; Function Attrs: mustprogress noinline nounwind optsize
define internal fastcc void @_ZL10k_sem_initP5k_semjj(%struct.k_sem* noundef %0) unnamed_addr #2 !dbg !4720 {
  call void @llvm.dbg.value(metadata %struct.k_sem* %0, metadata !4724, metadata !DIExpression()), !dbg !4727
  call void @llvm.dbg.value(metadata i32 0, metadata !4725, metadata !DIExpression()), !dbg !4727
  call void @llvm.dbg.value(metadata i32 -1, metadata !4726, metadata !DIExpression()), !dbg !4727
  tail call void asm sideeffect "", "~{memory}"() #33, !dbg !4728, !srcloc !4730
  %2 = tail call i32 @z_impl_k_sem_init(%struct.k_sem* noundef %0, i32 noundef 0, i32 noundef -1) #35, !dbg !4731
  ret void, !dbg !4732
}

declare dso_local void @__cxa_pure_virtual() unnamed_addr

; Function Attrs: mustprogress noinline noreturn nounwind optsize
define dso_local void @_Z17coop_thread_entryv() #6 !dbg !4733 {
  %1 = alloca %struct.k_timer, align 8
  %2 = bitcast %struct.k_timer* %1 to i8*, !dbg !4749
  call void @llvm.lifetime.start.p0i8(i64 56, i8* nonnull %2) #33, !dbg !4749
  call void @llvm.dbg.declare(metadata %struct.k_timer* %1, metadata !4735, metadata !DIExpression()), !dbg !4750
  call void @k_timer_init(%struct.k_timer* noundef nonnull %1, void (%struct.k_timer*)* noundef null, void (%struct.k_timer*)* noundef null) #35, !dbg !4751
  br label %3, !dbg !4752

3:                                                ; preds = %3, %0
  %4 = call noundef i32 @_ZN13cpp_semaphore4waitEv(%class.cpp_semaphore* noundef nonnull align 4 dereferenceable(20) @sem_coop) #34, !dbg !4753
  call void (i8*, ...) @printk(i8* noundef getelementptr inbounds ([18 x i8], [18 x i8]* @.str.2, i32 0, i32 0), i8* noundef getelementptr inbounds ([18 x i8], [18 x i8]* @__FUNCTION__._Z17coop_thread_entryv, i32 0, i32 0)) #35, !dbg !4755
  %5 = call fastcc noundef i64 @_ZL20k_ms_to_ticks_ceil64y(i64 noundef 500) #34, !dbg !4756, !range !4608
  %6 = insertvalue [1 x i64] poison, i64 %5, 0, !dbg !4757
  call fastcc void @_ZL13k_timer_startP7k_timer11k_timeout_tS1_(%struct.k_timer* noundef nonnull %1, [1 x i64] %6) #34, !dbg !4757
  call fastcc void @_ZL19k_timer_status_syncP7k_timer(%struct.k_timer* noundef nonnull %1) #34, !dbg !4758
  call void @_ZN13cpp_semaphore4giveEv(%class.cpp_semaphore* noundef nonnull align 4 dereferenceable(20) @sem_main) #34, !dbg !4759
  br label %3, !dbg !4752, !llvm.loop !4760
}

; Function Attrs: argmemonly nofree nosync nounwind willreturn
declare void @llvm.lifetime.start.p0i8(i64 immarg, i8* nocapture) #7

; Function Attrs: nofree nosync nounwind readnone speculatable willreturn
declare void @llvm.dbg.declare(metadata, metadata, metadata) #4

; Function Attrs: mustprogress noinline nounwind optsize
define internal fastcc void @_ZL13k_timer_startP7k_timer11k_timeout_tS1_(%struct.k_timer* noundef %0, [1 x i64] %1) unnamed_addr #2 !dbg !4763 {
  call void @llvm.dbg.value(metadata i64 undef, metadata !4768, metadata !DIExpression()), !dbg !4770
  call void @llvm.dbg.value(metadata i64 undef, metadata !4769, metadata !DIExpression()), !dbg !4770
  call void @llvm.dbg.value(metadata %struct.k_timer* %0, metadata !4767, metadata !DIExpression()), !dbg !4770
  tail call void asm sideeffect "", "~{memory}"() #33, !dbg !4771, !srcloc !4773
  tail call void @z_impl_k_timer_start(%struct.k_timer* noundef %0, [1 x i64] %1, [1 x i64] zeroinitializer) #35, !dbg !4774
  ret void, !dbg !4775
}

; Function Attrs: mustprogress noinline nounwind optsize
define internal fastcc void @_ZL19k_timer_status_syncP7k_timer(%struct.k_timer* noundef %0) unnamed_addr #2 !dbg !4776 {
  call void @llvm.dbg.value(metadata %struct.k_timer* %0, metadata !4780, metadata !DIExpression()), !dbg !4781
  tail call void asm sideeffect "", "~{memory}"() #33, !dbg !4782, !srcloc !4784
  %2 = tail call i32 @z_impl_k_timer_status_sync(%struct.k_timer* noundef %0) #35, !dbg !4785
  ret void, !dbg !4786
}

; Function Attrs: mustprogress noinline norecurse noreturn nounwind optsize
define dso_local noundef i32 @main() local_unnamed_addr #8 !dbg !4787 {
  %1 = alloca %struct.k_timer, align 8
  %2 = bitcast %struct.k_timer* %1 to i8*, !dbg !4790
  call void @llvm.lifetime.start.p0i8(i64 56, i8* nonnull %2) #33, !dbg !4790
  call void @llvm.dbg.declare(metadata %struct.k_timer* %1, metadata !4789, metadata !DIExpression()), !dbg !4791
  tail call fastcc void @_ZL15k_thread_createP8k_threadP22z_thread_stack_elementjPFvPvS3_S3_ES3_S3_S3_ij11k_timeout_t() #34, !dbg !4792
  call void @k_timer_init(%struct.k_timer* noundef nonnull %1, void (%struct.k_timer*)* noundef null, void (%struct.k_timer*)* noundef null) #35, !dbg !4793
  br label %3, !dbg !4794

3:                                                ; preds = %3, %0
  call void (i8*, ...) @printk(i8* noundef getelementptr inbounds ([18 x i8], [18 x i8]* @.str.2, i32 0, i32 0), i8* noundef getelementptr inbounds ([5 x i8], [5 x i8]* @__FUNCTION__.main, i32 0, i32 0)) #35, !dbg !4795
  %4 = call fastcc noundef i64 @_ZL20k_ms_to_ticks_ceil64y(i64 noundef 500) #34, !dbg !4797, !range !4608
  %5 = insertvalue [1 x i64] poison, i64 %4, 0, !dbg !4798
  call fastcc void @_ZL13k_timer_startP7k_timer11k_timeout_tS1_(%struct.k_timer* noundef nonnull %1, [1 x i64] %5) #34, !dbg !4798
  call fastcc void @_ZL19k_timer_status_syncP7k_timer(%struct.k_timer* noundef nonnull %1) #34, !dbg !4799
  call void @_ZN13cpp_semaphore4giveEv(%class.cpp_semaphore* noundef nonnull align 4 dereferenceable(20) @sem_coop) #34, !dbg !4800
  %6 = call noundef i32 @_ZN13cpp_semaphore4waitEv(%class.cpp_semaphore* noundef nonnull align 4 dereferenceable(20) @sem_main) #34, !dbg !4801
  br label %3, !dbg !4794, !llvm.loop !4802
}

; Function Attrs: mustprogress noinline norecurse nounwind optsize
define internal fastcc void @_ZL15k_thread_createP8k_threadP22z_thread_stack_elementjPFvPvS3_S3_ES3_S3_S3_ij11k_timeout_t() unnamed_addr #9 !dbg !4804 {
  call void @llvm.dbg.value(metadata i64 undef, metadata !4821, metadata !DIExpression()), !dbg !4822
  call void @llvm.dbg.value(metadata %struct.k_thread* @coop_thread, metadata !4812, metadata !DIExpression()), !dbg !4822
  call void @llvm.dbg.value(metadata %struct.k_spinlock* getelementptr inbounds ([2064 x %struct.k_spinlock], [2064 x %struct.k_spinlock]* @coop_stack, i32 0, i32 0), metadata !4813, metadata !DIExpression()), !dbg !4822
  call void @llvm.dbg.value(metadata i32 2000, metadata !4814, metadata !DIExpression()), !dbg !4822
  call void @llvm.dbg.value(metadata void (i8*, i8*, i8*)* bitcast (void ()* @_Z17coop_thread_entryv to void (i8*, i8*, i8*)*), metadata !4815, metadata !DIExpression()), !dbg !4822
  call void @llvm.dbg.value(metadata i8* null, metadata !4816, metadata !DIExpression()), !dbg !4822
  call void @llvm.dbg.value(metadata i8* null, metadata !4817, metadata !DIExpression()), !dbg !4822
  call void @llvm.dbg.value(metadata i8* null, metadata !4818, metadata !DIExpression()), !dbg !4822
  call void @llvm.dbg.value(metadata i32 -9, metadata !4819, metadata !DIExpression()), !dbg !4822
  call void @llvm.dbg.value(metadata i32 0, metadata !4820, metadata !DIExpression()), !dbg !4822
  tail call void asm sideeffect "", "~{memory}"() #33, !dbg !4823, !srcloc !4825
  %1 = tail call %struct.k_thread* @z_impl_k_thread_create(%struct.k_thread* noundef nonnull @coop_thread, %struct.k_spinlock* noundef getelementptr inbounds ([2064 x %struct.k_spinlock], [2064 x %struct.k_spinlock]* @coop_stack, i32 0, i32 0), i32 noundef 2000, void (i8*, i8*, i8*)* noundef bitcast (void ()* @_Z17coop_thread_entryv to void (i8*, i8*, i8*)*), i8* noundef null, i8* noundef null, i8* noundef null, i32 noundef -9, i32 noundef 0, [1 x i64] zeroinitializer) #35, !dbg !4826
  ret void, !dbg !4827
}

; Function Attrs: noinline nounwind optsize
define weak dso_local i32 @arch_printk_char_out(i32 noundef %0) #1 !dbg !4828 {
  call void @llvm.dbg.value(metadata i32 %0, metadata !4830, metadata !DIExpression()), !dbg !4831
  ret i32 0, !dbg !4832
}

; Function Attrs: mustprogress nofree noinline norecurse nosync nounwind optsize willreturn writeonly
define dso_local void @__printk_hook_install(i32 (i32)* noundef %0) local_unnamed_addr #10 !dbg !4833 {
  call void @llvm.dbg.value(metadata i32 (i32)* %0, metadata !4837, metadata !DIExpression()), !dbg !4838
  store i32 (i32)* %0, i32 (i32)** @_char_out, align 4, !dbg !4839
  ret void, !dbg !4840
}

; Function Attrs: mustprogress nofree noinline norecurse nosync nounwind optsize readonly willreturn
define dso_local i8* @__printk_get_hook() local_unnamed_addr #11 !dbg !4841 {
  %1 = load i8*, i8** bitcast (i32 (i32)** @_char_out to i8**), align 4, !dbg !4844
  ret i8* %1, !dbg !4845
}

; Function Attrs: noinline nounwind optsize
define dso_local void @vprintk(i8* noundef %0, [1 x i32] %1) local_unnamed_addr #1 !dbg !4846 {
  call void @llvm.dbg.value(metadata i32 undef, metadata !4858, metadata !DIExpression()), !dbg !4867
  call void @llvm.dbg.value(metadata i8* %0, metadata !4857, metadata !DIExpression()), !dbg !4867
  tail call fastcc void @cbvprintf(i32 (...)* noundef bitcast (i32 (i32, i8*)* @char_out to i32 (...)*), i8* noundef null, i8* noundef %0, [1 x i32] %1) #37, !dbg !4868
  ret void, !dbg !4870
}

; Function Attrs: noinline nounwind optsize
define internal i32 @char_out(i32 noundef %0, i8* nocapture noundef readnone %1) #1 !dbg !4871 {
  call void @llvm.dbg.value(metadata i32 %0, metadata !4875, metadata !DIExpression()), !dbg !4877
  call void @llvm.dbg.value(metadata i8* %1, metadata !4876, metadata !DIExpression()), !dbg !4877
  %3 = load i32 (i32)*, i32 (i32)** @_char_out, align 4, !dbg !4878
  %4 = tail call i32 %3(i32 noundef %0) #38, !dbg !4878
  ret i32 %4, !dbg !4879
}

; Function Attrs: noinline nounwind optsize
define internal fastcc void @cbvprintf(i32 (...)* noundef %0, i8* noundef %1, i8* noundef %2, [1 x i32] %3) unnamed_addr #1 !dbg !4880 {
  call void @llvm.dbg.value(metadata i32 undef, metadata !4892, metadata !DIExpression()), !dbg !4893
  call void @llvm.dbg.value(metadata i32 (...)* %0, metadata !4889, metadata !DIExpression()), !dbg !4893
  call void @llvm.dbg.value(metadata i8* %1, metadata !4890, metadata !DIExpression()), !dbg !4893
  call void @llvm.dbg.value(metadata i8* %2, metadata !4891, metadata !DIExpression()), !dbg !4893
  %5 = tail call i32 @z_cbvprintf_impl(i32 (...)* noundef %0, i8* noundef %1, i8* noundef %2, [1 x i32] %3, i32 noundef 0) #38, !dbg !4894
  ret void, !dbg !4895
}

; Function Attrs: noinline nounwind optsize
define dso_local void @z_impl_k_str_out(i8* nocapture noundef readonly %0, i32 noundef %1) local_unnamed_addr #1 !dbg !4896 {
  call void @llvm.dbg.value(metadata i8* %0, metadata !4900, metadata !DIExpression()), !dbg !4903
  call void @llvm.dbg.value(metadata i32 %1, metadata !4901, metadata !DIExpression()), !dbg !4903
  call void @llvm.dbg.value(metadata i32 0, metadata !4902, metadata !DIExpression()), !dbg !4903
  %3 = icmp eq i32 %1, 0, !dbg !4904
  br i1 %3, label %13, label %4, !dbg !4907

4:                                                ; preds = %2, %4
  %5 = phi i32 [ %11, %4 ], [ 0, %2 ]
  call void @llvm.dbg.value(metadata i32 %5, metadata !4902, metadata !DIExpression()), !dbg !4903
  %6 = load i32 (i32)*, i32 (i32)** @_char_out, align 4, !dbg !4908
  %7 = getelementptr inbounds i8, i8* %0, i32 %5, !dbg !4910
  %8 = load i8, i8* %7, align 1, !dbg !4910
  %9 = zext i8 %8 to i32, !dbg !4910
  %10 = tail call i32 %6(i32 noundef %9) #38, !dbg !4908
  %11 = add nuw i32 %5, 1, !dbg !4911
  call void @llvm.dbg.value(metadata i32 %11, metadata !4902, metadata !DIExpression()), !dbg !4903
  %12 = icmp eq i32 %11, %1, !dbg !4904
  br i1 %12, label %13, label %4, !dbg !4907, !llvm.loop !4912

13:                                               ; preds = %4, %2
  ret void, !dbg !4914
}

; Function Attrs: noinline nounwind optsize
define dso_local void @printk(i8* noundef %0, ...) local_unnamed_addr #1 !dbg !4915 {
  %2 = alloca %struct.__va_list, align 4
  call void @llvm.dbg.value(metadata i8* %0, metadata !4919, metadata !DIExpression()), !dbg !4921
  %3 = bitcast %struct.__va_list* %2 to i8*, !dbg !4922
  call void @llvm.lifetime.start.p0i8(i64 4, i8* nonnull %3) #33, !dbg !4922
  call void @llvm.dbg.declare(metadata %struct.__va_list* %2, metadata !4920, metadata !DIExpression()), !dbg !4923
  call void @llvm.va_start(i8* nonnull %3), !dbg !4924
  %4 = bitcast %struct.__va_list* %2 to i32*, !dbg !4925
  %5 = load i32, i32* %4, align 4, !dbg !4925
  %6 = insertvalue [1 x i32] poison, i32 %5, 0, !dbg !4925
  call void @vprintk(i8* noundef %0, [1 x i32] %6) #37, !dbg !4925
  call void @llvm.va_end(i8* nonnull %3), !dbg !4926
  call void @llvm.lifetime.end.p0i8(i64 4, i8* nonnull %3) #33, !dbg !4927
  ret void, !dbg !4927
}

; Function Attrs: nofree nosync nounwind willreturn
declare void @llvm.va_start(i8*) #12

; Function Attrs: nofree nosync nounwind willreturn
declare void @llvm.va_end(i8*) #12

; Function Attrs: argmemonly nofree nosync nounwind willreturn
declare void @llvm.lifetime.end.p0i8(i64 immarg, i8* nocapture) #7

; Function Attrs: noinline nounwind optsize
define dso_local i32 @snprintk(i8* noundef %0, i32 noundef %1, i8* noundef %2, ...) local_unnamed_addr #1 !dbg !4928 {
  %4 = alloca %struct.__va_list, align 4
  call void @llvm.dbg.value(metadata i8* %0, metadata !4932, metadata !DIExpression()), !dbg !4937
  call void @llvm.dbg.value(metadata i32 %1, metadata !4933, metadata !DIExpression()), !dbg !4937
  call void @llvm.dbg.value(metadata i8* %2, metadata !4934, metadata !DIExpression()), !dbg !4937
  %5 = bitcast %struct.__va_list* %4 to i8*, !dbg !4938
  call void @llvm.lifetime.start.p0i8(i64 4, i8* nonnull %5) #33, !dbg !4938
  call void @llvm.dbg.declare(metadata %struct.__va_list* %4, metadata !4935, metadata !DIExpression()), !dbg !4939
  call void @llvm.va_start(i8* nonnull %5), !dbg !4940
  %6 = bitcast %struct.__va_list* %4 to i32*, !dbg !4941
  %7 = load i32, i32* %6, align 4, !dbg !4941
  %8 = insertvalue [1 x i32] poison, i32 %7, 0, !dbg !4941
  %9 = call i32 @vsnprintk(i8* noundef %0, i32 noundef %1, i8* noundef %2, [1 x i32] %8) #37, !dbg !4941
  call void @llvm.dbg.value(metadata i32 %9, metadata !4936, metadata !DIExpression()), !dbg !4937
  call void @llvm.va_end(i8* nonnull %5), !dbg !4942
  call void @llvm.lifetime.end.p0i8(i64 4, i8* nonnull %5) #33, !dbg !4943
  ret i32 %9, !dbg !4944
}

; Function Attrs: noinline nounwind optsize
define dso_local i32 @vsnprintk(i8* noundef %0, i32 noundef %1, i8* noundef %2, [1 x i32] %3) local_unnamed_addr #1 !dbg !4945 {
  %5 = alloca %struct.str_context, align 4
  call void @llvm.dbg.value(metadata i32 undef, metadata !4952, metadata !DIExpression()), !dbg !4959
  call void @llvm.dbg.value(metadata i8* %0, metadata !4949, metadata !DIExpression()), !dbg !4959
  call void @llvm.dbg.value(metadata i32 %1, metadata !4950, metadata !DIExpression()), !dbg !4959
  call void @llvm.dbg.value(metadata i8* %2, metadata !4951, metadata !DIExpression()), !dbg !4959
  %6 = bitcast %struct.str_context* %5 to i8*, !dbg !4960
  call void @llvm.lifetime.start.p0i8(i64 12, i8* nonnull %6) #33, !dbg !4960
  call void @llvm.dbg.declare(metadata %struct.str_context* %5, metadata !4953, metadata !DIExpression()), !dbg !4961
  %7 = getelementptr inbounds %struct.str_context, %struct.str_context* %5, i32 0, i32 0, !dbg !4962
  store i8* %0, i8** %7, align 4, !dbg !4962
  %8 = getelementptr inbounds %struct.str_context, %struct.str_context* %5, i32 0, i32 1, !dbg !4962
  store i32 %1, i32* %8, align 4, !dbg !4962
  %9 = getelementptr inbounds %struct.str_context, %struct.str_context* %5, i32 0, i32 2, !dbg !4962
  store i32 0, i32* %9, align 4, !dbg !4962
  call fastcc void @cbvprintf(i32 (...)* noundef bitcast (i32 (i32, %struct.str_context*)* @str_out to i32 (...)*), i8* noundef nonnull %6, i8* noundef %2, [1 x i32] %3) #37, !dbg !4963
  %10 = load i32, i32* %9, align 4, !dbg !4964
  %11 = load i32, i32* %8, align 4, !dbg !4966
  %12 = icmp slt i32 %10, %11, !dbg !4967
  br i1 %12, label %13, label %15, !dbg !4968

13:                                               ; preds = %4
  %14 = getelementptr inbounds i8, i8* %0, i32 %10, !dbg !4969
  store i8 0, i8* %14, align 1, !dbg !4971
  br label %15, !dbg !4972

15:                                               ; preds = %13, %4
  call void @llvm.lifetime.end.p0i8(i64 12, i8* nonnull %6) #33, !dbg !4973
  ret i32 %10, !dbg !4974
}

; Function Attrs: mustprogress nofree noinline norecurse nosync nounwind optsize willreturn
define internal i32 @str_out(i32 noundef returned %0, %struct.str_context* nocapture noundef %1) #13 !dbg !4975 {
  call void @llvm.dbg.value(metadata i32 %0, metadata !4980, metadata !DIExpression()), !dbg !4982
  call void @llvm.dbg.value(metadata %struct.str_context* %1, metadata !4981, metadata !DIExpression()), !dbg !4982
  %3 = getelementptr inbounds %struct.str_context, %struct.str_context* %1, i32 0, i32 0, !dbg !4983
  %4 = load i8*, i8** %3, align 4, !dbg !4983
  %5 = icmp eq i8* %4, null, !dbg !4985
  %6 = getelementptr inbounds %struct.str_context, %struct.str_context* %1, i32 0, i32 2
  %7 = load i32, i32* %6, align 4, !dbg !4986
  br i1 %5, label %12, label %8, !dbg !4987

8:                                                ; preds = %2
  %9 = getelementptr inbounds %struct.str_context, %struct.str_context* %1, i32 0, i32 1, !dbg !4988
  %10 = load i32, i32* %9, align 4, !dbg !4988
  %11 = icmp slt i32 %7, %10, !dbg !4989
  br i1 %11, label %15, label %12, !dbg !4990

12:                                               ; preds = %2, %8
  %13 = getelementptr inbounds %struct.str_context, %struct.str_context* %1, i32 0, i32 2, !dbg !4991
  %14 = add nsw i32 %7, 1, !dbg !4993
  store i32 %14, i32* %13, align 4, !dbg !4993
  br label %25, !dbg !4994

15:                                               ; preds = %8
  %16 = add nsw i32 %10, -1, !dbg !4995
  %17 = icmp eq i32 %7, %16, !dbg !4997
  br i1 %17, label %18, label %21, !dbg !4998

18:                                               ; preds = %15
  %19 = add nsw i32 %7, 1, !dbg !4999
  store i32 %19, i32* %6, align 4, !dbg !4999
  %20 = getelementptr inbounds i8, i8* %4, i32 %7, !dbg !5001
  store i8 0, i8* %20, align 1, !dbg !5002
  br label %25, !dbg !5003

21:                                               ; preds = %15
  %22 = trunc i32 %0 to i8, !dbg !5004
  %23 = add nsw i32 %7, 1, !dbg !5006
  store i32 %23, i32* %6, align 4, !dbg !5006
  %24 = getelementptr inbounds i8, i8* %4, i32 %7, !dbg !5007
  store i8 %22, i8* %24, align 1, !dbg !5008
  br label %25

25:                                               ; preds = %18, %21, %12
  ret i32 %0, !dbg !5009
}

; Function Attrs: noinline noreturn nounwind optsize
define dso_local void @z_thread_entry(void (i8*, i8*, i8*)* nocapture noundef readonly %0, i8* noundef %1, i8* noundef %2, i8* noundef %3) #14 !dbg !5010 {
  call void @llvm.dbg.value(metadata void (i8*, i8*, i8*)* %0, metadata !5015, metadata !DIExpression()), !dbg !5019
  call void @llvm.dbg.value(metadata i8* %1, metadata !5016, metadata !DIExpression()), !dbg !5019
  call void @llvm.dbg.value(metadata i8* %2, metadata !5017, metadata !DIExpression()), !dbg !5019
  call void @llvm.dbg.value(metadata i8* %3, metadata !5018, metadata !DIExpression()), !dbg !5019
  tail call void %0(i8* noundef %1, i8* noundef %2, i8* noundef %3) #38, !dbg !5020
  %5 = tail call fastcc %struct.k_thread* @k_current_get() #39, !dbg !5021
  tail call fastcc void @k_thread_abort(%struct.k_thread* noundef %5) #37, !dbg !5022
  unreachable, !dbg !5023
}

; Function Attrs: mustprogress nofree noinline nosync nounwind optsize readnone willreturn
define internal fastcc %struct.k_thread* @k_current_get() unnamed_addr #15 !dbg !5024 {
  %1 = tail call fastcc %struct.k_thread* @z_current_get() #39, !dbg !5130
  ret %struct.k_thread* %1, !dbg !5131
}

; Function Attrs: noinline nounwind optsize
define internal fastcc void @k_thread_abort(%struct.k_thread* noundef %0) unnamed_addr #1 !dbg !5132 {
  call void @llvm.dbg.value(metadata %struct.k_thread* %0, metadata !5136, metadata !DIExpression()), !dbg !5137
  tail call void asm sideeffect "", "~{memory}"() #33, !dbg !5138, !srcloc !5140
  tail call void @z_impl_k_thread_abort(%struct.k_thread* noundef %0) #38, !dbg !5141
  ret void, !dbg !5142
}

; Function Attrs: mustprogress nofree noinline nosync nounwind optsize readnone willreturn
define internal fastcc %struct.k_thread* @z_current_get() unnamed_addr #15 !dbg !5143 {
  tail call void asm sideeffect "", "~{memory}"() #33, !dbg !5144, !srcloc !5146
  %1 = tail call %struct.k_thread* @z_impl_z_current_get() #38, !dbg !5147
  ret %struct.k_thread* %1, !dbg !5148
}

; Function Attrs: mustprogress nofree noinline nosync nounwind optsize willreturn
define dso_local void @sys_heap_free(%struct.sys_heap* nocapture noundef readonly %0, i8* noundef %1) local_unnamed_addr #16 !dbg !5149 {
  call void @llvm.dbg.value(metadata %struct.sys_heap* %0, metadata !5160, metadata !DIExpression()), !dbg !5164
  call void @llvm.dbg.value(metadata i8* %1, metadata !5161, metadata !DIExpression()), !dbg !5164
  %3 = icmp eq i8* %1, null, !dbg !5165
  br i1 %3, label %8, label %4, !dbg !5167

4:                                                ; preds = %2
  %5 = getelementptr inbounds %struct.sys_heap, %struct.sys_heap* %0, i32 0, i32 0, !dbg !5168
  %6 = load %struct.z_heap*, %struct.z_heap** %5, align 4, !dbg !5168
  call void @llvm.dbg.value(metadata %struct.z_heap* %6, metadata !5162, metadata !DIExpression()), !dbg !5164
  %7 = tail call fastcc i32 @mem_to_chunkid(%struct.z_heap* noundef %6, i8* noundef nonnull %1) #37, !dbg !5169, !range !5170
  call void @llvm.dbg.value(metadata i32 %7, metadata !5163, metadata !DIExpression()), !dbg !5164
  tail call fastcc void @set_chunk_used(%struct.z_heap* noundef %6, i32 noundef %7, i1 noundef zeroext false) #37, !dbg !5171
  tail call fastcc void @free_chunk(%struct.z_heap* noundef %6, i32 noundef %7) #37, !dbg !5172
  br label %8

8:                                                ; preds = %2, %4
  ret void, !dbg !5173
}

; Function Attrs: mustprogress nofree noinline norecurse nosync nounwind optsize readnone willreturn
define internal fastcc i32 @mem_to_chunkid(%struct.z_heap* noundef %0, i8* noundef %1) unnamed_addr #17 !dbg !5174 {
  call void @llvm.dbg.value(metadata %struct.z_heap* %0, metadata !5178, metadata !DIExpression()), !dbg !5182
  call void @llvm.dbg.value(metadata i8* %1, metadata !5179, metadata !DIExpression()), !dbg !5182
  call void @llvm.dbg.value(metadata i8* %1, metadata !5180, metadata !DIExpression()), !dbg !5182
  %3 = tail call fastcc %struct.chunk_unit_t* @chunk_buf(%struct.z_heap* noundef %0) #37, !dbg !5183
  call void @llvm.dbg.value(metadata %struct.chunk_unit_t* %3, metadata !5181, metadata !DIExpression()), !dbg !5182
  %4 = getelementptr inbounds i8, i8* %1, i32 -4, !dbg !5184
  %5 = ptrtoint i8* %4 to i32, !dbg !5185
  %6 = ptrtoint %struct.chunk_unit_t* %3 to i32, !dbg !5185
  %7 = sub i32 %5, %6, !dbg !5185
  %8 = lshr i32 %7, 3, !dbg !5186
  ret i32 %8, !dbg !5187
}

; Function Attrs: mustprogress nofree noinline norecurse nosync nounwind optsize willreturn
define internal fastcc void @set_chunk_used(%struct.z_heap* noundef %0, i32 noundef %1, i1 noundef zeroext %2) unnamed_addr #13 !dbg !5188 {
  call void @llvm.dbg.value(metadata %struct.z_heap* %0, metadata !5192, metadata !DIExpression()), !dbg !5197
  call void @llvm.dbg.value(metadata i32 %1, metadata !5193, metadata !DIExpression()), !dbg !5197
  call void @llvm.dbg.value(metadata i1 %2, metadata !5194, metadata !DIExpression(DW_OP_LLVM_convert, 1, DW_ATE_unsigned, DW_OP_LLVM_convert, 8, DW_ATE_unsigned, DW_OP_stack_value)), !dbg !5197
  %4 = tail call fastcc %struct.chunk_unit_t* @chunk_buf(%struct.z_heap* noundef %0) #37, !dbg !5198
  call void @llvm.dbg.value(metadata %struct.chunk_unit_t* %4, metadata !5195, metadata !DIExpression()), !dbg !5197
  call void @llvm.dbg.value(metadata !DIArgList(%struct.chunk_unit_t* %4, i32 %1), metadata !5196, metadata !DIExpression(DW_OP_LLVM_arg, 0, DW_OP_LLVM_arg, 1, DW_OP_constu, 8, DW_OP_mul, DW_OP_plus, DW_OP_stack_value)), !dbg !5197
  %5 = getelementptr inbounds %struct.chunk_unit_t, %struct.chunk_unit_t* %4, i32 %1, i32 0, i32 2, !dbg !5199
  %6 = bitcast i8* %5 to i16*, !dbg !5199
  %7 = load i16, i16* %6, align 2, !dbg !5199
  %8 = and i16 %7, -2, !dbg !5203
  %9 = zext i1 %2 to i16, !dbg !5203
  %10 = or i16 %8, %9, !dbg !5203
  store i16 %10, i16* %6, align 2, !dbg !5199
  ret void, !dbg !5204
}

; Function Attrs: mustprogress nofree noinline nosync nounwind optsize willreturn
define internal fastcc void @free_chunk(%struct.z_heap* noundef %0, i32 noundef %1) unnamed_addr #16 !dbg !5205 {
  call void @llvm.dbg.value(metadata %struct.z_heap* %0, metadata !5209, metadata !DIExpression()), !dbg !5211
  call void @llvm.dbg.value(metadata i32 %1, metadata !5210, metadata !DIExpression()), !dbg !5211
  %3 = tail call fastcc i32 @right_chunk(%struct.z_heap* noundef %0, i32 noundef %1) #37, !dbg !5212
  %4 = tail call fastcc zeroext i1 @chunk_used(%struct.z_heap* noundef %0, i32 noundef %3) #37, !dbg !5214
  br i1 %4, label %7, label %5, !dbg !5215

5:                                                ; preds = %2
  tail call fastcc void @free_list_remove(%struct.z_heap* noundef %0, i32 noundef %3) #37, !dbg !5216
  %6 = tail call fastcc i32 @right_chunk(%struct.z_heap* noundef %0, i32 noundef %1) #37, !dbg !5218
  tail call fastcc void @merge_chunks(%struct.z_heap* noundef %0, i32 noundef %1, i32 noundef %6) #37, !dbg !5219
  br label %7, !dbg !5220

7:                                                ; preds = %5, %2
  %8 = tail call fastcc i32 @left_chunk(%struct.z_heap* noundef %0, i32 noundef %1) #37, !dbg !5221, !range !5223
  %9 = tail call fastcc zeroext i1 @chunk_used(%struct.z_heap* noundef %0, i32 noundef %8) #37, !dbg !5224
  br i1 %9, label %13, label %10, !dbg !5225

10:                                               ; preds = %7
  tail call fastcc void @free_list_remove(%struct.z_heap* noundef %0, i32 noundef %8) #37, !dbg !5226
  %11 = tail call fastcc i32 @left_chunk(%struct.z_heap* noundef %0, i32 noundef %1) #37, !dbg !5228, !range !5223
  tail call fastcc void @merge_chunks(%struct.z_heap* noundef %0, i32 noundef %11, i32 noundef %1) #37, !dbg !5229
  %12 = tail call fastcc i32 @left_chunk(%struct.z_heap* noundef %0, i32 noundef %1) #37, !dbg !5230
  call void @llvm.dbg.value(metadata i32 %12, metadata !5210, metadata !DIExpression()), !dbg !5211
  br label %13, !dbg !5231

13:                                               ; preds = %10, %7
  %14 = phi i32 [ %1, %7 ], [ %12, %10 ]
  call void @llvm.dbg.value(metadata i32 %14, metadata !5210, metadata !DIExpression()), !dbg !5211
  tail call fastcc void @free_list_add(%struct.z_heap* noundef %0, i32 noundef %14) #37, !dbg !5232
  ret void, !dbg !5233
}

; Function Attrs: mustprogress nofree noinline norecurse nosync nounwind optsize readonly willreturn
define internal fastcc i32 @right_chunk(%struct.z_heap* noundef %0, i32 noundef %1) unnamed_addr #11 !dbg !5234 {
  call void @llvm.dbg.value(metadata %struct.z_heap* %0, metadata !5238, metadata !DIExpression()), !dbg !5240
  call void @llvm.dbg.value(metadata i32 %1, metadata !5239, metadata !DIExpression()), !dbg !5240
  %3 = tail call fastcc i32 @chunk_size(%struct.z_heap* noundef %0, i32 noundef %1) #37, !dbg !5241
  %4 = add i32 %3, %1, !dbg !5242
  ret i32 %4, !dbg !5243
}

; Function Attrs: mustprogress nofree noinline norecurse nosync nounwind optsize readonly willreturn
define internal fastcc zeroext i1 @chunk_used(%struct.z_heap* noundef %0, i32 noundef %1) unnamed_addr #11 !dbg !5244 {
  call void @llvm.dbg.value(metadata %struct.z_heap* %0, metadata !5248, metadata !DIExpression()), !dbg !5250
  call void @llvm.dbg.value(metadata i32 %1, metadata !5249, metadata !DIExpression()), !dbg !5250
  %3 = tail call fastcc i32 @chunk_field(%struct.z_heap* noundef %0, i32 noundef %1, i32 noundef 1) #37, !dbg !5251
  %4 = and i32 %3, 1, !dbg !5252
  %5 = icmp ne i32 %4, 0, !dbg !5251
  ret i1 %5, !dbg !5253
}

; Function Attrs: mustprogress nofree noinline nosync nounwind optsize willreturn
define internal fastcc void @free_list_remove(%struct.z_heap* noundef %0, i32 noundef %1) unnamed_addr #16 !dbg !5254 {
  call void @llvm.dbg.value(metadata %struct.z_heap* %0, metadata !5256, metadata !DIExpression()), !dbg !5261
  call void @llvm.dbg.value(metadata i32 %1, metadata !5257, metadata !DIExpression()), !dbg !5261
  %3 = tail call fastcc i32 @chunk_size(%struct.z_heap* noundef %0, i32 noundef %1) #37, !dbg !5262, !range !5263
  %4 = tail call fastcc i32 @bucket_idx(%struct.z_heap* noundef %0, i32 noundef %3) #37, !dbg !5264
  call void @llvm.dbg.value(metadata i32 %4, metadata !5258, metadata !DIExpression()), !dbg !5265
  tail call fastcc void @free_list_remove_bidx(%struct.z_heap* noundef %0, i32 noundef %1, i32 noundef %4) #37, !dbg !5266
  ret void, !dbg !5267
}

; Function Attrs: mustprogress nofree noinline norecurse nosync nounwind optsize willreturn
define internal fastcc void @merge_chunks(%struct.z_heap* noundef %0, i32 noundef %1, i32 noundef %2) unnamed_addr #13 !dbg !5268 {
  call void @llvm.dbg.value(metadata %struct.z_heap* %0, metadata !5272, metadata !DIExpression()), !dbg !5277
  call void @llvm.dbg.value(metadata i32 %1, metadata !5273, metadata !DIExpression()), !dbg !5277
  call void @llvm.dbg.value(metadata i32 %2, metadata !5274, metadata !DIExpression()), !dbg !5277
  %4 = tail call fastcc i32 @chunk_size(%struct.z_heap* noundef %0, i32 noundef %1) #37, !dbg !5278
  %5 = tail call fastcc i32 @chunk_size(%struct.z_heap* noundef %0, i32 noundef %2) #37, !dbg !5279
  %6 = add i32 %5, %4, !dbg !5280
  call void @llvm.dbg.value(metadata i32 %6, metadata !5275, metadata !DIExpression()), !dbg !5277
  tail call fastcc void @set_chunk_size(%struct.z_heap* noundef %0, i32 noundef %1, i32 noundef %6) #37, !dbg !5281
  %7 = tail call fastcc i32 @right_chunk(%struct.z_heap* noundef %0, i32 noundef %2) #37, !dbg !5282
  tail call fastcc void @set_left_chunk_size(%struct.z_heap* noundef %0, i32 noundef %7, i32 noundef %6) #37, !dbg !5283
  ret void, !dbg !5284
}

; Function Attrs: mustprogress nofree noinline norecurse nosync nounwind optsize readonly willreturn
define internal fastcc i32 @left_chunk(%struct.z_heap* noundef %0, i32 noundef %1) unnamed_addr #11 !dbg !5285 {
  call void @llvm.dbg.value(metadata %struct.z_heap* %0, metadata !5287, metadata !DIExpression()), !dbg !5289
  call void @llvm.dbg.value(metadata i32 %1, metadata !5288, metadata !DIExpression()), !dbg !5289
  %3 = tail call fastcc i32 @chunk_field(%struct.z_heap* noundef %0, i32 noundef %1, i32 noundef 0) #37, !dbg !5290
  %4 = sub i32 %1, %3, !dbg !5291
  ret i32 %4, !dbg !5292
}

; Function Attrs: mustprogress nofree noinline nosync nounwind optsize willreturn
define internal fastcc void @free_list_add(%struct.z_heap* noundef %0, i32 noundef %1) unnamed_addr #16 !dbg !5293 {
  call void @llvm.dbg.value(metadata %struct.z_heap* %0, metadata !5295, metadata !DIExpression()), !dbg !5300
  call void @llvm.dbg.value(metadata i32 %1, metadata !5296, metadata !DIExpression()), !dbg !5300
  %3 = tail call fastcc i32 @chunk_size(%struct.z_heap* noundef %0, i32 noundef %1) #37, !dbg !5301, !range !5263
  %4 = tail call fastcc i32 @bucket_idx(%struct.z_heap* noundef %0, i32 noundef %3) #37, !dbg !5302
  call void @llvm.dbg.value(metadata i32 %4, metadata !5297, metadata !DIExpression()), !dbg !5303
  tail call fastcc void @free_list_add_bidx(%struct.z_heap* noundef %0, i32 noundef %1, i32 noundef %4) #37, !dbg !5304
  ret void, !dbg !5305
}

; Function Attrs: mustprogress nofree noinline norecurse nosync nounwind optsize readonly willreturn
define internal fastcc i32 @chunk_size(%struct.z_heap* noundef %0, i32 noundef %1) unnamed_addr #11 !dbg !5306 {
  call void @llvm.dbg.value(metadata %struct.z_heap* %0, metadata !5310, metadata !DIExpression()), !dbg !5312
  call void @llvm.dbg.value(metadata i32 %1, metadata !5311, metadata !DIExpression()), !dbg !5312
  %3 = tail call fastcc i32 @chunk_field(%struct.z_heap* noundef %0, i32 noundef %1, i32 noundef 1) #37, !dbg !5313
  %4 = lshr i32 %3, 1, !dbg !5314
  ret i32 %4, !dbg !5315
}

; Function Attrs: mustprogress nofree noinline nosync nounwind optsize readnone willreturn
define internal fastcc i32 @bucket_idx(%struct.z_heap* nocapture noundef readnone %0, i32 noundef %1) unnamed_addr #15 !dbg !5316 {
  call void @llvm.dbg.value(metadata %struct.z_heap* %0, metadata !5320, metadata !DIExpression()), !dbg !5323
  call void @llvm.dbg.value(metadata i32 %1, metadata !5321, metadata !DIExpression()), !dbg !5323
  %3 = tail call fastcc i32 @min_chunk_size(%struct.z_heap* noundef %0) #37, !dbg !5324
  %4 = add i32 %1, 1, !dbg !5325
  %5 = sub i32 %4, %3, !dbg !5326
  call void @llvm.dbg.value(metadata i32 %5, metadata !5322, metadata !DIExpression()), !dbg !5323
  %6 = tail call i32 @llvm.ctlz.i32(i32 %5, i1 false), !dbg !5327, !range !5328
  %7 = sub nsw i32 31, %6, !dbg !5329
  ret i32 %7, !dbg !5330
}

; Function Attrs: mustprogress nofree noinline norecurse nosync nounwind optsize willreturn
define internal fastcc void @free_list_add_bidx(%struct.z_heap* noundef %0, i32 noundef %1, i32 noundef %2) unnamed_addr #13 !dbg !5331 {
  call void @llvm.dbg.value(metadata %struct.z_heap* %0, metadata !5335, metadata !DIExpression()), !dbg !5344
  call void @llvm.dbg.value(metadata i32 %1, metadata !5336, metadata !DIExpression()), !dbg !5344
  call void @llvm.dbg.value(metadata i32 %2, metadata !5337, metadata !DIExpression()), !dbg !5344
  call void @llvm.dbg.value(metadata !DIArgList(%struct.z_heap* %0, i32 %2), metadata !5338, metadata !DIExpression(DW_OP_LLVM_arg, 0, DW_OP_LLVM_arg, 1, DW_OP_constu, 4, DW_OP_mul, DW_OP_plus, DW_OP_plus_uconst, 16, DW_OP_stack_value)), !dbg !5344
  %4 = getelementptr inbounds %struct.z_heap, %struct.z_heap* %0, i32 0, i32 3, i32 %2, i32 0, !dbg !5345
  %5 = load i32, i32* %4, align 4, !dbg !5345
  %6 = icmp eq i32 %5, 0, !dbg !5346
  br i1 %6, label %7, label %12, !dbg !5347

7:                                                ; preds = %3
  %8 = shl nuw i32 1, %2, !dbg !5348
  %9 = getelementptr inbounds %struct.z_heap, %struct.z_heap* %0, i32 0, i32 2, !dbg !5350
  %10 = load i32, i32* %9, align 4, !dbg !5351
  %11 = or i32 %10, %8, !dbg !5351
  store i32 %11, i32* %9, align 4, !dbg !5351
  store i32 %1, i32* %4, align 4, !dbg !5352
  tail call fastcc void @set_prev_free_chunk(%struct.z_heap* noundef nonnull %0, i32 noundef %1, i32 noundef %1) #37, !dbg !5353
  tail call fastcc void @set_next_free_chunk(%struct.z_heap* noundef nonnull %0, i32 noundef %1, i32 noundef %1) #37, !dbg !5354
  br label %14, !dbg !5355

12:                                               ; preds = %3
  call void @llvm.dbg.value(metadata i32 %5, metadata !5340, metadata !DIExpression()), !dbg !5356
  %13 = tail call fastcc i32 @prev_free_chunk(%struct.z_heap* noundef nonnull %0, i32 noundef %5) #37, !dbg !5357, !range !5358
  call void @llvm.dbg.value(metadata i32 %13, metadata !5343, metadata !DIExpression()), !dbg !5356
  tail call fastcc void @set_prev_free_chunk(%struct.z_heap* noundef nonnull %0, i32 noundef %1, i32 noundef %13) #37, !dbg !5359
  tail call fastcc void @set_next_free_chunk(%struct.z_heap* noundef nonnull %0, i32 noundef %1, i32 noundef %5) #37, !dbg !5360
  tail call fastcc void @set_next_free_chunk(%struct.z_heap* noundef nonnull %0, i32 noundef %13, i32 noundef %1) #37, !dbg !5361
  tail call fastcc void @set_prev_free_chunk(%struct.z_heap* noundef nonnull %0, i32 noundef %5, i32 noundef %1) #37, !dbg !5362
  br label %14

14:                                               ; preds = %12, %7
  ret void, !dbg !5363
}

; Function Attrs: mustprogress nofree noinline norecurse nosync nounwind optsize willreturn writeonly
define internal fastcc void @set_prev_free_chunk(%struct.z_heap* noundef %0, i32 noundef %1, i32 noundef %2) unnamed_addr #10 !dbg !5364 {
  call void @llvm.dbg.value(metadata %struct.z_heap* %0, metadata !5366, metadata !DIExpression()), !dbg !5369
  call void @llvm.dbg.value(metadata i32 %1, metadata !5367, metadata !DIExpression()), !dbg !5369
  call void @llvm.dbg.value(metadata i32 %2, metadata !5368, metadata !DIExpression()), !dbg !5369
  tail call fastcc void @chunk_set(%struct.z_heap* noundef %0, i32 noundef %1, i32 noundef 2, i32 noundef %2) #37, !dbg !5370
  ret void, !dbg !5371
}

; Function Attrs: mustprogress nofree noinline norecurse nosync nounwind optsize willreturn writeonly
define internal fastcc void @set_next_free_chunk(%struct.z_heap* noundef %0, i32 noundef %1, i32 noundef %2) unnamed_addr #10 !dbg !5372 {
  call void @llvm.dbg.value(metadata %struct.z_heap* %0, metadata !5374, metadata !DIExpression()), !dbg !5377
  call void @llvm.dbg.value(metadata i32 %1, metadata !5375, metadata !DIExpression()), !dbg !5377
  call void @llvm.dbg.value(metadata i32 %2, metadata !5376, metadata !DIExpression()), !dbg !5377
  tail call fastcc void @chunk_set(%struct.z_heap* noundef %0, i32 noundef %1, i32 noundef 3, i32 noundef %2) #37, !dbg !5378
  ret void, !dbg !5379
}

; Function Attrs: mustprogress nofree noinline norecurse nosync nounwind optsize readonly willreturn
define internal fastcc i32 @prev_free_chunk(%struct.z_heap* noundef readonly %0, i32 noundef %1) unnamed_addr #11 !dbg !5380 {
  call void @llvm.dbg.value(metadata %struct.z_heap* %0, metadata !5382, metadata !DIExpression()), !dbg !5384
  call void @llvm.dbg.value(metadata i32 %1, metadata !5383, metadata !DIExpression()), !dbg !5384
  %3 = tail call fastcc i32 @chunk_field(%struct.z_heap* noundef %0, i32 noundef %1, i32 noundef 2) #37, !dbg !5385
  ret i32 %3, !dbg !5386
}

; Function Attrs: mustprogress nofree noinline norecurse nosync nounwind optsize readonly willreturn
define internal fastcc i32 @chunk_field(%struct.z_heap* noundef readonly %0, i32 noundef %1, i32 noundef %2) unnamed_addr #11 !dbg !5387 {
  call void @llvm.dbg.value(metadata %struct.z_heap* %0, metadata !5391, metadata !DIExpression()), !dbg !5396
  call void @llvm.dbg.value(metadata i32 %1, metadata !5392, metadata !DIExpression()), !dbg !5396
  call void @llvm.dbg.value(metadata i32 %2, metadata !5393, metadata !DIExpression()), !dbg !5396
  %4 = tail call fastcc %struct.chunk_unit_t* @chunk_buf(%struct.z_heap* noundef %0) #37, !dbg !5397
  call void @llvm.dbg.value(metadata %struct.chunk_unit_t* %4, metadata !5394, metadata !DIExpression()), !dbg !5396
  call void @llvm.dbg.value(metadata !DIArgList(%struct.chunk_unit_t* %4, i32 %1), metadata !5395, metadata !DIExpression(DW_OP_LLVM_arg, 0, DW_OP_LLVM_arg, 1, DW_OP_constu, 8, DW_OP_mul, DW_OP_plus, DW_OP_stack_value)), !dbg !5396
  call void @llvm.dbg.value(metadata !DIArgList(%struct.chunk_unit_t* %4, i32 %1), metadata !5395, metadata !DIExpression(DW_OP_LLVM_arg, 0, DW_OP_LLVM_arg, 1, DW_OP_constu, 8, DW_OP_mul, DW_OP_plus, DW_OP_stack_value)), !dbg !5396
  %5 = getelementptr inbounds %struct.chunk_unit_t, %struct.chunk_unit_t* %4, i32 %1, i32 0, i32 0, !dbg !5398
  call void @llvm.dbg.value(metadata i8* %5, metadata !5395, metadata !DIExpression()), !dbg !5396
  %6 = bitcast i8* %5 to i16*, !dbg !5399
  %7 = getelementptr inbounds i16, i16* %6, i32 %2, !dbg !5402
  %8 = load i16, i16* %7, align 2, !dbg !5402
  %9 = zext i16 %8 to i32, !dbg !5402
  ret i32 %9, !dbg !5403
}

; Function Attrs: mustprogress nofree noinline norecurse nosync nounwind optsize readnone willreturn
define internal fastcc %struct.chunk_unit_t* @chunk_buf(%struct.z_heap* noundef readnone %0) unnamed_addr #17 !dbg !5404 {
  call void @llvm.dbg.value(metadata %struct.z_heap* %0, metadata !5408, metadata !DIExpression()), !dbg !5409
  %2 = bitcast %struct.z_heap* %0 to %struct.chunk_unit_t*, !dbg !5410
  ret %struct.chunk_unit_t* %2, !dbg !5411
}

; Function Attrs: mustprogress nofree noinline norecurse nosync nounwind optsize willreturn writeonly
define internal fastcc void @chunk_set(%struct.z_heap* noundef writeonly %0, i32 noundef %1, i32 noundef %2, i32 noundef %3) unnamed_addr #10 !dbg !5412 {
  call void @llvm.dbg.value(metadata %struct.z_heap* %0, metadata !5416, metadata !DIExpression()), !dbg !5422
  call void @llvm.dbg.value(metadata i32 %1, metadata !5417, metadata !DIExpression()), !dbg !5422
  call void @llvm.dbg.value(metadata i32 %2, metadata !5418, metadata !DIExpression()), !dbg !5422
  call void @llvm.dbg.value(metadata i32 %3, metadata !5419, metadata !DIExpression()), !dbg !5422
  %5 = tail call fastcc %struct.chunk_unit_t* @chunk_buf(%struct.z_heap* noundef %0) #37, !dbg !5423
  call void @llvm.dbg.value(metadata %struct.chunk_unit_t* %5, metadata !5420, metadata !DIExpression()), !dbg !5422
  call void @llvm.dbg.value(metadata !DIArgList(%struct.chunk_unit_t* %5, i32 %1), metadata !5421, metadata !DIExpression(DW_OP_LLVM_arg, 0, DW_OP_LLVM_arg, 1, DW_OP_constu, 8, DW_OP_mul, DW_OP_plus, DW_OP_stack_value)), !dbg !5422
  %6 = getelementptr inbounds %struct.chunk_unit_t, %struct.chunk_unit_t* %5, i32 %1, i32 0, i32 0, !dbg !5424
  call void @llvm.dbg.value(metadata i8* %6, metadata !5421, metadata !DIExpression()), !dbg !5422
  %7 = trunc i32 %3 to i16, !dbg !5425
  %8 = bitcast i8* %6 to i16*, !dbg !5428
  %9 = getelementptr inbounds i16, i16* %8, i32 %2, !dbg !5429
  store i16 %7, i16* %9, align 2, !dbg !5430
  ret void, !dbg !5431
}

; Function Attrs: mustprogress nofree noinline norecurse nosync nounwind optsize readnone willreturn
define internal fastcc i32 @min_chunk_size(%struct.z_heap* nocapture noundef readnone %0) unnamed_addr #17 !dbg !5432 {
  call void @llvm.dbg.value(metadata %struct.z_heap* %0, metadata !5436, metadata !DIExpression()), !dbg !5437
  %2 = tail call fastcc i32 @bytes_to_chunksz(%struct.z_heap* noundef %0, i32 noundef 1) #37, !dbg !5438
  ret i32 %2, !dbg !5439
}

; Function Attrs: nofree nosync nounwind readnone speculatable willreturn
declare i32 @llvm.ctlz.i32(i32, i1 immarg) #4

; Function Attrs: mustprogress nofree noinline norecurse nosync nounwind optsize readnone willreturn
define internal fastcc i32 @bytes_to_chunksz(%struct.z_heap* nocapture noundef readnone %0, i32 noundef %1) unnamed_addr #17 !dbg !5440 {
  call void @llvm.dbg.value(metadata %struct.z_heap* %0, metadata !5444, metadata !DIExpression()), !dbg !5446
  call void @llvm.dbg.value(metadata i32 %1, metadata !5445, metadata !DIExpression()), !dbg !5446
  %3 = add i32 %1, 4, !dbg !5447
  %4 = tail call fastcc i32 @chunksz(i32 noundef %3) #37, !dbg !5448
  ret i32 %4, !dbg !5449
}

; Function Attrs: mustprogress nofree noinline norecurse nosync nounwind optsize readnone willreturn
define internal fastcc i32 @chunksz(i32 noundef %0) unnamed_addr #17 !dbg !5450 {
  call void @llvm.dbg.value(metadata i32 %0, metadata !5454, metadata !DIExpression()), !dbg !5455
  %2 = add i32 %0, 7, !dbg !5456
  %3 = lshr i32 %2, 3, !dbg !5457
  ret i32 %3, !dbg !5458
}

; Function Attrs: mustprogress nofree noinline norecurse nosync nounwind optsize willreturn writeonly
define internal fastcc void @set_chunk_size(%struct.z_heap* noundef %0, i32 noundef %1, i32 noundef %2) unnamed_addr #10 !dbg !5459 {
  call void @llvm.dbg.value(metadata %struct.z_heap* %0, metadata !5463, metadata !DIExpression()), !dbg !5466
  call void @llvm.dbg.value(metadata i32 %1, metadata !5464, metadata !DIExpression()), !dbg !5466
  call void @llvm.dbg.value(metadata i32 %2, metadata !5465, metadata !DIExpression()), !dbg !5466
  %4 = shl i32 %2, 1, !dbg !5467
  tail call fastcc void @chunk_set(%struct.z_heap* noundef %0, i32 noundef %1, i32 noundef 1, i32 noundef %4) #37, !dbg !5468
  ret void, !dbg !5469
}

; Function Attrs: mustprogress nofree noinline norecurse nosync nounwind optsize willreturn writeonly
define internal fastcc void @set_left_chunk_size(%struct.z_heap* noundef %0, i32 noundef %1, i32 noundef %2) unnamed_addr #10 !dbg !5470 {
  call void @llvm.dbg.value(metadata %struct.z_heap* %0, metadata !5472, metadata !DIExpression()), !dbg !5475
  call void @llvm.dbg.value(metadata i32 %1, metadata !5473, metadata !DIExpression()), !dbg !5475
  call void @llvm.dbg.value(metadata i32 %2, metadata !5474, metadata !DIExpression()), !dbg !5475
  tail call fastcc void @chunk_set(%struct.z_heap* noundef %0, i32 noundef %1, i32 noundef 0, i32 noundef %2) #37, !dbg !5476
  ret void, !dbg !5477
}

; Function Attrs: mustprogress nofree noinline norecurse nosync nounwind optsize willreturn
define internal fastcc void @free_list_remove_bidx(%struct.z_heap* noundef %0, i32 noundef %1, i32 noundef %2) unnamed_addr #13 !dbg !5478 {
  call void @llvm.dbg.value(metadata %struct.z_heap* %0, metadata !5480, metadata !DIExpression()), !dbg !5488
  call void @llvm.dbg.value(metadata i32 %1, metadata !5481, metadata !DIExpression()), !dbg !5488
  call void @llvm.dbg.value(metadata i32 %2, metadata !5482, metadata !DIExpression()), !dbg !5488
  %4 = getelementptr inbounds %struct.z_heap, %struct.z_heap* %0, i32 0, i32 3, i32 %2, !dbg !5489
  call void @llvm.dbg.value(metadata %struct.z_heap_bucket* %4, metadata !5483, metadata !DIExpression()), !dbg !5488
  %5 = tail call fastcc i32 @next_free_chunk(%struct.z_heap* noundef %0, i32 noundef %1) #37, !dbg !5490
  %6 = icmp eq i32 %5, %1, !dbg !5491
  br i1 %6, label %7, label %14, !dbg !5492

7:                                                ; preds = %3
  %8 = shl nuw i32 1, %2, !dbg !5493
  %9 = xor i32 %8, -1, !dbg !5495
  %10 = getelementptr inbounds %struct.z_heap, %struct.z_heap* %0, i32 0, i32 2, !dbg !5496
  %11 = load i32, i32* %10, align 4, !dbg !5497
  %12 = and i32 %11, %9, !dbg !5497
  store i32 %12, i32* %10, align 4, !dbg !5497
  %13 = getelementptr inbounds %struct.z_heap_bucket, %struct.z_heap_bucket* %4, i32 0, i32 0, !dbg !5498
  store i32 0, i32* %13, align 4, !dbg !5499
  br label %17, !dbg !5500

14:                                               ; preds = %3
  %15 = tail call fastcc i32 @prev_free_chunk(%struct.z_heap* noundef %0, i32 noundef %1) #37, !dbg !5501
  call void @llvm.dbg.value(metadata i32 %15, metadata !5484, metadata !DIExpression()), !dbg !5502
  call void @llvm.dbg.value(metadata i32 %5, metadata !5487, metadata !DIExpression()), !dbg !5502
  %16 = getelementptr inbounds %struct.z_heap_bucket, %struct.z_heap_bucket* %4, i32 0, i32 0, !dbg !5503
  store i32 %5, i32* %16, align 4, !dbg !5504
  tail call fastcc void @set_next_free_chunk(%struct.z_heap* noundef %0, i32 noundef %15, i32 noundef %5) #37, !dbg !5505
  tail call fastcc void @set_prev_free_chunk(%struct.z_heap* noundef %0, i32 noundef %5, i32 noundef %15) #37, !dbg !5506
  br label %17

17:                                               ; preds = %14, %7
  ret void, !dbg !5507
}

; Function Attrs: mustprogress nofree noinline norecurse nosync nounwind optsize readonly willreturn
define internal fastcc i32 @next_free_chunk(%struct.z_heap* noundef readonly %0, i32 noundef %1) unnamed_addr #11 !dbg !5508 {
  call void @llvm.dbg.value(metadata %struct.z_heap* %0, metadata !5510, metadata !DIExpression()), !dbg !5512
  call void @llvm.dbg.value(metadata i32 %1, metadata !5511, metadata !DIExpression()), !dbg !5512
  %3 = tail call fastcc i32 @chunk_field(%struct.z_heap* noundef %0, i32 noundef %1, i32 noundef 3) #37, !dbg !5513
  ret i32 %3, !dbg !5514
}

; Function Attrs: mustprogress nofree noinline norecurse nosync nounwind optsize readonly willreturn
define dso_local i32 @sys_heap_usable_size(%struct.sys_heap* nocapture noundef readonly %0, i8* noundef %1) local_unnamed_addr #11 !dbg !5515 {
  call void @llvm.dbg.value(metadata %struct.sys_heap* %0, metadata !5519, metadata !DIExpression()), !dbg !5526
  call void @llvm.dbg.value(metadata i8* %1, metadata !5520, metadata !DIExpression()), !dbg !5526
  %3 = getelementptr inbounds %struct.sys_heap, %struct.sys_heap* %0, i32 0, i32 0, !dbg !5527
  %4 = load %struct.z_heap*, %struct.z_heap** %3, align 4, !dbg !5527
  call void @llvm.dbg.value(metadata %struct.z_heap* %4, metadata !5521, metadata !DIExpression()), !dbg !5526
  %5 = tail call fastcc i32 @mem_to_chunkid(%struct.z_heap* noundef %4, i8* noundef %1) #37, !dbg !5528
  call void @llvm.dbg.value(metadata i32 %5, metadata !5522, metadata !DIExpression()), !dbg !5526
  %6 = ptrtoint i8* %1 to i32, !dbg !5529
  call void @llvm.dbg.value(metadata i32 %6, metadata !5523, metadata !DIExpression()), !dbg !5526
  %7 = tail call fastcc %struct.chunk_unit_t* @chunk_buf(%struct.z_heap* noundef %4) #37, !dbg !5530
  %8 = getelementptr inbounds %struct.chunk_unit_t, %struct.chunk_unit_t* %7, i32 %5, !dbg !5530
  %9 = ptrtoint %struct.chunk_unit_t* %8 to i32, !dbg !5531
  call void @llvm.dbg.value(metadata i32 %9, metadata !5524, metadata !DIExpression()), !dbg !5526
  %10 = tail call fastcc i32 @chunk_size(%struct.z_heap* noundef %4, i32 noundef %5) #37, !dbg !5532
  %11 = shl i32 %10, 3, !dbg !5533
  call void @llvm.dbg.value(metadata i32 %11, metadata !5525, metadata !DIExpression()), !dbg !5526
  %12 = sub i32 %9, %6, !dbg !5534
  %13 = add i32 %12, %11, !dbg !5535
  ret i32 %13, !dbg !5536
}

; Function Attrs: nofree noinline nosync nounwind optsize
define dso_local i8* @sys_heap_alloc(%struct.sys_heap* nocapture noundef readonly %0, i32 noundef %1) local_unnamed_addr #18 !dbg !5537 {
  call void @llvm.dbg.value(metadata %struct.sys_heap* %0, metadata !5541, metadata !DIExpression()), !dbg !5547
  call void @llvm.dbg.value(metadata i32 %1, metadata !5542, metadata !DIExpression()), !dbg !5547
  %3 = getelementptr inbounds %struct.sys_heap, %struct.sys_heap* %0, i32 0, i32 0, !dbg !5548
  %4 = load %struct.z_heap*, %struct.z_heap** %3, align 4, !dbg !5548
  call void @llvm.dbg.value(metadata %struct.z_heap* %4, metadata !5543, metadata !DIExpression()), !dbg !5547
  %5 = icmp eq i32 %1, 0, !dbg !5549
  br i1 %5, label %19, label %6, !dbg !5551

6:                                                ; preds = %2
  %7 = tail call fastcc zeroext i1 @size_too_big(%struct.z_heap* noundef %4, i32 noundef %1) #37, !dbg !5552
  br i1 %7, label %19, label %8, !dbg !5553

8:                                                ; preds = %6
  %9 = tail call fastcc i32 @bytes_to_chunksz(%struct.z_heap* noundef %4, i32 noundef %1) #37, !dbg !5554, !range !5170
  call void @llvm.dbg.value(metadata i32 %9, metadata !5545, metadata !DIExpression()), !dbg !5547
  %10 = tail call fastcc i32 @alloc_chunk(%struct.z_heap* noundef %4, i32 noundef %9) #37, !dbg !5555
  call void @llvm.dbg.value(metadata i32 %10, metadata !5546, metadata !DIExpression()), !dbg !5547
  %11 = icmp eq i32 %10, 0, !dbg !5556
  br i1 %11, label %19, label %12, !dbg !5558

12:                                               ; preds = %8
  %13 = tail call fastcc i32 @chunk_size(%struct.z_heap* noundef %4, i32 noundef %10) #37, !dbg !5559
  %14 = icmp ugt i32 %13, %9, !dbg !5561
  br i1 %14, label %15, label %17, !dbg !5562

15:                                               ; preds = %12
  %16 = add i32 %10, %9, !dbg !5563
  tail call fastcc void @split_chunks(%struct.z_heap* noundef %4, i32 noundef %10, i32 noundef %16) #37, !dbg !5565
  tail call fastcc void @free_list_add(%struct.z_heap* noundef %4, i32 noundef %16) #37, !dbg !5566
  br label %17, !dbg !5567

17:                                               ; preds = %15, %12
  tail call fastcc void @set_chunk_used(%struct.z_heap* noundef %4, i32 noundef %10, i1 noundef zeroext true) #37, !dbg !5568
  %18 = tail call fastcc i8* @chunk_mem(%struct.z_heap* noundef %4, i32 noundef %10) #37, !dbg !5569
  call void @llvm.dbg.value(metadata i8* %18, metadata !5544, metadata !DIExpression()), !dbg !5547
  br label %19, !dbg !5570

19:                                               ; preds = %17, %8, %2, %6
  %20 = phi i8* [ null, %6 ], [ null, %2 ], [ %18, %17 ], [ null, %8 ], !dbg !5547
  ret i8* %20, !dbg !5571
}

; Function Attrs: mustprogress nofree noinline norecurse nosync nounwind optsize readonly willreturn
define internal fastcc zeroext i1 @size_too_big(%struct.z_heap* nocapture noundef readonly %0, i32 noundef %1) unnamed_addr #11 !dbg !5572 {
  call void @llvm.dbg.value(metadata %struct.z_heap* %0, metadata !5576, metadata !DIExpression()), !dbg !5578
  call void @llvm.dbg.value(metadata i32 %1, metadata !5577, metadata !DIExpression()), !dbg !5578
  %3 = lshr i32 %1, 3, !dbg !5579
  %4 = getelementptr inbounds %struct.z_heap, %struct.z_heap* %0, i32 0, i32 1, !dbg !5580
  %5 = load i32, i32* %4, align 4, !dbg !5580
  %6 = icmp uge i32 %3, %5, !dbg !5581
  ret i1 %6, !dbg !5582
}

; Function Attrs: nofree noinline nosync nounwind optsize
define internal fastcc i32 @alloc_chunk(%struct.z_heap* noundef %0, i32 noundef %1) unnamed_addr #18 !dbg !5583 {
  call void @llvm.dbg.value(metadata %struct.z_heap* %0, metadata !5587, metadata !DIExpression()), !dbg !5602
  call void @llvm.dbg.value(metadata i32 %1, metadata !5588, metadata !DIExpression()), !dbg !5602
  %3 = tail call fastcc i32 @bucket_idx(%struct.z_heap* noundef %0, i32 noundef %1) #37, !dbg !5603
  call void @llvm.dbg.value(metadata i32 %3, metadata !5589, metadata !DIExpression()), !dbg !5602
  call void @llvm.dbg.value(metadata !DIArgList(%struct.z_heap* %0, i32 %3), metadata !5590, metadata !DIExpression(DW_OP_LLVM_arg, 0, DW_OP_LLVM_arg, 1, DW_OP_constu, 4, DW_OP_mul, DW_OP_plus, DW_OP_plus_uconst, 16, DW_OP_stack_value)), !dbg !5602
  %4 = getelementptr inbounds %struct.z_heap, %struct.z_heap* %0, i32 0, i32 3, i32 %3, i32 0, !dbg !5604
  %5 = load i32, i32* %4, align 4, !dbg !5604
  %6 = icmp eq i32 %5, 0, !dbg !5605
  br i1 %6, label %19, label %7, !dbg !5606

7:                                                ; preds = %2, %13
  %8 = phi i32 [ %14, %13 ], [ %5, %2 ], !dbg !5607
  %9 = phi i32 [ %15, %13 ], [ 3, %2 ], !dbg !5608
  call void @llvm.dbg.value(metadata i32 %9, metadata !5594, metadata !DIExpression()), !dbg !5608
  call void @llvm.dbg.value(metadata i32 %8, metadata !5595, metadata !DIExpression()), !dbg !5609
  %10 = tail call fastcc i32 @chunk_size(%struct.z_heap* noundef nonnull %0, i32 noundef %8) #37, !dbg !5610
  %11 = icmp ult i32 %10, %1, !dbg !5612
  br i1 %11, label %13, label %12, !dbg !5613

12:                                               ; preds = %7
  tail call fastcc void @free_list_remove_bidx(%struct.z_heap* noundef nonnull %0, i32 noundef %8, i32 noundef %3) #37, !dbg !5614
  br label %30

13:                                               ; preds = %7
  %14 = tail call fastcc i32 @next_free_chunk(%struct.z_heap* noundef nonnull %0, i32 noundef %8) #37, !dbg !5616
  store i32 %14, i32* %4, align 4, !dbg !5617
  %15 = add nsw i32 %9, -1, !dbg !5618
  call void @llvm.dbg.value(metadata i32 %15, metadata !5594, metadata !DIExpression()), !dbg !5608
  %16 = icmp eq i32 %15, 0, !dbg !5618
  %17 = icmp eq i32 %14, %5
  %18 = select i1 %16, i1 true, i1 %17, !dbg !5619
  br i1 %18, label %19, label %7, !dbg !5619, !llvm.loop !5620

19:                                               ; preds = %13, %2
  %20 = getelementptr inbounds %struct.z_heap, %struct.z_heap* %0, i32 0, i32 2, !dbg !5623
  %21 = load i32, i32* %20, align 4, !dbg !5623
  %22 = add nsw i32 %3, 1, !dbg !5624
  %23 = shl nsw i32 -1, %22, !dbg !5624
  %24 = and i32 %21, %23, !dbg !5625
  call void @llvm.dbg.value(metadata i32 %24, metadata !5597, metadata !DIExpression()), !dbg !5602
  %25 = icmp eq i32 %24, 0, !dbg !5626
  br i1 %25, label %30, label %26, !dbg !5627

26:                                               ; preds = %19
  %27 = tail call i32 @llvm.cttz.i32(i32 %24, i1 true), !dbg !5628, !range !5328
  call void @llvm.dbg.value(metadata i32 %27, metadata !5598, metadata !DIExpression()), !dbg !5629
  %28 = getelementptr inbounds %struct.z_heap, %struct.z_heap* %0, i32 0, i32 3, i32 %27, i32 0, !dbg !5630
  %29 = load i32, i32* %28, align 4, !dbg !5630
  call void @llvm.dbg.value(metadata i32 %29, metadata !5601, metadata !DIExpression()), !dbg !5629
  tail call fastcc void @free_list_remove_bidx(%struct.z_heap* noundef nonnull %0, i32 noundef %29, i32 noundef %27) #37, !dbg !5631
  br label %30

30:                                               ; preds = %12, %26, %19
  %31 = phi i32 [ %29, %26 ], [ 0, %19 ], [ %8, %12 ], !dbg !5602
  ret i32 %31, !dbg !5632
}

; Function Attrs: mustprogress nofree noinline norecurse nosync nounwind optsize willreturn
define internal fastcc void @split_chunks(%struct.z_heap* noundef %0, i32 noundef %1, i32 noundef %2) unnamed_addr #13 !dbg !5633 {
  call void @llvm.dbg.value(metadata %struct.z_heap* %0, metadata !5635, metadata !DIExpression()), !dbg !5641
  call void @llvm.dbg.value(metadata i32 %1, metadata !5636, metadata !DIExpression()), !dbg !5641
  call void @llvm.dbg.value(metadata i32 %2, metadata !5637, metadata !DIExpression()), !dbg !5641
  %4 = tail call fastcc i32 @chunk_size(%struct.z_heap* noundef %0, i32 noundef %1) #37, !dbg !5642
  call void @llvm.dbg.value(metadata i32 %4, metadata !5638, metadata !DIExpression()), !dbg !5641
  %5 = sub i32 %2, %1, !dbg !5643
  call void @llvm.dbg.value(metadata i32 %5, metadata !5639, metadata !DIExpression()), !dbg !5641
  %6 = sub i32 %4, %5, !dbg !5644
  call void @llvm.dbg.value(metadata i32 %6, metadata !5640, metadata !DIExpression()), !dbg !5641
  tail call fastcc void @set_chunk_size(%struct.z_heap* noundef %0, i32 noundef %1, i32 noundef %5) #37, !dbg !5645
  tail call fastcc void @set_chunk_size(%struct.z_heap* noundef %0, i32 noundef %2, i32 noundef %6) #37, !dbg !5646
  tail call fastcc void @set_left_chunk_size(%struct.z_heap* noundef %0, i32 noundef %2, i32 noundef %5) #37, !dbg !5647
  %7 = tail call fastcc i32 @right_chunk(%struct.z_heap* noundef %0, i32 noundef %2) #37, !dbg !5648
  tail call fastcc void @set_left_chunk_size(%struct.z_heap* noundef %0, i32 noundef %7, i32 noundef %6) #37, !dbg !5649
  ret void, !dbg !5650
}

; Function Attrs: mustprogress nofree noinline norecurse nosync nounwind optsize readnone willreturn
define internal fastcc nonnull i8* @chunk_mem(%struct.z_heap* noundef readnone %0, i32 noundef %1) unnamed_addr #17 !dbg !5651 {
  call void @llvm.dbg.value(metadata %struct.z_heap* %0, metadata !5655, metadata !DIExpression()), !dbg !5659
  call void @llvm.dbg.value(metadata i32 %1, metadata !5656, metadata !DIExpression()), !dbg !5659
  %3 = tail call fastcc %struct.chunk_unit_t* @chunk_buf(%struct.z_heap* noundef %0) #37, !dbg !5660
  call void @llvm.dbg.value(metadata %struct.chunk_unit_t* %3, metadata !5657, metadata !DIExpression()), !dbg !5659
  %4 = getelementptr inbounds %struct.chunk_unit_t, %struct.chunk_unit_t* %3, i32 %1, i32 0, i32 4, !dbg !5661
  call void @llvm.dbg.value(metadata i8* %4, metadata !5658, metadata !DIExpression()), !dbg !5659
  ret i8* %4, !dbg !5662
}

; Function Attrs: nofree nosync nounwind readnone speculatable willreturn
declare i32 @llvm.cttz.i32(i32, i1 immarg) #4

; Function Attrs: nofree noinline nosync nounwind optsize
define dso_local i8* @sys_heap_aligned_alloc(%struct.sys_heap* nocapture noundef readonly %0, i32 noundef %1, i32 noundef %2) local_unnamed_addr #18 !dbg !5663 {
  call void @llvm.dbg.value(metadata %struct.sys_heap* %0, metadata !5667, metadata !DIExpression()), !dbg !5679
  call void @llvm.dbg.value(metadata i32 %1, metadata !5668, metadata !DIExpression()), !dbg !5679
  call void @llvm.dbg.value(metadata i32 %2, metadata !5669, metadata !DIExpression()), !dbg !5679
  %4 = getelementptr inbounds %struct.sys_heap, %struct.sys_heap* %0, i32 0, i32 0, !dbg !5680
  %5 = load %struct.z_heap*, %struct.z_heap** %4, align 4, !dbg !5680
  call void @llvm.dbg.value(metadata %struct.z_heap* %5, metadata !5670, metadata !DIExpression()), !dbg !5679
  %6 = sub i32 0, %1, !dbg !5681
  %7 = and i32 %6, %1, !dbg !5682
  call void @llvm.dbg.value(metadata i32 %7, metadata !5672, metadata !DIExpression()), !dbg !5679
  %8 = icmp eq i32 %7, %1, !dbg !5683
  br i1 %8, label %13, label %9, !dbg !5685

9:                                                ; preds = %3
  %10 = sub i32 %1, %7, !dbg !5686
  call void @llvm.dbg.value(metadata i32 %10, metadata !5668, metadata !DIExpression()), !dbg !5679
  %11 = icmp ult i32 %7, 4, !dbg !5688
  %12 = select i1 %11, i32 %7, i32 4, !dbg !5688
  br label %17, !dbg !5688

13:                                               ; preds = %3
  %14 = icmp ult i32 %1, 5, !dbg !5689
  br i1 %14, label %15, label %17, !dbg !5692

15:                                               ; preds = %13
  %16 = tail call i8* @sys_heap_alloc(%struct.sys_heap* noundef nonnull %0, i32 noundef %2) #37, !dbg !5693
  br label %57, !dbg !5695

17:                                               ; preds = %9, %13
  %18 = phi i32 [ 0, %13 ], [ %7, %9 ], !dbg !5679
  %19 = phi i32 [ 4, %13 ], [ %12, %9 ], !dbg !5696
  %20 = phi i32 [ %1, %13 ], [ %10, %9 ]
  call void @llvm.dbg.value(metadata i32 %20, metadata !5668, metadata !DIExpression()), !dbg !5679
  call void @llvm.dbg.value(metadata i32 %19, metadata !5671, metadata !DIExpression()), !dbg !5679
  call void @llvm.dbg.value(metadata i32 %18, metadata !5672, metadata !DIExpression()), !dbg !5679
  %21 = icmp eq i32 %2, 0, !dbg !5697
  br i1 %21, label %57, label %22, !dbg !5699

22:                                               ; preds = %17
  %23 = tail call fastcc zeroext i1 @size_too_big(%struct.z_heap* noundef %5, i32 noundef %2) #37, !dbg !5700
  br i1 %23, label %57, label %24, !dbg !5701

24:                                               ; preds = %22
  %25 = sub i32 %2, %19, !dbg !5702
  %26 = add i32 %25, %20, !dbg !5703
  %27 = tail call fastcc i32 @bytes_to_chunksz(%struct.z_heap* noundef %5, i32 noundef %26) #37, !dbg !5704, !range !5170
  call void @llvm.dbg.value(metadata i32 %27, metadata !5673, metadata !DIExpression()), !dbg !5679
  %28 = tail call fastcc i32 @alloc_chunk(%struct.z_heap* noundef %5, i32 noundef %27) #37, !dbg !5705
  call void @llvm.dbg.value(metadata i32 %28, metadata !5674, metadata !DIExpression()), !dbg !5679
  %29 = icmp eq i32 %28, 0, !dbg !5706
  br i1 %29, label %57, label %30, !dbg !5708

30:                                               ; preds = %24
  %31 = tail call fastcc i8* @chunk_mem(%struct.z_heap* noundef %5, i32 noundef %28) #37, !dbg !5709
  call void @llvm.dbg.value(metadata i8* %31, metadata !5675, metadata !DIExpression()), !dbg !5679
  %32 = getelementptr inbounds i8, i8* %31, i32 %18, !dbg !5710
  %33 = ptrtoint i8* %32 to i32, !dbg !5710
  %34 = add i32 %20, -1, !dbg !5710
  %35 = add i32 %34, %33, !dbg !5710
  %36 = sub i32 0, %20, !dbg !5710
  %37 = and i32 %35, %36, !dbg !5710
  %38 = inttoptr i32 %37 to i8*, !dbg !5711
  %39 = sub i32 0, %18, !dbg !5712
  %40 = getelementptr inbounds i8, i8* %38, i32 %39, !dbg !5712
  call void @llvm.dbg.value(metadata i8* %40, metadata !5675, metadata !DIExpression()), !dbg !5679
  %41 = getelementptr inbounds i8, i8* %40, i32 %2, !dbg !5713
  %42 = ptrtoint i8* %41 to i32, !dbg !5713
  %43 = add i32 %42, 7, !dbg !5713
  %44 = and i32 %43, -8, !dbg !5713
  call void @llvm.dbg.value(metadata i32 %44, metadata !5676, metadata !DIExpression()), !dbg !5679
  %45 = tail call fastcc i32 @mem_to_chunkid(%struct.z_heap* noundef %5, i8* noundef %40) #37, !dbg !5714
  call void @llvm.dbg.value(metadata i32 %45, metadata !5677, metadata !DIExpression()), !dbg !5679
  %46 = tail call fastcc %struct.chunk_unit_t* @chunk_buf(%struct.z_heap* noundef %5) #37, !dbg !5715
  %47 = ptrtoint %struct.chunk_unit_t* %46 to i32, !dbg !5716
  %48 = sub i32 %44, %47, !dbg !5716
  %49 = ashr exact i32 %48, 3, !dbg !5716
  call void @llvm.dbg.value(metadata i32 %49, metadata !5678, metadata !DIExpression()), !dbg !5679
  %50 = icmp ugt i32 %45, %28, !dbg !5717
  br i1 %50, label %51, label %52, !dbg !5719

51:                                               ; preds = %30
  tail call fastcc void @split_chunks(%struct.z_heap* noundef %5, i32 noundef %28, i32 noundef %45) #37, !dbg !5720
  tail call fastcc void @free_list_add(%struct.z_heap* noundef %5, i32 noundef %28) #37, !dbg !5722
  br label %52, !dbg !5723

52:                                               ; preds = %51, %30
  %53 = tail call fastcc i32 @right_chunk(%struct.z_heap* noundef %5, i32 noundef %45) #37, !dbg !5724
  %54 = icmp ugt i32 %53, %49, !dbg !5726
  br i1 %54, label %55, label %56, !dbg !5727

55:                                               ; preds = %52
  tail call fastcc void @split_chunks(%struct.z_heap* noundef %5, i32 noundef %45, i32 noundef %49) #37, !dbg !5728
  tail call fastcc void @free_list_add(%struct.z_heap* noundef %5, i32 noundef %49) #37, !dbg !5730
  br label %56, !dbg !5731

56:                                               ; preds = %55, %52
  tail call fastcc void @set_chunk_used(%struct.z_heap* noundef %5, i32 noundef %45, i1 noundef zeroext true) #37, !dbg !5732
  br label %57

57:                                               ; preds = %56, %24, %17, %22, %15
  %58 = phi i8* [ %16, %15 ], [ null, %22 ], [ null, %17 ], [ %40, %56 ], [ null, %24 ], !dbg !5679
  ret i8* %58, !dbg !5733
}

; Function Attrs: noinline nounwind optsize
define dso_local i8* @sys_heap_aligned_realloc(%struct.sys_heap* nocapture noundef readonly %0, i8* noundef %1, i32 noundef %2, i32 noundef %3) local_unnamed_addr #1 !dbg !5734 {
  call void @llvm.dbg.value(metadata %struct.sys_heap* %0, metadata !5738, metadata !DIExpression()), !dbg !5757
  call void @llvm.dbg.value(metadata i8* %1, metadata !5739, metadata !DIExpression()), !dbg !5757
  call void @llvm.dbg.value(metadata i32 %2, metadata !5740, metadata !DIExpression()), !dbg !5757
  call void @llvm.dbg.value(metadata i32 %3, metadata !5741, metadata !DIExpression()), !dbg !5757
  %5 = getelementptr inbounds %struct.sys_heap, %struct.sys_heap* %0, i32 0, i32 0, !dbg !5758
  %6 = load %struct.z_heap*, %struct.z_heap** %5, align 4, !dbg !5758
  call void @llvm.dbg.value(metadata %struct.z_heap* %6, metadata !5742, metadata !DIExpression()), !dbg !5757
  %7 = icmp eq i8* %1, null, !dbg !5759
  br i1 %7, label %8, label %10, !dbg !5761

8:                                                ; preds = %4
  %9 = tail call i8* @sys_heap_aligned_alloc(%struct.sys_heap* noundef nonnull %0, i32 noundef %2, i32 noundef %3) #37, !dbg !5762
  br label %59, !dbg !5764

10:                                               ; preds = %4
  %11 = icmp eq i32 %3, 0, !dbg !5765
  br i1 %11, label %12, label %13, !dbg !5767

12:                                               ; preds = %10
  tail call void @sys_heap_free(%struct.sys_heap* noundef nonnull %0, i8* noundef nonnull %1) #37, !dbg !5768
  br label %59, !dbg !5770

13:                                               ; preds = %10
  %14 = tail call fastcc zeroext i1 @size_too_big(%struct.z_heap* noundef %6, i32 noundef %3) #37, !dbg !5771
  br i1 %14, label %59, label %15, !dbg !5773

15:                                               ; preds = %13
  %16 = tail call fastcc i32 @mem_to_chunkid(%struct.z_heap* noundef %6, i8* noundef nonnull %1) #37, !dbg !5774, !range !5170
  call void @llvm.dbg.value(metadata i32 %16, metadata !5743, metadata !DIExpression()), !dbg !5757
  %17 = tail call fastcc i32 @right_chunk(%struct.z_heap* noundef %6, i32 noundef %16) #37, !dbg !5775
  call void @llvm.dbg.value(metadata i32 %17, metadata !5744, metadata !DIExpression()), !dbg !5757
  %18 = tail call fastcc i8* @chunk_mem(%struct.z_heap* noundef %6, i32 noundef %16) #37, !dbg !5776
  %19 = ptrtoint i8* %1 to i32, !dbg !5777
  %20 = ptrtoint i8* %18 to i32, !dbg !5777
  %21 = sub i32 %19, %20, !dbg !5777
  call void @llvm.dbg.value(metadata i32 %21, metadata !5745, metadata !DIExpression()), !dbg !5757
  %22 = add i32 %21, %3, !dbg !5778
  %23 = tail call fastcc i32 @bytes_to_chunksz(%struct.z_heap* noundef %6, i32 noundef %22) #37, !dbg !5779
  call void @llvm.dbg.value(metadata i32 %23, metadata !5746, metadata !DIExpression()), !dbg !5757
  %24 = icmp eq i32 %2, 0, !dbg !5780
  br i1 %24, label %29, label %25, !dbg !5781

25:                                               ; preds = %15
  %26 = add i32 %2, -1, !dbg !5782
  %27 = and i32 %26, %19, !dbg !5783
  %28 = icmp eq i32 %27, 0, !dbg !5783
  br i1 %28, label %29, label %49, !dbg !5784

29:                                               ; preds = %25, %15
  %30 = tail call fastcc i32 @chunk_size(%struct.z_heap* noundef %6, i32 noundef %16) #37, !dbg !5785
  %31 = icmp eq i32 %23, %30, !dbg !5786
  br i1 %31, label %59, label %32, !dbg !5787

32:                                               ; preds = %29
  %33 = icmp ult i32 %23, %30, !dbg !5788
  br i1 %33, label %34, label %36, !dbg !5789

34:                                               ; preds = %32
  %35 = add i32 %23, %16, !dbg !5790
  tail call fastcc void @split_chunks(%struct.z_heap* noundef %6, i32 noundef %16, i32 noundef %35) #37, !dbg !5792
  tail call fastcc void @set_chunk_used(%struct.z_heap* noundef %6, i32 noundef %16, i1 noundef zeroext true) #37, !dbg !5793
  tail call fastcc void @free_chunk(%struct.z_heap* noundef %6, i32 noundef %35) #37, !dbg !5794
  br label %59, !dbg !5795

36:                                               ; preds = %32
  %37 = tail call fastcc zeroext i1 @chunk_used(%struct.z_heap* noundef %6, i32 noundef %17) #37, !dbg !5796
  br i1 %37, label %49, label %38, !dbg !5797

38:                                               ; preds = %36
  %39 = tail call fastcc i32 @chunk_size(%struct.z_heap* noundef %6, i32 noundef %17) #37, !dbg !5798
  %40 = add i32 %39, %30, !dbg !5799
  %41 = icmp ult i32 %40, %23, !dbg !5800
  br i1 %41, label %49, label %42, !dbg !5801

42:                                               ; preds = %38
  %43 = sub i32 %23, %30, !dbg !5802
  call void @llvm.dbg.value(metadata i32 %43, metadata !5747, metadata !DIExpression()), !dbg !5803
  tail call fastcc void @free_list_remove(%struct.z_heap* noundef %6, i32 noundef %17) #37, !dbg !5804
  %44 = tail call fastcc i32 @chunk_size(%struct.z_heap* noundef %6, i32 noundef %17) #37, !dbg !5805
  %45 = icmp ult i32 %43, %44, !dbg !5807
  br i1 %45, label %46, label %48, !dbg !5808

46:                                               ; preds = %42
  %47 = add i32 %43, %17, !dbg !5809
  tail call fastcc void @split_chunks(%struct.z_heap* noundef %6, i32 noundef %17, i32 noundef %47) #37, !dbg !5811
  tail call fastcc void @free_list_add(%struct.z_heap* noundef %6, i32 noundef %47) #37, !dbg !5812
  br label %48, !dbg !5813

48:                                               ; preds = %46, %42
  tail call fastcc void @merge_chunks(%struct.z_heap* noundef %6, i32 noundef %16, i32 noundef %17) #37, !dbg !5814
  tail call fastcc void @set_chunk_used(%struct.z_heap* noundef %6, i32 noundef %16, i1 noundef zeroext true) #37, !dbg !5815
  br label %59

49:                                               ; preds = %38, %36, %25
  %50 = tail call i8* @sys_heap_aligned_alloc(%struct.sys_heap* noundef nonnull %0, i32 noundef %2, i32 noundef %3) #37, !dbg !5816
  call void @llvm.dbg.value(metadata i8* %50, metadata !5753, metadata !DIExpression()), !dbg !5757
  %51 = icmp eq i8* %50, null, !dbg !5817
  br i1 %51, label %59, label %52, !dbg !5818

52:                                               ; preds = %49
  %53 = tail call fastcc i32 @chunk_size(%struct.z_heap* noundef %6, i32 noundef %16) #37, !dbg !5819, !range !5263
  %54 = tail call fastcc i32 @chunksz_to_bytes(%struct.z_heap* noundef %6, i32 noundef %53) #37, !dbg !5820
  %55 = sub i32 %54, %21, !dbg !5821
  call void @llvm.dbg.value(metadata i32 %55, metadata !5754, metadata !DIExpression()), !dbg !5822
  %56 = icmp ult i32 %55, %3, !dbg !5823
  %57 = select i1 %56, i32 %55, i32 %3, !dbg !5823
  %58 = tail call i8* @memcpy(i8* noundef nonnull %50, i8* noundef nonnull %1, i32 noundef %57) #38, !dbg !5824
  tail call void @sys_heap_free(%struct.sys_heap* noundef nonnull %0, i8* noundef nonnull %1) #37, !dbg !5825
  br label %59, !dbg !5826

59:                                               ; preds = %34, %48, %29, %52, %49, %13, %12, %8
  %60 = phi i8* [ %9, %8 ], [ null, %12 ], [ null, %13 ], [ %1, %34 ], [ %1, %48 ], [ %1, %29 ], [ %50, %52 ], [ null, %49 ], !dbg !5757
  ret i8* %60, !dbg !5827
}

; Function Attrs: mustprogress nofree noinline norecurse nosync nounwind optsize readnone willreturn
define internal fastcc i32 @chunksz_to_bytes(%struct.z_heap* nocapture noundef readnone %0, i32 noundef %1) unnamed_addr #17 !dbg !5828 {
  call void @llvm.dbg.value(metadata %struct.z_heap* %0, metadata !5832, metadata !DIExpression()), !dbg !5834
  call void @llvm.dbg.value(metadata i32 %1, metadata !5833, metadata !DIExpression()), !dbg !5834
  %3 = shl i32 %1, 3, !dbg !5835
  %4 = add i32 %3, -4, !dbg !5836
  ret i32 %4, !dbg !5837
}

; Function Attrs: nofree noinline nosync nounwind optsize
define dso_local void @sys_heap_init(%struct.sys_heap* nocapture noundef writeonly %0, i8* noundef %1, i32 noundef %2) local_unnamed_addr #18 !dbg !5838 {
  call void @llvm.dbg.value(metadata %struct.sys_heap* %0, metadata !5842, metadata !DIExpression()), !dbg !5853
  call void @llvm.dbg.value(metadata i8* %1, metadata !5843, metadata !DIExpression()), !dbg !5853
  call void @llvm.dbg.value(metadata i32 %2, metadata !5844, metadata !DIExpression()), !dbg !5853
  %4 = add i32 %2, -4, !dbg !5854
  call void @llvm.dbg.value(metadata i32 %4, metadata !5844, metadata !DIExpression()), !dbg !5853
  %5 = ptrtoint i8* %1 to i32, !dbg !5855
  %6 = add i32 %5, 7, !dbg !5855
  %7 = and i32 %6, -8, !dbg !5855
  call void @llvm.dbg.value(metadata i32 %7, metadata !5845, metadata !DIExpression()), !dbg !5853
  %8 = getelementptr inbounds i8, i8* %1, i32 %4, !dbg !5856
  %9 = ptrtoint i8* %8 to i32, !dbg !5856
  %10 = and i32 %9, -8, !dbg !5856
  call void @llvm.dbg.value(metadata i32 %10, metadata !5846, metadata !DIExpression()), !dbg !5853
  %11 = sub i32 %10, %7, !dbg !5857
  %12 = lshr exact i32 %11, 3, !dbg !5858
  call void @llvm.dbg.value(metadata i32 %12, metadata !5847, metadata !DIExpression()), !dbg !5853
  %13 = inttoptr i32 %7 to %struct.z_heap*, !dbg !5859
  call void @llvm.dbg.value(metadata %struct.z_heap* %13, metadata !5848, metadata !DIExpression()), !dbg !5853
  %14 = getelementptr inbounds %struct.sys_heap, %struct.sys_heap* %0, i32 0, i32 0, !dbg !5860
  store %struct.z_heap* %13, %struct.z_heap** %14, align 4, !dbg !5861
  %15 = getelementptr inbounds %struct.z_heap, %struct.z_heap* %13, i32 0, i32 1, !dbg !5862
  store i32 %12, i32* %15, align 8, !dbg !5863
  %16 = getelementptr inbounds %struct.z_heap, %struct.z_heap* %13, i32 0, i32 2, !dbg !5864
  store i32 0, i32* %16, align 4, !dbg !5865
  %17 = tail call fastcc i32 @bucket_idx(%struct.z_heap* noundef %13, i32 noundef %12) #37, !dbg !5866
  call void @llvm.dbg.value(metadata i32 %17, metadata !5849, metadata !DIExpression(DW_OP_plus_uconst, 1, DW_OP_stack_value)), !dbg !5853
  %18 = shl i32 %17, 2, !dbg !5867
  %19 = add i32 %18, 20, !dbg !5868
  %20 = tail call fastcc i32 @chunksz(i32 noundef %19) #37, !dbg !5869
  call void @llvm.dbg.value(metadata i32 %20, metadata !5850, metadata !DIExpression()), !dbg !5853
  call void @llvm.dbg.value(metadata i32 0, metadata !5851, metadata !DIExpression()), !dbg !5870
  %21 = icmp slt i32 %17, 0, !dbg !5871
  br i1 %21, label %22, label %24, !dbg !5873

22:                                               ; preds = %24, %3
  tail call fastcc void @set_chunk_size(%struct.z_heap* noundef nonnull %13, i32 noundef 0, i32 noundef %20) #37, !dbg !5874
  tail call fastcc void @set_left_chunk_size(%struct.z_heap* noundef nonnull %13, i32 noundef 0, i32 noundef 0) #37, !dbg !5875
  tail call fastcc void @set_chunk_used(%struct.z_heap* noundef nonnull %13, i32 noundef 0, i1 noundef zeroext true) #37, !dbg !5876
  %23 = sub i32 %12, %20, !dbg !5877
  tail call fastcc void @set_chunk_size(%struct.z_heap* noundef nonnull %13, i32 noundef %20, i32 noundef %23) #37, !dbg !5878
  tail call fastcc void @set_left_chunk_size(%struct.z_heap* noundef nonnull %13, i32 noundef %20, i32 noundef %20) #37, !dbg !5879
  tail call fastcc void @set_chunk_size(%struct.z_heap* noundef nonnull %13, i32 noundef %12, i32 noundef 0) #37, !dbg !5880
  tail call fastcc void @set_left_chunk_size(%struct.z_heap* noundef nonnull %13, i32 noundef %12, i32 noundef %23) #37, !dbg !5881
  tail call fastcc void @set_chunk_used(%struct.z_heap* noundef nonnull %13, i32 noundef %12, i1 noundef zeroext true) #37, !dbg !5882
  tail call fastcc void @free_list_add(%struct.z_heap* noundef nonnull %13, i32 noundef %20) #37, !dbg !5883
  ret void, !dbg !5884

24:                                               ; preds = %3, %24
  %25 = phi i32 [ %27, %24 ], [ 0, %3 ]
  call void @llvm.dbg.value(metadata i32 %25, metadata !5851, metadata !DIExpression()), !dbg !5870
  %26 = getelementptr inbounds %struct.z_heap, %struct.z_heap* %13, i32 0, i32 3, i32 %25, i32 0, !dbg !5885
  store i32 0, i32* %26, align 4, !dbg !5887
  %27 = add nuw i32 %25, 1, !dbg !5888
  call void @llvm.dbg.value(metadata i32 %27, metadata !5851, metadata !DIExpression()), !dbg !5870
  %28 = icmp eq i32 %25, %17, !dbg !5871
  br i1 %28, label %22, label %24, !dbg !5873, !llvm.loop !5889
}

; Function Attrs: mustprogress nofree noinline nosync nounwind optsize willreturn
define dso_local i32 @onoff_manager_init(%struct.onoff_manager* noundef writeonly %0, %struct.onoff_transitions* noundef %1) local_unnamed_addr #16 !dbg !5891 {
  call void @llvm.dbg.value(metadata %struct.onoff_manager* %0, metadata !5895, metadata !DIExpression()), !dbg !5897
  call void @llvm.dbg.value(metadata %struct.onoff_transitions* %1, metadata !5896, metadata !DIExpression()), !dbg !5897
  %3 = icmp eq %struct.onoff_manager* %0, null, !dbg !5898
  %4 = icmp eq %struct.onoff_transitions* %1, null
  %5 = or i1 %3, %4, !dbg !5900
  br i1 %5, label %18, label %6, !dbg !5900

6:                                                ; preds = %2
  %7 = getelementptr inbounds %struct.onoff_transitions, %struct.onoff_transitions* %1, i32 0, i32 0, !dbg !5901
  %8 = load void (%struct.onoff_manager*, void (%struct.onoff_manager*, i32)*)*, void (%struct.onoff_manager*, void (%struct.onoff_manager*, i32)*)** %7, align 4, !dbg !5901
  %9 = icmp eq void (%struct.onoff_manager*, void (%struct.onoff_manager*, i32)*)* %8, null, !dbg !5902
  br i1 %9, label %18, label %10, !dbg !5903

10:                                               ; preds = %6
  %11 = getelementptr inbounds %struct.onoff_transitions, %struct.onoff_transitions* %1, i32 0, i32 1, !dbg !5904
  %12 = load void (%struct.onoff_manager*, void (%struct.onoff_manager*, i32)*)*, void (%struct.onoff_manager*, void (%struct.onoff_manager*, i32)*)** %11, align 4, !dbg !5904
  %13 = icmp eq void (%struct.onoff_manager*, void (%struct.onoff_manager*, i32)*)* %12, null, !dbg !5905
  br i1 %13, label %18, label %14, !dbg !5906

14:                                               ; preds = %10
  %15 = bitcast %struct.onoff_manager* %0 to i8*, !dbg !5907
  call void @llvm.memset.p0i8.i32(i8* noundef nonnull align 4 dereferenceable(16) %15, i8 0, i32 16, i1 false), !dbg !5907
  %16 = getelementptr inbounds %struct.onoff_manager, %struct.onoff_manager* %0, i32 0, i32 2, !dbg !5907
  store %struct.onoff_transitions* %1, %struct.onoff_transitions** %16, align 4, !dbg !5907
  %17 = getelementptr inbounds %struct.onoff_manager, %struct.onoff_manager* %0, i32 0, i32 3, i32 0, !dbg !5907
  call void @llvm.memset.p0i8.i32(i8* noundef nonnull align 4 dereferenceable(12) %17, i8 0, i32 12, i1 false), !dbg !5907
  br label %18, !dbg !5908

18:                                               ; preds = %2, %6, %10, %14
  %19 = phi i32 [ 0, %14 ], [ -22, %10 ], [ -22, %6 ], [ -22, %2 ], !dbg !5897
  ret i32 %19, !dbg !5909
}

; Function Attrs: argmemonly nofree nounwind willreturn writeonly
declare void @llvm.memset.p0i8.i32(i8* nocapture writeonly, i8, i32, i1 immarg) #19

; Function Attrs: noinline nounwind optsize
define dso_local i32 @onoff_request(%struct.onoff_manager* noundef %0, %struct.onoff_client* noundef %1) local_unnamed_addr #1 !dbg !5910 {
  call void @llvm.dbg.value(metadata %struct.onoff_manager* %0, metadata !5914, metadata !DIExpression()), !dbg !5927
  call void @llvm.dbg.value(metadata %struct.onoff_client* %1, metadata !5915, metadata !DIExpression()), !dbg !5927
  call void @llvm.dbg.value(metadata i8 0, metadata !5916, metadata !DIExpression()), !dbg !5927
  call void @llvm.dbg.value(metadata i8 0, metadata !5917, metadata !DIExpression()), !dbg !5927
  call void @llvm.dbg.value(metadata i8 0, metadata !5918, metadata !DIExpression()), !dbg !5927
  %3 = tail call fastcc i32 @validate_args(%struct.onoff_manager* noundef %0, %struct.onoff_client* noundef %1) #37, !dbg !5928
  call void @llvm.dbg.value(metadata i32 %3, metadata !5919, metadata !DIExpression()), !dbg !5927
  %4 = icmp slt i32 %3, 0, !dbg !5929
  br i1 %4, label %36, label %5, !dbg !5931

5:                                                ; preds = %2
  call void @llvm.dbg.value(metadata %struct.k_spinlock* undef, metadata !5932, metadata !DIExpression()) #33, !dbg !5939
  %6 = tail call { i32, i32 } asm sideeffect "mov $1, $2;mrs $0, BASEPRI;msr BASEPRI_MAX, $1;isb;", "=r,=r,i,~{memory}"(i32 32) #33, !dbg !5941, !srcloc !5950
  %7 = extractvalue { i32, i32 } %6, 0, !dbg !5941
  call void @llvm.dbg.value(metadata i32 %7, metadata !5947, metadata !DIExpression()) #33, !dbg !5951
  call void @llvm.dbg.value(metadata i32 undef, metadata !5948, metadata !DIExpression()) #33, !dbg !5951
  call void @llvm.dbg.value(metadata i32 %7, metadata !5938, metadata !DIExpression()) #33, !dbg !5939
  call void @llvm.dbg.value(metadata i32 %7, metadata !5920, metadata !DIExpression()), !dbg !5927
  %8 = getelementptr inbounds %struct.onoff_manager, %struct.onoff_manager* %0, i32 0, i32 5, !dbg !5952
  %9 = load i16, i16* %8, align 4, !dbg !5952
  %10 = and i16 %9, 7, !dbg !5953
  %11 = zext i16 %10 to i32, !dbg !5953
  call void @llvm.dbg.value(metadata i32 %11, metadata !5925, metadata !DIExpression()), !dbg !5927
  %12 = getelementptr inbounds %struct.onoff_manager, %struct.onoff_manager* %0, i32 0, i32 6, !dbg !5954
  %13 = load i16, i16* %12, align 2, !dbg !5954
  %14 = icmp eq i16 %13, -1, !dbg !5956
  br i1 %14, label %32, label %15, !dbg !5957

15:                                               ; preds = %5
  call void @llvm.dbg.value(metadata i32 %11, metadata !5919, metadata !DIExpression()), !dbg !5927
  %16 = icmp eq i16 %10, 2, !dbg !5958
  br i1 %16, label %34, label %17, !dbg !5960

17:                                               ; preds = %15
  %18 = and i16 %9, 3, !dbg !5961
  %19 = icmp eq i16 %18, 0, !dbg !5961
  %20 = icmp eq i16 %10, 6
  %21 = or i1 %19, %20, !dbg !5961
  br i1 %21, label %25, label %22, !dbg !5961

22:                                               ; preds = %17
  %23 = icmp eq i16 %10, 5, !dbg !5963
  %24 = select i1 %23, i32 -134, i32 -5
  br label %32

25:                                               ; preds = %17
  %26 = icmp eq i16 %10, 0, !dbg !5965
  call void @llvm.dbg.value(metadata i8 poison, metadata !5916, metadata !DIExpression()), !dbg !5927
  call void @llvm.dbg.value(metadata i32 %11, metadata !5919, metadata !DIExpression()), !dbg !5927
  call void @llvm.dbg.value(metadata i8 poison, metadata !5918, metadata !DIExpression()), !dbg !5927
  call void @llvm.dbg.value(metadata i8 poison, metadata !5917, metadata !DIExpression()), !dbg !5927
  call void @llvm.dbg.label(metadata !5926), !dbg !5966
  %27 = getelementptr inbounds %struct.onoff_manager, %struct.onoff_manager* %0, i32 0, i32 0, !dbg !5967
  %28 = getelementptr inbounds %struct.onoff_client, %struct.onoff_client* %1, i32 0, i32 0, !dbg !5970
  tail call fastcc void @sys_slist_append(%struct._slist* noundef %27, %struct._snode* noundef %28) #37, !dbg !5971
  br i1 %26, label %30, label %29, !dbg !5972

29:                                               ; preds = %25
  call void @llvm.dbg.value(metadata i32 %7, metadata !5973, metadata !DIExpression()) #33, !dbg !5979
  call void @llvm.dbg.value(metadata %struct.k_spinlock* undef, metadata !5978, metadata !DIExpression()) #33, !dbg !5979
  call void @llvm.dbg.value(metadata i32 %7, metadata !5983, metadata !DIExpression()) #33, !dbg !5988
  tail call void asm sideeffect "msr BASEPRI, $0;isb;", "r,~{memory}"(i32 %7) #33, !dbg !5990, !srcloc !5991
  br label %36, !dbg !5992

30:                                               ; preds = %25
  %31 = insertvalue [1 x i32] poison, i32 %7, 0, !dbg !5993
  tail call fastcc void @process_event(%struct.onoff_manager* noundef nonnull %0, i32 noundef 2, [1 x i32] %31) #37, !dbg !5993
  br label %36, !dbg !5995

32:                                               ; preds = %22, %5
  %33 = phi i32 [ -11, %5 ], [ %24, %22 ]
  call void @llvm.dbg.value(metadata i8 poison, metadata !5916, metadata !DIExpression()), !dbg !5927
  call void @llvm.dbg.value(metadata i32 %11, metadata !5919, metadata !DIExpression()), !dbg !5927
  call void @llvm.dbg.value(metadata i8 poison, metadata !5918, metadata !DIExpression()), !dbg !5927
  call void @llvm.dbg.value(metadata i8 poison, metadata !5917, metadata !DIExpression()), !dbg !5927
  call void @llvm.dbg.label(metadata !5926), !dbg !5966
  call void @llvm.dbg.value(metadata i32 %7, metadata !5973, metadata !DIExpression()) #33, !dbg !5979
  call void @llvm.dbg.value(metadata %struct.k_spinlock* undef, metadata !5978, metadata !DIExpression()) #33, !dbg !5979
  call void @llvm.dbg.value(metadata i32 %7, metadata !5983, metadata !DIExpression()) #33, !dbg !5988
  tail call void asm sideeffect "msr BASEPRI, $0;isb;", "r,~{memory}"(i32 %7) #33, !dbg !5990, !srcloc !5991
  br label %36, !dbg !5992

34:                                               ; preds = %15
  call void @llvm.dbg.value(metadata i8 1, metadata !5918, metadata !DIExpression()), !dbg !5927
  %35 = add nuw i16 %13, 1, !dbg !5996
  store i16 %35, i16* %12, align 2, !dbg !5996
  call void @llvm.dbg.value(metadata i8 poison, metadata !5916, metadata !DIExpression()), !dbg !5927
  call void @llvm.dbg.value(metadata i32 %11, metadata !5919, metadata !DIExpression()), !dbg !5927
  call void @llvm.dbg.value(metadata i8 poison, metadata !5918, metadata !DIExpression()), !dbg !5927
  call void @llvm.dbg.value(metadata i8 poison, metadata !5917, metadata !DIExpression()), !dbg !5927
  call void @llvm.dbg.label(metadata !5926), !dbg !5966
  call void @llvm.dbg.value(metadata i32 %7, metadata !5973, metadata !DIExpression()) #33, !dbg !5979
  call void @llvm.dbg.value(metadata %struct.k_spinlock* undef, metadata !5978, metadata !DIExpression()) #33, !dbg !5979
  call void @llvm.dbg.value(metadata i32 %7, metadata !5983, metadata !DIExpression()) #33, !dbg !5988
  tail call void asm sideeffect "msr BASEPRI, $0;isb;", "r,~{memory}"(i32 %7) #33, !dbg !5990, !srcloc !5991
  tail call fastcc void @notify_one(%struct.onoff_manager* noundef nonnull %0, %struct.onoff_client* noundef %1, i32 noundef %11, i32 noundef 0) #37, !dbg !5998
  br label %36, !dbg !6001

36:                                               ; preds = %32, %29, %30, %34, %2
  %37 = phi i32 [ %3, %2 ], [ 2, %34 ], [ 0, %30 ], [ %11, %29 ], [ %33, %32 ], !dbg !5927
  ret i32 %37, !dbg !6002
}

; Function Attrs: noinline nounwind optsize
define internal fastcc i32 @validate_args(%struct.onoff_manager* noundef readnone %0, %struct.onoff_client* noundef %1) unnamed_addr #1 !dbg !6003 {
  call void @llvm.dbg.value(metadata %struct.onoff_manager* %0, metadata !6009, metadata !DIExpression()), !dbg !6012
  call void @llvm.dbg.value(metadata %struct.onoff_client* %1, metadata !6010, metadata !DIExpression()), !dbg !6012
  %3 = icmp eq %struct.onoff_manager* %0, null, !dbg !6013
  %4 = icmp eq %struct.onoff_client* %1, null
  %5 = or i1 %3, %4, !dbg !6015
  br i1 %5, label %15, label %6, !dbg !6015

6:                                                ; preds = %2
  %7 = getelementptr inbounds %struct.onoff_client, %struct.onoff_client* %1, i32 0, i32 1, !dbg !6016
  %8 = tail call i32 @sys_notify_validate(%struct.sys_notify* noundef nonnull %7) #38, !dbg !6017
  call void @llvm.dbg.value(metadata i32 %8, metadata !6011, metadata !DIExpression()), !dbg !6012
  %9 = icmp eq i32 %8, 0, !dbg !6018
  br i1 %9, label %10, label %15, !dbg !6020

10:                                               ; preds = %6
  %11 = getelementptr inbounds %struct.onoff_client, %struct.onoff_client* %1, i32 0, i32 1, i32 1, !dbg !6021
  %12 = load volatile i32, i32* %11, align 4, !dbg !6021
  %13 = icmp ult i32 %12, 4, !dbg !6022
  %14 = select i1 %13, i32 0, i32 -22, !dbg !6023
  br label %15, !dbg !6023

15:                                               ; preds = %10, %6, %2
  %16 = phi i32 [ -22, %2 ], [ %8, %6 ], [ %14, %10 ], !dbg !6012
  ret i32 %16, !dbg !6024
}

; Function Attrs: nofree nosync nounwind readnone speculatable willreturn
declare void @llvm.dbg.label(metadata) #4

; Function Attrs: mustprogress nofree noinline norecurse nosync nounwind optsize willreturn
define internal fastcc void @sys_slist_append(%struct._slist* nocapture noundef %0, %struct._snode* noundef %1) unnamed_addr #13 !dbg !6025 {
  call void @llvm.dbg.value(metadata %struct._slist* %0, metadata !6030, metadata !DIExpression()), !dbg !6032
  call void @llvm.dbg.value(metadata %struct._snode* %1, metadata !6031, metadata !DIExpression()), !dbg !6032
  tail call fastcc void @z_snode_next_set(%struct._snode* noundef %1, %struct._snode* noundef null) #37, !dbg !6033
  %3 = tail call fastcc %struct._snode* @sys_slist_peek_tail(%struct._slist* noundef %0) #37, !dbg !6034
  %4 = icmp eq %struct._snode* %3, null, !dbg !6034
  br i1 %4, label %5, label %6, !dbg !6033

5:                                                ; preds = %2
  tail call fastcc void @z_slist_tail_set(%struct._slist* noundef %0, %struct._snode* noundef %1) #37, !dbg !6036
  tail call fastcc void @z_slist_head_set(%struct._slist* noundef %0, %struct._snode* noundef %1) #37, !dbg !6036
  br label %7, !dbg !6036

6:                                                ; preds = %2
  tail call fastcc void @z_snode_next_set(%struct._snode* noundef nonnull %3, %struct._snode* noundef %1) #37, !dbg !6038
  tail call fastcc void @z_slist_tail_set(%struct._slist* noundef %0, %struct._snode* noundef %1) #37, !dbg !6038
  br label %7

7:                                                ; preds = %6, %5
  ret void, !dbg !6033
}

; Function Attrs: noinline nounwind optsize
define internal fastcc void @process_event(%struct.onoff_manager* noundef %0, i32 noundef %1, [1 x i32] %2) unnamed_addr #1 !dbg !6040 {
  %4 = alloca %struct._slist, align 4
  %5 = extractvalue [1 x i32] %2, 0
  call void @llvm.dbg.value(metadata i32 %5, metadata !6046, metadata !DIExpression()), !dbg !6058
  call void @llvm.dbg.value(metadata %struct.onoff_manager* %0, metadata !6044, metadata !DIExpression()), !dbg !6058
  call void @llvm.dbg.value(metadata i32 %1, metadata !6045, metadata !DIExpression()), !dbg !6058
  %6 = bitcast %struct._slist* %4 to i8*, !dbg !6059
  call void @llvm.lifetime.start.p0i8(i64 8, i8* nonnull %6) #33, !dbg !6059
  call void @llvm.dbg.declare(metadata %struct._slist* %4, metadata !6047, metadata !DIExpression()), !dbg !6060
  %7 = getelementptr inbounds %struct.onoff_manager, %struct.onoff_manager* %0, i32 0, i32 5, !dbg !6061
  %8 = load i16, i16* %7, align 4, !dbg !6061
  %9 = zext i16 %8 to i32, !dbg !6062
  call void @llvm.dbg.value(metadata i32 %9, metadata !6048, metadata !DIExpression(DW_OP_constu, 7, DW_OP_and, DW_OP_stack_value)), !dbg !6058
  call void @llvm.dbg.value(metadata i32 0, metadata !6049, metadata !DIExpression()), !dbg !6058
  %10 = and i32 %9, 8, !dbg !6063
  %11 = icmp eq i32 %10, 0, !dbg !6064
  call void @llvm.dbg.value(metadata i1 %11, metadata !6050, metadata !DIExpression(DW_OP_LLVM_convert, 1, DW_ATE_unsigned, DW_OP_LLVM_convert, 8, DW_ATE_unsigned, DW_OP_stack_value)), !dbg !6058
  br i1 %11, label %16, label %12, !dbg !6065

12:                                               ; preds = %3
  %13 = icmp eq i32 %1, 1, !dbg !6066
  %14 = select i1 %13, i16 16, i16 32
  %15 = or i16 %8, %14, !dbg !6070
  store i16 %15, i16* %7, align 4, !dbg !6070
  br label %86, !dbg !6071

16:                                               ; preds = %3
  %17 = and i32 %9, 7, !dbg !6074
  call void @llvm.dbg.value(metadata i32 %17, metadata !6048, metadata !DIExpression()), !dbg !6058
  call fastcc void @sys_slist_init(%struct._slist* noundef nonnull %4) #37, !dbg !6075
  %18 = getelementptr inbounds %struct.onoff_manager, %struct.onoff_manager* %0, i32 0, i32 2
  %19 = getelementptr inbounds %struct.onoff_manager, %struct.onoff_manager* %0, i32 0, i32 4
  %20 = getelementptr inbounds %struct.onoff_manager, %struct.onoff_manager* %0, i32 0, i32 1
  br label %21, !dbg !6076

21:                                               ; preds = %80, %16
  %22 = phi i32 [ %17, %16 ], [ %85, %80 ], !dbg !6077
  %23 = phi i32 [ %1, %16 ], [ %82, %80 ]
  %24 = phi i32 [ %5, %16 ], [ %73, %80 ]
  call void @llvm.dbg.value(metadata i32 %24, metadata !6046, metadata !DIExpression()), !dbg !6058
  call void @llvm.dbg.value(metadata i32 %23, metadata !6045, metadata !DIExpression()), !dbg !6058
  call void @llvm.dbg.value(metadata i32 %22, metadata !6048, metadata !DIExpression()), !dbg !6058
  call void @llvm.dbg.value(metadata void (%struct.onoff_manager*, void (%struct.onoff_manager*, i32)*)* null, metadata !6051, metadata !DIExpression()), !dbg !6078
  %25 = icmp eq i32 %23, 2, !dbg !6079
  br i1 %25, label %26, label %28, !dbg !6081

26:                                               ; preds = %21
  %27 = tail call fastcc i32 @process_recheck(%struct.onoff_manager* noundef nonnull %0) #37, !dbg !6082
  call void @llvm.dbg.value(metadata i32 %27, metadata !6045, metadata !DIExpression()), !dbg !6058
  switch i32 %27, label %42 [
    i32 0, label %86
    i32 1, label %28
    i32 3, label %30
    i32 4, label %34
    i32 5, label %38
  ], !dbg !6084

28:                                               ; preds = %21, %26
  %29 = load i32, i32* %19, align 4, !dbg !6085
  call void @llvm.dbg.value(metadata i32 %29, metadata !6049, metadata !DIExpression()), !dbg !6058
  call fastcc void @process_complete(%struct.onoff_manager* noundef %0, %struct._slist* noundef nonnull %4, i32 noundef %29) #37, !dbg !6088
  br label %42, !dbg !6089

30:                                               ; preds = %26
  %31 = load %struct.onoff_transitions*, %struct.onoff_transitions** %18, align 4, !dbg !6090
  %32 = getelementptr inbounds %struct.onoff_transitions, %struct.onoff_transitions* %31, i32 0, i32 0, !dbg !6093
  %33 = load void (%struct.onoff_manager*, void (%struct.onoff_manager*, i32)*)*, void (%struct.onoff_manager*, void (%struct.onoff_manager*, i32)*)** %32, align 4, !dbg !6093
  call void @llvm.dbg.value(metadata void (%struct.onoff_manager*, void (%struct.onoff_manager*, i32)*)* %33, metadata !6051, metadata !DIExpression()), !dbg !6078
  tail call fastcc void @set_state(%struct.onoff_manager* noundef %0, i32 noundef 6) #37, !dbg !6094
  br label %42, !dbg !6095

34:                                               ; preds = %26
  %35 = load %struct.onoff_transitions*, %struct.onoff_transitions** %18, align 4, !dbg !6096
  %36 = getelementptr inbounds %struct.onoff_transitions, %struct.onoff_transitions* %35, i32 0, i32 1, !dbg !6099
  %37 = load void (%struct.onoff_manager*, void (%struct.onoff_manager*, i32)*)*, void (%struct.onoff_manager*, void (%struct.onoff_manager*, i32)*)** %36, align 4, !dbg !6099
  call void @llvm.dbg.value(metadata void (%struct.onoff_manager*, void (%struct.onoff_manager*, i32)*)* %37, metadata !6051, metadata !DIExpression()), !dbg !6078
  tail call fastcc void @set_state(%struct.onoff_manager* noundef %0, i32 noundef 4) #37, !dbg !6100
  br label %42, !dbg !6101

38:                                               ; preds = %26
  %39 = load %struct.onoff_transitions*, %struct.onoff_transitions** %18, align 4, !dbg !6102
  %40 = getelementptr inbounds %struct.onoff_transitions, %struct.onoff_transitions* %39, i32 0, i32 2, !dbg !6105
  %41 = load void (%struct.onoff_manager*, void (%struct.onoff_manager*, i32)*)*, void (%struct.onoff_manager*, void (%struct.onoff_manager*, i32)*)** %40, align 4, !dbg !6105
  call void @llvm.dbg.value(metadata void (%struct.onoff_manager*, void (%struct.onoff_manager*, i32)*)* %41, metadata !6051, metadata !DIExpression()), !dbg !6078
  tail call fastcc void @set_state(%struct.onoff_manager* noundef %0, i32 noundef 5) #37, !dbg !6106
  br label %42, !dbg !6107

42:                                               ; preds = %26, %30, %38, %34, %28
  %43 = phi i32 [ %29, %28 ], [ 0, %30 ], [ 0, %34 ], [ 0, %38 ], [ 0, %26 ], !dbg !6078
  %44 = phi void (%struct.onoff_manager*, void (%struct.onoff_manager*, i32)*)* [ null, %28 ], [ %33, %30 ], [ %37, %34 ], [ %41, %38 ], [ null, %26 ], !dbg !6078
  call void @llvm.dbg.value(metadata void (%struct.onoff_manager*, void (%struct.onoff_manager*, i32)*)* %44, metadata !6051, metadata !DIExpression()), !dbg !6078
  call void @llvm.dbg.value(metadata i32 %43, metadata !6049, metadata !DIExpression()), !dbg !6058
  %45 = load i16, i16* %7, align 4, !dbg !6108
  %46 = and i16 %45, 7, !dbg !6109
  %47 = zext i16 %46 to i32, !dbg !6109
  %48 = icmp eq i32 %22, %47, !dbg !6110
  br i1 %48, label %51, label %49, !dbg !6111

49:                                               ; preds = %42
  %50 = tail call fastcc zeroext i1 @sys_slist_is_empty(%struct._slist* noundef nonnull %20) #37, !dbg !6112
  call void @llvm.dbg.value(metadata i1 %50, metadata !6053, metadata !DIExpression(DW_OP_constu, 18446744073709551615, DW_OP_xor, DW_OP_LLVM_convert, 1, DW_ATE_unsigned, DW_OP_LLVM_convert, 8, DW_ATE_unsigned, DW_OP_stack_value)), !dbg !6078
  call void @llvm.dbg.value(metadata i32 0, metadata !6045, metadata !DIExpression()), !dbg !6058
  br i1 %50, label %51, label %58, !dbg !6113

51:                                               ; preds = %42, %49
  %52 = call fastcc zeroext i1 @sys_slist_is_empty(%struct._slist* noundef nonnull %4) #37, !dbg !6114
  %53 = xor i1 %52, true, !dbg !6115
  %54 = icmp ne void (%struct.onoff_manager*, void (%struct.onoff_manager*, i32)*)* %44, null
  %55 = select i1 %53, i1 true, i1 %54, !dbg !6115
  br i1 %55, label %56, label %71, !dbg !6115

56:                                               ; preds = %51
  %57 = or i16 %45, 8, !dbg !6116
  call void @llvm.dbg.value(metadata i16 %45, metadata !6054, metadata !DIExpression(DW_OP_LLVM_convert, 16, DW_ATE_unsigned, DW_OP_LLVM_convert, 32, DW_ATE_unsigned, DW_OP_stack_value)), !dbg !6117
  store i16 %57, i16* %7, align 4, !dbg !6118
  call void @llvm.dbg.value(metadata i32 %47, metadata !6048, metadata !DIExpression()), !dbg !6058
  call void @llvm.dbg.value(metadata i32 %24, metadata !5973, metadata !DIExpression()) #33, !dbg !6119
  call void @llvm.dbg.value(metadata %struct.k_spinlock* undef, metadata !5978, metadata !DIExpression()) #33, !dbg !6119
  call void @llvm.dbg.value(metadata i32 %24, metadata !5983, metadata !DIExpression()) #33, !dbg !6121
  tail call void asm sideeffect "msr BASEPRI, $0;isb;", "r,~{memory}"(i32 %24) #33, !dbg !6123, !srcloc !5991
  br label %60

58:                                               ; preds = %49
  %59 = or i16 %45, 8, !dbg !6116
  call void @llvm.dbg.value(metadata i16 %45, metadata !6054, metadata !DIExpression(DW_OP_LLVM_convert, 16, DW_ATE_unsigned, DW_OP_LLVM_convert, 32, DW_ATE_unsigned, DW_OP_stack_value)), !dbg !6117
  store i16 %59, i16* %7, align 4, !dbg !6118
  call void @llvm.dbg.value(metadata i32 %47, metadata !6048, metadata !DIExpression()), !dbg !6058
  call void @llvm.dbg.value(metadata i32 %24, metadata !5973, metadata !DIExpression()) #33, !dbg !6119
  call void @llvm.dbg.value(metadata %struct.k_spinlock* undef, metadata !5978, metadata !DIExpression()) #33, !dbg !6119
  call void @llvm.dbg.value(metadata i32 %24, metadata !5983, metadata !DIExpression()) #33, !dbg !6121
  tail call void asm sideeffect "msr BASEPRI, $0;isb;", "r,~{memory}"(i32 %24) #33, !dbg !6123, !srcloc !5991
  tail call fastcc void @notify_monitors(%struct.onoff_manager* noundef nonnull %0, i32 noundef %47, i32 noundef %43) #37, !dbg !6124
  br label %60, !dbg !6127

60:                                               ; preds = %56, %58
  %61 = call fastcc zeroext i1 @sys_slist_is_empty(%struct._slist* noundef nonnull %4) #37, !dbg !6128
  br i1 %61, label %63, label %62, !dbg !6130

62:                                               ; preds = %60
  call fastcc void @notify_all(%struct.onoff_manager* noundef nonnull %0, %struct._slist* noundef nonnull %4, i32 noundef %47, i32 noundef %43) #37, !dbg !6131
  br label %63, !dbg !6133

63:                                               ; preds = %62, %60
  %64 = icmp eq void (%struct.onoff_manager*, void (%struct.onoff_manager*, i32)*)* %44, null, !dbg !6134
  br i1 %64, label %66, label %65, !dbg !6136

65:                                               ; preds = %63
  tail call void %44(%struct.onoff_manager* noundef nonnull %0, void (%struct.onoff_manager*, i32)* noundef nonnull @transition_complete) #38, !dbg !6137
  br label %66, !dbg !6139

66:                                               ; preds = %65, %63
  call void @llvm.dbg.value(metadata %struct.k_spinlock* undef, metadata !5932, metadata !DIExpression()) #33, !dbg !6140
  %67 = tail call { i32, i32 } asm sideeffect "mov $1, $2;mrs $0, BASEPRI;msr BASEPRI_MAX, $1;isb;", "=r,=r,i,~{memory}"(i32 32) #33, !dbg !6142, !srcloc !5950
  %68 = extractvalue { i32, i32 } %67, 0, !dbg !6142
  call void @llvm.dbg.value(metadata i32 %68, metadata !5947, metadata !DIExpression()) #33, !dbg !6144
  call void @llvm.dbg.value(metadata i32 undef, metadata !5948, metadata !DIExpression()) #33, !dbg !6144
  call void @llvm.dbg.value(metadata i32 %68, metadata !5938, metadata !DIExpression()) #33, !dbg !6140
  call void @llvm.dbg.value(metadata i32 %68, metadata !6046, metadata !DIExpression()), !dbg !6058
  %69 = load i16, i16* %7, align 4, !dbg !6145
  %70 = and i16 %69, -9, !dbg !6145
  store i16 %70, i16* %7, align 4, !dbg !6145
  br label %71, !dbg !6146

71:                                               ; preds = %51, %66
  %72 = phi i16 [ %70, %66 ], [ %45, %51 ], !dbg !6147
  %73 = phi i32 [ %68, %66 ], [ %24, %51 ]
  call void @llvm.dbg.value(metadata i32 %73, metadata !6046, metadata !DIExpression()), !dbg !6058
  %74 = zext i16 %72 to i32, !dbg !6149
  %75 = and i32 %74, 16, !dbg !6150
  %76 = icmp eq i32 %75, 0, !dbg !6151
  br i1 %76, label %77, label %80, !dbg !6152

77:                                               ; preds = %71
  %78 = and i32 %74, 32, !dbg !6153
  %79 = icmp eq i32 %78, 0, !dbg !6155
  br i1 %79, label %86, label %80, !dbg !6156

80:                                               ; preds = %77, %71
  %81 = phi i16 [ -17, %71 ], [ -33, %77 ]
  %82 = phi i32 [ 1, %71 ], [ 2, %77 ], !dbg !6078
  %83 = and i16 %72, %81, !dbg !6157
  store i16 %83, i16* %7, align 4, !dbg !6157
  call void @llvm.dbg.value(metadata i32 %82, metadata !6045, metadata !DIExpression()), !dbg !6058
  %84 = and i16 %72, 7, !dbg !6158
  %85 = zext i16 %84 to i32, !dbg !6158
  call void @llvm.dbg.value(metadata i32 %73, metadata !6046, metadata !DIExpression()), !dbg !6058
  call void @llvm.dbg.value(metadata i32 %85, metadata !6048, metadata !DIExpression()), !dbg !6058
  br label %21, !llvm.loop !6159

86:                                               ; preds = %77, %26, %12
  %87 = phi i32 [ %5, %12 ], [ %73, %77 ], [ %24, %26 ]
  call void @llvm.dbg.value(metadata i32 %87, metadata !6046, metadata !DIExpression()), !dbg !6058
  call void @llvm.dbg.label(metadata !6057), !dbg !6161
  call void @llvm.dbg.value(metadata i32 %87, metadata !5973, metadata !DIExpression()) #33, !dbg !6162
  call void @llvm.dbg.value(metadata %struct.k_spinlock* undef, metadata !5978, metadata !DIExpression()) #33, !dbg !6162
  call void @llvm.dbg.value(metadata i32 %87, metadata !5983, metadata !DIExpression()) #33, !dbg !6163
  tail call void asm sideeffect "msr BASEPRI, $0;isb;", "r,~{memory}"(i32 %87) #33, !dbg !6071, !srcloc !5991
  call void @llvm.lifetime.end.p0i8(i64 8, i8* nonnull %6) #33, !dbg !6164
  ret void, !dbg !6164
}

; Function Attrs: noinline nounwind optsize
define internal fastcc void @notify_one(%struct.onoff_manager* noundef %0, %struct.onoff_client* noundef %1, i32 noundef %2, i32 noundef %3) unnamed_addr #1 !dbg !6165 {
  call void @llvm.dbg.value(metadata %struct.onoff_manager* %0, metadata !6167, metadata !DIExpression()), !dbg !6172
  call void @llvm.dbg.value(metadata %struct.onoff_client* %1, metadata !6168, metadata !DIExpression()), !dbg !6172
  call void @llvm.dbg.value(metadata i32 %2, metadata !6169, metadata !DIExpression()), !dbg !6172
  call void @llvm.dbg.value(metadata i32 %3, metadata !6170, metadata !DIExpression()), !dbg !6172
  %5 = getelementptr inbounds %struct.onoff_client, %struct.onoff_client* %1, i32 0, i32 1, !dbg !6173
  %6 = tail call void (...)* @sys_notify_finalize(%struct.sys_notify* noundef nonnull %5, i32 noundef %3) #38, !dbg !6174
  call void @llvm.dbg.value(metadata void (...)* %6, metadata !6171, metadata !DIExpression()), !dbg !6172
  %7 = icmp eq void (...)* %6, null, !dbg !6175
  br i1 %7, label %10, label %8, !dbg !6177

8:                                                ; preds = %4
  %9 = bitcast void (...)* %6 to void (%struct.onoff_manager*, %struct.onoff_client*, i32, i32)*, !dbg !6178
  call void @llvm.dbg.value(metadata void (%struct.onoff_manager*, %struct.onoff_client*, i32, i32)* %9, metadata !6171, metadata !DIExpression()), !dbg !6172
  tail call void %9(%struct.onoff_manager* noundef %0, %struct.onoff_client* noundef %1, i32 noundef %2, i32 noundef %3) #38, !dbg !6179
  br label %10, !dbg !6181

10:                                               ; preds = %8, %4
  ret void, !dbg !6182
}

; Function Attrs: mustprogress nofree noinline norecurse nosync nounwind optsize willreturn writeonly
define internal fastcc void @sys_slist_init(%struct._slist* nocapture noundef writeonly %0) unnamed_addr #10 !dbg !6183 {
  call void @llvm.dbg.value(metadata %struct._slist* %0, metadata !6187, metadata !DIExpression()), !dbg !6188
  %2 = getelementptr inbounds %struct._slist, %struct._slist* %0, i32 0, i32 0, !dbg !6189
  store %struct._snode* null, %struct._snode** %2, align 4, !dbg !6190
  %3 = getelementptr inbounds %struct._slist, %struct._slist* %0, i32 0, i32 1, !dbg !6191
  store %struct._snode* null, %struct._snode** %3, align 4, !dbg !6192
  ret void, !dbg !6193
}

; Function Attrs: mustprogress nofree noinline norecurse nosync nounwind optsize readonly willreturn
define internal fastcc i32 @process_recheck(%struct.onoff_manager* nocapture noundef readonly %0) unnamed_addr #11 !dbg !6194 {
  call void @llvm.dbg.value(metadata %struct.onoff_manager* %0, metadata !6198, metadata !DIExpression()), !dbg !6201
  call void @llvm.dbg.value(metadata i32 0, metadata !6199, metadata !DIExpression()), !dbg !6201
  %2 = getelementptr inbounds %struct.onoff_manager, %struct.onoff_manager* %0, i32 0, i32 5, !dbg !6202
  %3 = load i16, i16* %2, align 4, !dbg !6202
  call void @llvm.dbg.value(metadata i16 %3, metadata !6200, metadata !DIExpression(DW_OP_constu, 7, DW_OP_and, DW_OP_LLVM_convert, 16, DW_ATE_unsigned, DW_OP_LLVM_convert, 32, DW_ATE_unsigned, DW_OP_stack_value)), !dbg !6201
  %4 = trunc i16 %3 to i3, !dbg !6203
  switch i3 %4, label %18 [
    i3 0, label %5
    i3 2, label %9
    i3 1, label %14
  ], !dbg !6203

5:                                                ; preds = %1
  %6 = getelementptr inbounds %struct.onoff_manager, %struct.onoff_manager* %0, i32 0, i32 0, !dbg !6205
  %7 = tail call fastcc zeroext i1 @sys_slist_is_empty(%struct._slist* noundef %6) #37, !dbg !6206
  %8 = select i1 %7, i32 0, i32 3, !dbg !6207
  br label %18, !dbg !6207

9:                                                ; preds = %1
  %10 = getelementptr inbounds %struct.onoff_manager, %struct.onoff_manager* %0, i32 0, i32 6, !dbg !6208
  %11 = load i16, i16* %10, align 2, !dbg !6208
  %12 = icmp eq i16 %11, 0, !dbg !6210
  %13 = select i1 %12, i32 4, i32 0, !dbg !6211
  br label %18, !dbg !6211

14:                                               ; preds = %1
  %15 = getelementptr inbounds %struct.onoff_manager, %struct.onoff_manager* %0, i32 0, i32 0, !dbg !6212
  %16 = tail call fastcc zeroext i1 @sys_slist_is_empty(%struct._slist* noundef %15) #37, !dbg !6214
  %17 = select i1 %16, i32 0, i32 5, !dbg !6215
  br label %18, !dbg !6215

18:                                               ; preds = %9, %5, %14, %1
  %19 = phi i32 [ 0, %1 ], [ %17, %14 ], [ %8, %5 ], [ %13, %9 ], !dbg !6201
  call void @llvm.dbg.value(metadata i32 %19, metadata !6199, metadata !DIExpression()), !dbg !6201
  ret i32 %19, !dbg !6216
}

; Function Attrs: nofree noinline norecurse nosync nounwind optsize
define internal fastcc void @process_complete(%struct.onoff_manager* nocapture noundef %0, %struct._slist* nocapture noundef %1, i32 noundef %2) unnamed_addr #20 !dbg !6217 {
  call void @llvm.dbg.value(metadata %struct.onoff_manager* %0, metadata !6221, metadata !DIExpression()), !dbg !6231
  call void @llvm.dbg.value(metadata %struct._slist* %1, metadata !6222, metadata !DIExpression()), !dbg !6231
  call void @llvm.dbg.value(metadata i32 %2, metadata !6223, metadata !DIExpression()), !dbg !6231
  %4 = getelementptr inbounds %struct.onoff_manager, %struct.onoff_manager* %0, i32 0, i32 5, !dbg !6232
  %5 = load i16, i16* %4, align 4, !dbg !6232
  %6 = and i16 %5, 7, !dbg !6233
  call void @llvm.dbg.value(metadata i16 %6, metadata !6224, metadata !DIExpression(DW_OP_LLVM_convert, 16, DW_ATE_unsigned, DW_OP_LLVM_convert, 32, DW_ATE_unsigned, DW_OP_stack_value)), !dbg !6231
  %7 = icmp slt i32 %2, 0, !dbg !6234
  br i1 %7, label %8, label %13, !dbg !6235

8:                                                ; preds = %3
  %9 = getelementptr inbounds %struct.onoff_manager, %struct.onoff_manager* %0, i32 0, i32 0, !dbg !6236
  %10 = bitcast %struct.onoff_manager* %0 to i64*, !dbg !6236
  %11 = bitcast %struct._slist* %1 to i64*, !dbg !6236
  %12 = load i64, i64* %10, align 4, !dbg !6236
  store i64 %12, i64* %11, align 4, !dbg !6236
  tail call fastcc void @sys_slist_init(%struct._slist* noundef %9) #37, !dbg !6238
  tail call fastcc void @set_state(%struct.onoff_manager* noundef nonnull %0, i32 noundef 1) #37, !dbg !6239
  br label %49, !dbg !6240

13:                                               ; preds = %3
  %14 = add nsw i16 %6, -5, !dbg !6241
  %15 = icmp ult i16 %14, 2, !dbg !6241
  br i1 %15, label %16, label %41, !dbg !6241

16:                                               ; preds = %13
  %17 = icmp eq i16 %6, 6, !dbg !6242
  %18 = getelementptr inbounds %struct.onoff_manager, %struct.onoff_manager* %0, i32 0, i32 0, !dbg !6243
  %19 = bitcast %struct.onoff_manager* %0 to i64*, !dbg !6243
  %20 = bitcast %struct._slist* %1 to i64*, !dbg !6243
  %21 = load i64, i64* %19, align 4, !dbg !6243
  store i64 %21, i64* %20, align 4, !dbg !6243
  tail call fastcc void @sys_slist_init(%struct._slist* noundef %18) #37, !dbg !6244
  br i1 %17, label %22, label %34, !dbg !6245

22:                                               ; preds = %16
  %23 = tail call fastcc %struct._snode* @sys_slist_peek_head(%struct._slist* noundef nonnull %1) #37, !dbg !6246
  call void @llvm.dbg.value(metadata %struct._snode* %23, metadata !6225, metadata !DIExpression()), !dbg !6248
  %24 = icmp eq %struct._snode* %23, null, !dbg !6249
  br i1 %24, label %34, label %25, !dbg !6246

25:                                               ; preds = %22
  %26 = getelementptr inbounds %struct.onoff_manager, %struct.onoff_manager* %0, i32 0, i32 6
  %27 = load i16, i16* %26, align 2, !dbg !6251
  br label %28, !dbg !6246

28:                                               ; preds = %25, %28
  %29 = phi i16 [ %27, %25 ], [ %31, %28 ], !dbg !6251
  %30 = phi %struct._snode* [ %23, %25 ], [ %32, %28 ]
  call void @llvm.dbg.value(metadata %struct._snode* %30, metadata !6225, metadata !DIExpression()), !dbg !6248
  %31 = add i16 %29, 1, !dbg !6251
  store i16 %31, i16* %26, align 2, !dbg !6251
  %32 = tail call fastcc %struct._snode* @sys_slist_peek_next(%struct._snode* noundef nonnull %30) #37, !dbg !6249
  call void @llvm.dbg.value(metadata %struct._snode* %32, metadata !6225, metadata !DIExpression()), !dbg !6248
  %33 = icmp eq %struct._snode* %32, null, !dbg !6249
  br i1 %33, label %34, label %28, !dbg !6246, !llvm.loop !6253

34:                                               ; preds = %28, %16, %22
  %35 = phi i32 [ 2, %22 ], [ 0, %16 ], [ 2, %28 ]
  tail call fastcc void @set_state(%struct.onoff_manager* noundef nonnull %0, i32 noundef %35) #37, !dbg !6255
  %36 = tail call fastcc i32 @process_recheck(%struct.onoff_manager* noundef nonnull %0) #37, !dbg !6256
  %37 = icmp eq i32 %36, 0, !dbg !6258
  br i1 %37, label %49, label %38, !dbg !6259

38:                                               ; preds = %34
  %39 = load i16, i16* %4, align 4, !dbg !6260
  %40 = or i16 %39, 32, !dbg !6260
  store i16 %40, i16* %4, align 4, !dbg !6260
  br label %49, !dbg !6262

41:                                               ; preds = %13
  %42 = icmp eq i16 %6, 4, !dbg !6263
  br i1 %42, label %43, label %49, !dbg !6265

43:                                               ; preds = %41
  tail call fastcc void @set_state(%struct.onoff_manager* noundef nonnull %0, i32 noundef 0) #37, !dbg !6266
  %44 = tail call fastcc i32 @process_recheck(%struct.onoff_manager* noundef nonnull %0) #37, !dbg !6268
  %45 = icmp eq i32 %44, 0, !dbg !6270
  br i1 %45, label %49, label %46, !dbg !6271

46:                                               ; preds = %43
  %47 = load i16, i16* %4, align 4, !dbg !6272
  %48 = or i16 %47, 32, !dbg !6272
  store i16 %48, i16* %4, align 4, !dbg !6272
  br label %49, !dbg !6274

49:                                               ; preds = %38, %34, %41, %43, %46, %8
  ret void, !dbg !6275
}

; Function Attrs: mustprogress nofree noinline norecurse nosync nounwind optsize willreturn
define internal fastcc void @set_state(%struct.onoff_manager* nocapture noundef %0, i32 noundef %1) unnamed_addr #13 !dbg !6276 {
  call void @llvm.dbg.value(metadata %struct.onoff_manager* %0, metadata !6280, metadata !DIExpression()), !dbg !6282
  call void @llvm.dbg.value(metadata i32 %1, metadata !6281, metadata !DIExpression()), !dbg !6282
  %3 = getelementptr inbounds %struct.onoff_manager, %struct.onoff_manager* %0, i32 0, i32 5, !dbg !6283
  %4 = load i16, i16* %3, align 4, !dbg !6283
  %5 = and i16 %4, -8, !dbg !6284
  %6 = trunc i32 %1 to i16, !dbg !6285
  %7 = and i16 %6, 7, !dbg !6285
  %8 = or i16 %5, %7, !dbg !6285
  store i16 %8, i16* %3, align 4, !dbg !6286
  ret void, !dbg !6287
}

; Function Attrs: mustprogress nofree noinline norecurse nosync nounwind optsize readonly willreturn
define internal fastcc zeroext i1 @sys_slist_is_empty(%struct._slist* nocapture noundef readonly %0) unnamed_addr #11 !dbg !6288 {
  call void @llvm.dbg.value(metadata %struct._slist* %0, metadata !6292, metadata !DIExpression()), !dbg !6293
  %2 = tail call fastcc %struct._snode* @sys_slist_peek_head(%struct._slist* noundef %0) #37, !dbg !6294
  %3 = icmp eq %struct._snode* %2, null, !dbg !6294
  ret i1 %3, !dbg !6294
}

; Function Attrs: noinline nounwind optsize
define internal fastcc void @notify_monitors(%struct.onoff_manager* noundef %0, i32 noundef %1, i32 noundef %2) unnamed_addr #1 !dbg !6295 {
  call void @llvm.dbg.value(metadata %struct.onoff_manager* %0, metadata !6299, metadata !DIExpression()), !dbg !6305
  call void @llvm.dbg.value(metadata i32 %1, metadata !6300, metadata !DIExpression()), !dbg !6305
  call void @llvm.dbg.value(metadata i32 %2, metadata !6301, metadata !DIExpression()), !dbg !6305
  %4 = getelementptr inbounds %struct.onoff_manager, %struct.onoff_manager* %0, i32 0, i32 1, !dbg !6306
  call void @llvm.dbg.value(metadata %struct._slist* %4, metadata !6302, metadata !DIExpression()), !dbg !6305
  %5 = tail call fastcc %struct._snode* @sys_slist_peek_head(%struct._slist* noundef nonnull %4) #37, !dbg !6307
  %6 = icmp eq %struct._snode* %5, null, !dbg !6307
  br i1 %6, label %22, label %7, !dbg !6307

7:                                                ; preds = %3
  call void @llvm.dbg.value(metadata %struct._snode* %5, metadata !6303, metadata !DIExpression()), !dbg !6305
  call void @llvm.dbg.value(metadata %struct._snode* %5, metadata !6303, metadata !DIExpression()), !dbg !6305
  %8 = tail call fastcc %struct._snode* @sys_slist_peek_next(%struct._snode* noundef nonnull %5) #37, !dbg !6307
  call void @llvm.dbg.value(metadata %struct._snode* %8, metadata !6304, metadata !DIExpression()), !dbg !6305
  %9 = bitcast %struct._snode* %5 to %struct.onoff_monitor*
  call void @llvm.dbg.value(metadata %struct.onoff_monitor* %9, metadata !6303, metadata !DIExpression()), !dbg !6305
  %10 = getelementptr inbounds %struct._snode, %struct._snode* %5, i32 1, !dbg !6309
  %11 = bitcast %struct._snode* %10 to void (%struct.onoff_manager*, %struct.onoff_monitor*, i32, i32)**, !dbg !6309
  %12 = load void (%struct.onoff_manager*, %struct.onoff_monitor*, i32, i32)*, void (%struct.onoff_manager*, %struct.onoff_monitor*, i32, i32)** %11, align 4, !dbg !6309
  tail call void %12(%struct.onoff_manager* noundef %0, %struct.onoff_monitor* noundef nonnull %9, i32 noundef %1, i32 noundef %2) #38, !dbg !6312
  call void @llvm.dbg.value(metadata %struct._snode* %8, metadata !6303, metadata !DIExpression()), !dbg !6305
  %13 = icmp eq %struct._snode* %8, null, !dbg !6313
  br i1 %13, label %22, label %14, !dbg !6313

14:                                               ; preds = %7, %14
  %15 = phi %struct._snode* [ %16, %14 ], [ %8, %7 ]
  call void @llvm.dbg.value(metadata %struct._snode* %15, metadata !6304, metadata !DIExpression()), !dbg !6305
  call void @llvm.dbg.value(metadata %struct._snode* %15, metadata !6303, metadata !DIExpression()), !dbg !6305
  %16 = tail call fastcc %struct._snode* @sys_slist_peek_next(%struct._snode* noundef nonnull %15) #37, !dbg !6313
  call void @llvm.dbg.value(metadata %struct._snode* %16, metadata !6304, metadata !DIExpression()), !dbg !6305
  %17 = bitcast %struct._snode* %15 to %struct.onoff_monitor*
  call void @llvm.dbg.value(metadata %struct.onoff_monitor* %17, metadata !6303, metadata !DIExpression()), !dbg !6305
  %18 = getelementptr inbounds %struct._snode, %struct._snode* %15, i32 1, !dbg !6309
  %19 = bitcast %struct._snode* %18 to void (%struct.onoff_manager*, %struct.onoff_monitor*, i32, i32)**, !dbg !6309
  %20 = load void (%struct.onoff_manager*, %struct.onoff_monitor*, i32, i32)*, void (%struct.onoff_manager*, %struct.onoff_monitor*, i32, i32)** %19, align 4, !dbg !6309
  tail call void %20(%struct.onoff_manager* noundef %0, %struct.onoff_monitor* noundef nonnull %17, i32 noundef %1, i32 noundef %2) #38, !dbg !6312
  call void @llvm.dbg.value(metadata %struct._snode* %16, metadata !6303, metadata !DIExpression()), !dbg !6305
  %21 = icmp eq %struct._snode* %16, null, !dbg !6313
  br i1 %21, label %22, label %14, !dbg !6313

22:                                               ; preds = %14, %7, %3
  ret void, !dbg !6314
}

; Function Attrs: noinline nounwind optsize
define internal fastcc void @notify_all(%struct.onoff_manager* noundef %0, %struct._slist* nocapture noundef %1, i32 noundef %2, i32 noundef %3) unnamed_addr #1 !dbg !6315 {
  call void @llvm.dbg.value(metadata %struct.onoff_manager* %0, metadata !6319, metadata !DIExpression()), !dbg !6326
  call void @llvm.dbg.value(metadata %struct._slist* %1, metadata !6320, metadata !DIExpression()), !dbg !6326
  call void @llvm.dbg.value(metadata i32 %2, metadata !6321, metadata !DIExpression()), !dbg !6326
  call void @llvm.dbg.value(metadata i32 %3, metadata !6322, metadata !DIExpression()), !dbg !6326
  %5 = tail call fastcc zeroext i1 @sys_slist_is_empty(%struct._slist* noundef %1) #37, !dbg !6327
  br i1 %5, label %10, label %6, !dbg !6328

6:                                                ; preds = %4, %6
  %7 = tail call fastcc %struct._snode* @sys_slist_get_not_empty(%struct._slist* noundef %1) #37, !dbg !6329
  call void @llvm.dbg.value(metadata %struct._snode* %7, metadata !6323, metadata !DIExpression()), !dbg !6330
  %8 = bitcast %struct._snode* %7 to %struct.onoff_client*, !dbg !6331
  call void @llvm.dbg.value(metadata %struct.onoff_client* %8, metadata !6325, metadata !DIExpression()), !dbg !6330
  tail call fastcc void @notify_one(%struct.onoff_manager* noundef %0, %struct.onoff_client* noundef %8, i32 noundef %2, i32 noundef %3) #37, !dbg !6332
  %9 = tail call fastcc zeroext i1 @sys_slist_is_empty(%struct._slist* noundef %1) #37, !dbg !6327
  br i1 %9, label %10, label %6, !dbg !6328, !llvm.loop !6333

10:                                               ; preds = %6, %4
  ret void, !dbg !6335
}

; Function Attrs: noinline nounwind optsize
define internal void @transition_complete(%struct.onoff_manager* noundef %0, i32 noundef %1) #1 !dbg !6336 {
  call void @llvm.dbg.value(metadata %struct.onoff_manager* %0, metadata !6338, metadata !DIExpression()), !dbg !6341
  call void @llvm.dbg.value(metadata i32 %1, metadata !6339, metadata !DIExpression()), !dbg !6341
  call void @llvm.dbg.value(metadata %struct.k_spinlock* undef, metadata !5932, metadata !DIExpression()) #33, !dbg !6342
  %3 = tail call { i32, i32 } asm sideeffect "mov $1, $2;mrs $0, BASEPRI;msr BASEPRI_MAX, $1;isb;", "=r,=r,i,~{memory}"(i32 32) #33, !dbg !6344, !srcloc !5950
  %4 = extractvalue { i32, i32 } %3, 0, !dbg !6344
  call void @llvm.dbg.value(metadata i32 %4, metadata !5947, metadata !DIExpression()) #33, !dbg !6346
  call void @llvm.dbg.value(metadata i32 undef, metadata !5948, metadata !DIExpression()) #33, !dbg !6346
  call void @llvm.dbg.value(metadata i32 %4, metadata !5938, metadata !DIExpression()) #33, !dbg !6342
  call void @llvm.dbg.value(metadata i32 %4, metadata !6340, metadata !DIExpression()), !dbg !6341
  %5 = getelementptr inbounds %struct.onoff_manager, %struct.onoff_manager* %0, i32 0, i32 4, !dbg !6347
  store i32 %1, i32* %5, align 4, !dbg !6348
  %6 = insertvalue [1 x i32] poison, i32 %4, 0, !dbg !6349
  tail call fastcc void @process_event(%struct.onoff_manager* noundef %0, i32 noundef 1, [1 x i32] %6) #37, !dbg !6349
  ret void, !dbg !6350
}

; Function Attrs: mustprogress nofree noinline norecurse nosync nounwind optsize willreturn
define internal fastcc %struct._snode* @sys_slist_get_not_empty(%struct._slist* nocapture noundef %0) unnamed_addr #13 !dbg !6351 {
  call void @llvm.dbg.value(metadata %struct._slist* %0, metadata !6355, metadata !DIExpression()), !dbg !6357
  %2 = tail call fastcc %struct._snode* @sys_slist_peek_head(%struct._slist* noundef %0) #37, !dbg !6358
  call void @llvm.dbg.value(metadata %struct._snode* %2, metadata !6356, metadata !DIExpression()), !dbg !6357
  %3 = tail call fastcc %struct._snode* @z_snode_next_peek(%struct._snode* noundef %2) #37, !dbg !6358
  tail call fastcc void @z_slist_head_set(%struct._slist* noundef %0, %struct._snode* noundef %3) #37, !dbg !6358
  %4 = tail call fastcc %struct._snode* @sys_slist_peek_tail(%struct._slist* noundef %0) #37, !dbg !6359
  %5 = icmp eq %struct._snode* %4, %2, !dbg !6359
  br i1 %5, label %6, label %8, !dbg !6358

6:                                                ; preds = %1
  %7 = tail call fastcc %struct._snode* @sys_slist_peek_head(%struct._slist* noundef %0) #37, !dbg !6361
  tail call fastcc void @z_slist_tail_set(%struct._slist* noundef %0, %struct._snode* noundef %7) #37, !dbg !6361
  br label %8, !dbg !6361

8:                                                ; preds = %6, %1
  ret %struct._snode* %2, !dbg !6358
}

; Function Attrs: mustprogress nofree noinline norecurse nosync nounwind optsize readonly willreturn
define internal fastcc %struct._snode* @sys_slist_peek_head(%struct._slist* nocapture noundef readonly %0) unnamed_addr #11 !dbg !6363 {
  call void @llvm.dbg.value(metadata %struct._slist* %0, metadata !6365, metadata !DIExpression()), !dbg !6366
  %2 = getelementptr inbounds %struct._slist, %struct._slist* %0, i32 0, i32 0, !dbg !6367
  %3 = load %struct._snode*, %struct._snode** %2, align 4, !dbg !6367
  ret %struct._snode* %3, !dbg !6368
}

; Function Attrs: mustprogress nofree noinline norecurse nosync nounwind optsize readonly willreturn
define internal fastcc %struct._snode* @z_snode_next_peek(%struct._snode* nocapture noundef readonly %0) unnamed_addr #11 !dbg !6369 {
  call void @llvm.dbg.value(metadata %struct._snode* %0, metadata !6373, metadata !DIExpression()), !dbg !6374
  %2 = getelementptr inbounds %struct._snode, %struct._snode* %0, i32 0, i32 0, !dbg !6375
  %3 = load %struct._snode*, %struct._snode** %2, align 4, !dbg !6375
  ret %struct._snode* %3, !dbg !6376
}

; Function Attrs: mustprogress nofree noinline norecurse nosync nounwind optsize willreturn writeonly
define internal fastcc void @z_slist_head_set(%struct._slist* nocapture noundef writeonly %0, %struct._snode* noundef %1) unnamed_addr #10 !dbg !6377 {
  call void @llvm.dbg.value(metadata %struct._slist* %0, metadata !6379, metadata !DIExpression()), !dbg !6381
  call void @llvm.dbg.value(metadata %struct._snode* %1, metadata !6380, metadata !DIExpression()), !dbg !6381
  %3 = getelementptr inbounds %struct._slist, %struct._slist* %0, i32 0, i32 0, !dbg !6382
  store %struct._snode* %1, %struct._snode** %3, align 4, !dbg !6383
  ret void, !dbg !6384
}

; Function Attrs: mustprogress nofree noinline norecurse nosync nounwind optsize readonly willreturn
define internal fastcc %struct._snode* @sys_slist_peek_tail(%struct._slist* nocapture noundef readonly %0) unnamed_addr #11 !dbg !6385 {
  call void @llvm.dbg.value(metadata %struct._slist* %0, metadata !6387, metadata !DIExpression()), !dbg !6388
  %2 = getelementptr inbounds %struct._slist, %struct._slist* %0, i32 0, i32 1, !dbg !6389
  %3 = load %struct._snode*, %struct._snode** %2, align 4, !dbg !6389
  ret %struct._snode* %3, !dbg !6390
}

; Function Attrs: mustprogress nofree noinline norecurse nosync nounwind optsize willreturn writeonly
define internal fastcc void @z_slist_tail_set(%struct._slist* nocapture noundef writeonly %0, %struct._snode* noundef %1) unnamed_addr #10 !dbg !6391 {
  call void @llvm.dbg.value(metadata %struct._slist* %0, metadata !6393, metadata !DIExpression()), !dbg !6395
  call void @llvm.dbg.value(metadata %struct._snode* %1, metadata !6394, metadata !DIExpression()), !dbg !6395
  %3 = getelementptr inbounds %struct._slist, %struct._slist* %0, i32 0, i32 1, !dbg !6396
  store %struct._snode* %1, %struct._snode** %3, align 4, !dbg !6397
  ret void, !dbg !6398
}

; Function Attrs: mustprogress nofree noinline norecurse nosync nounwind optsize readonly willreturn
define internal fastcc %struct._snode* @sys_slist_peek_next(%struct._snode* noundef readonly %0) unnamed_addr #11 !dbg !6399 {
  call void @llvm.dbg.value(metadata %struct._snode* %0, metadata !6401, metadata !DIExpression()), !dbg !6402
  %2 = icmp eq %struct._snode* %0, null, !dbg !6403
  br i1 %2, label %5, label %3, !dbg !6403

3:                                                ; preds = %1
  %4 = tail call fastcc %struct._snode* @sys_slist_peek_next_no_check(%struct._snode* noundef nonnull %0) #37, !dbg !6403
  br label %5, !dbg !6403

5:                                                ; preds = %1, %3
  %6 = phi %struct._snode* [ %4, %3 ], [ null, %1 ], !dbg !6403
  ret %struct._snode* %6, !dbg !6403
}

; Function Attrs: mustprogress nofree noinline norecurse nosync nounwind optsize readonly willreturn
define internal fastcc %struct._snode* @sys_slist_peek_next_no_check(%struct._snode* nocapture noundef readonly %0) unnamed_addr #11 !dbg !6404 {
  call void @llvm.dbg.value(metadata %struct._snode* %0, metadata !6406, metadata !DIExpression()), !dbg !6407
  %2 = tail call fastcc %struct._snode* @z_snode_next_peek(%struct._snode* noundef %0) #37, !dbg !6408
  ret %struct._snode* %2, !dbg !6408
}

; Function Attrs: mustprogress nofree noinline norecurse nosync nounwind optsize willreturn writeonly
define internal fastcc void @z_snode_next_set(%struct._snode* nocapture noundef writeonly %0, %struct._snode* noundef %1) unnamed_addr #10 !dbg !6409 {
  call void @llvm.dbg.value(metadata %struct._snode* %0, metadata !6413, metadata !DIExpression()), !dbg !6415
  call void @llvm.dbg.value(metadata %struct._snode* %1, metadata !6414, metadata !DIExpression()), !dbg !6415
  %3 = getelementptr inbounds %struct._snode, %struct._snode* %0, i32 0, i32 0, !dbg !6416
  store %struct._snode* %1, %struct._snode** %3, align 4, !dbg !6417
  ret void, !dbg !6418
}

; Function Attrs: noinline nounwind optsize
define dso_local i32 @onoff_release(%struct.onoff_manager* noundef %0) local_unnamed_addr #1 !dbg !6419 {
  call void @llvm.dbg.value(metadata %struct.onoff_manager* %0, metadata !6421, metadata !DIExpression()), !dbg !6427
  call void @llvm.dbg.value(metadata i8 0, metadata !6422, metadata !DIExpression()), !dbg !6427
  call void @llvm.dbg.value(metadata %struct.k_spinlock* undef, metadata !5932, metadata !DIExpression()) #33, !dbg !6428
  %2 = tail call { i32, i32 } asm sideeffect "mov $1, $2;mrs $0, BASEPRI;msr BASEPRI_MAX, $1;isb;", "=r,=r,i,~{memory}"(i32 32) #33, !dbg !6430, !srcloc !5950
  %3 = extractvalue { i32, i32 } %2, 0, !dbg !6430
  call void @llvm.dbg.value(metadata i32 %3, metadata !5947, metadata !DIExpression()) #33, !dbg !6432
  call void @llvm.dbg.value(metadata i32 undef, metadata !5948, metadata !DIExpression()) #33, !dbg !6432
  call void @llvm.dbg.value(metadata i32 %3, metadata !5938, metadata !DIExpression()) #33, !dbg !6428
  call void @llvm.dbg.value(metadata i32 %3, metadata !6423, metadata !DIExpression()), !dbg !6427
  %4 = getelementptr inbounds %struct.onoff_manager, %struct.onoff_manager* %0, i32 0, i32 5, !dbg !6433
  %5 = load i16, i16* %4, align 4, !dbg !6433
  call void @llvm.dbg.value(metadata i16 %5, metadata !6424, metadata !DIExpression(DW_OP_constu, 7, DW_OP_and, DW_OP_LLVM_convert, 16, DW_ATE_unsigned, DW_OP_LLVM_convert, 32, DW_ATE_unsigned, DW_OP_stack_value)), !dbg !6427
  call void @llvm.dbg.value(metadata i16 %5, metadata !6425, metadata !DIExpression(DW_OP_constu, 7, DW_OP_and, DW_OP_LLVM_convert, 16, DW_ATE_unsigned, DW_OP_LLVM_convert, 32, DW_ATE_unsigned, DW_OP_stack_value)), !dbg !6427
  %6 = trunc i16 %5 to i3, !dbg !6434
  switch i3 %6, label %7 [
    i3 2, label %8
    i3 1, label %15
  ], !dbg !6434

7:                                                ; preds = %1
  call void @llvm.dbg.value(metadata i32 -134, metadata !6425, metadata !DIExpression()), !dbg !6427
  br label %15

8:                                                ; preds = %1
  %9 = getelementptr inbounds %struct.onoff_manager, %struct.onoff_manager* %0, i32 0, i32 6, !dbg !6435
  %10 = load i16, i16* %9, align 2, !dbg !6436
  %11 = add i16 %10, -1, !dbg !6436
  store i16 %11, i16* %9, align 2, !dbg !6436
  %12 = icmp eq i16 %11, 0, !dbg !6437
  call void @llvm.dbg.value(metadata i32 2, metadata !6425, metadata !DIExpression()), !dbg !6427
  call void @llvm.dbg.value(metadata i8 poison, metadata !6422, metadata !DIExpression()), !dbg !6427
  call void @llvm.dbg.label(metadata !6426), !dbg !6438
  br i1 %12, label %13, label %15, !dbg !6439

13:                                               ; preds = %8
  %14 = insertvalue [1 x i32] poison, i32 %3, 0, !dbg !6440
  tail call fastcc void @process_event(%struct.onoff_manager* noundef nonnull %0, i32 noundef 2, [1 x i32] %14) #37, !dbg !6440
  br label %17, !dbg !6443

15:                                               ; preds = %1, %7, %8
  %16 = phi i32 [ 2, %8 ], [ -5, %1 ], [ -134, %7 ]
  call void @llvm.dbg.value(metadata i32 %3, metadata !5973, metadata !DIExpression()) #33, !dbg !6444
  call void @llvm.dbg.value(metadata %struct.k_spinlock* undef, metadata !5978, metadata !DIExpression()) #33, !dbg !6444
  call void @llvm.dbg.value(metadata i32 %3, metadata !5983, metadata !DIExpression()) #33, !dbg !6447
  tail call void asm sideeffect "msr BASEPRI, $0;isb;", "r,~{memory}"(i32 %3) #33, !dbg !6449, !srcloc !5991
  br label %17

17:                                               ; preds = %15, %13
  %18 = phi i32 [ %16, %15 ], [ 2, %13 ]
  ret i32 %18, !dbg !6450
}

; Function Attrs: noinline nounwind optsize
define dso_local i32 @onoff_reset(%struct.onoff_manager* noundef %0, %struct.onoff_client* noundef %1) local_unnamed_addr #1 !dbg !6451 {
  call void @llvm.dbg.value(metadata %struct.onoff_manager* %0, metadata !6453, metadata !DIExpression()), !dbg !6459
  call void @llvm.dbg.value(metadata %struct.onoff_client* %1, metadata !6454, metadata !DIExpression()), !dbg !6459
  call void @llvm.dbg.value(metadata i8 0, metadata !6455, metadata !DIExpression()), !dbg !6459
  %3 = tail call fastcc i32 @validate_args(%struct.onoff_manager* noundef %0, %struct.onoff_client* noundef %1) #37, !dbg !6460
  call void @llvm.dbg.value(metadata i32 %3, metadata !6456, metadata !DIExpression()), !dbg !6459
  %4 = icmp sgt i32 %3, -1, !dbg !6461
  br i1 %4, label %5, label %28, !dbg !6463

5:                                                ; preds = %2
  %6 = getelementptr inbounds %struct.onoff_manager, %struct.onoff_manager* %0, i32 0, i32 2, !dbg !6464
  %7 = load %struct.onoff_transitions*, %struct.onoff_transitions** %6, align 4, !dbg !6464
  %8 = getelementptr inbounds %struct.onoff_transitions, %struct.onoff_transitions* %7, i32 0, i32 2, !dbg !6465
  %9 = load void (%struct.onoff_manager*, void (%struct.onoff_manager*, i32)*)*, void (%struct.onoff_manager*, void (%struct.onoff_manager*, i32)*)** %8, align 4, !dbg !6465
  %10 = icmp eq void (%struct.onoff_manager*, void (%struct.onoff_manager*, i32)*)* %9, null, !dbg !6466
  br i1 %10, label %28, label %11, !dbg !6467

11:                                               ; preds = %5
  call void @llvm.dbg.value(metadata i32 %3, metadata !6456, metadata !DIExpression()), !dbg !6459
  call void @llvm.dbg.value(metadata %struct.k_spinlock* undef, metadata !5932, metadata !DIExpression()) #33, !dbg !6468
  %12 = tail call { i32, i32 } asm sideeffect "mov $1, $2;mrs $0, BASEPRI;msr BASEPRI_MAX, $1;isb;", "=r,=r,i,~{memory}"(i32 32) #33, !dbg !6470, !srcloc !5950
  %13 = extractvalue { i32, i32 } %12, 0, !dbg !6470
  call void @llvm.dbg.value(metadata i32 %13, metadata !5947, metadata !DIExpression()) #33, !dbg !6472
  call void @llvm.dbg.value(metadata i32 undef, metadata !5948, metadata !DIExpression()) #33, !dbg !6472
  call void @llvm.dbg.value(metadata i32 %13, metadata !5938, metadata !DIExpression()) #33, !dbg !6468
  call void @llvm.dbg.value(metadata i32 %13, metadata !6457, metadata !DIExpression()), !dbg !6459
  %14 = getelementptr inbounds %struct.onoff_manager, %struct.onoff_manager* %0, i32 0, i32 5, !dbg !6473
  %15 = load i16, i16* %14, align 4, !dbg !6473
  %16 = and i16 %15, 7, !dbg !6474
  %17 = zext i16 %16 to i32, !dbg !6474
  call void @llvm.dbg.value(metadata i32 %17, metadata !6458, metadata !DIExpression()), !dbg !6459
  call void @llvm.dbg.value(metadata i32 %17, metadata !6456, metadata !DIExpression()), !dbg !6459
  %18 = and i32 %17, 1, !dbg !6475
  %19 = icmp eq i32 %18, 0, !dbg !6477
  br i1 %19, label %26, label %20, !dbg !6478

20:                                               ; preds = %11
  %21 = icmp eq i16 %16, 5, !dbg !6479
  call void @llvm.dbg.value(metadata i1 %21, metadata !6455, metadata !DIExpression(DW_OP_LLVM_convert, 1, DW_ATE_unsigned, DW_OP_LLVM_convert, 8, DW_ATE_unsigned, DW_OP_stack_value)), !dbg !6459
  %22 = getelementptr inbounds %struct.onoff_manager, %struct.onoff_manager* %0, i32 0, i32 0, !dbg !6481
  %23 = getelementptr inbounds %struct.onoff_client, %struct.onoff_client* %1, i32 0, i32 0, !dbg !6482
  tail call fastcc void @sys_slist_append(%struct._slist* noundef %22, %struct._snode* noundef %23) #37, !dbg !6483
  call void @llvm.dbg.value(metadata i8 poison, metadata !6455, metadata !DIExpression()), !dbg !6459
  call void @llvm.dbg.value(metadata i32 %17, metadata !6456, metadata !DIExpression()), !dbg !6459
  br i1 %21, label %26, label %24, !dbg !6484

24:                                               ; preds = %20
  %25 = insertvalue [1 x i32] poison, i32 %13, 0, !dbg !6485
  tail call fastcc void @process_event(%struct.onoff_manager* noundef nonnull %0, i32 noundef 2, [1 x i32] %25) #37, !dbg !6485
  br label %28, !dbg !6488

26:                                               ; preds = %11, %20
  %27 = phi i32 [ 5, %20 ], [ -120, %11 ]
  call void @llvm.dbg.value(metadata i32 %13, metadata !5973, metadata !DIExpression()) #33, !dbg !6489
  call void @llvm.dbg.value(metadata %struct.k_spinlock* undef, metadata !5978, metadata !DIExpression()) #33, !dbg !6489
  call void @llvm.dbg.value(metadata i32 %13, metadata !5983, metadata !DIExpression()) #33, !dbg !6492
  tail call void asm sideeffect "msr BASEPRI, $0;isb;", "r,~{memory}"(i32 %13) #33, !dbg !6494, !srcloc !5991
  br label %28

28:                                               ; preds = %5, %2, %24, %26
  %29 = phi i32 [ %27, %26 ], [ %17, %24 ], [ %3, %2 ], [ -134, %5 ], !dbg !6459
  ret i32 %29, !dbg !6495
}

; Function Attrs: noinline nounwind optsize
define dso_local i32 @onoff_cancel(%struct.onoff_manager* noundef %0, %struct.onoff_client* noundef %1) local_unnamed_addr #1 !dbg !6496 {
  call void @llvm.dbg.value(metadata %struct.onoff_manager* %0, metadata !6498, metadata !DIExpression()), !dbg !6503
  call void @llvm.dbg.value(metadata %struct.onoff_client* %1, metadata !6499, metadata !DIExpression()), !dbg !6503
  %3 = icmp eq %struct.onoff_manager* %0, null, !dbg !6504
  %4 = icmp eq %struct.onoff_client* %1, null
  %5 = or i1 %3, %4, !dbg !6506
  br i1 %5, label %17, label %6, !dbg !6506

6:                                                ; preds = %2
  call void @llvm.dbg.value(metadata i32 -120, metadata !6500, metadata !DIExpression()), !dbg !6503
  call void @llvm.dbg.value(metadata %struct.k_spinlock* undef, metadata !5932, metadata !DIExpression()) #33, !dbg !6507
  %7 = tail call { i32, i32 } asm sideeffect "mov $1, $2;mrs $0, BASEPRI;msr BASEPRI_MAX, $1;isb;", "=r,=r,i,~{memory}"(i32 32) #33, !dbg !6509, !srcloc !5950
  %8 = extractvalue { i32, i32 } %7, 0, !dbg !6509
  call void @llvm.dbg.value(metadata i32 %8, metadata !5947, metadata !DIExpression()) #33, !dbg !6511
  call void @llvm.dbg.value(metadata i32 undef, metadata !5948, metadata !DIExpression()) #33, !dbg !6511
  call void @llvm.dbg.value(metadata i32 %8, metadata !5938, metadata !DIExpression()) #33, !dbg !6507
  call void @llvm.dbg.value(metadata i32 %8, metadata !6501, metadata !DIExpression()), !dbg !6503
  %9 = getelementptr inbounds %struct.onoff_manager, %struct.onoff_manager* %0, i32 0, i32 5, !dbg !6512
  %10 = load i16, i16* %9, align 4, !dbg !6512
  call void @llvm.dbg.value(metadata i16 %10, metadata !6502, metadata !DIExpression(DW_OP_LLVM_convert, 16, DW_ATE_unsigned, DW_OP_LLVM_convert, 32, DW_ATE_unsigned, DW_OP_constu, 7, DW_OP_and, DW_OP_stack_value)), !dbg !6503
  %11 = getelementptr inbounds %struct.onoff_manager, %struct.onoff_manager* %0, i32 0, i32 0, !dbg !6513
  %12 = getelementptr inbounds %struct.onoff_client, %struct.onoff_client* %1, i32 0, i32 0, !dbg !6515
  %13 = tail call fastcc zeroext i1 @sys_slist_find_and_remove(%struct._slist* noundef %11, %struct._snode* noundef %12) #37, !dbg !6516
  %14 = and i16 %10, 7, !dbg !6517
  %15 = zext i16 %14 to i32, !dbg !6517
  %16 = select i1 %13, i32 %15, i32 -120, !dbg !6517
  call void @llvm.dbg.value(metadata i32 %16, metadata !6500, metadata !DIExpression()), !dbg !6503
  call void @llvm.dbg.value(metadata i32 %8, metadata !5973, metadata !DIExpression()) #33, !dbg !6518
  call void @llvm.dbg.value(metadata %struct.k_spinlock* undef, metadata !5978, metadata !DIExpression()) #33, !dbg !6518
  call void @llvm.dbg.value(metadata i32 %8, metadata !5983, metadata !DIExpression()) #33, !dbg !6520
  tail call void asm sideeffect "msr BASEPRI, $0;isb;", "r,~{memory}"(i32 %8) #33, !dbg !6522, !srcloc !5991
  br label %17

17:                                               ; preds = %2, %6
  %18 = phi i32 [ %16, %6 ], [ -22, %2 ], !dbg !6503
  ret i32 %18, !dbg !6523
}

; Function Attrs: nofree noinline norecurse nosync nounwind optsize
define internal fastcc zeroext i1 @sys_slist_find_and_remove(%struct._slist* nocapture noundef %0, %struct._snode* noundef %1) unnamed_addr #20 !dbg !6524 {
  call void @llvm.dbg.value(metadata %struct._slist* %0, metadata !6528, metadata !DIExpression()), !dbg !6532
  call void @llvm.dbg.value(metadata %struct._snode* %1, metadata !6529, metadata !DIExpression()), !dbg !6532
  call void @llvm.dbg.value(metadata %struct._snode* null, metadata !6530, metadata !DIExpression()), !dbg !6532
  %3 = tail call fastcc %struct._snode* @sys_slist_peek_head(%struct._slist* noundef %0) #37, !dbg !6533
  call void @llvm.dbg.value(metadata %struct._snode* %3, metadata !6531, metadata !DIExpression()), !dbg !6532
  call void @llvm.dbg.value(metadata %struct._snode* null, metadata !6530, metadata !DIExpression()), !dbg !6532
  %4 = icmp eq %struct._snode* %3, null, !dbg !6535
  br i1 %4, label %15, label %5, !dbg !6533

5:                                                ; preds = %2
  call void @llvm.dbg.value(metadata %struct._snode* %3, metadata !6531, metadata !DIExpression()), !dbg !6532
  call void @llvm.dbg.value(metadata %struct._snode* null, metadata !6530, metadata !DIExpression()), !dbg !6532
  %6 = icmp eq %struct._snode* %3, %1, !dbg !6537
  br i1 %6, label %9, label %11, !dbg !6540

7:                                                ; preds = %11
  call void @llvm.dbg.value(metadata %struct._snode* %13, metadata !6531, metadata !DIExpression()), !dbg !6532
  call void @llvm.dbg.value(metadata %struct._snode* %12, metadata !6530, metadata !DIExpression()), !dbg !6532
  %8 = icmp eq %struct._snode* %13, %1, !dbg !6537
  br i1 %8, label %9, label %11, !dbg !6540, !llvm.loop !6541

9:                                                ; preds = %7, %5
  %10 = phi %struct._snode* [ null, %5 ], [ %12, %7 ]
  tail call fastcc void @sys_slist_remove(%struct._slist* noundef %0, %struct._snode* noundef %10, %struct._snode* noundef %1) #37, !dbg !6542
  br label %15, !dbg !6542

11:                                               ; preds = %5, %7
  %12 = phi %struct._snode* [ %13, %7 ], [ %3, %5 ]
  call void @llvm.dbg.value(metadata %struct._snode* %12, metadata !6531, metadata !DIExpression()), !dbg !6532
  call void @llvm.dbg.value(metadata %struct._snode* %12, metadata !6530, metadata !DIExpression()), !dbg !6532
  %13 = tail call fastcc %struct._snode* @sys_slist_peek_next(%struct._snode* noundef nonnull %12) #37, !dbg !6535
  call void @llvm.dbg.value(metadata %struct._snode* %13, metadata !6531, metadata !DIExpression()), !dbg !6532
  %14 = icmp eq %struct._snode* %13, null, !dbg !6535
  br i1 %14, label %15, label %7, !dbg !6533, !llvm.loop !6541

15:                                               ; preds = %11, %2, %9
  %16 = phi i1 [ true, %9 ], [ false, %2 ], [ false, %11 ]
  ret i1 %16, !dbg !6544
}

; Function Attrs: mustprogress nofree noinline norecurse nosync nounwind optsize willreturn
define internal fastcc void @sys_slist_remove(%struct._slist* nocapture noundef %0, %struct._snode* noundef %1, %struct._snode* noundef %2) unnamed_addr #13 !dbg !6545 {
  call void @llvm.dbg.value(metadata %struct._slist* %0, metadata !6549, metadata !DIExpression()), !dbg !6552
  call void @llvm.dbg.value(metadata %struct._snode* %1, metadata !6550, metadata !DIExpression()), !dbg !6552
  call void @llvm.dbg.value(metadata %struct._snode* %2, metadata !6551, metadata !DIExpression()), !dbg !6552
  %4 = icmp eq %struct._snode* %1, null, !dbg !6553
  %5 = tail call fastcc %struct._snode* @z_snode_next_peek(%struct._snode* noundef %2) #37, !dbg !6555
  br i1 %4, label %6, label %11, !dbg !6556

6:                                                ; preds = %3
  tail call fastcc void @z_slist_head_set(%struct._slist* noundef %0, %struct._snode* noundef %5) #37, !dbg !6557
  %7 = tail call fastcc %struct._snode* @sys_slist_peek_tail(%struct._slist* noundef %0) #37, !dbg !6559
  %8 = icmp eq %struct._snode* %7, %2, !dbg !6559
  br i1 %8, label %9, label %15, !dbg !6557

9:                                                ; preds = %6
  %10 = tail call fastcc %struct._snode* @sys_slist_peek_head(%struct._slist* noundef %0) #37, !dbg !6561
  tail call fastcc void @z_slist_tail_set(%struct._slist* noundef %0, %struct._snode* noundef %10) #37, !dbg !6561
  br label %15, !dbg !6561

11:                                               ; preds = %3
  tail call fastcc void @z_snode_next_set(%struct._snode* noundef nonnull %1, %struct._snode* noundef %5) #37, !dbg !6563
  %12 = tail call fastcc %struct._snode* @sys_slist_peek_tail(%struct._slist* noundef %0) #37, !dbg !6565
  %13 = icmp eq %struct._snode* %12, %2, !dbg !6565
  br i1 %13, label %14, label %15, !dbg !6563

14:                                               ; preds = %11
  tail call fastcc void @z_slist_tail_set(%struct._slist* noundef %0, %struct._snode* noundef nonnull %1) #37, !dbg !6567
  br label %15, !dbg !6567

15:                                               ; preds = %11, %14, %6, %9
  tail call fastcc void @z_snode_next_set(%struct._snode* noundef %2, %struct._snode* noundef null) #37, !dbg !6556
  ret void, !dbg !6556
}

; Function Attrs: noinline nounwind optsize
define dso_local i32 @onoff_monitor_register(%struct.onoff_manager* noundef %0, %struct.onoff_monitor* noundef %1) local_unnamed_addr #1 !dbg !6569 {
  call void @llvm.dbg.value(metadata %struct.onoff_manager* %0, metadata !6573, metadata !DIExpression()), !dbg !6576
  call void @llvm.dbg.value(metadata %struct.onoff_monitor* %1, metadata !6574, metadata !DIExpression()), !dbg !6576
  %3 = icmp eq %struct.onoff_manager* %0, null, !dbg !6577
  %4 = icmp eq %struct.onoff_monitor* %1, null
  %5 = or i1 %3, %4, !dbg !6579
  br i1 %5, label %15, label %6, !dbg !6579

6:                                                ; preds = %2
  %7 = getelementptr inbounds %struct.onoff_monitor, %struct.onoff_monitor* %1, i32 0, i32 1, !dbg !6580
  %8 = load void (%struct.onoff_manager*, %struct.onoff_monitor*, i32, i32)*, void (%struct.onoff_manager*, %struct.onoff_monitor*, i32, i32)** %7, align 4, !dbg !6580
  %9 = icmp eq void (%struct.onoff_manager*, %struct.onoff_monitor*, i32, i32)* %8, null, !dbg !6581
  br i1 %9, label %15, label %10, !dbg !6582

10:                                               ; preds = %6
  call void @llvm.dbg.value(metadata %struct.k_spinlock* undef, metadata !5932, metadata !DIExpression()) #33, !dbg !6583
  %11 = tail call { i32, i32 } asm sideeffect "mov $1, $2;mrs $0, BASEPRI;msr BASEPRI_MAX, $1;isb;", "=r,=r,i,~{memory}"(i32 32) #33, !dbg !6585, !srcloc !5950
  %12 = extractvalue { i32, i32 } %11, 0, !dbg !6585
  call void @llvm.dbg.value(metadata i32 %12, metadata !5947, metadata !DIExpression()) #33, !dbg !6587
  call void @llvm.dbg.value(metadata i32 undef, metadata !5948, metadata !DIExpression()) #33, !dbg !6587
  call void @llvm.dbg.value(metadata i32 %12, metadata !5938, metadata !DIExpression()) #33, !dbg !6583
  call void @llvm.dbg.value(metadata i32 %12, metadata !6575, metadata !DIExpression()), !dbg !6576
  %13 = getelementptr inbounds %struct.onoff_manager, %struct.onoff_manager* %0, i32 0, i32 1, !dbg !6588
  %14 = getelementptr inbounds %struct.onoff_monitor, %struct.onoff_monitor* %1, i32 0, i32 0, !dbg !6589
  tail call fastcc void @sys_slist_append(%struct._slist* noundef nonnull %13, %struct._snode* noundef %14) #37, !dbg !6590
  call void @llvm.dbg.value(metadata i32 %12, metadata !5973, metadata !DIExpression()) #33, !dbg !6591
  call void @llvm.dbg.value(metadata %struct.k_spinlock* undef, metadata !5978, metadata !DIExpression()) #33, !dbg !6591
  call void @llvm.dbg.value(metadata i32 %12, metadata !5983, metadata !DIExpression()) #33, !dbg !6593
  tail call void asm sideeffect "msr BASEPRI, $0;isb;", "r,~{memory}"(i32 %12) #33, !dbg !6595, !srcloc !5991
  br label %15

15:                                               ; preds = %2, %6, %10
  %16 = phi i32 [ 0, %10 ], [ -22, %6 ], [ -22, %2 ], !dbg !6576
  ret i32 %16, !dbg !6596
}

; Function Attrs: noinline nounwind optsize
define dso_local i32 @onoff_monitor_unregister(%struct.onoff_manager* noundef %0, %struct.onoff_monitor* noundef %1) local_unnamed_addr #1 !dbg !6597 {
  call void @llvm.dbg.value(metadata %struct.onoff_manager* %0, metadata !6599, metadata !DIExpression()), !dbg !6603
  call void @llvm.dbg.value(metadata %struct.onoff_monitor* %1, metadata !6600, metadata !DIExpression()), !dbg !6603
  call void @llvm.dbg.value(metadata i32 -22, metadata !6601, metadata !DIExpression()), !dbg !6603
  %3 = icmp eq %struct.onoff_manager* %0, null, !dbg !6604
  %4 = icmp eq %struct.onoff_monitor* %1, null
  %5 = or i1 %3, %4, !dbg !6606
  br i1 %5, label %13, label %6, !dbg !6606

6:                                                ; preds = %2
  call void @llvm.dbg.value(metadata %struct.k_spinlock* undef, metadata !5932, metadata !DIExpression()) #33, !dbg !6607
  %7 = tail call { i32, i32 } asm sideeffect "mov $1, $2;mrs $0, BASEPRI;msr BASEPRI_MAX, $1;isb;", "=r,=r,i,~{memory}"(i32 32) #33, !dbg !6609, !srcloc !5950
  %8 = extractvalue { i32, i32 } %7, 0, !dbg !6609
  call void @llvm.dbg.value(metadata i32 %8, metadata !5947, metadata !DIExpression()) #33, !dbg !6611
  call void @llvm.dbg.value(metadata i32 undef, metadata !5948, metadata !DIExpression()) #33, !dbg !6611
  call void @llvm.dbg.value(metadata i32 %8, metadata !5938, metadata !DIExpression()) #33, !dbg !6607
  call void @llvm.dbg.value(metadata i32 %8, metadata !6602, metadata !DIExpression()), !dbg !6603
  %9 = getelementptr inbounds %struct.onoff_manager, %struct.onoff_manager* %0, i32 0, i32 1, !dbg !6612
  %10 = getelementptr inbounds %struct.onoff_monitor, %struct.onoff_monitor* %1, i32 0, i32 0, !dbg !6614
  %11 = tail call fastcc zeroext i1 @sys_slist_find_and_remove(%struct._slist* noundef nonnull %9, %struct._snode* noundef %10) #37, !dbg !6615
  %12 = select i1 %11, i32 0, i32 -22, !dbg !6616
  call void @llvm.dbg.value(metadata i32 %12, metadata !6601, metadata !DIExpression()), !dbg !6603
  call void @llvm.dbg.value(metadata i32 %8, metadata !5973, metadata !DIExpression()) #33, !dbg !6617
  call void @llvm.dbg.value(metadata %struct.k_spinlock* undef, metadata !5978, metadata !DIExpression()) #33, !dbg !6617
  call void @llvm.dbg.value(metadata i32 %8, metadata !5983, metadata !DIExpression()) #33, !dbg !6619
  tail call void asm sideeffect "msr BASEPRI, $0;isb;", "r,~{memory}"(i32 %8) #33, !dbg !6621, !srcloc !5991
  br label %13

13:                                               ; preds = %2, %6
  %14 = phi i32 [ %12, %6 ], [ -22, %2 ], !dbg !6603
  ret i32 %14, !dbg !6622
}

; Function Attrs: noinline nounwind optsize
define dso_local i32 @onoff_sync_lock(%struct.onoff_sync_service* nocapture noundef readonly %0, %struct.z_heap_bucket* nocapture noundef writeonly %1) local_unnamed_addr #1 !dbg !6623 {
  call void @llvm.dbg.value(metadata %struct.onoff_sync_service* %0, metadata !6633, metadata !DIExpression()), !dbg !6635
  call void @llvm.dbg.value(metadata %struct.z_heap_bucket* %1, metadata !6634, metadata !DIExpression()), !dbg !6635
  call void @llvm.dbg.value(metadata %struct.k_spinlock* undef, metadata !5932, metadata !DIExpression()) #33, !dbg !6636
  %3 = tail call { i32, i32 } asm sideeffect "mov $1, $2;mrs $0, BASEPRI;msr BASEPRI_MAX, $1;isb;", "=r,=r,i,~{memory}"(i32 32) #33, !dbg !6638, !srcloc !5950
  %4 = extractvalue { i32, i32 } %3, 0, !dbg !6638
  call void @llvm.dbg.value(metadata i32 %4, metadata !5947, metadata !DIExpression()) #33, !dbg !6640
  call void @llvm.dbg.value(metadata i32 undef, metadata !5948, metadata !DIExpression()) #33, !dbg !6640
  call void @llvm.dbg.value(metadata i32 %4, metadata !5938, metadata !DIExpression()) #33, !dbg !6636
  %5 = getelementptr inbounds %struct.z_heap_bucket, %struct.z_heap_bucket* %1, i32 0, i32 0, !dbg !6641
  store i32 %4, i32* %5, align 4, !dbg !6641
  %6 = getelementptr inbounds %struct.onoff_sync_service, %struct.onoff_sync_service* %0, i32 0, i32 1, !dbg !6642
  %7 = load i32, i32* %6, align 4, !dbg !6642
  ret i32 %7, !dbg !6643
}

; Function Attrs: noinline nounwind optsize
define dso_local i32 @onoff_sync_finalize(%struct.onoff_sync_service* nocapture noundef %0, [1 x i32] %1, %struct.onoff_client* noundef %2, i32 noundef %3, i1 noundef zeroext %4) local_unnamed_addr #1 !dbg !6644 {
  call void @llvm.dbg.value(metadata i32 undef, metadata !6649, metadata !DIExpression()), !dbg !6655
  call void @llvm.dbg.value(metadata %struct.onoff_sync_service* %0, metadata !6648, metadata !DIExpression()), !dbg !6655
  call void @llvm.dbg.value(metadata %struct.onoff_client* %2, metadata !6650, metadata !DIExpression()), !dbg !6655
  call void @llvm.dbg.value(metadata i32 %3, metadata !6651, metadata !DIExpression()), !dbg !6655
  call void @llvm.dbg.value(metadata i1 %4, metadata !6652, metadata !DIExpression(DW_OP_LLVM_convert, 1, DW_ATE_unsigned, DW_OP_LLVM_convert, 8, DW_ATE_unsigned, DW_OP_stack_value)), !dbg !6655
  call void @llvm.dbg.value(metadata i32 2, metadata !6653, metadata !DIExpression()), !dbg !6655
  %6 = getelementptr inbounds %struct.onoff_sync_service, %struct.onoff_sync_service* %0, i32 0, i32 1, !dbg !6656
  %7 = load i32, i32* %6, align 4, !dbg !6656
  %8 = icmp sgt i32 %7, 0, !dbg !6658
  %9 = select i1 %8, i32 %7, i32 0, !dbg !6658
  %10 = icmp slt i32 %3, 0, !dbg !6659
  br i1 %10, label %16, label %11, !dbg !6661

11:                                               ; preds = %5
  br i1 %4, label %12, label %14, !dbg !6662

12:                                               ; preds = %11
  %13 = add nuw nsw i32 %9, 1, !dbg !6663
  br label %16, !dbg !6666

14:                                               ; preds = %11
  %15 = add nsw i32 %9, -1, !dbg !6667
  br label %16

16:                                               ; preds = %5, %12, %14
  %17 = phi i32 [ %13, %12 ], [ %15, %14 ], [ %3, %5 ]
  %18 = phi i32 [ 2, %12 ], [ 2, %14 ], [ 1, %5 ], !dbg !6655
  store i32 %17, i32* %6, align 4, !dbg !6669
  call void @llvm.dbg.value(metadata i32 %18, metadata !6653, metadata !DIExpression()), !dbg !6655
  call void @llvm.dbg.value(metadata i32 %17, metadata !6654, metadata !DIExpression()), !dbg !6655
  %19 = extractvalue [1 x i32] %1, 0
  call void @llvm.dbg.value(metadata i32 %19, metadata !5973, metadata !DIExpression()) #33, !dbg !6670
  call void @llvm.dbg.value(metadata %struct.k_spinlock* undef, metadata !5978, metadata !DIExpression()) #33, !dbg !6670
  call void @llvm.dbg.value(metadata i32 %19, metadata !5983, metadata !DIExpression()) #33, !dbg !6672
  tail call void asm sideeffect "msr BASEPRI, $0;isb;", "r,~{memory}"(i32 %19) #33, !dbg !6674, !srcloc !5991
  %20 = icmp eq %struct.onoff_client* %2, null, !dbg !6675
  br i1 %20, label %22, label %21, !dbg !6677

21:                                               ; preds = %16
  tail call fastcc void @notify_one(%struct.onoff_manager* noundef null, %struct.onoff_client* noundef nonnull %2, i32 noundef %18, i32 noundef %3) #37, !dbg !6678
  br label %22, !dbg !6680

22:                                               ; preds = %21, %16
  ret i32 %17, !dbg !6681
}

; Function Attrs: nofree noinline norecurse nounwind optsize
define dso_local i32 @sys_notify_validate(%struct.sys_notify* noundef %0) local_unnamed_addr #21 !dbg !6682 {
  call void @llvm.dbg.value(metadata %struct.sys_notify* %0, metadata !6717, metadata !DIExpression()), !dbg !6719
  call void @llvm.dbg.value(metadata i32 0, metadata !6718, metadata !DIExpression()), !dbg !6719
  %2 = icmp eq %struct.sys_notify* %0, null, !dbg !6720
  br i1 %2, label %11, label %3, !dbg !6722

3:                                                ; preds = %1
  %4 = tail call fastcc i32 @sys_notify_get_method(%struct.sys_notify* noundef nonnull %0) #37, !dbg !6723
  switch i32 %4, label %11 [
    i32 1, label %9
    i32 3, label %5
  ], !dbg !6724

5:                                                ; preds = %3
  %6 = bitcast %struct.sys_notify* %0 to void (...)**, !dbg !6725
  %7 = load void (...)*, void (...)** %6, align 4, !dbg !6725
  %8 = icmp eq void (...)* %7, null, !dbg !6728
  call void @llvm.dbg.value(metadata i32 undef, metadata !6718, metadata !DIExpression()), !dbg !6719
  br i1 %8, label %11, label %9, !dbg !6729

9:                                                ; preds = %3, %5
  %10 = getelementptr inbounds %struct.sys_notify, %struct.sys_notify* %0, i32 0, i32 2, !dbg !6730
  store volatile i32 0, i32* %10, align 4, !dbg !6733
  br label %11, !dbg !6734

11:                                               ; preds = %3, %5, %9, %1
  %12 = phi i32 [ -22, %1 ], [ 0, %9 ], [ -22, %5 ], [ -22, %3 ], !dbg !6719
  ret i32 %12, !dbg !6735
}

; Function Attrs: mustprogress nofree noinline norecurse nounwind optsize willreturn
define internal fastcc i32 @sys_notify_get_method(%struct.sys_notify* noundef %0) unnamed_addr #22 !dbg !6736 {
  call void @llvm.dbg.value(metadata %struct.sys_notify* %0, metadata !6742, metadata !DIExpression()), !dbg !6744
  %2 = getelementptr inbounds %struct.sys_notify, %struct.sys_notify* %0, i32 0, i32 1, !dbg !6745
  %3 = load volatile i32, i32* %2, align 4, !dbg !6745
  call void @llvm.dbg.value(metadata i32 %3, metadata !6743, metadata !DIExpression()), !dbg !6744
  %4 = and i32 %3, 3, !dbg !6746
  ret i32 %4, !dbg !6747
}

; Function Attrs: noinline nounwind optsize
define dso_local void (...)* @sys_notify_finalize(%struct.sys_notify* noundef %0, i32 noundef %1) local_unnamed_addr #1 !dbg !6748 {
  call void @llvm.dbg.value(metadata %struct.sys_notify* %0, metadata !6752, metadata !DIExpression()), !dbg !6757
  call void @llvm.dbg.value(metadata i32 %1, metadata !6753, metadata !DIExpression()), !dbg !6757
  call void @llvm.dbg.value(metadata %struct.k_poll_signal* null, metadata !6754, metadata !DIExpression()), !dbg !6757
  call void @llvm.dbg.value(metadata void (...)* null, metadata !6755, metadata !DIExpression()), !dbg !6757
  %3 = tail call fastcc i32 @sys_notify_get_method(%struct.sys_notify* noundef %0) #37, !dbg !6758
  call void @llvm.dbg.value(metadata i32 %3, metadata !6756, metadata !DIExpression()), !dbg !6757
  %4 = getelementptr inbounds %struct.sys_notify, %struct.sys_notify* %0, i32 0, i32 2, !dbg !6759
  store volatile i32 %1, i32* %4, align 4, !dbg !6760
  %5 = icmp eq i32 %3, 3, !dbg !6761
  br i1 %5, label %6, label %9, !dbg !6761

6:                                                ; preds = %2
  %7 = bitcast %struct.sys_notify* %0 to void (...)**, !dbg !6762
  %8 = load void (...)*, void (...)** %7, align 4, !dbg !6762
  call void @llvm.dbg.value(metadata void (...)* %8, metadata !6755, metadata !DIExpression()), !dbg !6757
  br label %9, !dbg !6764

9:                                                ; preds = %2, %6
  %10 = phi void (...)* [ %8, %6 ], [ null, %2 ], !dbg !6757
  call void @llvm.dbg.value(metadata void (...)* %10, metadata !6755, metadata !DIExpression()), !dbg !6757
  tail call void asm sideeffect "", "~{memory}"() #33, !dbg !6765, !srcloc !6767
  %11 = getelementptr inbounds %struct.sys_notify, %struct.sys_notify* %0, i32 0, i32 1, !dbg !6768
  store volatile i32 0, i32* %11, align 4, !dbg !6769
  ret void (...)* %10, !dbg !6770
}

; Function Attrs: noinline nounwind optsize
define dso_local i32 @z_cbvprintf_impl(i32 (...)* nocapture noundef readonly %0, i8* noundef %1, i8* noundef %2, [1 x i32] %3, i32 noundef %4) local_unnamed_addr #1 !dbg !6771 {
  %6 = alloca [22 x i8], align 1
  %7 = alloca %struct.anon, align 8
  %8 = extractvalue [1 x i32] %3, 0
  %9 = inttoptr i32 %8 to i8*
  call void @llvm.dbg.value(metadata i8* %9, metadata !6784, metadata !DIExpression()), !dbg !6912
  call void @llvm.dbg.value(metadata i32 (...)* %0, metadata !6781, metadata !DIExpression()), !dbg !6912
  call void @llvm.dbg.value(metadata i8* %1, metadata !6782, metadata !DIExpression()), !dbg !6912
  call void @llvm.dbg.value(metadata i8* %2, metadata !6783, metadata !DIExpression()), !dbg !6912
  call void @llvm.dbg.value(metadata i32 %4, metadata !6785, metadata !DIExpression()), !dbg !6912
  %10 = getelementptr inbounds [22 x i8], [22 x i8]* %6, i32 0, i32 0, !dbg !6913
  call void @llvm.lifetime.start.p0i8(i64 22, i8* nonnull %10) #33, !dbg !6913
  call void @llvm.dbg.declare(metadata [22 x i8]* %6, metadata !6786, metadata !DIExpression()), !dbg !6914
  call void @llvm.dbg.value(metadata i32 0, metadata !6790, metadata !DIExpression()), !dbg !6912
  call void @llvm.dbg.value(metadata i1 undef, metadata !6792, metadata !DIExpression(DW_OP_LLVM_convert, 1, DW_ATE_unsigned, DW_OP_LLVM_convert, 8, DW_ATE_unsigned, DW_OP_stack_value)), !dbg !6912
  %11 = bitcast i32 (...)* %0 to i32 (i32, i8*)*
  %12 = bitcast %struct.anon* %7 to i8*
  %13 = getelementptr inbounds %struct.anon, %struct.anon* %7, i32 0, i32 1
  %14 = getelementptr inbounds [22 x i8], [22 x i8]* %6, i32 0, i32 22
  %15 = bitcast %struct.conversion* %13 to i24*
  %16 = getelementptr inbounds %struct.anon, %struct.anon* %7, i32 0, i32 1, i32 2, i32 0
  %17 = getelementptr inbounds %struct.anon, %struct.anon* %7, i32 0, i32 1, i32 3, i32 0
  %18 = bitcast %struct.anon* %7 to i8**
  %19 = bitcast %struct.anon* %7 to double*
  %20 = getelementptr inbounds %struct.anon, %struct.anon* %7, i32 0, i32 0, i32 0
  %21 = getelementptr inbounds %struct.anon, %struct.anon* %7, i32 0, i32 1, i32 1
  %22 = ptrtoint i8* %14 to i32
  %23 = getelementptr inbounds [22 x i8], [22 x i8]* %6, i32 0, i32 1
  br label %24, !dbg !6915

24:                                               ; preds = %363, %5
  %25 = phi i32 [ %364, %363 ], [ 0, %5 ]
  %26 = phi i8* [ %39, %363 ], [ %2, %5 ]
  %27 = phi i8* [ %178, %363 ], [ %9, %5 ]
  br label %28, !dbg !6915

28:                                               ; preds = %24, %32
  %29 = phi i32 [ %37, %32 ], [ %25, %24 ], !dbg !6916
  %30 = phi i8* [ %34, %32 ], [ %26, %24 ]
  call void @llvm.dbg.value(metadata i8* %27, metadata !6784, metadata !DIExpression()), !dbg !6912
  call void @llvm.dbg.value(metadata i8* %30, metadata !6783, metadata !DIExpression()), !dbg !6912
  call void @llvm.dbg.value(metadata i32 %29, metadata !6790, metadata !DIExpression()), !dbg !6912
  %31 = load i8, i8* %30, align 1, !dbg !6917
  switch i8 %31, label %32 [
    i8 0, label %365
    i8 37, label %38
  ], !dbg !6915

32:                                               ; preds = %28
  %33 = zext i8 %31 to i32, !dbg !6917
  %34 = getelementptr inbounds i8, i8* %30, i32 1, !dbg !6918
  call void @llvm.dbg.value(metadata i8* %34, metadata !6783, metadata !DIExpression()), !dbg !6912
  %35 = call i32 %11(i32 noundef %33, i8* noundef %1) #38, !dbg !6918
  call void @llvm.dbg.value(metadata i32 %35, metadata !6794, metadata !DIExpression()), !dbg !6919
  %36 = icmp slt i32 %35, 0, !dbg !6920
  %37 = add i32 %29, 1, !dbg !6918
  call void @llvm.dbg.value(metadata i32 undef, metadata !6790, metadata !DIExpression()), !dbg !6912
  br i1 %36, label %365, label %28, !llvm.loop !6922

38:                                               ; preds = %28
  call void @llvm.lifetime.start.p0i8(i64 24, i8* nonnull %12) #33, !dbg !6924
  call void @llvm.dbg.declare(metadata %struct.anon* %7, metadata !6799, metadata !DIExpression()), !dbg !6925
  call void @llvm.memset.p0i8.i32(i8* noundef nonnull align 8 dereferenceable(24) %12, i8 0, i32 24, i1 false), !dbg !6925
  call void @llvm.dbg.value(metadata %struct.conversion* %13, metadata !6844, metadata !DIExpression()), !dbg !6926
  call void @llvm.dbg.value(metadata %struct.anon* %7, metadata !6847, metadata !DIExpression()), !dbg !6926
  call void @llvm.dbg.value(metadata i8* %30, metadata !6850, metadata !DIExpression()), !dbg !6926
  call void @llvm.dbg.value(metadata i32 -1, metadata !6851, metadata !DIExpression()), !dbg !6926
  call void @llvm.dbg.value(metadata i32 -1, metadata !6852, metadata !DIExpression()), !dbg !6926
  call void @llvm.dbg.value(metadata i8* null, metadata !6853, metadata !DIExpression()), !dbg !6926
  call void @llvm.dbg.value(metadata i8* %14, metadata !6854, metadata !DIExpression()), !dbg !6926
  call void @llvm.dbg.value(metadata i8 0, metadata !6855, metadata !DIExpression()), !dbg !6926
  %39 = call fastcc i8* @extract_conversion(%struct.conversion* noundef nonnull %13, i8* noundef nonnull %30) #37, !dbg !6927
  call void @llvm.dbg.value(metadata i8* %39, metadata !6783, metadata !DIExpression()), !dbg !6912
  %40 = load i24, i24* %15, align 8, !dbg !6928
  %41 = and i24 %40, 256, !dbg !6928
  %42 = icmp eq i24 %41, 0, !dbg !6928
  br i1 %42, label %51, label %43, !dbg !6930

43:                                               ; preds = %38
  %44 = getelementptr inbounds i8, i8* %27, i32 4, !dbg !6931
  call void @llvm.dbg.value(metadata i8* %44, metadata !6784, metadata !DIExpression()), !dbg !6912
  %45 = bitcast i8* %27 to i32*, !dbg !6931
  %46 = load i32, i32* %45, align 4, !dbg !6931
  call void @llvm.dbg.value(metadata i32 %46, metadata !6851, metadata !DIExpression()), !dbg !6926
  %47 = icmp slt i32 %46, 0, !dbg !6933
  br i1 %47, label %48, label %56, !dbg !6935

48:                                               ; preds = %43
  %49 = or i24 %40, 4, !dbg !6936
  store i24 %49, i24* %15, align 8, !dbg !6936
  %50 = sub nsw i32 0, %46, !dbg !6938
  call void @llvm.dbg.value(metadata i32 %50, metadata !6851, metadata !DIExpression()), !dbg !6926
  br label %56, !dbg !6939

51:                                               ; preds = %38
  %52 = and i24 %40, 128, !dbg !6940
  %53 = icmp eq i24 %52, 0, !dbg !6940
  %54 = load i32, i32* %16, align 4
  %55 = select i1 %53, i32 -1, i32 %54, !dbg !6942
  br label %56, !dbg !6942

56:                                               ; preds = %51, %43, %48
  %57 = phi i24 [ %49, %48 ], [ %40, %43 ], [ %40, %51 ], !dbg !6943
  %58 = phi i32 [ %50, %48 ], [ %46, %43 ], [ %55, %51 ], !dbg !6926
  %59 = phi i8* [ %44, %48 ], [ %44, %43 ], [ %27, %51 ]
  call void @llvm.dbg.value(metadata i8* %59, metadata !6784, metadata !DIExpression()), !dbg !6912
  call void @llvm.dbg.value(metadata i32 %58, metadata !6851, metadata !DIExpression()), !dbg !6926
  %60 = and i24 %57, 1024, !dbg !6943
  %61 = icmp eq i24 %60, 0, !dbg !6943
  br i1 %61, label %69, label %62, !dbg !6944

62:                                               ; preds = %56
  %63 = getelementptr inbounds i8, i8* %59, i32 4, !dbg !6945
  call void @llvm.dbg.value(metadata i8* %63, metadata !6784, metadata !DIExpression()), !dbg !6912
  %64 = bitcast i8* %59 to i32*, !dbg !6945
  %65 = load i32, i32* %64, align 4, !dbg !6945
  call void @llvm.dbg.value(metadata i32 %65, metadata !6856, metadata !DIExpression()), !dbg !6946
  %66 = icmp slt i32 %65, 0, !dbg !6947
  br i1 %66, label %67, label %74, !dbg !6949

67:                                               ; preds = %62
  %68 = and i24 %57, -513, !dbg !6950
  store i24 %68, i24* %15, align 8, !dbg !6950
  br label %74, !dbg !6952

69:                                               ; preds = %56
  %70 = and i24 %57, 512, !dbg !6953
  %71 = icmp eq i24 %70, 0, !dbg !6953
  %72 = load i32, i32* %17, align 8
  %73 = select i1 %71, i32 -1, i32 %72, !dbg !6955
  br label %74, !dbg !6955

74:                                               ; preds = %69, %67, %62
  %75 = phi i24 [ %68, %67 ], [ %57, %62 ], [ %57, %69 ], !dbg !6956
  %76 = phi i32 [ -1, %67 ], [ %65, %62 ], [ %73, %69 ], !dbg !6926
  %77 = phi i8* [ %63, %67 ], [ %63, %62 ], [ %59, %69 ], !dbg !6926
  call void @llvm.dbg.value(metadata i8* %77, metadata !6784, metadata !DIExpression()), !dbg !6912
  call void @llvm.dbg.value(metadata i32 %76, metadata !6852, metadata !DIExpression()), !dbg !6926
  store i32 0, i32* %16, align 4, !dbg !6957
  store i32 0, i32* %17, align 8, !dbg !6958
  %78 = lshr i24 %75, 16, !dbg !6956
  call void @llvm.dbg.value(metadata i24 %78, metadata !6859, metadata !DIExpression(DW_OP_constu, 7, DW_OP_and, DW_OP_LLVM_convert, 24, DW_ATE_unsigned, DW_OP_LLVM_convert, 32, DW_ATE_unsigned, DW_OP_stack_value)), !dbg !6926
  %79 = lshr i24 %75, 11, !dbg !6959
  %80 = and i24 %79, 15, !dbg !6959
  %81 = zext i24 %80 to i32, !dbg !6959
  call void @llvm.dbg.value(metadata i32 %81, metadata !6860, metadata !DIExpression()), !dbg !6926
  %82 = trunc i24 %78 to i3, !dbg !6960
  switch i3 %82, label %177 [
    i3 1, label %83
    i3 2, label %125
    i3 -4, label %165
    i3 3, label %173
  ], !dbg !6960

83:                                               ; preds = %74
  switch i32 %81, label %84 [
    i32 7, label %110
    i32 6, label %110
    i32 5, label %102
    i32 3, label %89
    i32 4, label %94
  ], !dbg !6961

84:                                               ; preds = %83
  %85 = getelementptr inbounds i8, i8* %77, i32 4, !dbg !6964
  call void @llvm.dbg.value(metadata i8* %85, metadata !6784, metadata !DIExpression()), !dbg !6912
  %86 = bitcast i8* %77 to i32*, !dbg !6964
  %87 = load i32, i32* %86, align 4, !dbg !6964
  %88 = sext i32 %87 to i64, !dbg !6964
  store i64 %88, i64* %20, align 8, !dbg !6966
  br label %115, !dbg !6967

89:                                               ; preds = %83
  %90 = getelementptr inbounds i8, i8* %77, i32 4, !dbg !6968
  call void @llvm.dbg.value(metadata i8* %90, metadata !6784, metadata !DIExpression()), !dbg !6912
  %91 = bitcast i8* %77 to i32*, !dbg !6968
  %92 = load i32, i32* %91, align 4, !dbg !6968
  %93 = sext i32 %92 to i64, !dbg !6968
  store i64 %93, i64* %20, align 8, !dbg !6971
  br label %115, !dbg !6972

94:                                               ; preds = %83
  %95 = ptrtoint i8* %77 to i32, !dbg !6973
  %96 = add i32 %95, 7, !dbg !6973
  %97 = and i32 %96, -8, !dbg !6973
  %98 = inttoptr i32 %97 to i8*, !dbg !6973
  %99 = getelementptr inbounds i8, i8* %98, i32 8, !dbg !6973
  call void @llvm.dbg.value(metadata i8* %99, metadata !6784, metadata !DIExpression()), !dbg !6912
  %100 = inttoptr i32 %97 to i64*, !dbg !6973
  %101 = load i64, i64* %100, align 8, !dbg !6973
  store i64 %101, i64* %20, align 8, !dbg !6974
  br label %115, !dbg !6975

102:                                              ; preds = %83
  %103 = ptrtoint i8* %77 to i32, !dbg !6976
  %104 = add i32 %103, 7, !dbg !6976
  %105 = and i32 %104, -8, !dbg !6976
  %106 = inttoptr i32 %105 to i8*, !dbg !6976
  %107 = getelementptr inbounds i8, i8* %106, i32 8, !dbg !6976
  call void @llvm.dbg.value(metadata i8* %107, metadata !6784, metadata !DIExpression()), !dbg !6912
  %108 = inttoptr i32 %105 to i64*, !dbg !6976
  %109 = load i64, i64* %108, align 8, !dbg !6976
  store i64 %109, i64* %20, align 8, !dbg !6977
  br label %115, !dbg !6978

110:                                              ; preds = %83, %83
  %111 = getelementptr inbounds i8, i8* %77, i32 4, !dbg !6979
  call void @llvm.dbg.value(metadata i8* %111, metadata !6784, metadata !DIExpression()), !dbg !6912
  %112 = bitcast i8* %77 to i32*, !dbg !6979
  %113 = load i32, i32* %112, align 4, !dbg !6979
  %114 = sext i32 %113 to i64, !dbg !6980
  store i64 %114, i64* %20, align 8, !dbg !6981
  br label %115, !dbg !6982

115:                                              ; preds = %110, %102, %94, %89, %84
  %116 = phi i64 [ %88, %84 ], [ %101, %94 ], [ %93, %89 ], [ %109, %102 ], [ %114, %110 ]
  %117 = phi i8* [ %85, %84 ], [ %99, %94 ], [ %90, %89 ], [ %107, %102 ], [ %111, %110 ], !dbg !6983
  call void @llvm.dbg.value(metadata i8* %117, metadata !6784, metadata !DIExpression()), !dbg !6912
  %118 = trunc i24 %79 to i4, !dbg !6984
  switch i4 %118, label %177 [
    i4 1, label %119
    i4 2, label %122
  ], !dbg !6984

119:                                              ; preds = %115
  %120 = shl i64 %116, 56, !dbg !6985
  %121 = ashr exact i64 %120, 56, !dbg !6985
  store i64 %121, i64* %20, align 8, !dbg !6988
  br label %177, !dbg !6989

122:                                              ; preds = %115
  %123 = shl i64 %116, 48, !dbg !6990
  %124 = ashr exact i64 %123, 48, !dbg !6990
  store i64 %124, i64* %20, align 8, !dbg !6993
  br label %177, !dbg !6994

125:                                              ; preds = %74
  switch i32 %81, label %126 [
    i32 7, label %152
    i32 6, label %152
    i32 5, label %144
    i32 3, label %131
    i32 4, label %136
  ], !dbg !6995

126:                                              ; preds = %125
  %127 = getelementptr inbounds i8, i8* %77, i32 4, !dbg !6998
  call void @llvm.dbg.value(metadata i8* %127, metadata !6784, metadata !DIExpression()), !dbg !6912
  %128 = bitcast i8* %77 to i32*, !dbg !6998
  %129 = load i32, i32* %128, align 4, !dbg !6998
  %130 = zext i32 %129 to i64, !dbg !6998
  store i64 %130, i64* %20, align 8, !dbg !7000
  br label %157, !dbg !7001

131:                                              ; preds = %125
  %132 = getelementptr inbounds i8, i8* %77, i32 4, !dbg !7002
  call void @llvm.dbg.value(metadata i8* %132, metadata !6784, metadata !DIExpression()), !dbg !6912
  call void @llvm.dbg.value(metadata i8* %132, metadata !6784, metadata !DIExpression()), !dbg !6912
  %133 = bitcast i8* %77 to i32*, !dbg !7002
  %134 = load i32, i32* %133, align 4, !dbg !7002
  %135 = zext i32 %134 to i64, !dbg !7002
  store i64 %135, i64* %20, align 8, !dbg !7002
  br label %157

136:                                              ; preds = %125
  %137 = ptrtoint i8* %77 to i32, !dbg !7004
  %138 = add i32 %137, 7, !dbg !7004
  %139 = and i32 %138, -8, !dbg !7004
  %140 = inttoptr i32 %139 to i8*, !dbg !7004
  %141 = getelementptr inbounds i8, i8* %140, i32 8, !dbg !7004
  call void @llvm.dbg.value(metadata i8* %141, metadata !6784, metadata !DIExpression()), !dbg !6912
  %142 = inttoptr i32 %139 to i64*, !dbg !7004
  %143 = load i64, i64* %142, align 8, !dbg !7004
  store i64 %143, i64* %20, align 8, !dbg !7005
  br label %157, !dbg !7006

144:                                              ; preds = %125
  %145 = ptrtoint i8* %77 to i32, !dbg !7007
  %146 = add i32 %145, 7, !dbg !7007
  %147 = and i32 %146, -8, !dbg !7007
  %148 = inttoptr i32 %147 to i8*, !dbg !7007
  %149 = getelementptr inbounds i8, i8* %148, i32 8, !dbg !7007
  call void @llvm.dbg.value(metadata i8* %149, metadata !6784, metadata !DIExpression()), !dbg !6912
  %150 = inttoptr i32 %147 to i64*, !dbg !7007
  %151 = load i64, i64* %150, align 8, !dbg !7007
  store i64 %151, i64* %20, align 8, !dbg !7008
  br label %157, !dbg !7009

152:                                              ; preds = %125, %125
  %153 = getelementptr inbounds i8, i8* %77, i32 4, !dbg !7010
  call void @llvm.dbg.value(metadata i8* %153, metadata !6784, metadata !DIExpression()), !dbg !6912
  %154 = bitcast i8* %77 to i32*, !dbg !7010
  %155 = load i32, i32* %154, align 4, !dbg !7010
  %156 = zext i32 %155 to i64, !dbg !7011
  store i64 %156, i64* %20, align 8, !dbg !7012
  br label %157, !dbg !7013

157:                                              ; preds = %131, %152, %144, %136, %126
  %158 = phi i64 [ %130, %126 ], [ %143, %136 ], [ %151, %144 ], [ %156, %152 ], [ %135, %131 ]
  %159 = phi i8* [ %127, %126 ], [ %141, %136 ], [ %149, %144 ], [ %153, %152 ], [ %132, %131 ], !dbg !7014
  call void @llvm.dbg.value(metadata i8* %159, metadata !6784, metadata !DIExpression()), !dbg !6912
  %160 = trunc i24 %79 to i4, !dbg !7015
  switch i4 %160, label %177 [
    i4 1, label %161
    i4 2, label %163
  ], !dbg !7015

161:                                              ; preds = %157
  %162 = and i64 %158, 255, !dbg !7016
  store i64 %162, i64* %20, align 8, !dbg !7019
  br label %177, !dbg !7020

163:                                              ; preds = %157
  %164 = and i64 %158, 65535, !dbg !7021
  store i64 %164, i64* %20, align 8, !dbg !7024
  br label %177, !dbg !7025

165:                                              ; preds = %74
  %166 = ptrtoint i8* %77 to i32, !dbg !7026
  %167 = add i32 %166, 7, !dbg !7026
  %168 = and i32 %167, -8, !dbg !7026
  %169 = inttoptr i32 %168 to i8*, !dbg !7026
  %170 = getelementptr inbounds i8, i8* %169, i32 8, !dbg !7026
  call void @llvm.dbg.value(metadata i8* %170, metadata !6784, metadata !DIExpression()), !dbg !6912
  call void @llvm.dbg.value(metadata i8* %170, metadata !6784, metadata !DIExpression()), !dbg !6912
  %171 = inttoptr i32 %168 to double*, !dbg !7026
  %172 = load double, double* %171, align 8, !dbg !7026
  store double %172, double* %19, align 8, !dbg !7026
  br label %177

173:                                              ; preds = %74
  %174 = getelementptr inbounds i8, i8* %77, i32 4, !dbg !7030
  call void @llvm.dbg.value(metadata i8* %174, metadata !6784, metadata !DIExpression()), !dbg !6912
  %175 = bitcast i8* %77 to i8**, !dbg !7030
  %176 = load i8*, i8** %175, align 4, !dbg !7030
  store i8* %176, i8** %18, align 8, !dbg !7033
  br label %177, !dbg !7034

177:                                              ; preds = %165, %74, %157, %115, %163, %161, %173, %119, %122
  %178 = phi i8* [ %117, %119 ], [ %117, %122 ], [ %159, %161 ], [ %159, %163 ], [ %174, %173 ], [ %117, %115 ], [ %159, %157 ], [ %77, %74 ], [ %170, %165 ], !dbg !6926
  call void @llvm.dbg.value(metadata i8* %178, metadata !6784, metadata !DIExpression()), !dbg !6912
  %179 = and i24 %75, 3, !dbg !7035
  %180 = icmp eq i24 %179, 0, !dbg !7035
  br i1 %180, label %185, label %181, !dbg !7035

181:                                              ; preds = %177
  %182 = call fastcc i32 @outs(i32 (...)* noundef %0, i8* noundef %1, i8* noundef nonnull %30, i8* noundef nonnull %39) #37, !dbg !7036
  call void @llvm.dbg.value(metadata i32 %182, metadata !6861, metadata !DIExpression()), !dbg !7037
  %183 = icmp slt i32 %182, 0, !dbg !7038
  %184 = add i32 %182, %29, !dbg !7036
  call void @llvm.dbg.value(metadata i32 undef, metadata !6790, metadata !DIExpression()), !dbg !6912
  br i1 %183, label %361, label %363

185:                                              ; preds = %177
  %186 = load i8, i8* %21, align 1, !dbg !7040
  switch i8 %186, label %363 [
    i8 37, label %187
    i8 115, label %191
    i8 99, label %198
    i8 100, label %201
    i8 105, label %201
    i8 111, label %212
    i8 117, label %212
    i8 120, label %212
    i8 88, label %212
    i8 112, label %230
    i8 110, label %239
  ], !dbg !7041

187:                                              ; preds = %185
  %188 = call i32 %11(i32 noundef 37, i8* noundef %1) #38, !dbg !7042
  call void @llvm.dbg.value(metadata i32 %188, metadata !6865, metadata !DIExpression()), !dbg !7043
  %189 = icmp slt i32 %188, 0, !dbg !7044
  %190 = add i32 %29, 1, !dbg !7042
  call void @llvm.dbg.value(metadata i32 undef, metadata !6790, metadata !DIExpression()), !dbg !6912
  br i1 %189, label %361, label %363

191:                                              ; preds = %185
  %192 = load i8*, i8** %18, align 8, !dbg !7046
  call void @llvm.dbg.value(metadata i8* %192, metadata !6853, metadata !DIExpression()), !dbg !6926
  %193 = icmp sgt i32 %76, -1, !dbg !7047
  br i1 %193, label %194, label %196, !dbg !7049

194:                                              ; preds = %191
  %195 = call i32 @strnlen(i8* noundef %192, i32 noundef %76) #38, !dbg !7050
  call void @llvm.dbg.value(metadata i32 %195, metadata !6868, metadata !DIExpression()), !dbg !7052
  br label %241, !dbg !7053

196:                                              ; preds = %191
  %197 = call i32 @strlen(i8* noundef %192) #38, !dbg !7054
  call void @llvm.dbg.value(metadata i32 %197, metadata !6868, metadata !DIExpression()), !dbg !7052
  br label %241

198:                                              ; preds = %185
  call void @llvm.dbg.value(metadata i8* %10, metadata !6853, metadata !DIExpression()), !dbg !6926
  %199 = load i64, i64* %20, align 8, !dbg !7056
  %200 = trunc i64 %199 to i8, !dbg !7057
  store i8 %200, i8* %10, align 1, !dbg !7058
  call void @llvm.dbg.value(metadata i8* %23, metadata !6854, metadata !DIExpression()), !dbg !6926
  br label %245, !dbg !7059

201:                                              ; preds = %185, %185
  %202 = and i24 %75, 8, !dbg !7060
  %203 = icmp eq i24 %202, 0, !dbg !7060
  %204 = trunc i24 %75 to i8, !dbg !7062
  %205 = shl i8 %204, 1, !dbg !7062
  %206 = and i8 %205, 32, !dbg !7062
  %207 = select i1 %203, i8 %206, i8 43, !dbg !7062
  call void @llvm.dbg.value(metadata i8 %207, metadata !6855, metadata !DIExpression()), !dbg !6926
  %208 = load i64, i64* %20, align 8, !dbg !7063
  call void @llvm.dbg.value(metadata i64 %208, metadata !6791, metadata !DIExpression()), !dbg !6912
  %209 = icmp slt i64 %208, 0, !dbg !7064
  br i1 %209, label %210, label %212, !dbg !7066

210:                                              ; preds = %201
  call void @llvm.dbg.value(metadata i8 45, metadata !6855, metadata !DIExpression()), !dbg !6926
  %211 = sub nsw i64 0, %208, !dbg !7067
  store i64 %211, i64* %20, align 8, !dbg !7069
  br label %212, !dbg !7070

212:                                              ; preds = %201, %210, %185, %185, %185, %185
  %213 = phi i8 [ 0, %185 ], [ 0, %185 ], [ 0, %185 ], [ 0, %185 ], [ 45, %210 ], [ %207, %201 ], !dbg !6926
  call void @llvm.dbg.value(metadata i8 %213, metadata !6855, metadata !DIExpression()), !dbg !6926
  %214 = load i64, i64* %20, align 8, !dbg !7071
  %215 = call fastcc i8* @encode_uint(i64 noundef %214, %struct.conversion* noundef nonnull %13, i8* noundef nonnull %10, i8* noundef nonnull %14) #37, !dbg !7072
  call void @llvm.dbg.value(metadata i8* %215, metadata !6853, metadata !DIExpression()), !dbg !6926
  br label %216, !dbg !7073

216:                                              ; preds = %233, %212
  %217 = phi i8 [ 0, %233 ], [ %213, %212 ], !dbg !7074
  %218 = phi i8* [ %236, %233 ], [ %215, %212 ], !dbg !7075
  call void @llvm.dbg.value(metadata i8* %218, metadata !6853, metadata !DIExpression()), !dbg !6926
  call void @llvm.dbg.value(metadata i8 %217, metadata !6855, metadata !DIExpression()), !dbg !6926
  call void @llvm.dbg.label(metadata !6911), !dbg !7076
  %219 = icmp sgt i32 %76, -1, !dbg !7077
  br i1 %219, label %222, label %220, !dbg !7078

220:                                              ; preds = %216
  %221 = load i24, i24* %15, align 8, !dbg !7079
  br label %245, !dbg !7078

222:                                              ; preds = %216
  %223 = ptrtoint i8* %218 to i32, !dbg !7081
  %224 = sub i32 %22, %223, !dbg !7081
  call void @llvm.dbg.value(metadata i32 %224, metadata !6870, metadata !DIExpression()), !dbg !7082
  %225 = load i24, i24* %15, align 8, !dbg !7083
  %226 = and i24 %225, -65, !dbg !7083
  store i24 %226, i24* %15, align 8, !dbg !7083
  %227 = icmp ugt i32 %76, %224, !dbg !7084
  br i1 %227, label %228, label %245, !dbg !7086

228:                                              ; preds = %222
  %229 = sub nsw i32 %76, %224, !dbg !7087
  store i32 %229, i32* %16, align 4, !dbg !7089
  br label %245, !dbg !7090

230:                                              ; preds = %185
  %231 = load i8*, i8** %18, align 8, !dbg !7091
  %232 = icmp eq i8* %231, null, !dbg !7093
  br i1 %232, label %245, label %233, !dbg !7094

233:                                              ; preds = %230
  %234 = ptrtoint i8* %231 to i32, !dbg !7095
  %235 = zext i32 %234 to i64, !dbg !7095
  %236 = call fastcc i8* @encode_uint(i64 noundef %235, %struct.conversion* noundef nonnull %13, i8* noundef nonnull %10, i8* noundef nonnull %14) #37, !dbg !7097
  call void @llvm.dbg.value(metadata i8* %236, metadata !6853, metadata !DIExpression()), !dbg !6926
  %237 = load i24, i24* %15, align 8, !dbg !7098
  %238 = or i24 %237, 1048576, !dbg !7098
  store i24 %238, i24* %15, align 8, !dbg !7098
  store i8 120, i8* %21, align 1, !dbg !7099
  br label %216, !dbg !7100

239:                                              ; preds = %185
  %240 = load i8*, i8** %18, align 8, !dbg !7101
  call fastcc void @store_count(%struct.conversion* noundef nonnull %13, i8* noundef %240, i32 noundef %29) #37, !dbg !7104
  br label %363, !dbg !7105

241:                                              ; preds = %194, %196
  %242 = phi i32 [ %195, %194 ], [ %197, %196 ], !dbg !7106
  call void @llvm.dbg.value(metadata i32 %242, metadata !6868, metadata !DIExpression()), !dbg !7052
  %243 = getelementptr inbounds i8, i8* %192, i32 %242, !dbg !7107
  call void @llvm.dbg.value(metadata i32 -1, metadata !6852, metadata !DIExpression()), !dbg !6926
  call void @llvm.dbg.value(metadata i32 %29, metadata !6790, metadata !DIExpression()), !dbg !6912
  call void @llvm.dbg.value(metadata i8* %192, metadata !6853, metadata !DIExpression()), !dbg !6926
  call void @llvm.dbg.value(metadata i8* %243, metadata !6854, metadata !DIExpression()), !dbg !6926
  call void @llvm.dbg.value(metadata i8 0, metadata !6855, metadata !DIExpression()), !dbg !6926
  %244 = icmp eq i8* %192, null, !dbg !7108
  br i1 %244, label %363, label %245, !dbg !7110, !llvm.loop !6922

245:                                              ; preds = %220, %230, %222, %228, %198, %241
  %246 = phi i24 [ %75, %241 ], [ %75, %230 ], [ %226, %222 ], [ %226, %228 ], [ %75, %198 ], [ %221, %220 ], !dbg !7079
  %247 = phi i8* [ %192, %241 ], [ getelementptr inbounds ([6 x i8], [6 x i8]* @.str.9, i32 0, i32 0), %230 ], [ %218, %222 ], [ %218, %228 ], [ %10, %198 ], [ %218, %220 ]
  %248 = phi i8* [ %243, %241 ], [ getelementptr inbounds ([6 x i8], [6 x i8]* @.str.9, i32 0, i32 5), %230 ], [ %14, %222 ], [ %14, %228 ], [ %23, %198 ], [ %14, %220 ]
  %249 = phi i8 [ 0, %241 ], [ 0, %230 ], [ %217, %222 ], [ %217, %228 ], [ 0, %198 ], [ %217, %220 ]
  call void @llvm.dbg.value(metadata !DIArgList(i8* %248, i8* %247), metadata !6873, metadata !DIExpression(DW_OP_LLVM_arg, 0, DW_OP_LLVM_arg, 1, DW_OP_minus, DW_OP_stack_value)), !dbg !6926
  call void @llvm.dbg.value(metadata i32 0, metadata !6874, metadata !DIExpression()), !dbg !6926
  %250 = zext i8 %249 to i32, !dbg !7111
  %251 = icmp eq i8 %249, 0, !dbg !7113
  call void @llvm.dbg.value(metadata !DIArgList(i8* %248, i1 %251, i8* %247), metadata !6873, metadata !DIExpression(DW_OP_LLVM_arg, 0, DW_OP_LLVM_arg, 2, DW_OP_minus, DW_OP_LLVM_arg, 1, DW_OP_constu, 18446744073709551615, DW_OP_xor, DW_OP_LLVM_convert, 1, DW_ATE_unsigned, DW_OP_LLVM_convert, 32, DW_ATE_unsigned, DW_OP_plus, DW_OP_stack_value)), !dbg !6926
  call void @llvm.dbg.value(metadata i32 undef, metadata !6873, metadata !DIExpression()), !dbg !6926
  call void @llvm.dbg.value(metadata !DIArgList(i32 undef, i32 undef), metadata !6873, metadata !DIExpression(DW_OP_LLVM_arg, 0, DW_OP_LLVM_arg, 1, DW_OP_plus, DW_OP_stack_value)), !dbg !6926
  call void @llvm.dbg.value(metadata i32 undef, metadata !6873, metadata !DIExpression()), !dbg !6926
  %252 = icmp sgt i32 %58, 0, !dbg !7114
  br i1 %252, label %253, label %302, !dbg !7115

253:                                              ; preds = %245
  %254 = and i24 %246, 1048576, !dbg !7079
  %255 = icmp eq i24 %254, 0, !dbg !7079
  %256 = ptrtoint i8* %248 to i32, !dbg !7116
  call void @llvm.dbg.value(metadata !DIArgList(i32 %256, i1 %251, i8* %247), metadata !6873, metadata !DIExpression(DW_OP_LLVM_arg, 0, DW_OP_LLVM_arg, 2, DW_OP_minus, DW_OP_LLVM_arg, 1, DW_OP_constu, 18446744073709551615, DW_OP_xor, DW_OP_LLVM_convert, 1, DW_ATE_unsigned, DW_OP_LLVM_convert, 32, DW_ATE_unsigned, DW_OP_plus, DW_OP_stack_value)), !dbg !6926
  %257 = ptrtoint i8* %247 to i32, !dbg !7116
  call void @llvm.dbg.value(metadata !DIArgList(i8* %248, i1 %251, i32 %257), metadata !6873, metadata !DIExpression(DW_OP_LLVM_arg, 0, DW_OP_LLVM_arg, 2, DW_OP_minus, DW_OP_LLVM_arg, 1, DW_OP_constu, 18446744073709551615, DW_OP_xor, DW_OP_LLVM_convert, 1, DW_ATE_unsigned, DW_OP_LLVM_convert, 32, DW_ATE_unsigned, DW_OP_plus, DW_OP_stack_value)), !dbg !6926
