; ModuleID = './examples/blockingmqtt_stm32.elf.bc'
source_filename = "llvm-link"
target datalayout = "e-m:e-p:32:32-Fi8-i64:64-v128:64:128-a:0:32-n32-S64"
target triple = "thumbv7m-none-unknown-eabi"

%struct.MQTTPacket_connectData = type { [4 x i8], i32, i8, %struct.MQTTString, i16, i8, i8, %struct.MQTTPacket_willOptions, %struct.MQTTString, %struct.MQTTString }
%struct.MQTTPacket_willOptions = type { [4 x i8], i32, %struct.MQTTString, %struct.MQTTString, i8, i8 }
%struct.MQTTString = type { i8*, %struct.MQTTLenString }
%struct.MQTTLenString = type { i32, i8* }
%"class.Cicada::Stm32Uart" = type { %"class.Cicada::BufferedSerial", i8, %struct.__UART_HandleTypeDef, %struct.USART_TypeDef*, i16, i16, i32 }
%"class.Cicada::BufferedSerial" = type { %"class.Cicada::IBufferedSerial", %"class.Cicada::LineCircularBuffer", %"class.Cicada::LineCircularBuffer" }
%"class.Cicada::IBufferedSerial" = type { %"class.Cicada::ICommDevice", %"class.Cicada::ICommDevice" }
%"class.Cicada::ICommDevice" = type { i32 (...)** }
%"class.Cicada::LineCircularBuffer" = type { %"class.Cicada::CircularBuffer.base", i16, [2 x i8] }
%"class.Cicada::CircularBuffer.base" = type <{ i32 (...)**, [4 x i8], i64, i64, i64, i64, i8* }>
%struct.__UART_HandleTypeDef = type { %struct.USART_TypeDef*, %struct.USART_TypeDef, i8*, i16, i16, i8*, i16, i16, %struct.__DMA_HandleTypeDef*, %struct.__DMA_HandleTypeDef*, i32, i32, i32, i32 }
%struct.USART_TypeDef = type { i32, i32, i32, i32, i32, i32, i32 }
%struct.__DMA_HandleTypeDef = type { %struct.DMA_Channel_TypeDef*, %struct.USART_TypeDef, i32, i32, i8*, void (%struct.__DMA_HandleTypeDef*)*, void (%struct.__DMA_HandleTypeDef*)*, void (%struct.__DMA_HandleTypeDef*)*, void (%struct.__DMA_HandleTypeDef*)*, i32, %struct.DMA_TypeDef*, i32 }
%struct.DMA_Channel_TypeDef = type { i32, i32, i32, i32 }
%struct.DMA_TypeDef = type { i32, i32 }
%struct._reent = type { i32, %struct.__sFILE*, %struct.__sFILE*, %struct.__sFILE*, i32, [25 x i8], i32, %struct.__locale_t*, i32, void (%struct._reent*)*, %struct._Bigint*, i32, %struct._Bigint*, %struct._Bigint**, i32, i8*, %union.anon.3, %struct._atexit*, %struct._atexit, void (i32)**, %struct._glue, [3 x %struct.__sFILE] }
%struct.__sFILE = type { i8*, i32, i32, i16, i16, %struct.__sbuf, i32, i8*, i32 (%struct._reent*, i8*, i8*, i32)*, i32 (%struct._reent*, i8*, i8*, i32)*, i32 (%struct._reent*, i8*, i32, i32)*, i32 (%struct._reent*, i8*)*, %struct.__sbuf, i8*, i32, [3 x i8], [1 x i8], %struct.__sbuf, i32, i32, %struct._reent*, %struct.__lock*, %struct._mbstate_t, i32 }
%struct.__sbuf = type { i8*, i32 }
%struct.__lock = type opaque
%struct._mbstate_t = type { i32, %"class.Cicada::MQTTCountdown" }
%"class.Cicada::MQTTCountdown" = type { i32 }
%struct.__locale_t = type opaque
%struct._Bigint = type { %struct._Bigint*, i32, i32, i32, i32, [1 x i32] }
%union.anon.3 = type { %struct.anon, [32 x i8] }
%struct.anon = type { i32, i8*, [26 x i8], %struct.__tm, i32, i64, %struct._rand48, %struct._mbstate_t, %struct._mbstate_t, %struct._mbstate_t, [8 x i8], [24 x i8], i32, %struct._mbstate_t, %struct._mbstate_t, %struct._mbstate_t, %struct._mbstate_t, %struct._mbstate_t, i32 }
%struct.__tm = type { i32, i32, i32, i32, i32, i32, i32, i32, i32 }
%struct._rand48 = type { [3 x i16], [3 x i16], i16 }
%struct._atexit = type { %struct._atexit*, i32, [32 x void ()*], %struct._on_exit_args }
%struct._on_exit_args = type { [32 x i8*], [32 x i8*], i32, i32 }
%struct._glue = type { %struct._glue*, i32, %struct.__sFILE* }
%"class.Cicada::Sim7x00CommDevice" = type <{ %"class.Cicada::SimCommDevice", i8*, [4 x i8] }>
%"class.Cicada::SimCommDevice" = type { %"class.Cicada::ATCommDevice", i8*, [16 x i8], [24 x i8], i8, i16 }
%"class.Cicada::ATCommDevice" = type { %"class.Cicada::IPCommDevice.base", %"class.Cicada::IBufferedSerial"*, [61 x i8], i8, i8, i8, i64, i64, i64 }
%"class.Cicada::IPCommDevice.base" = type { %"class.Cicada::IIPCommDevice", %"class.Cicada::Task", %"class.Cicada::CircularBuffer.0", %"class.Cicada::CircularBuffer.0", i32, i8*, i16, i8, i32, i8* }
%"class.Cicada::IIPCommDevice" = type { %"class.Cicada::IStatefulDevice" }
%"class.Cicada::IStatefulDevice" = type { %"class.Cicada::ICommDevice" }
%"class.Cicada::Task" = type { i32 (...)**, i16, i32, i8, i32 }
%"class.Cicada::CircularBuffer.0" = type <{ i32 (...)**, [4 x i8], i64, i64, i64, i64, i8*, [4 x i8] }>
%"class.Cicada::BlockingCommDevice" = type { %"class.Cicada::ICommDevice"*, i32 ()*, void (i8*)*, i8* }
%"class.Cicada::Scheduler" = type { i32 ()*, %"class.Cicada::Task"**, %"class.Cicada::Task"** }
%"struct.MQTT::MessageData" = type { %"struct.MQTT::Message"*, %struct.MQTTString* }
%"struct.MQTT::Message" = type { i32, i8, i8, i16, i8*, i32 }
%"class.MQTT::Client" = type <{ %"class.Cicada::BlockingCommDevice"*, i32, [100 x i8], [100 x i8], %"class.Cicada::MQTTCountdown", %"class.Cicada::MQTTCountdown", i32, i8, i8, [2 x i8], %"class.Cicada::MQTTCountdown", [5 x %"struct.MQTT::Client<Cicada::BlockingCommDevice, Cicada::MQTTCountdown, 100, 5>::MessageHandlers"], %class.FP, i8, [100 x i8], [3 x i8], i32, i16, [2 x i8], i32, i8, i8, [10 x i16], [2 x i8] }>
%"struct.MQTT::Client<Cicada::BlockingCommDevice, Cicada::MQTTCountdown, 100, 5>::MessageHandlers" = type { i8*, %class.FP }
%class.FP = type { %"class.FP<void, MQTT::MessageData &>::FPtrDummy"*, %union.anon }
%"class.FP<void, MQTT::MessageData &>::FPtrDummy" = type opaque
%union.anon = type { { i32, i32 } }
%"class.Cicada::IPCommDevice" = type { %"class.Cicada::IIPCommDevice", %"class.Cicada::Task", %"class.Cicada::CircularBuffer.0", %"class.Cicada::CircularBuffer.0", i32, i8*, i16, i8, i32, i8*, [4 x i8] }
%struct.RCC_OscInitTypeDef = type { i32, i32, i32, i32, i32, i32, i32, %struct.RCC_PLLInitTypeDef }
%struct.RCC_PLLInitTypeDef = type { i32, i32, i32 }
%struct.RCC_ClkInitTypeDef = type { i32, i32, i32, i32, i32 }
%"struct.MQTT::connackData" = type { i32, i8 }
%struct.__va_list = type { i8* }
%struct.out_fct_wrap_type = type { void (i8, i8*)*, i8* }
%struct.MQTTTransport = type { i32 (i8*, i8*, i32)*, i8*, i32, i32, i32, i8 }

$_ZN4MQTT6ClientIN6Cicada18BlockingCommDeviceENS1_13MQTTCountdownELi100ELi5EEC2ERS2_j = comdat any

$_ZN4MQTT6ClientIN6Cicada18BlockingCommDeviceENS1_13MQTTCountdownELi100ELi5EE7connectER22MQTTPacket_connectData = comdat any

$_ZN4MQTT6ClientIN6Cicada18BlockingCommDeviceENS1_13MQTTCountdownELi100ELi5EE9subscribeEPKcNS_3QoSEPFvRNS_11MessageDataEE = comdat any

$_ZN4MQTT6ClientIN6Cicada18BlockingCommDeviceENS1_13MQTTCountdownELi100ELi5EE7publishEPKcRNS_7MessageE = comdat any

$_ZN4MQTT6ClientIN6Cicada18BlockingCommDeviceENS1_13MQTTCountdownELi100ELi5EE5yieldEm = comdat any

$_ZN4MQTT6ClientIN6Cicada18BlockingCommDeviceENS1_13MQTTCountdownELi100ELi5EE11unsubscribeEPKc = comdat any

$_ZN4MQTT6ClientIN6Cicada18BlockingCommDeviceENS1_13MQTTCountdownELi100ELi5EE10disconnectEv = comdat any

$_ZN4MQTT6ClientIN6Cicada18BlockingCommDeviceENS1_13MQTTCountdownELi100ELi5EE10sendPacketEiRS3_ = comdat any

$_ZN4MQTT6ClientIN6Cicada18BlockingCommDeviceENS1_13MQTTCountdownELi100ELi5EE12closeSessionEv = comdat any

$_ZN4MQTT6ClientIN6Cicada18BlockingCommDeviceENS1_13MQTTCountdownELi100ELi5EE12cleanSessionEv = comdat any

$_ZN4MQTT8PacketId7getNextEv = comdat any

$_ZN4MQTT6ClientIN6Cicada18BlockingCommDeviceENS1_13MQTTCountdownELi100ELi5EE7waitforEiRS3_ = comdat any

$_ZN4MQTT6ClientIN6Cicada18BlockingCommDeviceENS1_13MQTTCountdownELi100ELi5EE17setMessageHandlerEPKcPFvRNS_11MessageDataEE = comdat any

$_ZN2FPIvRN4MQTT11MessageDataEE6detachEv = comdat any

$_ZN2FPIvRN4MQTT11MessageDataEE6attachEPFvS2_E = comdat any

$_ZN4MQTT6ClientIN6Cicada18BlockingCommDeviceENS1_13MQTTCountdownELi100ELi5EE5cycleERS3_ = comdat any

$_ZN4MQTT6ClientIN6Cicada18BlockingCommDeviceENS1_13MQTTCountdownELi100ELi5EE10readPacketERS3_ = comdat any

$_ZN4MQTT6ClientIN6Cicada18BlockingCommDeviceENS1_13MQTTCountdownELi100ELi5EE14deliverMessageER10MQTTStringRNS_7MessageE = comdat any

$_ZN4MQTT6ClientIN6Cicada18BlockingCommDeviceENS1_13MQTTCountdownELi100ELi5EE15isQoS2msgidFreeEt = comdat any

$_ZN4MQTT6ClientIN6Cicada18BlockingCommDeviceENS1_13MQTTCountdownELi100ELi5EE12useQoS2msgidEt = comdat any

$_ZN4MQTT6ClientIN6Cicada18BlockingCommDeviceENS1_13MQTTCountdownELi100ELi5EE13freeQoS2msgidEt = comdat any

$_ZN4MQTT6ClientIN6Cicada18BlockingCommDeviceENS1_13MQTTCountdownELi100ELi5EE9keepaliveEv = comdat any

$_ZN4MQTT6ClientIN6Cicada18BlockingCommDeviceENS1_13MQTTCountdownELi100ELi5EE14isTopicMatchedEPcR10MQTTString = comdat any

$_ZN2FPIvRN4MQTT11MessageDataEE8attachedEv = comdat any

$_ZN4MQTT11MessageDataC2ER10MQTTStringRNS_7MessageE = comdat any

$_ZNK2FPIvRN4MQTT11MessageDataEEclES2_ = comdat any

$_ZN4MQTT6ClientIN6Cicada18BlockingCommDeviceENS1_13MQTTCountdownELi100ELi5EE12decodePacketEPii = comdat any

$_ZN4MQTT6ClientIN6Cicada18BlockingCommDeviceENS1_13MQTTCountdownELi100ELi5EE7publishEPKcPvjNS_3QoSEb = comdat any

$_ZN4MQTT6ClientIN6Cicada18BlockingCommDeviceENS1_13MQTTCountdownELi100ELi5EE7publishEPKcPvjRtNS_3QoSEb = comdat any

$_ZN4MQTT6ClientIN6Cicada18BlockingCommDeviceENS1_13MQTTCountdownELi100ELi5EE7publishEiRS3_NS_3QoSE = comdat any

$_ZN4MQTT6ClientIN6Cicada18BlockingCommDeviceENS1_13MQTTCountdownELi100ELi5EE9subscribeEPKcNS_3QoSEPFvRNS_11MessageDataEERNS_10subackDataE = comdat any

$_ZN4MQTT6ClientIN6Cicada18BlockingCommDeviceENS1_13MQTTCountdownELi100ELi5EE7connectER22MQTTPacket_connectDataRNS_11connackDataE = comdat any

$_ZN4MQTT8PacketIdC2Ev = comdat any

$_ZN4MQTT6ClientIN6Cicada18BlockingCommDeviceENS1_13MQTTCountdownELi100ELi5EE15MessageHandlersC2Ev = comdat any

$_ZN2FPIvRN4MQTT11MessageDataEEC2Ev = comdat any

$_ZN6Cicada12IPCommDeviceD2Ev = comdat any

$_ZN6Cicada12IPCommDeviceD0Ev = comdat any

$_ZThn4_N6Cicada12IPCommDeviceD1Ev = comdat any

$_ZThn4_N6Cicada12IPCommDeviceD0Ev = comdat any

$_ZN6Cicada14CircularBufferIhE4pushEPKhy = comdat any

$_ZN6Cicada14CircularBufferIhE20incrementOrResetHeadERy = comdat any

$_ZN6Cicada14CircularBufferIhE4pullEPhy = comdat any

$_ZNK6Cicada14CircularBufferIhE14bytesAvailableEv = comdat any

$_ZNK6Cicada14CircularBufferIhE14spaceAvailableEv = comdat any

$_ZN6Cicada14CircularBufferIhED2Ev = comdat any

$_ZN6Cicada4TaskD2Ev = comdat any

$_ZN6Cicada11ICommDeviceD2Ev = comdat any

$_ZN6Cicada13IIPCommDeviceC2Ev = comdat any

$_ZN6Cicada4TaskC2Et = comdat any

$_ZN6Cicada14CircularBufferIhEC2EPhy = comdat any

$_ZN6Cicada14CircularBufferIhED0Ev = comdat any

$_ZN6Cicada14CircularBufferIhE4pushEh = comdat any

$_ZN6Cicada14CircularBufferIhE4pullEv = comdat any

$_ZN6Cicada14CircularBufferIhE4readEv = comdat any

$_ZN6Cicada14CircularBufferIhE5flushEv = comdat any

$_ZNK6Cicada14CircularBufferIhE7isEmptyEv = comdat any

$_ZNK6Cicada14CircularBufferIhE6isFullEv = comdat any

$_ZNK6Cicada14CircularBufferIhE4sizeEv = comdat any

$_ZN6Cicada4TaskD0Ev = comdat any

$_ZN6Cicada15IStatefulDeviceC2Ev = comdat any

$_ZN6Cicada13IIPCommDeviceD0Ev = comdat any

$_ZN6Cicada11ICommDeviceC2Ev = comdat any

$_ZN6Cicada15IStatefulDeviceD0Ev = comdat any

$_ZN6Cicada11ICommDeviceD0Ev = comdat any

$_ZN6Cicada13SimCommDeviceD0Ev = comdat any

$_ZThn4_N6Cicada13SimCommDeviceD1Ev = comdat any

$_ZThn4_N6Cicada13SimCommDeviceD0Ev = comdat any

$_ZN6Cicada17Sim7x00CommDeviceD0Ev = comdat any

$_ZThn4_N6Cicada17Sim7x00CommDeviceD1Ev = comdat any

$_ZThn4_N6Cicada17Sim7x00CommDeviceD0Ev = comdat any

$_ZN6Cicada4Task8setDelayEt = comdat any

$_ZNK6Cicada4Task5delayEv = comdat any

$_ZN6Cicada4Task7lastRunEv = comdat any

$_ZN6Cicada4Task10setLastRunEj = comdat any

$_ZNK6Cicada14CircularBufferIcE14bytesAvailableEv = comdat any

$_ZN6Cicada14BufferedSerialD2Ev = comdat any

$_ZN6Cicada14CircularBufferIcED2Ev = comdat any

$_ZN6Cicada15IBufferedSerialD2Ev = comdat any

$_ZN6Cicada7ISerialD2Ev = comdat any

$_ZN6Cicada12ATCommDeviceD0Ev = comdat any

$_ZThn4_N6Cicada12ATCommDeviceD1Ev = comdat any

$_ZThn4_N6Cicada12ATCommDeviceD0Ev = comdat any

$_ZN6Cicada14BufferedSerialD0Ev = comdat any

$_ZThn4_N6Cicada14BufferedSerialD1Ev = comdat any

$_ZThn4_N6Cicada14BufferedSerialD0Ev = comdat any

$_ZNK6Cicada14CircularBufferIcE4sizeEv = comdat any

$_ZN6Cicada18LineCircularBuffer5flushEv = comdat any

$_ZN6Cicada14CircularBufferIcE5flushEv = comdat any

$_ZNK6Cicada18LineCircularBuffer16numBufferedLinesEv = comdat any

$_ZN6Cicada18LineCircularBuffer4pushEc = comdat any

$_ZN6Cicada14CircularBufferIcE4pushEc = comdat any

$_ZN6Cicada14CircularBufferIcE20incrementOrResetHeadERy = comdat any

$_ZN6Cicada18LineCircularBuffer4pullEv = comdat any

$_ZN6Cicada14CircularBufferIcE4pullEv = comdat any

$_ZNK6Cicada14CircularBufferIcE14spaceAvailableEv = comdat any

$_ZN6Cicada15IBufferedSerialC2Ev = comdat any

$_ZN6Cicada18LineCircularBufferC2EPcy = comdat any

$_ZN6Cicada14CircularBufferIcEC2EPcy = comdat any

$_ZN6Cicada18LineCircularBufferD0Ev = comdat any

$_ZN6Cicada18LineCircularBuffer4pushEPKcy = comdat any

$_ZN6Cicada18LineCircularBuffer4pullEPcy = comdat any

$_ZN6Cicada14CircularBufferIcE4readEv = comdat any

$_ZNK6Cicada14CircularBufferIcE7isEmptyEv = comdat any

$_ZNK6Cicada14CircularBufferIcE6isFullEv = comdat any

$_ZN6Cicada14CircularBufferIcED0Ev = comdat any

$_ZN6Cicada14CircularBufferIcE4pushEPKcy = comdat any

$_ZN6Cicada14CircularBufferIcE4pullEPcy = comdat any

$_ZN6Cicada7ISerialC2Ev = comdat any

$_ZN6Cicada15IBufferedSerialD0Ev = comdat any

$_ZThn4_N6Cicada15IBufferedSerialD1Ev = comdat any

$_ZThn4_N6Cicada15IBufferedSerialD0Ev = comdat any

$_ZN6Cicada7ISerialD0Ev = comdat any

$_ZZN4MQTT6ClientIN6Cicada18BlockingCommDeviceENS1_13MQTTCountdownELi100ELi5EE9keepaliveEvE9ping_sent = comdat any

$_ZGVZN4MQTT6ClientIN6Cicada18BlockingCommDeviceENS1_13MQTTCountdownELi100ELi5EE9keepaliveEvE9ping_sent = comdat any

$_ZTSN6Cicada13IIPCommDeviceE = comdat any

$_ZTSN6Cicada15IStatefulDeviceE = comdat any

$_ZTIN6Cicada15IStatefulDeviceE = comdat any

$_ZTIN6Cicada13IIPCommDeviceE = comdat any

$_ZTSN6Cicada4TaskE = comdat any

$_ZTIN6Cicada4TaskE = comdat any

$_ZTVN6Cicada13IIPCommDeviceE = comdat any

$_ZTVN6Cicada15IStatefulDeviceE = comdat any

$_ZTVN6Cicada4TaskE = comdat any

$_ZTVN6Cicada14CircularBufferIhEE = comdat any

$_ZTSN6Cicada14CircularBufferIhEE = comdat any

$_ZTIN6Cicada14CircularBufferIhEE = comdat any

$_ZTSN6Cicada15IBufferedSerialE = comdat any

$_ZTSN6Cicada11ICommDeviceE = comdat any

$_ZTIN6Cicada11ICommDeviceE = comdat any

$_ZTSN6Cicada7ISerialE = comdat any

$_ZTIN6Cicada7ISerialE = comdat any

$_ZTIN6Cicada15IBufferedSerialE = comdat any

$_ZTVN6Cicada15IBufferedSerialE = comdat any

$_ZTVN6Cicada11ICommDeviceE = comdat any

$_ZTVN6Cicada7ISerialE = comdat any

$_ZTVN6Cicada18LineCircularBufferE = comdat any

$_ZTSN6Cicada18LineCircularBufferE = comdat any

$_ZTSN6Cicada14CircularBufferIcEE = comdat any

$_ZTIN6Cicada14CircularBufferIcEE = comdat any

$_ZTIN6Cicada18LineCircularBufferE = comdat any

$_ZTVN6Cicada14CircularBufferIcEE = comdat any

@arrivedcount = dso_local local_unnamed_addr global i32 0, align 4, !dbg !0
@.str = private unnamed_addr constant [63 x i8] c"Message %d arrived: qos %d, retained %d, dup %d, packetid %d\0D\0A\00", align 1
@.str.1 = private unnamed_addr constant [15 x i8] c"Payload %.*s\0D\0A\00", align 1
@.str.2 = private unnamed_addr constant [14 x i8] c"enaccess/test\00", align 1
@.str.3 = private unnamed_addr constant [19 x i8] c"test.mosquitto.org\00", align 1
@.str.4 = private unnamed_addr constant [22 x i8] c"Connecting to %s:%d\0D\0A\00", align 1
@.str.5 = private unnamed_addr constant [9 x i8] c"internet\00", align 1
@.str.6 = private unnamed_addr constant [18 x i8] c"MQTT connecting\0D\0A\00", align 1
@__const.main.data = private unnamed_addr constant %struct.MQTTPacket_connectData { [4 x i8] c"MQTC", i32 0, i8 4, %struct.MQTTString zeroinitializer, i16 60, i8 1, i8 0, %struct.MQTTPacket_willOptions { [4 x i8] c"MQTW", i32 0, %struct.MQTTString zeroinitializer, %struct.MQTTString zeroinitializer, i8 0, i8 0 }, %struct.MQTTString zeroinitializer, %struct.MQTTString zeroinitializer }, align 4
@.str.7 = private unnamed_addr constant [9 x i8] c"enaccess\00", align 1
@.str.8 = private unnamed_addr constant [29 x i8] c"rc from MQTT connect is %d\0D\0A\00", align 1
@.str.9 = private unnamed_addr constant [17 x i8] c"MQTT connected\0D\0A\00", align 1
@.str.10 = private unnamed_addr constant [31 x i8] c"rc from MQTT subscribe is %d\0D\0A\00", align 1
@.str.11 = private unnamed_addr constant [37 x i8] c"Hello World!  QoS 0 message from app\00", align 1
@.str.12 = private unnamed_addr constant [38 x i8] c"Error %d from sending QoS 0 message\0D\0A\00", align 1
@.str.13 = private unnamed_addr constant [12 x i8] c"Now QoS 1\0D\0A\00", align 1
@.str.14 = private unnamed_addr constant [37 x i8] c"Hello World!  QoS 1 message from app\00", align 1
@.str.15 = private unnamed_addr constant [38 x i8] c"Error %d from sending QoS 1 message\0D\0A\00", align 1
@.str.16 = private unnamed_addr constant [37 x i8] c"Hello World!  QoS 2 message from app\00", align 1
@.str.17 = private unnamed_addr constant [38 x i8] c"Error %d from sending QoS 2 message\0D\0A\00", align 1
@.str.18 = private unnamed_addr constant [29 x i8] c"rc from unsubscribe was %d\0D\0A\00", align 1
@.str.19 = private unnamed_addr constant [28 x i8] c"rc from disconnect was %d\0D\0A\00", align 1
@.str.20 = private unnamed_addr constant [38 x i8] c"Finishing with %d messages received\0D\0A\00", align 1
@_ZZ17USART1_IRQHandlerE8instance = internal unnamed_addr global %"class.Cicada::Stm32Uart"* null, align 4, !dbg !458
@_ZGVZ17USART1_IRQHandlerE8instance = internal global i32 0, align 4
@_ZZ17USART2_IRQHandlerE8instance = internal unnamed_addr global %"class.Cicada::Stm32Uart"* null, align 4, !dbg !467
@_ZGVZ17USART2_IRQHandlerE8instance = internal global i32 0, align 4
@_ZZ8_putcharE6serial = internal unnamed_addr global %"class.Cicada::Stm32Uart"* null, align 4, !dbg !470
@_impure_ptr = external dso_local local_unnamed_addr global %struct._reent*, align 4
@.str.21 = private unnamed_addr constant [16 x i8] c"WARN:  %s L#%d \00", align 1
@__PRETTY_FUNCTION__._ZN4MQTT6ClientIN6Cicada18BlockingCommDeviceENS1_13MQTTCountdownELi100ELi5EE5cycleERS3_ = private unnamed_addr constant [216 x i8] c"int MQTT::Client<Cicada::BlockingCommDevice, Cicada::MQTTCountdown, 100, 5>::cycle(Timer &) [Network = Cicada::BlockingCommDevice, Timer = Cicada::MQTTCountdown, MAX_MQTT_PACKET_SIZE = 100, MAX_MESSAGE_HANDLERS = 5]\00", align 1
@.str.22 = private unnamed_addr constant [50 x i8] c"Maximum number of incoming QoS2 messages exceeded\00", align 1
@_ZZN4MQTT6ClientIN6Cicada18BlockingCommDeviceENS1_13MQTTCountdownELi100ELi5EE9keepaliveEvE9ping_sent = linkonce_odr dso_local global %"class.Cicada::MQTTCountdown" zeroinitializer, comdat, align 4, !dbg !477
@_ZGVZN4MQTT6ClientIN6Cicada18BlockingCommDeviceENS1_13MQTTCountdownELi100ELi5EE9keepaliveEvE9ping_sent = linkonce_odr dso_local global i32 0, comdat, align 4
@_ftoa.pow10 = internal unnamed_addr constant [10 x double] [double 1.000000e+00, double 1.000000e+01, double 1.000000e+02, double 1.000000e+03, double 1.000000e+04, double 1.000000e+05, double 1.000000e+06, double 1.000000e+07, double 1.000000e+08, double 1.000000e+09], align 8, !dbg !787
@AHBPrescTable = dso_local local_unnamed_addr constant [16 x i8] c"\00\00\00\00\00\00\00\00\01\02\03\04\06\07\08\09", align 1, !dbg !843
@__const.HAL_RCC_GetSysClockFreq.aPLLMULFactorTable = private unnamed_addr constant [16 x i8] c"\02\03\04\05\06\07\08\09\0A\0B\0C\0D\0E\0F\10\10", align 1
@__const.HAL_RCC_GetSysClockFreq.aPredivFactorTable = private unnamed_addr constant [2 x i8] c"\01\02", align 1
@APBPrescTable = dso_local local_unnamed_addr constant [8 x i8] c"\00\00\00\00\01\02\03\04", align 1, !dbg !908
@uwTickPrio = dso_local local_unnamed_addr global i32 16, align 4, !dbg !916
@uwTickFreq = dso_local local_unnamed_addr global i32 1, align 4, !dbg !1032
@SystemCoreClock = dso_local local_unnamed_addr global i32 16000000, align 4, !dbg !906
@uwTick = dso_local global i32 0, align 4, !dbg !1035
@_ZTVN6Cicada12IPCommDeviceE = dso_local unnamed_addr constant { [15 x i8*], [5 x i8*] } { [15 x i8*] [i8* null, i8* bitcast ({ i8*, i8*, i32, i32, i8*, i32, i8*, i32 }* @_ZTIN6Cicada12IPCommDeviceE to i8*), i8* bitcast (%"class.Cicada::IPCommDevice"* (%"class.Cicada::IPCommDevice"*)* @_ZN6Cicada12IPCommDeviceD2Ev to i8*), i8* bitcast (void (%"class.Cicada::IPCommDevice"*)* @_ZN6Cicada12IPCommDeviceD0Ev to i8*), i8* bitcast (i64 (%"class.Cicada::IPCommDevice"*)* @_ZNK6Cicada12IPCommDevice14bytesAvailableEv to i8*), i8* bitcast (i64 (%"class.Cicada::IPCommDevice"*)* @_ZNK6Cicada12IPCommDevice14spaceAvailableEv to i8*), i8* bitcast (i1 (%"class.Cicada::IPCommDevice"*)* @_ZNK6Cicada12IPCommDevice20writeBufferProcessedEv to i8*), i8* bitcast (i64 (%"class.Cicada::IPCommDevice"*, i8*, i64)* @_ZN6Cicada12IPCommDevice4readEPhy to i8*), i8* bitcast (i64 (%"class.Cicada::IPCommDevice"*, i8*, i64)* @_ZN6Cicada12IPCommDevice5writeEPKhy to i8*), i8* bitcast (i1 (%"class.Cicada::IPCommDevice"*)* @_ZN6Cicada12IPCommDevice7connectEv to i8*), i8* bitcast (void (%"class.Cicada::IPCommDevice"*)* @_ZN6Cicada12IPCommDevice10disconnectEv to i8*), i8* bitcast (i1 (%"class.Cicada::IPCommDevice"*)* @_ZN6Cicada12IPCommDevice11isConnectedEv to i8*), i8* bitcast (i1 (%"class.Cicada::IPCommDevice"*)* @_ZN6Cicada12IPCommDevice6isIdleEv to i8*), i8* bitcast (void ()* @__cxa_pure_virtual to i8*), i8* bitcast (void (%"class.Cicada::IPCommDevice"*, i8*, i16, i32)* @_ZN6Cicada12IPCommDevice11setHostPortEPKctNS_13IIPCommDevice14ConnectionTypeE to i8*)], [5 x i8*] [i8* inttoptr (i32 -4 to i8*), i8* bitcast ({ i8*, i8*, i32, i32, i8*, i32, i8*, i32 }* @_ZTIN6Cicada12IPCommDeviceE to i8*), i8* bitcast (%"class.Cicada::IPCommDevice"* (%"class.Cicada::IPCommDevice"*)* @_ZThn4_N6Cicada12IPCommDeviceD1Ev to i8*), i8* bitcast (void (%"class.Cicada::IPCommDevice"*)* @_ZThn4_N6Cicada12IPCommDeviceD0Ev to i8*), i8* bitcast (void ()* @__cxa_pure_virtual to i8*)] }, align 4
@_ZTSN6Cicada12IPCommDeviceE = dso_local constant [24 x i8] c"N6Cicada12IPCommDeviceE\00", align 1
@_ZTSN6Cicada13IIPCommDeviceE = linkonce_odr dso_local constant [25 x i8] c"N6Cicada13IIPCommDeviceE\00", comdat, align 1
@_ZTSN6Cicada15IStatefulDeviceE = linkonce_odr dso_local constant [27 x i8] c"N6Cicada15IStatefulDeviceE\00", comdat, align 1
@_ZTIN6Cicada15IStatefulDeviceE = linkonce_odr dso_local constant { i8*, i8*, i8* } { i8* bitcast (i8** getelementptr inbounds (i8*, i8** @_ZTVN10__cxxabiv120__si_class_type_infoE, i32 2) to i8*), i8* getelementptr inbounds ([27 x i8], [27 x i8]* @_ZTSN6Cicada15IStatefulDeviceE, i32 0, i32 0), i8* bitcast ({ i8*, i8* }* @_ZTIN6Cicada11ICommDeviceE to i8*) }, comdat, align 4
@_ZTIN6Cicada13IIPCommDeviceE = linkonce_odr dso_local constant { i8*, i8*, i8* } { i8* bitcast (i8** getelementptr inbounds (i8*, i8** @_ZTVN10__cxxabiv120__si_class_type_infoE, i32 2) to i8*), i8* getelementptr inbounds ([25 x i8], [25 x i8]* @_ZTSN6Cicada13IIPCommDeviceE, i32 0, i32 0), i8* bitcast ({ i8*, i8*, i8* }* @_ZTIN6Cicada15IStatefulDeviceE to i8*) }, comdat, align 4
@_ZTSN6Cicada4TaskE = linkonce_odr dso_local constant [15 x i8] c"N6Cicada4TaskE\00", comdat, align 1
@_ZTIN6Cicada4TaskE = linkonce_odr dso_local constant { i8*, i8* } { i8* bitcast (i8** getelementptr inbounds (i8*, i8** @_ZTVN10__cxxabiv117__class_type_infoE, i32 2) to i8*), i8* getelementptr inbounds ([15 x i8], [15 x i8]* @_ZTSN6Cicada4TaskE, i32 0, i32 0) }, comdat, align 4
@_ZTVN6Cicada13IIPCommDeviceE = linkonce_odr dso_local unnamed_addr constant { [15 x i8*] } { [15 x i8*] [i8* null, i8* bitcast ({ i8*, i8*, i8* }* @_ZTIN6Cicada13IIPCommDeviceE to i8*), i8* bitcast (%"class.Cicada::ICommDevice"* (%"class.Cicada::ICommDevice"*)* @_ZN6Cicada11ICommDeviceD2Ev to i8*), i8* bitcast (void (%"class.Cicada::IIPCommDevice"*)* @_ZN6Cicada13IIPCommDeviceD0Ev to i8*), i8* bitcast (void ()* @__cxa_pure_virtual to i8*), i8* bitcast (void ()* @__cxa_pure_virtual to i8*), i8* bitcast (void ()* @__cxa_pure_virtual to i8*), i8* bitcast (void ()* @__cxa_pure_virtual to i8*), i8* bitcast (void ()* @__cxa_pure_virtual to i8*), i8* bitcast (void ()* @__cxa_pure_virtual to i8*), i8* bitcast (void ()* @__cxa_pure_virtual to i8*), i8* bitcast (void ()* @__cxa_pure_virtual to i8*), i8* bitcast (void ()* @__cxa_pure_virtual to i8*), i8* bitcast (void ()* @__cxa_pure_virtual to i8*), i8* bitcast (void ()* @__cxa_pure_virtual to i8*)] }, comdat, align 4
@_ZTVN6Cicada15IStatefulDeviceE = linkonce_odr dso_local unnamed_addr constant { [14 x i8*] } { [14 x i8*] [i8* null, i8* bitcast ({ i8*, i8*, i8* }* @_ZTIN6Cicada15IStatefulDeviceE to i8*), i8* bitcast (%"class.Cicada::ICommDevice"* (%"class.Cicada::ICommDevice"*)* @_ZN6Cicada11ICommDeviceD2Ev to i8*), i8* bitcast (void (%"class.Cicada::IStatefulDevice"*)* @_ZN6Cicada15IStatefulDeviceD0Ev to i8*), i8* bitcast (void ()* @__cxa_pure_virtual to i8*), i8* bitcast (void ()* @__cxa_pure_virtual to i8*), i8* bitcast (void ()* @__cxa_pure_virtual to i8*), i8* bitcast (void ()* @__cxa_pure_virtual to i8*), i8* bitcast (void ()* @__cxa_pure_virtual to i8*), i8* bitcast (void ()* @__cxa_pure_virtual to i8*), i8* bitcast (void ()* @__cxa_pure_virtual to i8*), i8* bitcast (void ()* @__cxa_pure_virtual to i8*), i8* bitcast (void ()* @__cxa_pure_virtual to i8*), i8* bitcast (void ()* @__cxa_pure_virtual to i8*)] }, comdat, align 4
@_ZTVN6Cicada4TaskE = linkonce_odr dso_local unnamed_addr constant { [5 x i8*] } { [5 x i8*] [i8* null, i8* bitcast ({ i8*, i8* }* @_ZTIN6Cicada4TaskE to i8*), i8* bitcast (%"class.Cicada::Task"* (%"class.Cicada::Task"*)* @_ZN6Cicada4TaskD2Ev to i8*), i8* bitcast (void (%"class.Cicada::Task"*)* @_ZN6Cicada4TaskD0Ev to i8*), i8* bitcast (void ()* @__cxa_pure_virtual to i8*)] }, comdat, align 4
@_ZTVN6Cicada14CircularBufferIhEE = linkonce_odr dso_local unnamed_addr constant { [15 x i8*] } { [15 x i8*] [i8* null, i8* bitcast ({ i8*, i8* }* @_ZTIN6Cicada14CircularBufferIhEE to i8*), i8* bitcast (%"class.Cicada::CircularBuffer.0"* (%"class.Cicada::CircularBuffer.0"*)* @_ZN6Cicada14CircularBufferIhED2Ev to i8*), i8* bitcast (void (%"class.Cicada::CircularBuffer.0"*)* @_ZN6Cicada14CircularBufferIhED0Ev to i8*), i8* bitcast (i64 (%"class.Cicada::CircularBuffer.0"*, i8*, i64)* @_ZN6Cicada14CircularBufferIhE4pushEPKhy to i8*), i8* bitcast (void (%"class.Cicada::CircularBuffer.0"*, i8)* @_ZN6Cicada14CircularBufferIhE4pushEh to i8*), i8* bitcast (i64 (%"class.Cicada::CircularBuffer.0"*, i8*, i64)* @_ZN6Cicada14CircularBufferIhE4pullEPhy to i8*), i8* bitcast (i8 (%"class.Cicada::CircularBuffer.0"*)* @_ZN6Cicada14CircularBufferIhE4pullEv to i8*), i8* bitcast (i8 (%"class.Cicada::CircularBuffer.0"*)* @_ZN6Cicada14CircularBufferIhE4readEv to i8*), i8* bitcast (void (%"class.Cicada::CircularBuffer.0"*)* @_ZN6Cicada14CircularBufferIhE5flushEv to i8*), i8* bitcast (i1 (%"class.Cicada::CircularBuffer.0"*)* @_ZNK6Cicada14CircularBufferIhE7isEmptyEv to i8*), i8* bitcast (i1 (%"class.Cicada::CircularBuffer.0"*)* @_ZNK6Cicada14CircularBufferIhE6isFullEv to i8*), i8* bitcast (i64 (%"class.Cicada::CircularBuffer.0"*)* @_ZNK6Cicada14CircularBufferIhE14bytesAvailableEv to i8*), i8* bitcast (i64 (%"class.Cicada::CircularBuffer.0"*)* @_ZNK6Cicada14CircularBufferIhE14spaceAvailableEv to i8*), i8* bitcast (i64 (%"class.Cicada::CircularBuffer.0"*)* @_ZNK6Cicada14CircularBufferIhE4sizeEv to i8*)] }, comdat, align 4
@_ZTSN6Cicada14CircularBufferIhEE = linkonce_odr dso_local constant [29 x i8] c"N6Cicada14CircularBufferIhEE\00", comdat, align 1
@_ZTIN6Cicada14CircularBufferIhEE = linkonce_odr dso_local constant { i8*, i8* } { i8* bitcast (i8** getelementptr inbounds (i8*, i8** @_ZTVN10__cxxabiv117__class_type_infoE, i32 2) to i8*), i8* getelementptr inbounds ([29 x i8], [29 x i8]* @_ZTSN6Cicada14CircularBufferIhEE, i32 0, i32 0) }, comdat, align 4
@_ZTVN6Cicada13SimCommDeviceE = dso_local unnamed_addr constant { [20 x i8*], [5 x i8*] } { [20 x i8*] [i8* null, i8* bitcast ({ i8*, i8*, i8* }* @_ZTIN6Cicada13SimCommDeviceE to i8*), i8* bitcast (%"class.Cicada::IPCommDevice"* (%"class.Cicada::IPCommDevice"*)* @_ZN6Cicada12IPCommDeviceD2Ev to i8*), i8* bitcast (void (%"class.Cicada::SimCommDevice"*)* @_ZN6Cicada13SimCommDeviceD0Ev to i8*), i8* bitcast (i64 (%"class.Cicada::IPCommDevice"*)* @_ZNK6Cicada12IPCommDevice14bytesAvailableEv to i8*), i8* bitcast (i64 (%"class.Cicada::IPCommDevice"*)* @_ZNK6Cicada12IPCommDevice14spaceAvailableEv to i8*), i8* bitcast (i1 (%"class.Cicada::IPCommDevice"*)* @_ZNK6Cicada12IPCommDevice20writeBufferProcessedEv to i8*), i8* bitcast (i64 (%"class.Cicada::IPCommDevice"*, i8*, i64)* @_ZN6Cicada12IPCommDevice4readEPhy to i8*), i8* bitcast (i64 (%"class.Cicada::IPCommDevice"*, i8*, i64)* @_ZN6Cicada12IPCommDevice5writeEPKhy to i8*), i8* bitcast (i1 (%"class.Cicada::SimCommDevice"*)* @_ZN6Cicada13SimCommDevice7connectEv to i8*), i8* bitcast (void (%"class.Cicada::IPCommDevice"*)* @_ZN6Cicada12IPCommDevice10disconnectEv to i8*), i8* bitcast (i1 (%"class.Cicada::IPCommDevice"*)* @_ZN6Cicada12IPCommDevice11isConnectedEv to i8*), i8* bitcast (i1 (%"class.Cicada::IPCommDevice"*)* @_ZN6Cicada12IPCommDevice6isIdleEv to i8*), i8* bitcast (void (%"class.Cicada::SimCommDevice"*)* @_ZN6Cicada13SimCommDevice11resetStatesEv to i8*), i8* bitcast (void (%"class.Cicada::IPCommDevice"*, i8*, i16, i32)* @_ZN6Cicada12IPCommDevice11setHostPortEPKctNS_13IIPCommDevice14ConnectionTypeE to i8*), i8* bitcast (i64 (%"class.Cicada::ATCommDevice"*, i8*)* @_ZN6Cicada12ATCommDevice11serialWriteEPc to i8*), i8* bitcast (i64 (%"class.Cicada::ATCommDevice"*, i8*, i64)* @_ZN6Cicada12ATCommDevice10serialReadEPcy to i8*), i8* bitcast (void (%"class.Cicada::SimCommDevice"*, i8*)* @_ZN6Cicada13SimCommDevice6setApnEPKc to i8*), i8* bitcast (i1 (%"class.Cicada::SimCommDevice"*)* @_ZN6Cicada13SimCommDevice10serialLockEv to i8*), i8* bitcast (void (%"class.Cicada::SimCommDevice"*)* @_ZN6Cicada13SimCommDevice12serialUnlockEv to i8*)], [5 x i8*] [i8* inttoptr (i32 -4 to i8*), i8* bitcast ({ i8*, i8*, i8* }* @_ZTIN6Cicada13SimCommDeviceE to i8*), i8* bitcast (%"class.Cicada::SimCommDevice"* (%"class.Cicada::SimCommDevice"*)* @_ZThn4_N6Cicada13SimCommDeviceD1Ev to i8*), i8* bitcast (void (%"class.Cicada::SimCommDevice"*)* @_ZThn4_N6Cicada13SimCommDeviceD0Ev to i8*), i8* bitcast (void ()* @__cxa_pure_virtual to i8*)] }, align 4
@.str.41 = private unnamed_addr constant [12 x i8] c"+CDNSGIP: 1\00", align 1
@.str.1.42 = private unnamed_addr constant [12 x i8] c"+CDNSGIP: 0\00", align 1
@.str.2.43 = private unnamed_addr constant [16 x i8] c"+CIPRXGET: 4,0,\00", align 1
@.str.3.44 = private unnamed_addr constant [3 x i8] c"%d\00", align 1
@.str.4.45 = private unnamed_addr constant [16 x i8] c"+CIPRXGET: 2,0,\00", align 1
@.str.5.46 = private unnamed_addr constant [7 x i8] c"+CSQ: \00", align 1
@.str.6.47 = private unnamed_addr constant [3 x i8] c"%u\00", align 1
@.str.7.48 = private unnamed_addr constant [3 x i8] c"AT\00", align 1
@.str.8.49 = private unnamed_addr constant [9 x i8] c"+ICCID: \00", align 1
@.str.9.50 = private unnamed_addr constant [13 x i8] c"AT+CDNSGIP=\22\00", align 1
@__const._ZN6Cicada13SimCommDevice13sendCiprxget2Ev.str = private unnamed_addr constant [17 x i8] c"AT+CIPRXGET=2,0,\00", align 1
@.str.10.51 = private unnamed_addr constant [15 x i8] c"+CIPRXGET: 1,0\00", align 1
@.str.11.55 = private unnamed_addr constant [8 x i8] c"AT+CGMI\00", align 1
@.str.12.52 = private unnamed_addr constant [8 x i8] c"AT+CGMM\00", align 1
@.str.13.53 = private unnamed_addr constant [8 x i8] c"AT+CGSN\00", align 1
@.str.14.54 = private unnamed_addr constant [8 x i8] c"AT+CIMI\00", align 1
@_ZTSN6Cicada13SimCommDeviceE = dso_local constant [25 x i8] c"N6Cicada13SimCommDeviceE\00", align 1
@_ZTVN6Cicada17Sim7x00CommDeviceE = dso_local unnamed_addr constant { [21 x i8*], [5 x i8*] } { [21 x i8*] [i8* null, i8* bitcast ({ i8*, i8*, i8* }* @_ZTIN6Cicada17Sim7x00CommDeviceE to i8*), i8* bitcast (%"class.Cicada::IPCommDevice"* (%"class.Cicada::IPCommDevice"*)* @_ZN6Cicada12IPCommDeviceD2Ev to i8*), i8* bitcast (void (%"class.Cicada::Sim7x00CommDevice"*)* @_ZN6Cicada17Sim7x00CommDeviceD0Ev to i8*), i8* bitcast (i64 (%"class.Cicada::IPCommDevice"*)* @_ZNK6Cicada12IPCommDevice14bytesAvailableEv to i8*), i8* bitcast (i64 (%"class.Cicada::IPCommDevice"*)* @_ZNK6Cicada12IPCommDevice14spaceAvailableEv to i8*), i8* bitcast (i1 (%"class.Cicada::IPCommDevice"*)* @_ZNK6Cicada12IPCommDevice20writeBufferProcessedEv to i8*), i8* bitcast (i64 (%"class.Cicada::IPCommDevice"*, i8*, i64)* @_ZN6Cicada12IPCommDevice4readEPhy to i8*), i8* bitcast (i64 (%"class.Cicada::IPCommDevice"*, i8*, i64)* @_ZN6Cicada12IPCommDevice5writeEPKhy to i8*), i8* bitcast (i1 (%"class.Cicada::SimCommDevice"*)* @_ZN6Cicada13SimCommDevice7connectEv to i8*), i8* bitcast (void (%"class.Cicada::IPCommDevice"*)* @_ZN6Cicada12IPCommDevice10disconnectEv to i8*), i8* bitcast (i1 (%"class.Cicada::IPCommDevice"*)* @_ZN6Cicada12IPCommDevice11isConnectedEv to i8*), i8* bitcast (i1 (%"class.Cicada::IPCommDevice"*)* @_ZN6Cicada12IPCommDevice6isIdleEv to i8*), i8* bitcast (void (%"class.Cicada::SimCommDevice"*)* @_ZN6Cicada13SimCommDevice11resetStatesEv to i8*), i8* bitcast (void (%"class.Cicada::IPCommDevice"*, i8*, i16, i32)* @_ZN6Cicada12IPCommDevice11setHostPortEPKctNS_13IIPCommDevice14ConnectionTypeE to i8*), i8* bitcast (i64 (%"class.Cicada::ATCommDevice"*, i8*)* @_ZN6Cicada12ATCommDevice11serialWriteEPc to i8*), i8* bitcast (i64 (%"class.Cicada::ATCommDevice"*, i8*, i64)* @_ZN6Cicada12ATCommDevice10serialReadEPcy to i8*), i8* bitcast (void (%"class.Cicada::SimCommDevice"*, i8*)* @_ZN6Cicada13SimCommDevice6setApnEPKc to i8*), i8* bitcast (i1 (%"class.Cicada::SimCommDevice"*)* @_ZN6Cicada13SimCommDevice10serialLockEv to i8*), i8* bitcast (void (%"class.Cicada::SimCommDevice"*)* @_ZN6Cicada13SimCommDevice12serialUnlockEv to i8*), i8* bitcast (void (%"class.Cicada::Sim7x00CommDevice"*)* @_ZN6Cicada17Sim7x00CommDevice3runEv to i8*)], [5 x i8*] [i8* inttoptr (i32 -4 to i8*), i8* bitcast ({ i8*, i8*, i8* }* @_ZTIN6Cicada17Sim7x00CommDeviceE to i8*), i8* bitcast (%"class.Cicada::Sim7x00CommDevice"* (%"class.Cicada::Sim7x00CommDevice"*)* @_ZThn4_N6Cicada17Sim7x00CommDeviceD1Ev to i8*), i8* bitcast (void (%"class.Cicada::Sim7x00CommDevice"*)* @_ZThn4_N6Cicada17Sim7x00CommDeviceD0Ev to i8*), i8* bitcast (void (%"class.Cicada::Sim7x00CommDevice"*)* @_ZThn4_N6Cicada17Sim7x00CommDevice3runEv to i8*)] }, align 4
@.str.77 = private unnamed_addr constant [10 x i8] c"AT+CICCID\00", align 1
@__const._ZN6Cicada17Sim7x00CommDevice3runEv.str = private unnamed_addr constant [10 x i8] c"AT+CRESET\00", align 1
@.str.1.56 = private unnamed_addr constant [4 x i8] c"RDY\00", align 1
@.str.2.57 = private unnamed_addr constant [6 x i8] c"ERROR\00", align 1
@.str.3.58 = private unnamed_addr constant [12 x i8] c"+NETOPEN: 1\00", align 1
@.str.4.59 = private unnamed_addr constant [13 x i8] c"+CIPOPEN: 0,\00", align 1
@.str.5.60 = private unnamed_addr constant [13 x i8] c"+IPCLOSE: 0,\00", align 1
@.str.6.61 = private unnamed_addr constant [7 x i8] c"AT+CSQ\00", align 1
@.str.7.62 = private unnamed_addr constant [5 x i8] c"ATE0\00", align 1
@__const._ZN6Cicada17Sim7x00CommDevice3runEv.str.8 = private unnamed_addr constant [23 x i8] c"AT+CGSOCKCONT=1,\22IP\22,\22\00", align 1
@.str.9.63 = private unnamed_addr constant [16 x i8] c"AT+CSOCKSETPN=1\00", align 1
@.str.10.64 = private unnamed_addr constant [13 x i8] c"AT+CIPMODE=0\00", align 1
@.str.11.65 = private unnamed_addr constant [12 x i8] c"+NETOPEN: 0\00", align 1
@.str.12.66 = private unnamed_addr constant [11 x i8] c"AT+NETOPEN\00", align 1
@.str.13.67 = private unnamed_addr constant [14 x i8] c"AT+CIPRXGET=1\00", align 1
@.str.14.68 = private unnamed_addr constant [3 x i8] c"%u\00", align 1
@.str.15.69 = private unnamed_addr constant [11 x i8] c"AT+CIPOPEN\00", align 1
@.str.16.70 = private unnamed_addr constant [12 x i8] c"=0,\22UDP\22,,,\00", align 1
@.str.17.71 = private unnamed_addr constant [11 x i8] c"=0,\22TCP\22,\22\00", align 1
@.str.18.72 = private unnamed_addr constant [3 x i8] c"\22,\00", align 1
@.str.19.73 = private unnamed_addr constant [14 x i8] c"+CIPOPEN: 0,0\00", align 1
@.str.20.74 = private unnamed_addr constant [3 x i8] c",\22\00", align 1
@.str.21.75 = private unnamed_addr constant [16 x i8] c"AT+CIPRXGET=4,0\00", align 1
@.str.22.76 = private unnamed_addr constant [13 x i8] c"+NETCLOSE: 0\00", align 1
@.str.23 = private unnamed_addr constant [12 x i8] c"AT+NETCLOSE\00", align 1
@_ZTSN6Cicada17Sim7x00CommDeviceE = dso_local constant [29 x i8] c"N6Cicada17Sim7x00CommDeviceE\00", align 1
@_ZTIN6Cicada13SimCommDeviceE = dso_local constant { i8*, i8*, i8* } { i8* bitcast (i8** getelementptr inbounds (i8*, i8** @_ZTVN10__cxxabiv120__si_class_type_infoE, i32 2) to i8*), i8* getelementptr inbounds ([25 x i8], [25 x i8]* @_ZTSN6Cicada13SimCommDeviceE, i32 0, i32 0), i8* bitcast ({ i8*, i8*, i8* }* @_ZTIN6Cicada12ATCommDeviceE to i8*) }, align 4
@_ZTIN6Cicada17Sim7x00CommDeviceE = dso_local constant { i8*, i8*, i8* } { i8* bitcast (i8** getelementptr inbounds (i8*, i8** @_ZTVN10__cxxabiv120__si_class_type_infoE, i32 2) to i8*), i8* getelementptr inbounds ([29 x i8], [29 x i8]* @_ZTSN6Cicada17Sim7x00CommDeviceE, i32 0, i32 0), i8* bitcast ({ i8*, i8*, i8* }* @_ZTIN6Cicada13SimCommDeviceE to i8*) }, align 4
@_ZN6Cicada9Stm32Uart8instanceE = dso_local local_unnamed_addr global [4 x %"class.Cicada::Stm32Uart"*] zeroinitializer, align 4, !dbg !1037
@_ZTVN6Cicada9Stm32UartE = dso_local unnamed_addr constant { [26 x i8*], [12 x i8*] } { [26 x i8*] [i8* null, i8* bitcast ({ i8*, i8*, i8* }* @_ZTIN6Cicada9Stm32UartE to i8*), i8* bitcast (%"class.Cicada::Stm32Uart"* (%"class.Cicada::Stm32Uart"*)* @_ZN6Cicada9Stm32UartD2Ev to i8*), i8* bitcast (void (%"class.Cicada::Stm32Uart"*)* @_ZN6Cicada9Stm32UartD0Ev to i8*), i8* bitcast (i64 (%"class.Cicada::BufferedSerial"*)* @_ZNK6Cicada14BufferedSerial14bytesAvailableEv to i8*), i8* bitcast (i64 (%"class.Cicada::BufferedSerial"*)* @_ZNK6Cicada14BufferedSerial14spaceAvailableEv to i8*), i8* bitcast (i1 (%"class.Cicada::Stm32Uart"*)* @_ZNK6Cicada9Stm32Uart20writeBufferProcessedEv to i8*), i8* bitcast (i64 (%"class.Cicada::BufferedSerial"*, i8*, i64)* @_ZN6Cicada14BufferedSerial4readEPhy to i8*), i8* bitcast (i64 (%"class.Cicada::BufferedSerial"*, i8*, i64)* @_ZN6Cicada14BufferedSerial5writeEPKhy to i8*), i8* bitcast (i8 (%"class.Cicada::BufferedSerial"*)* @_ZN6Cicada14BufferedSerial4readEv to i8*), i8* bitcast (i64 (%"class.Cicada::BufferedSerial"*, i8*)* @_ZN6Cicada14BufferedSerial5writeEPKh to i8*), i8* bitcast (void (%"class.Cicada::BufferedSerial"*, i8)* @_ZN6Cicada14BufferedSerial5writeEh to i8*), i8* bitcast (i1 (%"class.Cicada::BufferedSerial"*)* @_ZNK6Cicada14BufferedSerial11canReadLineEv to i8*), i8* bitcast (i64 (%"class.Cicada::BufferedSerial"*, i8*, i64)* @_ZN6Cicada14BufferedSerial8readLineEPhy to i8*), i8* bitcast (void (%"class.Cicada::BufferedSerial"*)* @_ZN6Cicada14BufferedSerial19flushReceiveBuffersEv to i8*), i8* bitcast (i64 (%"class.Cicada::BufferedSerial"*)* @_ZN6Cicada14BufferedSerial14readBufferSizeEv to i8*), i8* bitcast (i64 (%"class.Cicada::BufferedSerial"*)* @_ZN6Cicada14BufferedSerial15writeBufferSizeEv to i8*), i8* bitcast (i1 (%"class.Cicada::Stm32Uart"*)* @_ZN6Cicada9Stm32Uart4openEv to i8*), i8* bitcast (i1 (%"class.Cicada::Stm32Uart"*, i8)* @_ZN6Cicada9Stm32Uart4openEh to i8*), i8* bitcast (i1 (%"class.Cicada::Stm32Uart"*)* @_ZN6Cicada9Stm32Uart6isOpenEv to i8*), i8* bitcast (i1 (%"class.Cicada::Stm32Uart"*, i32, i8)* @_ZN6Cicada9Stm32Uart15setSerialConfigEjh to i8*), i8* bitcast (void (%"class.Cicada::Stm32Uart"*)* @_ZN6Cicada9Stm32Uart5closeEv to i8*), i8* bitcast (i8* (%"class.Cicada::Stm32Uart"*)* @_ZNK6Cicada9Stm32Uart8portNameEv to i8*), i8* bitcast (i1 (%"class.Cicada::Stm32Uart"*, i8*)* @_ZN6Cicada9Stm32Uart7rawReadERh to i8*), i8* bitcast (i1 (%"class.Cicada::Stm32Uart"*, i8)* @_ZN6Cicada9Stm32Uart8rawWriteEh to i8*), i8* bitcast (void (%"class.Cicada::Stm32Uart"*)* @_ZN6Cicada9Stm32Uart13startTransmitEv to i8*)], [12 x i8*] [i8* inttoptr (i32 -4 to i8*), i8* bitcast ({ i8*, i8*, i8* }* @_ZTIN6Cicada9Stm32UartE to i8*), i8* bitcast (%"class.Cicada::Stm32Uart"* (%"class.Cicada::Stm32Uart"*)* @_ZThn4_N6Cicada9Stm32UartD1Ev to i8*), i8* bitcast (void (%"class.Cicada::Stm32Uart"*)* @_ZThn4_N6Cicada9Stm32UartD0Ev to i8*), i8* bitcast (i1 (%"class.Cicada::Stm32Uart"*)* @_ZThn4_N6Cicada9Stm32Uart4openEv to i8*), i8* bitcast (i1 (%"class.Cicada::Stm32Uart"*)* @_ZThn4_N6Cicada9Stm32Uart6isOpenEv to i8*), i8* bitcast (i1 (%"class.Cicada::Stm32Uart"*, i32, i8)* @_ZThn4_N6Cicada9Stm32Uart15setSerialConfigEjh to i8*), i8* bitcast (void (%"class.Cicada::Stm32Uart"*)* @_ZThn4_N6Cicada9Stm32Uart5closeEv to i8*), i8* bitcast (i8* (%"class.Cicada::Stm32Uart"*)* @_ZThn4_NK6Cicada9Stm32Uart8portNameEv to i8*), i8* bitcast (i1 (%"class.Cicada::Stm32Uart"*, i8*)* @_ZThn4_N6Cicada9Stm32Uart7rawReadERh to i8*), i8* bitcast (i1 (%"class.Cicada::Stm32Uart"*, i8)* @_ZThn4_N6Cicada9Stm32Uart8rawWriteEh to i8*), i8* bitcast (void (%"class.Cicada::Stm32Uart"*)* @_ZThn4_N6Cicada9Stm32Uart13startTransmitEv to i8*)] }, align 4
@_ZTSN6Cicada9Stm32UartE = dso_local constant [20 x i8] c"N6Cicada9Stm32UartE\00", align 1
@_ZTIN6Cicada9Stm32UartE = dso_local constant { i8*, i8*, i8* } { i8* bitcast (i8** getelementptr inbounds (i8*, i8** @_ZTVN10__cxxabiv120__si_class_type_infoE, i32 2) to i8*), i8* getelementptr inbounds ([20 x i8], [20 x i8]* @_ZTSN6Cicada9Stm32UartE, i32 0, i32 0), i8* bitcast ({ i8*, i8*, i8* }* @_ZTIN6Cicada14BufferedSerialE to i8*) }, align 4
@.str.114 = private unnamed_addr constant [5 x i8] c"MQTT\00", align 1
@.str.1.115 = private unnamed_addr constant [7 x i8] c"MQIsdp\00", align 1
@bufptr = internal unnamed_addr global i8* null, align 4, !dbg !1241
@.str.164 = private unnamed_addr constant [3 x i8] c"OK\00", align 1
@_ZN6Cicada12ATCommDevice6_okStrE = dso_local local_unnamed_addr global i8* getelementptr inbounds ([3 x i8], [3 x i8]* @.str.164, i32 0, i32 0), align 4, !dbg !1249
@.str.1.167 = private unnamed_addr constant [3 x i8] c"\0D\0A\00", align 1
@_ZN6Cicada12ATCommDevice11_lineEndStrE = dso_local local_unnamed_addr global i8* getelementptr inbounds ([3 x i8], [3 x i8]* @.str.1.167, i32 0, i32 0), align 4, !dbg !1373
@.str.2.170 = private unnamed_addr constant [4 x i8] c"\22\0D\0A\00", align 1
@_ZN6Cicada12ATCommDevice12_quoteEndStrE = dso_local local_unnamed_addr global i8* getelementptr inbounds ([4 x i8], [4 x i8]* @.str.2.170, i32 0, i32 0), align 4, !dbg !1375
@_ZTVN6Cicada12ATCommDeviceE = dso_local unnamed_addr constant { [17 x i8*], [5 x i8*] } { [17 x i8*] [i8* null, i8* bitcast ({ i8*, i8*, i8* }* @_ZTIN6Cicada12ATCommDeviceE to i8*), i8* bitcast (%"class.Cicada::IPCommDevice"* (%"class.Cicada::IPCommDevice"*)* @_ZN6Cicada12IPCommDeviceD2Ev to i8*), i8* bitcast (void (%"class.Cicada::ATCommDevice"*)* @_ZN6Cicada12ATCommDeviceD0Ev to i8*), i8* bitcast (i64 (%"class.Cicada::IPCommDevice"*)* @_ZNK6Cicada12IPCommDevice14bytesAvailableEv to i8*), i8* bitcast (i64 (%"class.Cicada::IPCommDevice"*)* @_ZNK6Cicada12IPCommDevice14spaceAvailableEv to i8*), i8* bitcast (i1 (%"class.Cicada::IPCommDevice"*)* @_ZNK6Cicada12IPCommDevice20writeBufferProcessedEv to i8*), i8* bitcast (i64 (%"class.Cicada::IPCommDevice"*, i8*, i64)* @_ZN6Cicada12IPCommDevice4readEPhy to i8*), i8* bitcast (i64 (%"class.Cicada::IPCommDevice"*, i8*, i64)* @_ZN6Cicada12IPCommDevice5writeEPKhy to i8*), i8* bitcast (i1 (%"class.Cicada::IPCommDevice"*)* @_ZN6Cicada12IPCommDevice7connectEv to i8*), i8* bitcast (void (%"class.Cicada::IPCommDevice"*)* @_ZN6Cicada12IPCommDevice10disconnectEv to i8*), i8* bitcast (i1 (%"class.Cicada::IPCommDevice"*)* @_ZN6Cicada12IPCommDevice11isConnectedEv to i8*), i8* bitcast (i1 (%"class.Cicada::IPCommDevice"*)* @_ZN6Cicada12IPCommDevice6isIdleEv to i8*), i8* bitcast (void ()* @__cxa_pure_virtual to i8*), i8* bitcast (void (%"class.Cicada::IPCommDevice"*, i8*, i16, i32)* @_ZN6Cicada12IPCommDevice11setHostPortEPKctNS_13IIPCommDevice14ConnectionTypeE to i8*), i8* bitcast (i64 (%"class.Cicada::ATCommDevice"*, i8*)* @_ZN6Cicada12ATCommDevice11serialWriteEPc to i8*), i8* bitcast (i64 (%"class.Cicada::ATCommDevice"*, i8*, i64)* @_ZN6Cicada12ATCommDevice10serialReadEPcy to i8*)], [5 x i8*] [i8* inttoptr (i32 -4 to i8*), i8* bitcast ({ i8*, i8*, i8* }* @_ZTIN6Cicada12ATCommDeviceE to i8*), i8* bitcast (%"class.Cicada::ATCommDevice"* (%"class.Cicada::ATCommDevice"*)* @_ZThn4_N6Cicada12ATCommDeviceD1Ev to i8*), i8* bitcast (void (%"class.Cicada::ATCommDevice"*)* @_ZThn4_N6Cicada12ATCommDeviceD0Ev to i8*), i8* bitcast (void ()* @__cxa_pure_virtual to i8*)] }, align 4
@.str.3.191 = private unnamed_addr constant [12 x i8] c"AT+CIPSEND=\00", align 1
@.str.4.192 = private unnamed_addr constant [3 x i8] c"0,\00", align 1
@.str.5.193 = private unnamed_addr constant [3 x i8] c"%u\00", align 1
@.str.6.194 = private unnamed_addr constant [2 x i8] c">\00", align 1
@_ZTSN6Cicada12ATCommDeviceE = dso_local constant [24 x i8] c"N6Cicada12ATCommDeviceE\00", align 1
@_ZTIN6Cicada12IPCommDeviceE = dso_local constant { i8*, i8*, i32, i32, i8*, i32, i8*, i32 } { i8* bitcast (i8** getelementptr inbounds (i8*, i8** @_ZTVN10__cxxabiv121__vmi_class_type_infoE, i32 2) to i8*), i8* getelementptr inbounds ([24 x i8], [24 x i8]* @_ZTSN6Cicada12IPCommDeviceE, i32 0, i32 0), i32 0, i32 2, i8* bitcast ({ i8*, i8*, i8* }* @_ZTIN6Cicada13IIPCommDeviceE to i8*), i32 2, i8* bitcast ({ i8*, i8* }* @_ZTIN6Cicada4TaskE to i8*), i32 1026 }, align 4
@_ZTIN6Cicada12ATCommDeviceE = dso_local constant { i8*, i8*, i8* } { i8* bitcast (i8** getelementptr inbounds (i8*, i8** @_ZTVN10__cxxabiv120__si_class_type_infoE, i32 2) to i8*), i8* getelementptr inbounds ([24 x i8], [24 x i8]* @_ZTSN6Cicada12ATCommDeviceE, i32 0, i32 0), i8* bitcast ({ i8*, i8*, i32, i32, i8*, i32, i8*, i32 }* @_ZTIN6Cicada12IPCommDeviceE to i8*) }, align 4
@_ZTVN6Cicada14BufferedSerialE = dso_local unnamed_addr constant { [17 x i8*], [12 x i8*] } { [17 x i8*] [i8* null, i8* bitcast ({ i8*, i8*, i8* }* @_ZTIN6Cicada14BufferedSerialE to i8*), i8* bitcast (%"class.Cicada::BufferedSerial"* (%"class.Cicada::BufferedSerial"*)* @_ZN6Cicada14BufferedSerialD2Ev to i8*), i8* bitcast (void (%"class.Cicada::BufferedSerial"*)* @_ZN6Cicada14BufferedSerialD0Ev to i8*), i8* bitcast (i64 (%"class.Cicada::BufferedSerial"*)* @_ZNK6Cicada14BufferedSerial14bytesAvailableEv to i8*), i8* bitcast (i64 (%"class.Cicada::BufferedSerial"*)* @_ZNK6Cicada14BufferedSerial14spaceAvailableEv to i8*), i8* bitcast (void ()* @__cxa_pure_virtual to i8*), i8* bitcast (i64 (%"class.Cicada::BufferedSerial"*, i8*, i64)* @_ZN6Cicada14BufferedSerial4readEPhy to i8*), i8* bitcast (i64 (%"class.Cicada::BufferedSerial"*, i8*, i64)* @_ZN6Cicada14BufferedSerial5writeEPKhy to i8*), i8* bitcast (i8 (%"class.Cicada::BufferedSerial"*)* @_ZN6Cicada14BufferedSerial4readEv to i8*), i8* bitcast (i64 (%"class.Cicada::BufferedSerial"*, i8*)* @_ZN6Cicada14BufferedSerial5writeEPKh to i8*), i8* bitcast (void (%"class.Cicada::BufferedSerial"*, i8)* @_ZN6Cicada14BufferedSerial5writeEh to i8*), i8* bitcast (i1 (%"class.Cicada::BufferedSerial"*)* @_ZNK6Cicada14BufferedSerial11canReadLineEv to i8*), i8* bitcast (i64 (%"class.Cicada::BufferedSerial"*, i8*, i64)* @_ZN6Cicada14BufferedSerial8readLineEPhy to i8*), i8* bitcast (void (%"class.Cicada::BufferedSerial"*)* @_ZN6Cicada14BufferedSerial19flushReceiveBuffersEv to i8*), i8* bitcast (i64 (%"class.Cicada::BufferedSerial"*)* @_ZN6Cicada14BufferedSerial14readBufferSizeEv to i8*), i8* bitcast (i64 (%"class.Cicada::BufferedSerial"*)* @_ZN6Cicada14BufferedSerial15writeBufferSizeEv to i8*)], [12 x i8*] [i8* inttoptr (i32 -4 to i8*), i8* bitcast ({ i8*, i8*, i8* }* @_ZTIN6Cicada14BufferedSerialE to i8*), i8* bitcast (%"class.Cicada::BufferedSerial"* (%"class.Cicada::BufferedSerial"*)* @_ZThn4_N6Cicada14BufferedSerialD1Ev to i8*), i8* bitcast (void (%"class.Cicada::BufferedSerial"*)* @_ZThn4_N6Cicada14BufferedSerialD0Ev to i8*), i8* bitcast (void ()* @__cxa_pure_virtual to i8*), i8* bitcast (void ()* @__cxa_pure_virtual to i8*), i8* bitcast (void ()* @__cxa_pure_virtual to i8*), i8* bitcast (void ()* @__cxa_pure_virtual to i8*), i8* bitcast (void ()* @__cxa_pure_virtual to i8*), i8* bitcast (void ()* @__cxa_pure_virtual to i8*), i8* bitcast (void ()* @__cxa_pure_virtual to i8*), i8* bitcast (void ()* @__cxa_pure_virtual to i8*)] }, align 4
@_ZTVN10__cxxabiv120__si_class_type_infoE = external dso_local global i8*
@_ZTSN6Cicada14BufferedSerialE = dso_local constant [26 x i8] c"N6Cicada14BufferedSerialE\00", align 1
@_ZTVN10__cxxabiv121__vmi_class_type_infoE = external dso_local global i8*
@_ZTSN6Cicada15IBufferedSerialE = linkonce_odr dso_local constant [27 x i8] c"N6Cicada15IBufferedSerialE\00", comdat, align 1
@_ZTVN10__cxxabiv117__class_type_infoE = external dso_local global i8*
@_ZTSN6Cicada11ICommDeviceE = linkonce_odr dso_local constant [23 x i8] c"N6Cicada11ICommDeviceE\00", comdat, align 1
@_ZTIN6Cicada11ICommDeviceE = linkonce_odr dso_local constant { i8*, i8* } { i8* bitcast (i8** getelementptr inbounds (i8*, i8** @_ZTVN10__cxxabiv117__class_type_infoE, i32 2) to i8*), i8* getelementptr inbounds ([23 x i8], [23 x i8]* @_ZTSN6Cicada11ICommDeviceE, i32 0, i32 0) }, comdat, align 4
@_ZTSN6Cicada7ISerialE = linkonce_odr dso_local constant [18 x i8] c"N6Cicada7ISerialE\00", comdat, align 1
@_ZTIN6Cicada7ISerialE = linkonce_odr dso_local constant { i8*, i8* } { i8* bitcast (i8** getelementptr inbounds (i8*, i8** @_ZTVN10__cxxabiv117__class_type_infoE, i32 2) to i8*), i8* getelementptr inbounds ([18 x i8], [18 x i8]* @_ZTSN6Cicada7ISerialE, i32 0, i32 0) }, comdat, align 4
@_ZTIN6Cicada15IBufferedSerialE = linkonce_odr dso_local constant { i8*, i8*, i32, i32, i8*, i32, i8*, i32 } { i8* bitcast (i8** getelementptr inbounds (i8*, i8** @_ZTVN10__cxxabiv121__vmi_class_type_infoE, i32 2) to i8*), i8* getelementptr inbounds ([27 x i8], [27 x i8]* @_ZTSN6Cicada15IBufferedSerialE, i32 0, i32 0), i32 0, i32 2, i8* bitcast ({ i8*, i8* }* @_ZTIN6Cicada11ICommDeviceE to i8*), i32 2, i8* bitcast ({ i8*, i8* }* @_ZTIN6Cicada7ISerialE to i8*), i32 1026 }, comdat, align 4
@_ZTIN6Cicada14BufferedSerialE = dso_local constant { i8*, i8*, i8* } { i8* bitcast (i8** getelementptr inbounds (i8*, i8** @_ZTVN10__cxxabiv120__si_class_type_infoE, i32 2) to i8*), i8* getelementptr inbounds ([26 x i8], [26 x i8]* @_ZTSN6Cicada14BufferedSerialE, i32 0, i32 0), i8* bitcast ({ i8*, i8*, i32, i32, i8*, i32, i8*, i32 }* @_ZTIN6Cicada15IBufferedSerialE to i8*) }, align 4
@_ZTVN6Cicada15IBufferedSerialE = linkonce_odr dso_local unnamed_addr constant { [17 x i8*], [12 x i8*] } { [17 x i8*] [i8* null, i8* bitcast ({ i8*, i8*, i32, i32, i8*, i32, i8*, i32 }* @_ZTIN6Cicada15IBufferedSerialE to i8*), i8* bitcast (%"class.Cicada::IBufferedSerial"* (%"class.Cicada::IBufferedSerial"*)* @_ZN6Cicada15IBufferedSerialD2Ev to i8*), i8* bitcast (void (%"class.Cicada::IBufferedSerial"*)* @_ZN6Cicada15IBufferedSerialD0Ev to i8*), i8* bitcast (void ()* @__cxa_pure_virtual to i8*), i8* bitcast (void ()* @__cxa_pure_virtual to i8*), i8* bitcast (void ()* @__cxa_pure_virtual to i8*), i8* bitcast (void ()* @__cxa_pure_virtual to i8*), i8* bitcast (void ()* @__cxa_pure_virtual to i8*), i8* bitcast (void ()* @__cxa_pure_virtual to i8*), i8* bitcast (void ()* @__cxa_pure_virtual to i8*), i8* bitcast (void ()* @__cxa_pure_virtual to i8*), i8* bitcast (void ()* @__cxa_pure_virtual to i8*), i8* bitcast (void ()* @__cxa_pure_virtual to i8*), i8* bitcast (void ()* @__cxa_pure_virtual to i8*), i8* bitcast (void ()* @__cxa_pure_virtual to i8*), i8* bitcast (void ()* @__cxa_pure_virtual to i8*)], [12 x i8*] [i8* inttoptr (i32 -4 to i8*), i8* bitcast ({ i8*, i8*, i32, i32, i8*, i32, i8*, i32 }* @_ZTIN6Cicada15IBufferedSerialE to i8*), i8* bitcast (%"class.Cicada::IBufferedSerial"* (%"class.Cicada::IBufferedSerial"*)* @_ZThn4_N6Cicada15IBufferedSerialD1Ev to i8*), i8* bitcast (void (%"class.Cicada::IBufferedSerial"*)* @_ZThn4_N6Cicada15IBufferedSerialD0Ev to i8*), i8* bitcast (void ()* @__cxa_pure_virtual to i8*), i8* bitcast (void ()* @__cxa_pure_virtual to i8*), i8* bitcast (void ()* @__cxa_pure_virtual to i8*), i8* bitcast (void ()* @__cxa_pure_virtual to i8*), i8* bitcast (void ()* @__cxa_pure_virtual to i8*), i8* bitcast (void ()* @__cxa_pure_virtual to i8*), i8* bitcast (void ()* @__cxa_pure_virtual to i8*), i8* bitcast (void ()* @__cxa_pure_virtual to i8*)] }, comdat, align 4
@_ZTVN6Cicada11ICommDeviceE = linkonce_odr dso_local unnamed_addr constant { [9 x i8*] } { [9 x i8*] [i8* null, i8* bitcast ({ i8*, i8* }* @_ZTIN6Cicada11ICommDeviceE to i8*), i8* bitcast (%"class.Cicada::ICommDevice"* (%"class.Cicada::ICommDevice"*)* @_ZN6Cicada11ICommDeviceD2Ev to i8*), i8* bitcast (void (%"class.Cicada::ICommDevice"*)* @_ZN6Cicada11ICommDeviceD0Ev to i8*), i8* bitcast (void ()* @__cxa_pure_virtual to i8*), i8* bitcast (void ()* @__cxa_pure_virtual to i8*), i8* bitcast (void ()* @__cxa_pure_virtual to i8*), i8* bitcast (void ()* @__cxa_pure_virtual to i8*), i8* bitcast (void ()* @__cxa_pure_virtual to i8*)] }, comdat, align 4
@_ZTVN6Cicada7ISerialE = linkonce_odr dso_local unnamed_addr constant { [12 x i8*] } { [12 x i8*] [i8* null, i8* bitcast ({ i8*, i8* }* @_ZTIN6Cicada7ISerialE to i8*), i8* bitcast (%"class.Cicada::ICommDevice"* (%"class.Cicada::ICommDevice"*)* @_ZN6Cicada7ISerialD2Ev to i8*), i8* bitcast (void (%"class.Cicada::ICommDevice"*)* @_ZN6Cicada7ISerialD0Ev to i8*), i8* bitcast (void ()* @__cxa_pure_virtual to i8*), i8* bitcast (void ()* @__cxa_pure_virtual to i8*), i8* bitcast (void ()* @__cxa_pure_virtual to i8*), i8* bitcast (void ()* @__cxa_pure_virtual to i8*), i8* bitcast (void ()* @__cxa_pure_virtual to i8*), i8* bitcast (void ()* @__cxa_pure_virtual to i8*), i8* bitcast (void ()* @__cxa_pure_virtual to i8*), i8* bitcast (void ()* @__cxa_pure_virtual to i8*)] }, comdat, align 4
@_ZTVN6Cicada18LineCircularBufferE = linkonce_odr dso_local unnamed_addr constant { [15 x i8*] } { [15 x i8*] [i8* null, i8* bitcast ({ i8*, i8*, i8* }* @_ZTIN6Cicada18LineCircularBufferE to i8*), i8* bitcast (%"class.Cicada::CircularBuffer.0"* (%"class.Cicada::CircularBuffer.0"*)* @_ZN6Cicada14CircularBufferIcED2Ev to i8*), i8* bitcast (void (%"class.Cicada::LineCircularBuffer"*)* @_ZN6Cicada18LineCircularBufferD0Ev to i8*), i8* bitcast (i64 (%"class.Cicada::LineCircularBuffer"*, i8*, i64)* @_ZN6Cicada18LineCircularBuffer4pushEPKcy to i8*), i8* bitcast (void (%"class.Cicada::LineCircularBuffer"*, i8)* @_ZN6Cicada18LineCircularBuffer4pushEc to i8*), i8* bitcast (i64 (%"class.Cicada::LineCircularBuffer"*, i8*, i64)* @_ZN6Cicada18LineCircularBuffer4pullEPcy to i8*), i8* bitcast (i8 (%"class.Cicada::LineCircularBuffer"*)* @_ZN6Cicada18LineCircularBuffer4pullEv to i8*), i8* bitcast (i8 (%"class.Cicada::CircularBuffer.0"*)* @_ZN6Cicada14CircularBufferIcE4readEv to i8*), i8* bitcast (void (%"class.Cicada::LineCircularBuffer"*)* @_ZN6Cicada18LineCircularBuffer5flushEv to i8*), i8* bitcast (i1 (%"class.Cicada::CircularBuffer.0"*)* @_ZNK6Cicada14CircularBufferIcE7isEmptyEv to i8*), i8* bitcast (i1 (%"class.Cicada::CircularBuffer.0"*)* @_ZNK6Cicada14CircularBufferIcE6isFullEv to i8*), i8* bitcast (i64 (%"class.Cicada::CircularBuffer.0"*)* @_ZNK6Cicada14CircularBufferIcE14bytesAvailableEv to i8*), i8* bitcast (i64 (%"class.Cicada::CircularBuffer.0"*)* @_ZNK6Cicada14CircularBufferIcE14spaceAvailableEv to i8*), i8* bitcast (i64 (%"class.Cicada::CircularBuffer.0"*)* @_ZNK6Cicada14CircularBufferIcE4sizeEv to i8*)] }, comdat, align 4
@_ZTSN6Cicada18LineCircularBufferE = linkonce_odr dso_local constant [30 x i8] c"N6Cicada18LineCircularBufferE\00", comdat, align 1
@_ZTSN6Cicada14CircularBufferIcEE = linkonce_odr dso_local constant [29 x i8] c"N6Cicada14CircularBufferIcEE\00", comdat, align 1
@_ZTIN6Cicada14CircularBufferIcEE = linkonce_odr dso_local constant { i8*, i8* } { i8* bitcast (i8** getelementptr inbounds (i8*, i8** @_ZTVN10__cxxabiv117__class_type_infoE, i32 2) to i8*), i8* getelementptr inbounds ([29 x i8], [29 x i8]* @_ZTSN6Cicada14CircularBufferIcEE, i32 0, i32 0) }, comdat, align 4
@_ZTIN6Cicada18LineCircularBufferE = linkonce_odr dso_local constant { i8*, i8*, i8* } { i8* bitcast (i8** getelementptr inbounds (i8*, i8** @_ZTVN10__cxxabiv120__si_class_type_infoE, i32 2) to i8*), i8* getelementptr inbounds ([30 x i8], [30 x i8]* @_ZTSN6Cicada18LineCircularBufferE, i32 0, i32 0), i8* bitcast ({ i8*, i8* }* @_ZTIN6Cicada14CircularBufferIcEE to i8*) }, comdat, align 4
@_ZTVN6Cicada14CircularBufferIcEE = linkonce_odr dso_local unnamed_addr constant { [15 x i8*] } { [15 x i8*] [i8* null, i8* bitcast ({ i8*, i8* }* @_ZTIN6Cicada14CircularBufferIcEE to i8*), i8* bitcast (%"class.Cicada::CircularBuffer.0"* (%"class.Cicada::CircularBuffer.0"*)* @_ZN6Cicada14CircularBufferIcED2Ev to i8*), i8* bitcast (void (%"class.Cicada::CircularBuffer.0"*)* @_ZN6Cicada14CircularBufferIcED0Ev to i8*), i8* bitcast (i64 (%"class.Cicada::CircularBuffer.0"*, i8*, i64)* @_ZN6Cicada14CircularBufferIcE4pushEPKcy to i8*), i8* bitcast (void (%"class.Cicada::CircularBuffer.0"*, i8)* @_ZN6Cicada14CircularBufferIcE4pushEc to i8*), i8* bitcast (i64 (%"class.Cicada::CircularBuffer.0"*, i8*, i64)* @_ZN6Cicada14CircularBufferIcE4pullEPcy to i8*), i8* bitcast (i8 (%"class.Cicada::CircularBuffer.0"*)* @_ZN6Cicada14CircularBufferIcE4pullEv to i8*), i8* bitcast (i8 (%"class.Cicada::CircularBuffer.0"*)* @_ZN6Cicada14CircularBufferIcE4readEv to i8*), i8* bitcast (void (%"class.Cicada::CircularBuffer.0"*)* @_ZN6Cicada14CircularBufferIcE5flushEv to i8*), i8* bitcast (i1 (%"class.Cicada::CircularBuffer.0"*)* @_ZNK6Cicada14CircularBufferIcE7isEmptyEv to i8*), i8* bitcast (i1 (%"class.Cicada::CircularBuffer.0"*)* @_ZNK6Cicada14CircularBufferIcE6isFullEv to i8*), i8* bitcast (i64 (%"class.Cicada::CircularBuffer.0"*)* @_ZNK6Cicada14CircularBufferIcE14bytesAvailableEv to i8*), i8* bitcast (i64 (%"class.Cicada::CircularBuffer.0"*)* @_ZNK6Cicada14CircularBufferIcE14spaceAvailableEv to i8*), i8* bitcast (i64 (%"class.Cicada::CircularBuffer.0"*)* @_ZNK6Cicada14CircularBufferIcE4sizeEv to i8*)] }, comdat, align 4

@_ZN6Cicada17Sim7x00CommDeviceC1ERNS_15IBufferedSerialEPhS3_y = dso_local unnamed_addr alias %"class.Cicada::Sim7x00CommDevice"* (%"class.Cicada::Sim7x00CommDevice"*, %"class.Cicada::IBufferedSerial"*, i8*, i8*, i64), %"class.Cicada::Sim7x00CommDevice"* (%"class.Cicada::Sim7x00CommDevice"*, %"class.Cicada::IBufferedSerial"*, i8*, i8*, i64)* @_ZN6Cicada17Sim7x00CommDeviceC2ERNS_15IBufferedSerialEPhS3_y
@_ZN6Cicada17Sim7x00CommDeviceC1ERNS_15IBufferedSerialEPhS3_yy = dso_local unnamed_addr alias %"class.Cicada::Sim7x00CommDevice"* (%"class.Cicada::Sim7x00CommDevice"*, %"class.Cicada::IBufferedSerial"*, i8*, i8*, i64, i64), %"class.Cicada::Sim7x00CommDevice"* (%"class.Cicada::Sim7x00CommDevice"*, %"class.Cicada::IBufferedSerial"*, i8*, i8*, i64, i64)* @_ZN6Cicada17Sim7x00CommDeviceC2ERNS_15IBufferedSerialEPhS3_yy
@_ZN6Cicada18BlockingCommDeviceC1EPNS_11ICommDeviceEPFjvEPFvPvES5_ = dso_local unnamed_addr alias %"class.Cicada::BlockingCommDevice"* (%"class.Cicada::BlockingCommDevice"*, %"class.Cicada::ICommDevice"*, i32 ()*, void (i8*)*, i8*), %"class.Cicada::BlockingCommDevice"* (%"class.Cicada::BlockingCommDevice"*, %"class.Cicada::ICommDevice"*, i32 ()*, void (i8*)*, i8*)* @_ZN6Cicada18BlockingCommDeviceC2EPNS_11ICommDeviceEPFjvEPFvPvES5_
@_ZN6Cicada13MQTTCountdownC1Ev = dso_local unnamed_addr alias %"class.Cicada::MQTTCountdown"* (%"class.Cicada::MQTTCountdown"*), %"class.Cicada::MQTTCountdown"* (%"class.Cicada::MQTTCountdown"*)* @_ZN6Cicada13MQTTCountdownC2Ev
@_ZN6Cicada13MQTTCountdownC1Ei = dso_local unnamed_addr alias %"class.Cicada::MQTTCountdown"* (%"class.Cicada::MQTTCountdown"*, i32), %"class.Cicada::MQTTCountdown"* (%"class.Cicada::MQTTCountdown"*, i32)* @_ZN6Cicada13MQTTCountdownC2Ei
@_ZN6Cicada9SchedulerC1EPFjvEPPNS_4TaskE = dso_local unnamed_addr alias %"class.Cicada::Scheduler"* (%"class.Cicada::Scheduler"*, i32 ()*, %"class.Cicada::Task"**), %"class.Cicada::Scheduler"* (%"class.Cicada::Scheduler"*, i32 ()*, %"class.Cicada::Task"**)* @_ZN6Cicada9SchedulerC2EPFjvEPPNS_4TaskE
@_ZN6Cicada9Stm32UartC1EPcS1_yyP13USART_TypeDefP12GPIO_TypeDeftt = dso_local unnamed_addr alias %"class.Cicada::Stm32Uart"* (%"class.Cicada::Stm32Uart"*, i8*, i8*, i64, i64, %struct.USART_TypeDef*, %struct.USART_TypeDef*, i16, i16), %"class.Cicada::Stm32Uart"* (%"class.Cicada::Stm32Uart"*, i8*, i8*, i64, i64, %struct.USART_TypeDef*, %struct.USART_TypeDef*, i16, i16)* @_ZN6Cicada9Stm32UartC2EPcS1_yyP13USART_TypeDefP12GPIO_TypeDeftt
@_ZN6Cicada9Stm32UartC1EPcS1_yP13USART_TypeDefP12GPIO_TypeDeftt = dso_local unnamed_addr alias %"class.Cicada::Stm32Uart"* (%"class.Cicada::Stm32Uart"*, i8*, i8*, i64, %struct.USART_TypeDef*, %struct.USART_TypeDef*, i16, i16), %"class.Cicada::Stm32Uart"* (%"class.Cicada::Stm32Uart"*, i8*, i8*, i64, %struct.USART_TypeDef*, %struct.USART_TypeDef*, i16, i16)* @_ZN6Cicada9Stm32UartC2EPcS1_yP13USART_TypeDefP12GPIO_TypeDeftt
@_ZN6Cicada9Stm32UartD1Ev = dso_local unnamed_addr alias %"class.Cicada::Stm32Uart"* (%"class.Cicada::Stm32Uart"*), %"class.Cicada::Stm32Uart"* (%"class.Cicada::Stm32Uart"*)* @_ZN6Cicada9Stm32UartD2Ev

; Function Attrs: mustprogress noinline nounwind
define dso_local void @_Z13yieldFunctionPv(i8* noundef %0) #0 !dbg !2624 {
  call void @llvm.dbg.value(metadata i8* %0, metadata !2626, metadata !DIExpression()), !dbg !2627
  %2 = bitcast i8* %0 to %"class.Cicada::Scheduler"*, !dbg !2628
  call void @_ZN6Cicada9Scheduler7runTaskEv(%"class.Cicada::Scheduler"* noundef nonnull align 4 dereferenceable(12) %2) #36, !dbg !2629
  ret void, !dbg !2630
}

; Function Attrs: nofree nosync nounwind readnone speculatable willreturn
declare void @llvm.dbg.value(metadata, metadata, metadata) #1

; Function Attrs: mustprogress noinline nounwind
define dso_local void @_Z14messageArrivedRN4MQTT11MessageDataE(%"struct.MQTT::MessageData"* nocapture noundef nonnull readonly align 4 dereferenceable(8) %0) #0 !dbg !2631 {
  call void @llvm.dbg.value(metadata %"struct.MQTT::MessageData"* %0, metadata !2633, metadata !DIExpression()), !dbg !2635
  %2 = getelementptr inbounds %"struct.MQTT::MessageData", %"struct.MQTT::MessageData"* %0, i32 0, i32 0, !dbg !2636
  %3 = load %"struct.MQTT::Message"*, %"struct.MQTT::Message"** %2, align 4, !dbg !2636, !tbaa !2637
  call void @llvm.dbg.value(metadata %"struct.MQTT::Message"* %3, metadata !2634, metadata !DIExpression()), !dbg !2635
  %4 = load i32, i32* @arrivedcount, align 4, !dbg !2642, !tbaa !2643
  %5 = add nsw i32 %4, 1, !dbg !2642
  store i32 %5, i32* @arrivedcount, align 4, !dbg !2642, !tbaa !2643
  %6 = getelementptr inbounds %"struct.MQTT::Message", %"struct.MQTT::Message"* %3, i32 0, i32 0, !dbg !2645
  %7 = load i32, i32* %6, align 4, !dbg !2645, !tbaa !2646
  %8 = getelementptr inbounds %"struct.MQTT::Message", %"struct.MQTT::Message"* %3, i32 0, i32 1, !dbg !2651
  %9 = load i8, i8* %8, align 4, !dbg !2651, !tbaa !2652, !range !2653
  %10 = zext i8 %9 to i32, !dbg !2654
  %11 = getelementptr inbounds %"struct.MQTT::Message", %"struct.MQTT::Message"* %3, i32 0, i32 2, !dbg !2655
  %12 = load i8, i8* %11, align 1, !dbg !2655, !tbaa !2656, !range !2653
  %13 = zext i8 %12 to i32, !dbg !2657
  %14 = getelementptr inbounds %"struct.MQTT::Message", %"struct.MQTT::Message"* %3, i32 0, i32 3, !dbg !2658
  %15 = load i16, i16* %14, align 2, !dbg !2658, !tbaa !2659
  %16 = zext i16 %15 to i32, !dbg !2660
  %17 = call i32 (i8*, ...) @printf_(i8* noundef getelementptr inbounds ([63 x i8], [63 x i8]* @.str, i32 0, i32 0), i32 noundef %5, i32 noundef %7, i32 noundef %10, i32 noundef %13, i32 noundef %16) #36, !dbg !2661
  %18 = getelementptr inbounds %"struct.MQTT::Message", %"struct.MQTT::Message"* %3, i32 0, i32 5, !dbg !2662
  %19 = load i32, i32* %18, align 4, !dbg !2662, !tbaa !2663
  %20 = getelementptr inbounds %"struct.MQTT::Message", %"struct.MQTT::Message"* %3, i32 0, i32 4, !dbg !2664
  %21 = load i8*, i8** %20, align 4, !dbg !2664, !tbaa !2665
  %22 = call i32 (i8*, ...) @printf_(i8* noundef getelementptr inbounds ([15 x i8], [15 x i8]* @.str.1, i32 0, i32 0), i32 noundef %19, i8* noundef %21) #36, !dbg !2666
  ret void, !dbg !2667
}

; Function Attrs: mustprogress noinline norecurse noreturn nounwind
define dso_local noundef i32 @main(i32 noundef %0, i8** nocapture noundef readnone %1) local_unnamed_addr #2 !dbg !2668 {
  %3 = alloca [1504 x i8], align 1
  %4 = alloca [1504 x i8], align 1
  %5 = alloca %"class.Cicada::Stm32Uart", align 8
  %6 = alloca [1504 x i8], align 1
  %7 = alloca [1504 x i8], align 1
  %8 = alloca %"class.Cicada::Stm32Uart", align 8
  %9 = alloca [1200 x i8], align 1
  %10 = alloca [1200 x i8], align 1
  %11 = alloca %"class.Cicada::Sim7x00CommDevice", align 8
  %12 = alloca [2 x %"class.Cicada::Task"*], align 4
  %13 = alloca %"class.Cicada::Scheduler", align 4
  %14 = alloca %"class.Cicada::BlockingCommDevice", align 4
  %15 = alloca %"class.MQTT::Client", align 4
  %16 = alloca %struct.MQTTPacket_connectData, align 4
  %17 = alloca %"struct.MQTT::Message", align 4
  %18 = alloca [100 x i8], align 1
  call void @llvm.dbg.value(metadata i32 %0, metadata !2672, metadata !DIExpression()), !dbg !2705
  call void @llvm.dbg.value(metadata i8** %1, metadata !2673, metadata !DIExpression()), !dbg !2705
  %19 = call i32 @HAL_Init() #36, !dbg !2706
  call fastcc void @_ZL18SystemClock_Configv(), !dbg !2707
  call void @HAL_Delay(i32 noundef 2000) #36, !dbg !2708
  call void @llvm.dbg.value(metadata i16 1504, metadata !2674, metadata !DIExpression()), !dbg !2705
  %20 = getelementptr inbounds [1504 x i8], [1504 x i8]* %3, i32 0, i32 0, !dbg !2709
  call void @llvm.lifetime.start.p0i8(i64 1504, i8* nonnull %20) #36, !dbg !2709
  call void @llvm.dbg.declare(metadata [1504 x i8]* %3, metadata !2675, metadata !DIExpression()), !dbg !2710
  %21 = getelementptr inbounds [1504 x i8], [1504 x i8]* %4, i32 0, i32 0, !dbg !2711
  call void @llvm.lifetime.start.p0i8(i64 1504, i8* nonnull %21) #36, !dbg !2711
  call void @llvm.dbg.declare(metadata [1504 x i8]* %4, metadata !2679, metadata !DIExpression()), !dbg !2712
  %22 = bitcast %"class.Cicada::Stm32Uart"* %5 to i8*, !dbg !2713
  call void @llvm.lifetime.start.p0i8(i64 192, i8* nonnull %22) #36, !dbg !2713
  call void @llvm.dbg.declare(metadata %"class.Cicada::Stm32Uart"* %5, metadata !2680, metadata !DIExpression()), !dbg !2714
  %23 = call noundef %"class.Cicada::Stm32Uart"* @_ZN6Cicada9Stm32UartC1EPcS1_yP13USART_TypeDefP12GPIO_TypeDeftt(%"class.Cicada::Stm32Uart"* noundef nonnull align 8 dereferenceable(192) %5, i8* noundef nonnull %20, i8* noundef nonnull %21, i64 noundef 1504, %struct.USART_TypeDef* noundef nonnull inttoptr (i32 1073759232 to %struct.USART_TypeDef*), %struct.USART_TypeDef* noundef nonnull inttoptr (i32 1073809408 to %struct.USART_TypeDef*), i16 noundef zeroext 4, i16 noundef zeroext 8) #36, !dbg !2714
  %24 = getelementptr inbounds [1504 x i8], [1504 x i8]* %6, i32 0, i32 0, !dbg !2715
  call void @llvm.lifetime.start.p0i8(i64 1504, i8* nonnull %24) #36, !dbg !2715
  call void @llvm.dbg.declare(metadata [1504 x i8]* %6, metadata !2681, metadata !DIExpression()), !dbg !2716
  %25 = getelementptr inbounds [1504 x i8], [1504 x i8]* %7, i32 0, i32 0, !dbg !2717
  call void @llvm.lifetime.start.p0i8(i64 1504, i8* nonnull %25) #36, !dbg !2717
  call void @llvm.dbg.declare(metadata [1504 x i8]* %7, metadata !2682, metadata !DIExpression()), !dbg !2718
  %26 = bitcast %"class.Cicada::Stm32Uart"* %8 to i8*, !dbg !2719
  call void @llvm.lifetime.start.p0i8(i64 192, i8* nonnull %26) #36, !dbg !2719
  call void @llvm.dbg.declare(metadata %"class.Cicada::Stm32Uart"* %8, metadata !2683, metadata !DIExpression()), !dbg !2720
  %27 = call noundef %"class.Cicada::Stm32Uart"* @_ZN6Cicada9Stm32UartC1EPcS1_yP13USART_TypeDefP12GPIO_TypeDeftt(%"class.Cicada::Stm32Uart"* noundef nonnull align 8 dereferenceable(192) %8, i8* noundef nonnull %24, i8* noundef nonnull %25, i64 noundef 1504, %struct.USART_TypeDef* noundef nonnull inttoptr (i32 1073821696 to %struct.USART_TypeDef*), %struct.USART_TypeDef* noundef nonnull inttoptr (i32 1073809408 to %struct.USART_TypeDef*), i16 noundef zeroext 512, i16 noundef zeroext 1024) #36, !dbg !2720
  call void @llvm.dbg.value(metadata i16 1200, metadata !2684, metadata !DIExpression()), !dbg !2705
  %28 = getelementptr inbounds [1200 x i8], [1200 x i8]* %9, i32 0, i32 0, !dbg !2721
  call void @llvm.lifetime.start.p0i8(i64 1200, i8* nonnull %28) #36, !dbg !2721
  call void @llvm.dbg.declare(metadata [1200 x i8]* %9, metadata !2685, metadata !DIExpression()), !dbg !2722
  %29 = getelementptr inbounds [1200 x i8], [1200 x i8]* %10, i32 0, i32 0, !dbg !2723
  call void @llvm.lifetime.start.p0i8(i64 1200, i8* nonnull %29) #36, !dbg !2723
  call void @llvm.dbg.declare(metadata [1200 x i8]* %10, metadata !2689, metadata !DIExpression()), !dbg !2724
  %30 = bitcast %"class.Cicada::Sim7x00CommDevice"* %11 to i8*, !dbg !2725
  call void @llvm.lifetime.start.p0i8(i64 288, i8* nonnull %30) #36, !dbg !2725
  call void @llvm.dbg.declare(metadata %"class.Cicada::Sim7x00CommDevice"* %11, metadata !2690, metadata !DIExpression()), !dbg !2726
  %31 = getelementptr inbounds %"class.Cicada::Stm32Uart", %"class.Cicada::Stm32Uart"* %8, i32 0, i32 0, i32 0, !dbg !2727
  %32 = call noundef %"class.Cicada::Sim7x00CommDevice"* @_ZN6Cicada17Sim7x00CommDeviceC1ERNS_15IBufferedSerialEPhS3_y(%"class.Cicada::Sim7x00CommDevice"* noundef nonnull align 8 dereferenceable(284) %11, %"class.Cicada::IBufferedSerial"* noundef nonnull align 4 dereferenceable(8) %31, i8* noundef nonnull %28, i8* noundef nonnull %29, i64 noundef 1200) #36, !dbg !2726
  %33 = call noundef zeroext i1 @_ZN6Cicada9Stm32Uart4openEv(%"class.Cicada::Stm32Uart"* noundef nonnull align 8 dereferenceable(192) %5) #36, !dbg !2728
  %34 = bitcast [2 x %"class.Cicada::Task"*]* %12 to i8*, !dbg !2729
  call void @llvm.lifetime.start.p0i8(i64 8, i8* nonnull %34) #36, !dbg !2729
  call void @llvm.dbg.declare(metadata [2 x %"class.Cicada::Task"*]* %12, metadata !2692, metadata !DIExpression()), !dbg !2730
  %35 = getelementptr inbounds [2 x %"class.Cicada::Task"*], [2 x %"class.Cicada::Task"*]* %12, i32 0, i32 0, !dbg !2731
  %36 = getelementptr inbounds %"class.Cicada::Sim7x00CommDevice", %"class.Cicada::Sim7x00CommDevice"* %11, i32 0, i32 0, i32 0, i32 0, i32 1, !dbg !2732
  store %"class.Cicada::Task"* %36, %"class.Cicada::Task"** %35, align 4, !dbg !2731, !tbaa !2733
  %37 = getelementptr inbounds [2 x %"class.Cicada::Task"*], [2 x %"class.Cicada::Task"*]* %12, i32 0, i32 1, !dbg !2731
  store %"class.Cicada::Task"* null, %"class.Cicada::Task"** %37, align 4, !dbg !2731, !tbaa !2733
  %38 = bitcast %"class.Cicada::Scheduler"* %13 to i8*, !dbg !2734
  call void @llvm.lifetime.start.p0i8(i64 12, i8* nonnull %38) #36, !dbg !2734
  call void @llvm.dbg.declare(metadata %"class.Cicada::Scheduler"* %13, metadata !2694, metadata !DIExpression()), !dbg !2735
  %39 = call noundef %"class.Cicada::Scheduler"* @_ZN6Cicada9SchedulerC1EPFjvEPPNS_4TaskE(%"class.Cicada::Scheduler"* noundef nonnull align 4 dereferenceable(12) %13, i32 ()* noundef nonnull @_Z13eTickFunctionv, %"class.Cicada::Task"** noundef nonnull %35) #36, !dbg !2735
  %40 = bitcast %"class.Cicada::BlockingCommDevice"* %14 to i8*, !dbg !2736
  call void @llvm.lifetime.start.p0i8(i64 16, i8* nonnull %40) #36, !dbg !2736
  call void @llvm.dbg.declare(metadata %"class.Cicada::BlockingCommDevice"* %14, metadata !2695, metadata !DIExpression()), !dbg !2737
  %41 = getelementptr inbounds %"class.Cicada::Sim7x00CommDevice", %"class.Cicada::Sim7x00CommDevice"* %11, i32 0, i32 0, i32 0, i32 0, i32 0, i32 0, i32 0, !dbg !2738
  %42 = call noundef %"class.Cicada::BlockingCommDevice"* @_ZN6Cicada18BlockingCommDeviceC1EPNS_11ICommDeviceEPFjvEPFvPvES5_(%"class.Cicada::BlockingCommDevice"* noundef nonnull align 4 dereferenceable(16) %14, %"class.Cicada::ICommDevice"* noundef nonnull %41, i32 ()* noundef nonnull @_Z13eTickFunctionv, void (i8*)* noundef nonnull @_Z13yieldFunctionPv, i8* noundef nonnull %38) #36, !dbg !2737
  call void @llvm.dbg.value(metadata i8* getelementptr inbounds ([14 x i8], [14 x i8]* @.str.2, i32 0, i32 0), metadata !2696, metadata !DIExpression()), !dbg !2705
  %43 = bitcast %"class.MQTT::Client"* %15 to i8*, !dbg !2739
  call void @llvm.lifetime.start.p0i8(i64 460, i8* nonnull %43) #36, !dbg !2739
  call void @llvm.dbg.declare(metadata %"class.MQTT::Client"* %15, metadata !2697, metadata !DIExpression()), !dbg !2740
  %44 = call noundef %"class.MQTT::Client"* @_ZN4MQTT6ClientIN6Cicada18BlockingCommDeviceENS1_13MQTTCountdownELi100ELi5EEC2ERS2_j(%"class.MQTT::Client"* noundef nonnull align 4 dereferenceable(458) %15, %"class.Cicada::BlockingCommDevice"* noundef nonnull align 4 dereferenceable(16) %14, i32 noundef 30000), !dbg !2741
  call void @llvm.dbg.value(metadata i8* getelementptr inbounds ([19 x i8], [19 x i8]* @.str.3, i32 0, i32 0), metadata !2698, metadata !DIExpression()), !dbg !2705
  call void @llvm.dbg.value(metadata i32 1883, metadata !2699, metadata !DIExpression()), !dbg !2705
  %45 = call i32 (i8*, ...) @printf_(i8* noundef getelementptr inbounds ([22 x i8], [22 x i8]* @.str.4, i32 0, i32 0), i8* noundef getelementptr inbounds ([19 x i8], [19 x i8]* @.str.3, i32 0, i32 0), i32 noundef 1883) #36, !dbg !2742
  %46 = getelementptr inbounds %"class.Cicada::Sim7x00CommDevice", %"class.Cicada::Sim7x00CommDevice"* %11, i32 0, i32 0, !dbg !2743
  call void @_ZN6Cicada13SimCommDevice6setApnEPKc(%"class.Cicada::SimCommDevice"* noundef nonnull align 8 dereferenceable(280) %46, i8* noundef getelementptr inbounds ([9 x i8], [9 x i8]* @.str.5, i32 0, i32 0)) #36, !dbg !2744
  %47 = bitcast %"class.Cicada::Sim7x00CommDevice"* %11 to %"class.Cicada::IPCommDevice"*, !dbg !2745
  call void @_ZN6Cicada12IPCommDevice11setHostPortEPKctNS_13IIPCommDevice14ConnectionTypeE(%"class.Cicada::IPCommDevice"* noundef nonnull align 8 dereferenceable(140) %47, i8* noundef getelementptr inbounds ([19 x i8], [19 x i8]* @.str.3, i32 0, i32 0), i16 noundef zeroext 1883, i32 noundef 1) #36, !dbg !2746
  %48 = call noundef zeroext i1 @_ZN6Cicada13SimCommDevice7connectEv(%"class.Cicada::SimCommDevice"* noundef nonnull align 8 dereferenceable(280) %46) #36, !dbg !2747
  %49 = call noundef zeroext i1 @_ZN6Cicada12IPCommDevice11isConnectedEv(%"class.Cicada::IPCommDevice"* noundef nonnull align 8 dereferenceable(140) %47) #36, !dbg !2748
  br i1 %49, label %52, label %50, !dbg !2749

50:                                               ; preds = %2, %50
  call void @_Z13yieldFunctionPv(i8* noundef nonnull %38), !dbg !2750
  %51 = call noundef zeroext i1 @_ZN6Cicada12IPCommDevice11isConnectedEv(%"class.Cicada::IPCommDevice"* noundef nonnull align 8 dereferenceable(140) %47) #36, !dbg !2748
  br i1 %51, label %52, label %50, !dbg !2749, !llvm.loop !2752

52:                                               ; preds = %50, %2
  %53 = call i32 (i8*, ...) @printf_(i8* noundef getelementptr inbounds ([18 x i8], [18 x i8]* @.str.6, i32 0, i32 0)) #36, !dbg !2756
  %54 = getelementptr inbounds %struct.MQTTPacket_connectData, %struct.MQTTPacket_connectData* %16, i32 0, i32 0, i32 0, !dbg !2757
  call void @llvm.lifetime.start.p0i8(i64 88, i8* nonnull %54) #36, !dbg !2757
  call void @llvm.dbg.declare(metadata %struct.MQTTPacket_connectData* %16, metadata !2700, metadata !DIExpression()), !dbg !2758
  call void @llvm.memcpy.p0i8.p0i8.i32(i8* noundef nonnull align 4 dereferenceable(88) %54, i8* noundef nonnull align 4 dereferenceable(88) getelementptr inbounds (%struct.MQTTPacket_connectData, %struct.MQTTPacket_connectData* @__const.main.data, i32 0, i32 0, i32 0), i32 88, i1 false), !dbg !2758
  %55 = getelementptr inbounds %struct.MQTTPacket_connectData, %struct.MQTTPacket_connectData* %16, i32 0, i32 2, !dbg !2759
  store i8 3, i8* %55, align 4, !dbg !2760, !tbaa !2761
  %56 = getelementptr inbounds %struct.MQTTPacket_connectData, %struct.MQTTPacket_connectData* %16, i32 0, i32 3, i32 0, !dbg !2766
  store i8* getelementptr inbounds ([9 x i8], [9 x i8]* @.str.7, i32 0, i32 0), i8** %56, align 4, !dbg !2767, !tbaa !2768
  %57 = call noundef i32 @_ZN4MQTT6ClientIN6Cicada18BlockingCommDeviceENS1_13MQTTCountdownELi100ELi5EE7connectER22MQTTPacket_connectData(%"class.MQTT::Client"* noundef nonnull align 4 dereferenceable(458) %15, %struct.MQTTPacket_connectData* noundef nonnull align 4 dereferenceable(88) %16), !dbg !2769
  call void @llvm.dbg.value(metadata i32 %57, metadata !2701, metadata !DIExpression()), !dbg !2705
  %58 = icmp eq i32 %57, 0, !dbg !2770
  br i1 %58, label %61, label %59, !dbg !2772

59:                                               ; preds = %52
  %60 = call i32 (i8*, ...) @printf_(i8* noundef getelementptr inbounds ([29 x i8], [29 x i8]* @.str.8, i32 0, i32 0), i32 noundef %57) #36, !dbg !2773
  br label %61, !dbg !2773

61:                                               ; preds = %59, %52
  %62 = call i32 (i8*, ...) @printf_(i8* noundef getelementptr inbounds ([17 x i8], [17 x i8]* @.str.9, i32 0, i32 0)) #36, !dbg !2774
  %63 = call noundef i32 @_ZN4MQTT6ClientIN6Cicada18BlockingCommDeviceENS1_13MQTTCountdownELi100ELi5EE9subscribeEPKcNS_3QoSEPFvRNS_11MessageDataEE(%"class.MQTT::Client"* noundef nonnull align 4 dereferenceable(458) %15, i8* noundef getelementptr inbounds ([14 x i8], [14 x i8]* @.str.2, i32 0, i32 0), i32 noundef 2, void (%"struct.MQTT::MessageData"*)* noundef nonnull @_Z14messageArrivedRN4MQTT11MessageDataE), !dbg !2775
  call void @llvm.dbg.value(metadata i32 %63, metadata !2701, metadata !DIExpression()), !dbg !2705
  %64 = icmp eq i32 %63, 0, !dbg !2776
  br i1 %64, label %67, label %65, !dbg !2778

65:                                               ; preds = %61
  %66 = call i32 (i8*, ...) @printf_(i8* noundef getelementptr inbounds ([31 x i8], [31 x i8]* @.str.10, i32 0, i32 0), i32 noundef %63) #36, !dbg !2779
  br label %67, !dbg !2779

67:                                               ; preds = %65, %61
  %68 = bitcast %"struct.MQTT::Message"* %17 to i8*, !dbg !2780
  call void @llvm.lifetime.start.p0i8(i64 16, i8* nonnull %68) #36, !dbg !2780
  call void @llvm.dbg.declare(metadata %"struct.MQTT::Message"* %17, metadata !2702, metadata !DIExpression()), !dbg !2781
  %69 = getelementptr inbounds [100 x i8], [100 x i8]* %18, i32 0, i32 0, !dbg !2782
  call void @llvm.lifetime.start.p0i8(i64 100, i8* nonnull %69) #36, !dbg !2782
  call void @llvm.dbg.declare(metadata [100 x i8]* %18, metadata !2703, metadata !DIExpression()), !dbg !2783
  %70 = call i32 (i8*, i8*, ...) @sprintf_(i8* noundef nonnull %69, i8* noundef getelementptr inbounds ([37 x i8], [37 x i8]* @.str.11, i32 0, i32 0)) #36, !dbg !2784
  %71 = getelementptr inbounds %"struct.MQTT::Message", %"struct.MQTT::Message"* %17, i32 0, i32 0, !dbg !2785
  store i32 0, i32* %71, align 4, !dbg !2786, !tbaa !2646
  %72 = getelementptr inbounds %"struct.MQTT::Message", %"struct.MQTT::Message"* %17, i32 0, i32 1, !dbg !2787
  store i8 0, i8* %72, align 4, !dbg !2788, !tbaa !2652
  %73 = getelementptr inbounds %"struct.MQTT::Message", %"struct.MQTT::Message"* %17, i32 0, i32 2, !dbg !2789
  store i8 0, i8* %73, align 1, !dbg !2790, !tbaa !2656
  %74 = getelementptr inbounds %"struct.MQTT::Message", %"struct.MQTT::Message"* %17, i32 0, i32 4, !dbg !2791
  store i8* %69, i8** %74, align 4, !dbg !2792, !tbaa !2665
  %75 = call i32 @strlen(i8* noundef nonnull %69), !dbg !2793
  %76 = add i32 %75, 1, !dbg !2794
  %77 = getelementptr inbounds %"struct.MQTT::Message", %"struct.MQTT::Message"* %17, i32 0, i32 5, !dbg !2795
  store i32 %76, i32* %77, align 4, !dbg !2796, !tbaa !2663
  %78 = call noundef i32 @_ZN4MQTT6ClientIN6Cicada18BlockingCommDeviceENS1_13MQTTCountdownELi100ELi5EE7publishEPKcRNS_7MessageE(%"class.MQTT::Client"* noundef nonnull align 4 dereferenceable(458) %15, i8* noundef getelementptr inbounds ([14 x i8], [14 x i8]* @.str.2, i32 0, i32 0), %"struct.MQTT::Message"* noundef nonnull align 4 dereferenceable(16) %17), !dbg !2797
  call void @llvm.dbg.value(metadata i32 %78, metadata !2701, metadata !DIExpression()), !dbg !2705
  %79 = icmp eq i32 %78, 0, !dbg !2798
  br i1 %79, label %80, label %83, !dbg !2800

80:                                               ; preds = %67
  %81 = load i32, i32* @arrivedcount, align 4, !dbg !2801, !tbaa !2643
  %82 = icmp eq i32 %81, 0, !dbg !2802
  br i1 %82, label %85, label %89, !dbg !2803

83:                                               ; preds = %67
  %84 = call i32 (i8*, ...) @printf_(i8* noundef getelementptr inbounds ([38 x i8], [38 x i8]* @.str.12, i32 0, i32 0), i32 noundef %78) #36, !dbg !2804
  br label %89, !dbg !2804

85:                                               ; preds = %80, %85
  %86 = call noundef i32 @_ZN4MQTT6ClientIN6Cicada18BlockingCommDeviceENS1_13MQTTCountdownELi100ELi5EE5yieldEm(%"class.MQTT::Client"* noundef nonnull align 4 dereferenceable(458) %15, i32 noundef 100), !dbg !2805
  %87 = load i32, i32* @arrivedcount, align 4, !dbg !2801, !tbaa !2643
  %88 = icmp eq i32 %87, 0, !dbg !2802
  br i1 %88, label %85, label %89, !dbg !2803, !llvm.loop !2806

89:                                               ; preds = %85, %80, %83
  %90 = call i32 (i8*, ...) @printf_(i8* noundef getelementptr inbounds ([12 x i8], [12 x i8]* @.str.13, i32 0, i32 0)) #36, !dbg !2808
  %91 = call i32 (i8*, i8*, ...) @sprintf_(i8* noundef nonnull %69, i8* noundef getelementptr inbounds ([37 x i8], [37 x i8]* @.str.14, i32 0, i32 0)) #36, !dbg !2809
  store i32 1, i32* %71, align 4, !dbg !2810, !tbaa !2646
  %92 = call i32 @strlen(i8* noundef nonnull %69), !dbg !2811
  %93 = add i32 %92, 1, !dbg !2812
  store i32 %93, i32* %77, align 4, !dbg !2813, !tbaa !2663
  %94 = call noundef i32 @_ZN4MQTT6ClientIN6Cicada18BlockingCommDeviceENS1_13MQTTCountdownELi100ELi5EE7publishEPKcRNS_7MessageE(%"class.MQTT::Client"* noundef nonnull align 4 dereferenceable(458) %15, i8* noundef getelementptr inbounds ([14 x i8], [14 x i8]* @.str.2, i32 0, i32 0), %"struct.MQTT::Message"* noundef nonnull align 4 dereferenceable(16) %17), !dbg !2814
  call void @llvm.dbg.value(metadata i32 %94, metadata !2701, metadata !DIExpression()), !dbg !2705
  %95 = icmp eq i32 %94, 0, !dbg !2815
  br i1 %95, label %96, label %99, !dbg !2817

96:                                               ; preds = %89
  %97 = load i32, i32* @arrivedcount, align 4, !dbg !2818, !tbaa !2643
  %98 = icmp eq i32 %97, 1, !dbg !2819
  br i1 %98, label %101, label %105, !dbg !2820

99:                                               ; preds = %89
  %100 = call i32 (i8*, ...) @printf_(i8* noundef getelementptr inbounds ([38 x i8], [38 x i8]* @.str.15, i32 0, i32 0), i32 noundef %94) #36, !dbg !2821
  br label %105, !dbg !2821

101:                                              ; preds = %96, %101
  %102 = call noundef i32 @_ZN4MQTT6ClientIN6Cicada18BlockingCommDeviceENS1_13MQTTCountdownELi100ELi5EE5yieldEm(%"class.MQTT::Client"* noundef nonnull align 4 dereferenceable(458) %15, i32 noundef 100), !dbg !2822
  %103 = load i32, i32* @arrivedcount, align 4, !dbg !2818, !tbaa !2643
  %104 = icmp eq i32 %103, 1, !dbg !2819
  br i1 %104, label %101, label %105, !dbg !2820, !llvm.loop !2823

105:                                              ; preds = %101, %96, %99
  %106 = call i32 (i8*, i8*, ...) @sprintf_(i8* noundef nonnull %69, i8* noundef getelementptr inbounds ([37 x i8], [37 x i8]* @.str.16, i32 0, i32 0)) #36, !dbg !2825
  store i32 2, i32* %71, align 4, !dbg !2826, !tbaa !2646
  %107 = call i32 @strlen(i8* noundef nonnull %69), !dbg !2827
  %108 = add i32 %107, 1, !dbg !2828
  store i32 %108, i32* %77, align 4, !dbg !2829, !tbaa !2663
  %109 = call noundef i32 @_ZN4MQTT6ClientIN6Cicada18BlockingCommDeviceENS1_13MQTTCountdownELi100ELi5EE7publishEPKcRNS_7MessageE(%"class.MQTT::Client"* noundef nonnull align 4 dereferenceable(458) %15, i8* noundef getelementptr inbounds ([14 x i8], [14 x i8]* @.str.2, i32 0, i32 0), %"struct.MQTT::Message"* noundef nonnull align 4 dereferenceable(16) %17), !dbg !2830
  call void @llvm.dbg.value(metadata i32 %109, metadata !2701, metadata !DIExpression()), !dbg !2705
  %110 = icmp eq i32 %109, 0, !dbg !2831
  br i1 %110, label %113, label %111, !dbg !2833

111:                                              ; preds = %105
  %112 = call i32 (i8*, ...) @printf_(i8* noundef getelementptr inbounds ([38 x i8], [38 x i8]* @.str.17, i32 0, i32 0), i32 noundef %109) #36, !dbg !2834
  br label %113, !dbg !2834

113:                                              ; preds = %111, %105
  %114 = load i32, i32* @arrivedcount, align 4, !dbg !2835, !tbaa !2643
  %115 = icmp eq i32 %114, 2, !dbg !2836
  br i1 %115, label %116, label %120, !dbg !2837

116:                                              ; preds = %113, %116
  %117 = call noundef i32 @_ZN4MQTT6ClientIN6Cicada18BlockingCommDeviceENS1_13MQTTCountdownELi100ELi5EE5yieldEm(%"class.MQTT::Client"* noundef nonnull align 4 dereferenceable(458) %15, i32 noundef 100), !dbg !2838
  %118 = load i32, i32* @arrivedcount, align 4, !dbg !2835, !tbaa !2643
  %119 = icmp eq i32 %118, 2, !dbg !2836
  br i1 %119, label %116, label %120, !dbg !2837, !llvm.loop !2839

120:                                              ; preds = %116, %113
  %121 = call noundef i32 @_ZN4MQTT6ClientIN6Cicada18BlockingCommDeviceENS1_13MQTTCountdownELi100ELi5EE11unsubscribeEPKc(%"class.MQTT::Client"* noundef nonnull align 4 dereferenceable(458) %15, i8* noundef getelementptr inbounds ([14 x i8], [14 x i8]* @.str.2, i32 0, i32 0)), !dbg !2841
  call void @llvm.dbg.value(metadata i32 %121, metadata !2701, metadata !DIExpression()), !dbg !2705
  %122 = icmp eq i32 %121, 0, !dbg !2842
  br i1 %122, label %125, label %123, !dbg !2844

123:                                              ; preds = %120
  %124 = call i32 (i8*, ...) @printf_(i8* noundef getelementptr inbounds ([29 x i8], [29 x i8]* @.str.18, i32 0, i32 0), i32 noundef %121) #36, !dbg !2845
  br label %125, !dbg !2845

125:                                              ; preds = %123, %120
  %126 = call noundef i32 @_ZN4MQTT6ClientIN6Cicada18BlockingCommDeviceENS1_13MQTTCountdownELi100ELi5EE10disconnectEv(%"class.MQTT::Client"* noundef nonnull align 4 dereferenceable(458) %15), !dbg !2846
  call void @llvm.dbg.value(metadata i32 %126, metadata !2701, metadata !DIExpression()), !dbg !2705
  %127 = icmp eq i32 %126, 0, !dbg !2847
  br i1 %127, label %130, label %128, !dbg !2849

128:                                              ; preds = %125
  %129 = call i32 (i8*, ...) @printf_(i8* noundef getelementptr inbounds ([28 x i8], [28 x i8]* @.str.19, i32 0, i32 0), i32 noundef %126) #36, !dbg !2850
  br label %130, !dbg !2850

130:                                              ; preds = %128, %125
  call void @_ZN6Cicada12IPCommDevice10disconnectEv(%"class.Cicada::IPCommDevice"* noundef nonnull align 8 dereferenceable(140) %47) #36, !dbg !2851
  %131 = call noundef zeroext i1 @_ZN6Cicada12IPCommDevice6isIdleEv(%"class.Cicada::IPCommDevice"* noundef nonnull align 8 dereferenceable(140) %47) #36, !dbg !2852
  br i1 %131, label %134, label %132, !dbg !2853

132:                                              ; preds = %130, %132
  call void @_Z13yieldFunctionPv(i8* noundef nonnull %38), !dbg !2854
  %133 = call noundef zeroext i1 @_ZN6Cicada12IPCommDevice6isIdleEv(%"class.Cicada::IPCommDevice"* noundef nonnull align 8 dereferenceable(140) %47) #36, !dbg !2852
  br i1 %133, label %134, label %132, !dbg !2853, !llvm.loop !2856

134:                                              ; preds = %132, %130
  %135 = load i32, i32* @arrivedcount, align 4, !dbg !2858, !tbaa !2643
  %136 = call i32 (i8*, ...) @printf_(i8* noundef getelementptr inbounds ([38 x i8], [38 x i8]* @.str.20, i32 0, i32 0), i32 noundef %135) #36, !dbg !2859
  unreachable, !dbg !2860
}

; Function Attrs: mustprogress noinline norecurse nounwind
define internal fastcc void @_ZL18SystemClock_Configv() unnamed_addr #3 !dbg !2861 {
  %1 = alloca %struct.RCC_OscInitTypeDef, align 4
  %2 = alloca %struct.RCC_ClkInitTypeDef, align 4
  %3 = bitcast %struct.RCC_OscInitTypeDef* %1 to i8*, !dbg !2892
  call void @llvm.lifetime.start.p0i8(i64 40, i8* nonnull %3) #36, !dbg !2892
  call void @llvm.dbg.declare(metadata %struct.RCC_OscInitTypeDef* %1, metadata !2863, metadata !DIExpression()), !dbg !2893
  call void @llvm.memset.p0i8.i32(i8* noundef nonnull align 4 dereferenceable(40) %3, i8 0, i32 40, i1 false), !dbg !2893
  %4 = bitcast %struct.RCC_ClkInitTypeDef* %2 to i8*, !dbg !2894
  call void @llvm.lifetime.start.p0i8(i64 20, i8* nonnull %4) #36, !dbg !2894
  call void @llvm.dbg.declare(metadata %struct.RCC_ClkInitTypeDef* %2, metadata !2883, metadata !DIExpression()), !dbg !2895
  call void @llvm.memset.p0i8.i32(i8* noundef nonnull align 4 dereferenceable(20) %4, i8 0, i32 20, i1 false), !dbg !2895
  %5 = getelementptr inbounds %struct.RCC_OscInitTypeDef, %struct.RCC_OscInitTypeDef* %1, i32 0, i32 0, !dbg !2896
  store i32 2, i32* %5, align 4, !dbg !2897, !tbaa !2898
  %6 = getelementptr inbounds %struct.RCC_OscInitTypeDef, %struct.RCC_OscInitTypeDef* %1, i32 0, i32 4, !dbg !2901
  store i32 1, i32* %6, align 4, !dbg !2902, !tbaa !2903
  %7 = getelementptr inbounds %struct.RCC_OscInitTypeDef, %struct.RCC_OscInitTypeDef* %1, i32 0, i32 5, !dbg !2904
  store i32 16, i32* %7, align 4, !dbg !2905, !tbaa !2906
  %8 = getelementptr inbounds %struct.RCC_OscInitTypeDef, %struct.RCC_OscInitTypeDef* %1, i32 0, i32 7, i32 0, !dbg !2907
  store i32 2, i32* %8, align 4, !dbg !2908, !tbaa !2909
  %9 = getelementptr inbounds %struct.RCC_OscInitTypeDef, %struct.RCC_OscInitTypeDef* %1, i32 0, i32 7, i32 1, !dbg !2910
  store i32 0, i32* %9, align 4, !dbg !2911, !tbaa !2912
  %10 = getelementptr inbounds %struct.RCC_OscInitTypeDef, %struct.RCC_OscInitTypeDef* %1, i32 0, i32 7, i32 2, !dbg !2913
  store i32 3670016, i32* %10, align 4, !dbg !2914, !tbaa !2915
  %11 = call i32 @HAL_RCC_OscConfig(%struct.RCC_OscInitTypeDef* noundef nonnull %1) #36, !dbg !2916
  %12 = getelementptr inbounds %struct.RCC_ClkInitTypeDef, %struct.RCC_ClkInitTypeDef* %2, i32 0, i32 0, !dbg !2917
  store i32 15, i32* %12, align 4, !dbg !2918, !tbaa !2919
  %13 = getelementptr inbounds %struct.RCC_ClkInitTypeDef, %struct.RCC_ClkInitTypeDef* %2, i32 0, i32 1, !dbg !2921
  store i32 2, i32* %13, align 4, !dbg !2922, !tbaa !2923
  %14 = getelementptr inbounds %struct.RCC_ClkInitTypeDef, %struct.RCC_ClkInitTypeDef* %2, i32 0, i32 2, !dbg !2924
  store i32 0, i32* %14, align 4, !dbg !2925, !tbaa !2926
  %15 = getelementptr inbounds %struct.RCC_ClkInitTypeDef, %struct.RCC_ClkInitTypeDef* %2, i32 0, i32 3, !dbg !2927
  store i32 1024, i32* %15, align 4, !dbg !2928, !tbaa !2929
  %16 = getelementptr inbounds %struct.RCC_ClkInitTypeDef, %struct.RCC_ClkInitTypeDef* %2, i32 0, i32 4, !dbg !2930
  store i32 0, i32* %16, align 4, !dbg !2931, !tbaa !2932
  %17 = call i32 @HAL_RCC_ClockConfig(%struct.RCC_ClkInitTypeDef* noundef nonnull %2, i32 noundef 2) #36, !dbg !2933
  call void @llvm.lifetime.end.p0i8(i64 20, i8* nonnull %4) #36, !dbg !2934
  call void @llvm.lifetime.end.p0i8(i64 40, i8* nonnull %3) #36, !dbg !2934
  ret void, !dbg !2934
}

; Function Attrs: argmemonly nofree nosync nounwind willreturn
declare void @llvm.lifetime.start.p0i8(i64 immarg, i8* nocapture) #4

; Function Attrs: nofree nosync nounwind readnone speculatable willreturn
declare void @llvm.dbg.declare(metadata, metadata, metadata) #1

; Function Attrs: noinline nounwind
define linkonce_odr dso_local noundef %"class.MQTT::Client"* @_ZN4MQTT6ClientIN6Cicada18BlockingCommDeviceENS1_13MQTTCountdownELi100ELi5EEC2ERS2_j(%"class.MQTT::Client"* noundef nonnull returned align 4 dereferenceable(458) %0, %"class.Cicada::BlockingCommDevice"* noundef nonnull align 4 dereferenceable(16) %1, i32 noundef %2) unnamed_addr #5 comdat align 2 !dbg !2935 {
  call void @llvm.dbg.value(metadata %"class.MQTT::Client"* %0, metadata !2937, metadata !DIExpression()), !dbg !2940
  call void @llvm.dbg.value(metadata %"class.Cicada::BlockingCommDevice"* %1, metadata !2938, metadata !DIExpression()), !dbg !2940
  call void @llvm.dbg.value(metadata i32 %2, metadata !2939, metadata !DIExpression()), !dbg !2940
  %4 = getelementptr inbounds %"class.MQTT::Client", %"class.MQTT::Client"* %0, i32 0, i32 0, !dbg !2941
  store %"class.Cicada::BlockingCommDevice"* %1, %"class.Cicada::BlockingCommDevice"** %4, align 4, !dbg !2941, !tbaa !2733
  %5 = getelementptr inbounds %"class.MQTT::Client", %"class.MQTT::Client"* %0, i32 0, i32 4, !dbg !2942
  %6 = call noundef %"class.Cicada::MQTTCountdown"* @_ZN6Cicada13MQTTCountdownC1Ev(%"class.Cicada::MQTTCountdown"* noundef nonnull align 4 dereferenceable(4) %5) #36, !dbg !2942
  %7 = getelementptr inbounds %"class.MQTT::Client", %"class.MQTT::Client"* %0, i32 0, i32 5, !dbg !2942
  %8 = call noundef %"class.Cicada::MQTTCountdown"* @_ZN6Cicada13MQTTCountdownC1Ev(%"class.Cicada::MQTTCountdown"* noundef nonnull align 4 dereferenceable(4) %7) #36, !dbg !2942
  %9 = getelementptr inbounds %"class.MQTT::Client", %"class.MQTT::Client"* %0, i32 0, i32 10, !dbg !2943
  %10 = call noundef %"class.Cicada::MQTTCountdown"* @_ZN4MQTT8PacketIdC2Ev(%"class.Cicada::MQTTCountdown"* noundef nonnull align 4 dereferenceable(4) %9), !dbg !2943
  %11 = getelementptr inbounds %"class.MQTT::Client", %"class.MQTT::Client"* %0, i32 0, i32 11, i32 0, !dbg !2942
  %12 = getelementptr inbounds %"class.MQTT::Client", %"class.MQTT::Client"* %0, i32 0, i32 11, i32 5, !dbg !2942
  br label %13, !dbg !2942

13:                                               ; preds = %13, %3
  %14 = phi %"struct.MQTT::Client<Cicada::BlockingCommDevice, Cicada::MQTTCountdown, 100, 5>::MessageHandlers"* [ %11, %3 ], [ %16, %13 ], !dbg !2942
  %15 = call noundef %"struct.MQTT::Client<Cicada::BlockingCommDevice, Cicada::MQTTCountdown, 100, 5>::MessageHandlers"* @_ZN4MQTT6ClientIN6Cicada18BlockingCommDeviceENS1_13MQTTCountdownELi100ELi5EE15MessageHandlersC2Ev(%"struct.MQTT::Client<Cicada::BlockingCommDevice, Cicada::MQTTCountdown, 100, 5>::MessageHandlers"* noundef nonnull align 4 dereferenceable(16) %14), !dbg !2942
  %16 = getelementptr inbounds %"struct.MQTT::Client<Cicada::BlockingCommDevice, Cicada::MQTTCountdown, 100, 5>::MessageHandlers", %"struct.MQTT::Client<Cicada::BlockingCommDevice, Cicada::MQTTCountdown, 100, 5>::MessageHandlers"* %14, i32 1, !dbg !2942
  %17 = icmp eq %"struct.MQTT::Client<Cicada::BlockingCommDevice, Cicada::MQTTCountdown, 100, 5>::MessageHandlers"* %16, %12, !dbg !2942
  br i1 %17, label %18, label %13, !dbg !2942

18:                                               ; preds = %13
  %19 = getelementptr inbounds %"class.MQTT::Client", %"class.MQTT::Client"* %0, i32 0, i32 12, !dbg !2942
  %20 = call noundef %class.FP* @_ZN2FPIvRN4MQTT11MessageDataEEC2Ev(%class.FP* noundef nonnull align 4 dereferenceable(12) %19), !dbg !2942
  %21 = getelementptr inbounds %"class.MQTT::Client", %"class.MQTT::Client"* %0, i32 0, i32 1, !dbg !2944
  store i32 %2, i32* %21, align 4, !dbg !2946, !tbaa !2947
  %22 = getelementptr inbounds %"class.MQTT::Client", %"class.MQTT::Client"* %0, i32 0, i32 8, !dbg !2953
  store i8 1, i8* %22, align 1, !dbg !2954, !tbaa !2955
  call void @_ZN4MQTT6ClientIN6Cicada18BlockingCommDeviceENS1_13MQTTCountdownELi100ELi5EE12closeSessionEv(%"class.MQTT::Client"* noundef nonnull align 4 dereferenceable(458) %0), !dbg !2956
  ret %"class.MQTT::Client"* %0, !dbg !2957
}

; Function Attrs: argmemonly nofree nounwind willreturn
declare void @llvm.memcpy.p0i8.p0i8.i32(i8* noalias nocapture writeonly, i8* noalias nocapture readonly, i32, i1 immarg) #6

; Function Attrs: mustprogress noinline nounwind
define linkonce_odr dso_local noundef i32 @_ZN4MQTT6ClientIN6Cicada18BlockingCommDeviceENS1_13MQTTCountdownELi100ELi5EE7connectER22MQTTPacket_connectData(%"class.MQTT::Client"* noundef nonnull align 4 dereferenceable(458) %0, %struct.MQTTPacket_connectData* noundef nonnull align 4 dereferenceable(88) %1) local_unnamed_addr #0 comdat align 2 !dbg !2958 {
  %3 = alloca %"struct.MQTT::connackData", align 4
  call void @llvm.dbg.value(metadata %"class.MQTT::Client"* %0, metadata !2960, metadata !DIExpression()), !dbg !2963
  call void @llvm.dbg.value(metadata %struct.MQTTPacket_connectData* %1, metadata !2961, metadata !DIExpression()), !dbg !2963
  %4 = bitcast %"struct.MQTT::connackData"* %3 to i8*, !dbg !2964
  call void @llvm.lifetime.start.p0i8(i64 8, i8* nonnull %4) #36, !dbg !2964
  call void @llvm.dbg.declare(metadata %"struct.MQTT::connackData"* %3, metadata !2962, metadata !DIExpression()), !dbg !2965
  %5 = call noundef i32 @_ZN4MQTT6ClientIN6Cicada18BlockingCommDeviceENS1_13MQTTCountdownELi100ELi5EE7connectER22MQTTPacket_connectDataRNS_11connackDataE(%"class.MQTT::Client"* noundef nonnull align 4 dereferenceable(458) %0, %struct.MQTTPacket_connectData* noundef nonnull align 4 dereferenceable(88) %1, %"struct.MQTT::connackData"* noundef nonnull align 4 dereferenceable(8) %3), !dbg !2966
  call void @llvm.lifetime.end.p0i8(i64 8, i8* nonnull %4) #36, !dbg !2967
  ret i32 %5, !dbg !2968
}

; Function Attrs: mustprogress noinline nounwind
define linkonce_odr dso_local noundef i32 @_ZN4MQTT6ClientIN6Cicada18BlockingCommDeviceENS1_13MQTTCountdownELi100ELi5EE9subscribeEPKcNS_3QoSEPFvRNS_11MessageDataEE(%"class.MQTT::Client"* noundef nonnull align 4 dereferenceable(458) %0, i8* noundef %1, i32 noundef %2, void (%"struct.MQTT::MessageData"*)* noundef %3) local_unnamed_addr #0 comdat align 2 !dbg !2969 {
  %5 = alloca %"class.Cicada::MQTTCountdown", align 4
  call void @llvm.dbg.value(metadata %"class.MQTT::Client"* %0, metadata !2971, metadata !DIExpression()), !dbg !2976
  call void @llvm.dbg.value(metadata i8* %1, metadata !2972, metadata !DIExpression()), !dbg !2976
  call void @llvm.dbg.value(metadata i32 %2, metadata !2973, metadata !DIExpression()), !dbg !2976
  call void @llvm.dbg.value(metadata void (%"struct.MQTT::MessageData"*)* %3, metadata !2974, metadata !DIExpression()), !dbg !2976
  %6 = bitcast %"class.Cicada::MQTTCountdown"* %5 to i8*, !dbg !2977
  call void @llvm.lifetime.start.p0i8(i64 4, i8* nonnull %6) #36, !dbg !2977
  call void @llvm.dbg.declare(metadata %"class.Cicada::MQTTCountdown"* %5, metadata !2975, metadata !DIExpression()), !dbg !2978
  %7 = call noundef i32 @_ZN4MQTT6ClientIN6Cicada18BlockingCommDeviceENS1_13MQTTCountdownELi100ELi5EE9subscribeEPKcNS_3QoSEPFvRNS_11MessageDataEERNS_10subackDataE(%"class.MQTT::Client"* noundef nonnull align 4 dereferenceable(458) %0, i8* noundef %1, i32 noundef %2, void (%"struct.MQTT::MessageData"*)* noundef %3, %"class.Cicada::MQTTCountdown"* noundef nonnull align 4 dereferenceable(4) %5), !dbg !2979
  call void @llvm.lifetime.end.p0i8(i64 4, i8* nonnull %6) #36, !dbg !2980
  ret i32 %7, !dbg !2981
}

; Function Attrs: argmemonly mustprogress nofree nounwind readonly willreturn
declare dso_local i32 @strlen(i8* nocapture noundef) local_unnamed_addr #7

; Function Attrs: mustprogress noinline nounwind
define linkonce_odr dso_local noundef i32 @_ZN4MQTT6ClientIN6Cicada18BlockingCommDeviceENS1_13MQTTCountdownELi100ELi5EE7publishEPKcRNS_7MessageE(%"class.MQTT::Client"* noundef nonnull align 4 dereferenceable(458) %0, i8* noundef %1, %"struct.MQTT::Message"* noundef nonnull align 4 dereferenceable(16) %2) local_unnamed_addr #0 comdat align 2 !dbg !2982 {
  call void @llvm.dbg.value(metadata %"class.MQTT::Client"* %0, metadata !2984, metadata !DIExpression()), !dbg !2987
  call void @llvm.dbg.value(metadata i8* %1, metadata !2985, metadata !DIExpression()), !dbg !2987
  call void @llvm.dbg.value(metadata %"struct.MQTT::Message"* %2, metadata !2986, metadata !DIExpression()), !dbg !2987
  %4 = getelementptr inbounds %"struct.MQTT::Message", %"struct.MQTT::Message"* %2, i32 0, i32 4, !dbg !2988
  %5 = load i8*, i8** %4, align 4, !dbg !2988, !tbaa !2665
  %6 = getelementptr inbounds %"struct.MQTT::Message", %"struct.MQTT::Message"* %2, i32 0, i32 5, !dbg !2989
  %7 = load i32, i32* %6, align 4, !dbg !2989, !tbaa !2663
  %8 = getelementptr inbounds %"struct.MQTT::Message", %"struct.MQTT::Message"* %2, i32 0, i32 0, !dbg !2990
  %9 = load i32, i32* %8, align 4, !dbg !2990, !tbaa !2646
  %10 = getelementptr inbounds %"struct.MQTT::Message", %"struct.MQTT::Message"* %2, i32 0, i32 1, !dbg !2991
  %11 = load i8, i8* %10, align 4, !dbg !2991, !tbaa !2652, !range !2653
  %12 = icmp ne i8 %11, 0, !dbg !2991
  %13 = call noundef i32 @_ZN4MQTT6ClientIN6Cicada18BlockingCommDeviceENS1_13MQTTCountdownELi100ELi5EE7publishEPKcPvjNS_3QoSEb(%"class.MQTT::Client"* noundef nonnull align 4 dereferenceable(458) %0, i8* noundef %1, i8* noundef %5, i32 noundef %7, i32 noundef %9, i1 noundef zeroext %12), !dbg !2992
  ret i32 %13, !dbg !2993
}

; Function Attrs: mustprogress noinline nounwind
define linkonce_odr dso_local noundef i32 @_ZN4MQTT6ClientIN6Cicada18BlockingCommDeviceENS1_13MQTTCountdownELi100ELi5EE5yieldEm(%"class.MQTT::Client"* noundef nonnull align 4 dereferenceable(458) %0, i32 noundef %1) local_unnamed_addr #0 comdat align 2 !dbg !2994 {
  %3 = alloca %"class.Cicada::MQTTCountdown", align 4
  call void @llvm.dbg.value(metadata %"class.MQTT::Client"* %0, metadata !2996, metadata !DIExpression()), !dbg !3000
  call void @llvm.dbg.value(metadata i32 %1, metadata !2997, metadata !DIExpression()), !dbg !3000
  call void @llvm.dbg.value(metadata i32 0, metadata !2998, metadata !DIExpression()), !dbg !3000
  %4 = bitcast %"class.Cicada::MQTTCountdown"* %3 to i8*, !dbg !3001
  call void @llvm.lifetime.start.p0i8(i64 4, i8* nonnull %4) #36, !dbg !3001
  call void @llvm.dbg.declare(metadata %"class.Cicada::MQTTCountdown"* %3, metadata !2999, metadata !DIExpression()), !dbg !3002
  %5 = call noundef %"class.Cicada::MQTTCountdown"* @_ZN6Cicada13MQTTCountdownC1Ev(%"class.Cicada::MQTTCountdown"* noundef nonnull align 4 dereferenceable(4) %3) #36, !dbg !3002
  call void @_ZN6Cicada13MQTTCountdown12countdown_msEi(%"class.Cicada::MQTTCountdown"* noundef nonnull align 4 dereferenceable(4) %3, i32 noundef %1) #36, !dbg !3003
  br label %6, !dbg !3004

6:                                                ; preds = %8, %2
  %7 = call noundef zeroext i1 @_ZN6Cicada13MQTTCountdown7expiredEv(%"class.Cicada::MQTTCountdown"* noundef nonnull align 4 dereferenceable(4) %3) #36, !dbg !3005
  br i1 %7, label %11, label %8, !dbg !3004

8:                                                ; preds = %6
  %9 = call noundef i32 @_ZN4MQTT6ClientIN6Cicada18BlockingCommDeviceENS1_13MQTTCountdownELi100ELi5EE5cycleERS3_(%"class.MQTT::Client"* noundef nonnull align 4 dereferenceable(458) %0, %"class.Cicada::MQTTCountdown"* noundef nonnull align 4 dereferenceable(4) %3), !dbg !3006
  %10 = icmp slt i32 %9, 0, !dbg !3009
  br i1 %10, label %11, label %6, !dbg !3010, !llvm.loop !3011

11:                                               ; preds = %8, %6
  %12 = phi i32 [ 0, %6 ], [ -1, %8 ], !dbg !3000
  call void @llvm.dbg.value(metadata i32 %12, metadata !2998, metadata !DIExpression()), !dbg !3000
  call void @llvm.lifetime.end.p0i8(i64 4, i8* nonnull %4) #36, !dbg !3013
  ret i32 %12, !dbg !3014
}

; Function Attrs: mustprogress noinline nounwind
define linkonce_odr dso_local noundef i32 @_ZN4MQTT6ClientIN6Cicada18BlockingCommDeviceENS1_13MQTTCountdownELi100ELi5EE11unsubscribeEPKc(%"class.MQTT::Client"* noundef nonnull align 4 dereferenceable(458) %0, i8* noundef %1) local_unnamed_addr #0 comdat align 2 !dbg !3015 {
  %3 = alloca %"class.Cicada::MQTTCountdown", align 4
  %4 = alloca %struct.MQTTString, align 4
  %5 = alloca i16, align 2
  call void @llvm.dbg.value(metadata %"class.MQTT::Client"* %0, metadata !3017, metadata !DIExpression()), !dbg !3027
  call void @llvm.dbg.value(metadata i8* %1, metadata !3018, metadata !DIExpression()), !dbg !3027
  call void @llvm.dbg.value(metadata i32 -1, metadata !3019, metadata !DIExpression()), !dbg !3027
  %6 = bitcast %"class.Cicada::MQTTCountdown"* %3 to i8*, !dbg !3028
  call void @llvm.lifetime.start.p0i8(i64 4, i8* nonnull %6) #36, !dbg !3028
  call void @llvm.dbg.declare(metadata %"class.Cicada::MQTTCountdown"* %3, metadata !3020, metadata !DIExpression()), !dbg !3029
  %7 = getelementptr inbounds %"class.MQTT::Client", %"class.MQTT::Client"* %0, i32 0, i32 1, !dbg !3030
  %8 = load i32, i32* %7, align 4, !dbg !3030, !tbaa !2947
  %9 = call noundef %"class.Cicada::MQTTCountdown"* @_ZN6Cicada13MQTTCountdownC1Ei(%"class.Cicada::MQTTCountdown"* noundef nonnull align 4 dereferenceable(4) %3, i32 noundef %8) #36, !dbg !3029
  %10 = bitcast %struct.MQTTString* %4 to i8*, !dbg !3031
  call void @llvm.lifetime.start.p0i8(i64 12, i8* nonnull %10) #36, !dbg !3031
  call void @llvm.dbg.declare(metadata %struct.MQTTString* %4, metadata !3021, metadata !DIExpression()), !dbg !3032
  %11 = getelementptr inbounds %struct.MQTTString, %struct.MQTTString* %4, i32 0, i32 0, !dbg !3033
  store i8* %1, i8** %11, align 4, !dbg !3033, !tbaa !3034
  %12 = getelementptr inbounds %struct.MQTTString, %struct.MQTTString* %4, i32 0, i32 1, i32 0, !dbg !3035
  store i32 0, i32* %12, align 4, !dbg !3035, !tbaa !3036
  %13 = getelementptr inbounds %struct.MQTTString, %struct.MQTTString* %4, i32 0, i32 1, i32 1, !dbg !3035
  store i8* null, i8** %13, align 4, !dbg !3035, !tbaa !3037
  call void @llvm.dbg.value(metadata i32 0, metadata !3022, metadata !DIExpression()), !dbg !3027
  %14 = getelementptr inbounds %"class.MQTT::Client", %"class.MQTT::Client"* %0, i32 0, i32 13, !dbg !3038
  %15 = load i8, i8* %14, align 4, !dbg !3038, !tbaa !3040, !range !2653
  %16 = icmp eq i8 %15, 0, !dbg !3038
  br i1 %16, label %38, label %17, !dbg !3041

17:                                               ; preds = %2
  %18 = getelementptr inbounds %"class.MQTT::Client", %"class.MQTT::Client"* %0, i32 0, i32 2, i32 0, !dbg !3042
  %19 = getelementptr inbounds %"class.MQTT::Client", %"class.MQTT::Client"* %0, i32 0, i32 10, !dbg !3044
  %20 = call noundef i32 @_ZN4MQTT8PacketId7getNextEv(%"class.Cicada::MQTTCountdown"* noundef nonnull align 4 dereferenceable(4) %19), !dbg !3045
  %21 = trunc i32 %20 to i16, !dbg !3044
  %22 = call i32 @MQTTSerialize_unsubscribe(i8* noundef nonnull %18, i32 noundef 100, i8 noundef zeroext 0, i16 noundef zeroext %21, i32 noundef 1, %struct.MQTTString* noundef nonnull %4) #36, !dbg !3046
  call void @llvm.dbg.value(metadata i32 %22, metadata !3022, metadata !DIExpression()), !dbg !3027
  %23 = icmp slt i32 %22, 1, !dbg !3047
  br i1 %23, label %38, label %24, !dbg !3048

24:                                               ; preds = %17
  %25 = call noundef i32 @_ZN4MQTT6ClientIN6Cicada18BlockingCommDeviceENS1_13MQTTCountdownELi100ELi5EE10sendPacketEiRS3_(%"class.MQTT::Client"* noundef nonnull align 4 dereferenceable(458) %0, i32 noundef %22, %"class.Cicada::MQTTCountdown"* noundef nonnull align 4 dereferenceable(4) %3), !dbg !3049
  call void @llvm.dbg.value(metadata i32 %25, metadata !3019, metadata !DIExpression()), !dbg !3027
  %26 = icmp eq i32 %25, 0, !dbg !3051
  br i1 %26, label %27, label %38, !dbg !3052

27:                                               ; preds = %24
  %28 = call noundef i32 @_ZN4MQTT6ClientIN6Cicada18BlockingCommDeviceENS1_13MQTTCountdownELi100ELi5EE7waitforEiRS3_(%"class.MQTT::Client"* noundef nonnull align 4 dereferenceable(458) %0, i32 noundef 11, %"class.Cicada::MQTTCountdown"* noundef nonnull align 4 dereferenceable(4) %3), !dbg !3053
  %29 = icmp eq i32 %28, 11, !dbg !3054
  br i1 %29, label %30, label %38, !dbg !3055

30:                                               ; preds = %27
  %31 = bitcast i16* %5 to i8*, !dbg !3056
  call void @llvm.lifetime.start.p0i8(i64 2, i8* nonnull %31) #36, !dbg !3056
  %32 = getelementptr inbounds %"class.MQTT::Client", %"class.MQTT::Client"* %0, i32 0, i32 3, i32 0, !dbg !3057
  call void @llvm.dbg.value(metadata i16* %5, metadata !3023, metadata !DIExpression(DW_OP_deref)), !dbg !3059
  %33 = call i32 @MQTTDeserialize_unsuback(i16* noundef nonnull %5, i8* noundef nonnull %32, i32 noundef 100) #36, !dbg !3060
  %34 = icmp eq i32 %33, 1, !dbg !3061
  br i1 %34, label %35, label %37, !dbg !3062

35:                                               ; preds = %30
  %36 = call noundef i32 @_ZN4MQTT6ClientIN6Cicada18BlockingCommDeviceENS1_13MQTTCountdownELi100ELi5EE17setMessageHandlerEPKcPFvRNS_11MessageDataEE(%"class.MQTT::Client"* noundef nonnull align 4 dereferenceable(458) %0, i8* noundef %1, void (%"struct.MQTT::MessageData"*)* noundef null), !dbg !3063
  br label %37, !dbg !3065

37:                                               ; preds = %35, %30
  call void @llvm.lifetime.end.p0i8(i64 2, i8* nonnull %31) #36, !dbg !3066
  br label %38, !dbg !3067

38:                                               ; preds = %27, %37, %24, %17, %2
  %39 = phi i32 [ -1, %17 ], [ %25, %24 ], [ 0, %37 ], [ -1, %2 ], [ -1, %27 ], !dbg !3027
  call void @llvm.dbg.value(metadata i32 %39, metadata !3019, metadata !DIExpression()), !dbg !3027
  call void @llvm.dbg.label(metadata !3026), !dbg !3068
  %40 = icmp eq i32 %39, 0, !dbg !3069
  br i1 %40, label %42, label %41, !dbg !3071

41:                                               ; preds = %38
  call void @_ZN4MQTT6ClientIN6Cicada18BlockingCommDeviceENS1_13MQTTCountdownELi100ELi5EE12closeSessionEv(%"class.MQTT::Client"* noundef nonnull align 4 dereferenceable(458) %0), !dbg !3072
  br label %42, !dbg !3072

42:                                               ; preds = %41, %38
  call void @llvm.lifetime.end.p0i8(i64 12, i8* nonnull %10) #36, !dbg !3073
  call void @llvm.lifetime.end.p0i8(i64 4, i8* nonnull %6) #36, !dbg !3073
  ret i32 %39, !dbg !3074
}

; Function Attrs: mustprogress noinline nounwind
define linkonce_odr dso_local noundef i32 @_ZN4MQTT6ClientIN6Cicada18BlockingCommDeviceENS1_13MQTTCountdownELi100ELi5EE10disconnectEv(%"class.MQTT::Client"* noundef nonnull align 4 dereferenceable(458) %0) local_unnamed_addr #0 comdat align 2 !dbg !3075 {
  %2 = alloca %"class.Cicada::MQTTCountdown", align 4
  call void @llvm.dbg.value(metadata %"class.MQTT::Client"* %0, metadata !3077, metadata !DIExpression()), !dbg !3081
  call void @llvm.dbg.value(metadata i32 -1, metadata !3078, metadata !DIExpression()), !dbg !3081
  %3 = bitcast %"class.Cicada::MQTTCountdown"* %2 to i8*, !dbg !3082
  call void @llvm.lifetime.start.p0i8(i64 4, i8* nonnull %3) #36, !dbg !3082
  call void @llvm.dbg.declare(metadata %"class.Cicada::MQTTCountdown"* %2, metadata !3079, metadata !DIExpression()), !dbg !3083
  %4 = getelementptr inbounds %"class.MQTT::Client", %"class.MQTT::Client"* %0, i32 0, i32 1, !dbg !3084
  %5 = load i32, i32* %4, align 4, !dbg !3084, !tbaa !2947
  %6 = call noundef %"class.Cicada::MQTTCountdown"* @_ZN6Cicada13MQTTCountdownC1Ei(%"class.Cicada::MQTTCountdown"* noundef nonnull align 4 dereferenceable(4) %2, i32 noundef %5) #36, !dbg !3083
  %7 = getelementptr inbounds %"class.MQTT::Client", %"class.MQTT::Client"* %0, i32 0, i32 2, i32 0, !dbg !3085
  %8 = call i32 @MQTTSerialize_disconnect(i8* noundef nonnull %7, i32 noundef 100) #36, !dbg !3086
  call void @llvm.dbg.value(metadata i32 %8, metadata !3080, metadata !DIExpression()), !dbg !3081
  %9 = icmp sgt i32 %8, 0, !dbg !3087
  br i1 %9, label %10, label %12, !dbg !3089

10:                                               ; preds = %1
  %11 = call noundef i32 @_ZN4MQTT6ClientIN6Cicada18BlockingCommDeviceENS1_13MQTTCountdownELi100ELi5EE10sendPacketEiRS3_(%"class.MQTT::Client"* noundef nonnull align 4 dereferenceable(458) %0, i32 noundef %8, %"class.Cicada::MQTTCountdown"* noundef nonnull align 4 dereferenceable(4) %2), !dbg !3090
  call void @llvm.dbg.value(metadata i32 %11, metadata !3078, metadata !DIExpression()), !dbg !3081
  br label %12, !dbg !3091

12:                                               ; preds = %10, %1
  %13 = phi i32 [ %11, %10 ], [ -1, %1 ], !dbg !3081
  call void @llvm.dbg.value(metadata i32 %13, metadata !3078, metadata !DIExpression()), !dbg !3081
  call void @_ZN4MQTT6ClientIN6Cicada18BlockingCommDeviceENS1_13MQTTCountdownELi100ELi5EE12closeSessionEv(%"class.MQTT::Client"* noundef nonnull align 4 dereferenceable(458) %0), !dbg !3092
  call void @llvm.lifetime.end.p0i8(i64 4, i8* nonnull %3) #36, !dbg !3093
  ret i32 %13, !dbg !3094
}

; Function Attrs: mustprogress noinline nounwind
define linkonce_odr dso_local noundef i32 @_ZN4MQTT6ClientIN6Cicada18BlockingCommDeviceENS1_13MQTTCountdownELi100ELi5EE10sendPacketEiRS3_(%"class.MQTT::Client"* noundef nonnull align 4 dereferenceable(458) %0, i32 noundef %1, %"class.Cicada::MQTTCountdown"* noundef nonnull align 4 dereferenceable(4) %2) local_unnamed_addr #0 comdat align 2 !dbg !3095 {
  call void @llvm.dbg.value(metadata %"class.MQTT::Client"* %0, metadata !3097, metadata !DIExpression()), !dbg !3102
  call void @llvm.dbg.value(metadata i32 %1, metadata !3098, metadata !DIExpression()), !dbg !3102
  call void @llvm.dbg.value(metadata %"class.Cicada::MQTTCountdown"* %2, metadata !3099, metadata !DIExpression()), !dbg !3102
  call void @llvm.dbg.value(metadata i32 -1, metadata !3100, metadata !DIExpression()), !dbg !3102
  call void @llvm.dbg.value(metadata i32 0, metadata !3101, metadata !DIExpression()), !dbg !3102
  %4 = getelementptr inbounds %"class.MQTT::Client", %"class.MQTT::Client"* %0, i32 0, i32 0, !dbg !3103
  br label %5, !dbg !3105

5:                                                ; preds = %15, %3
  %6 = phi i32 [ 0, %3 ], [ %16, %15 ], !dbg !3102
  call void @llvm.dbg.value(metadata i32 %6, metadata !3101, metadata !DIExpression()), !dbg !3102
  %7 = icmp slt i32 %6, %1, !dbg !3106
  br i1 %7, label %8, label %18, !dbg !3105

8:                                                ; preds = %5
  %9 = load %"class.Cicada::BlockingCommDevice"*, %"class.Cicada::BlockingCommDevice"** %4, align 4, !dbg !3103, !tbaa !3107
  %10 = getelementptr inbounds %"class.MQTT::Client", %"class.MQTT::Client"* %0, i32 0, i32 2, i32 %6, !dbg !3108
  %11 = sub nsw i32 %1, %6, !dbg !3109
  %12 = call noundef i32 @_ZN6Cicada13MQTTCountdown7left_msEv(%"class.Cicada::MQTTCountdown"* noundef nonnull align 4 dereferenceable(4) %2) #36, !dbg !3110
  %13 = call noundef i32 @_ZN6Cicada18BlockingCommDevice5writeEPhii(%"class.Cicada::BlockingCommDevice"* noundef nonnull align 4 dereferenceable(16) %9, i8* noundef nonnull %10, i32 noundef %11, i32 noundef %12) #36, !dbg !3111
  call void @llvm.dbg.value(metadata i32 %13, metadata !3100, metadata !DIExpression()), !dbg !3102
  %14 = icmp slt i32 %13, 0, !dbg !3112
  br i1 %14, label %18, label %15, !dbg !3114

15:                                               ; preds = %8
  %16 = add nsw i32 %13, %6, !dbg !3115
  call void @llvm.dbg.value(metadata i32 %16, metadata !3101, metadata !DIExpression()), !dbg !3102
  %17 = call noundef zeroext i1 @_ZN6Cicada13MQTTCountdown7expiredEv(%"class.Cicada::MQTTCountdown"* noundef nonnull align 4 dereferenceable(4) %2) #36, !dbg !3116
  br i1 %17, label %18, label %5, !dbg !3118, !llvm.loop !3119

18:                                               ; preds = %15, %8, %5
  %19 = phi i32 [ %6, %8 ], [ %16, %15 ], [ %6, %5 ], !dbg !3102
  call void @llvm.dbg.value(metadata i32 %19, metadata !3101, metadata !DIExpression()), !dbg !3102
  %20 = icmp eq i32 %19, %1, !dbg !3121
  br i1 %20, label %21, label %27, !dbg !3123

21:                                               ; preds = %18
  %22 = getelementptr inbounds %"class.MQTT::Client", %"class.MQTT::Client"* %0, i32 0, i32 6, !dbg !3124
  %23 = load i32, i32* %22, align 4, !dbg !3124, !tbaa !3127
  %24 = icmp eq i32 %23, 0, !dbg !3128
  br i1 %24, label %27, label %25, !dbg !3129

25:                                               ; preds = %21
  %26 = getelementptr inbounds %"class.MQTT::Client", %"class.MQTT::Client"* %0, i32 0, i32 4, !dbg !3130
  call void @_ZN6Cicada13MQTTCountdown9countdownEi(%"class.Cicada::MQTTCountdown"* noundef nonnull align 4 dereferenceable(4) %26, i32 noundef %23) #36, !dbg !3131
  br label %27, !dbg !3130

27:                                               ; preds = %18, %21, %25
  %28 = phi i32 [ 0, %25 ], [ 0, %21 ], [ -1, %18 ], !dbg !3132
  call void @llvm.dbg.value(metadata i32 %28, metadata !3100, metadata !DIExpression()), !dbg !3102
  ret i32 %28, !dbg !3133
}

; Function Attrs: mustprogress noinline nounwind
define linkonce_odr dso_local void @_ZN4MQTT6ClientIN6Cicada18BlockingCommDeviceENS1_13MQTTCountdownELi100ELi5EE12closeSessionEv(%"class.MQTT::Client"* noundef nonnull align 4 dereferenceable(458) %0) local_unnamed_addr #0 comdat align 2 !dbg !3134 {
  call void @llvm.dbg.value(metadata %"class.MQTT::Client"* %0, metadata !3136, metadata !DIExpression()), !dbg !3137
  %2 = getelementptr inbounds %"class.MQTT::Client", %"class.MQTT::Client"* %0, i32 0, i32 7, !dbg !3138
  store i8 0, i8* %2, align 4, !dbg !3139, !tbaa !3140
  %3 = getelementptr inbounds %"class.MQTT::Client", %"class.MQTT::Client"* %0, i32 0, i32 13, !dbg !3141
  store i8 0, i8* %3, align 4, !dbg !3142, !tbaa !3040
  %4 = getelementptr inbounds %"class.MQTT::Client", %"class.MQTT::Client"* %0, i32 0, i32 8, !dbg !3143
  %5 = load i8, i8* %4, align 1, !dbg !3143, !tbaa !2955, !range !2653
  %6 = icmp eq i8 %5, 0, !dbg !3143
  br i1 %6, label %8, label %7, !dbg !3145

7:                                                ; preds = %1
  call void @_ZN4MQTT6ClientIN6Cicada18BlockingCommDeviceENS1_13MQTTCountdownELi100ELi5EE12cleanSessionEv(%"class.MQTT::Client"* noundef nonnull align 4 dereferenceable(458) %0), !dbg !3146
  br label %8, !dbg !3146

8:                                                ; preds = %7, %1
  ret void, !dbg !3147
}

; Function Attrs: argmemonly nofree nosync nounwind willreturn
declare void @llvm.lifetime.end.p0i8(i64 immarg, i8* nocapture) #4

; Function Attrs: mustprogress noinline nounwind
define linkonce_odr dso_local void @_ZN4MQTT6ClientIN6Cicada18BlockingCommDeviceENS1_13MQTTCountdownELi100ELi5EE12cleanSessionEv(%"class.MQTT::Client"* noundef nonnull align 4 dereferenceable(458) %0) local_unnamed_addr #0 comdat align 2 !dbg !3148 {
  call void @llvm.dbg.value(metadata %"class.MQTT::Client"* %0, metadata !3150, metadata !DIExpression()), !dbg !3155
  call void @llvm.dbg.value(metadata i32 0, metadata !3151, metadata !DIExpression()), !dbg !3156
  br label %8, !dbg !3157

2:                                                ; preds = %8
  %3 = getelementptr inbounds %"class.MQTT::Client", %"class.MQTT::Client"* %0, i32 0, i32 17, !dbg !3158
  store i16 0, i16* %3, align 4, !dbg !3159, !tbaa !3160
  %4 = getelementptr inbounds %"class.MQTT::Client", %"class.MQTT::Client"* %0, i32 0, i32 19, !dbg !3161
  store i32 0, i32* %4, align 4, !dbg !3162, !tbaa !3163
  %5 = getelementptr inbounds %"class.MQTT::Client", %"class.MQTT::Client"* %0, i32 0, i32 20, !dbg !3164
  store i8 0, i8* %5, align 4, !dbg !3165, !tbaa !3166
  call void @llvm.dbg.value(metadata i32 0, metadata !3153, metadata !DIExpression()), !dbg !3167
  %6 = getelementptr %"class.MQTT::Client", %"class.MQTT::Client"* %0, i32 0, i32 22, i32 0, !dbg !3168
  %7 = bitcast i16* %6 to i8*, !dbg !3168
  call void @llvm.memset.p0i8.i32(i8* noundef nonnull align 2 dereferenceable(20) %7, i8 0, i32 20, i1 false), !dbg !3169, !tbaa !3171
  call void @llvm.dbg.value(metadata i32 undef, metadata !3153, metadata !DIExpression()), !dbg !3167
  call void @llvm.dbg.value(metadata i32 undef, metadata !3153, metadata !DIExpression(DW_OP_plus_uconst, 1, DW_OP_stack_value)), !dbg !3167
  ret void, !dbg !3172

8:                                                ; preds = %1, %8
  %9 = phi i32 [ 0, %1 ], [ %11, %8 ]
  call void @llvm.dbg.value(metadata i32 %9, metadata !3151, metadata !DIExpression()), !dbg !3156
  %10 = getelementptr inbounds %"class.MQTT::Client", %"class.MQTT::Client"* %0, i32 0, i32 11, i32 %9, i32 0, !dbg !3173
  store i8* null, i8** %10, align 4, !dbg !3175, !tbaa !3176
  %11 = add nuw nsw i32 %9, 1, !dbg !3178
  call void @llvm.dbg.value(metadata i32 %11, metadata !3151, metadata !DIExpression()), !dbg !3156
  %12 = icmp eq i32 %11, 5, !dbg !3179
  br i1 %12, label %2, label %8, !dbg !3157, !llvm.loop !3180
}

; Function Attrs: argmemonly nofree nounwind willreturn writeonly
declare void @llvm.memset.p0i8.i32(i8* nocapture writeonly, i8, i32, i1 immarg) #8

; Function Attrs: mustprogress noinline nounwind
define linkonce_odr dso_local noundef i32 @_ZN4MQTT8PacketId7getNextEv(%"class.Cicada::MQTTCountdown"* noundef nonnull align 4 dereferenceable(4) %0) local_unnamed_addr #0 comdat align 2 !dbg !3182 {
  call void @llvm.dbg.value(metadata %"class.Cicada::MQTTCountdown"* %0, metadata !3184, metadata !DIExpression()), !dbg !3186
  %2 = getelementptr inbounds %"class.Cicada::MQTTCountdown", %"class.Cicada::MQTTCountdown"* %0, i32 0, i32 0, !dbg !3187
  %3 = load i32, i32* %2, align 4, !dbg !3187, !tbaa !3188
  %4 = icmp eq i32 %3, 65535, !dbg !3189
  %5 = add nsw i32 %3, 1
  %6 = select i1 %4, i32 1, i32 %5, !dbg !3190
  store i32 %6, i32* %2, align 4, !dbg !3191, !tbaa !3188
  ret i32 %6, !dbg !3192
}

; Function Attrs: mustprogress noinline nounwind
define linkonce_odr dso_local noundef i32 @_ZN4MQTT6ClientIN6Cicada18BlockingCommDeviceENS1_13MQTTCountdownELi100ELi5EE7waitforEiRS3_(%"class.MQTT::Client"* noundef nonnull align 4 dereferenceable(458) %0, i32 noundef %1, %"class.Cicada::MQTTCountdown"* noundef nonnull align 4 dereferenceable(4) %2) local_unnamed_addr #0 comdat align 2 !dbg !3193 {
  call void @llvm.dbg.value(metadata %"class.MQTT::Client"* %0, metadata !3195, metadata !DIExpression()), !dbg !3199
  call void @llvm.dbg.value(metadata i32 %1, metadata !3196, metadata !DIExpression()), !dbg !3199
  call void @llvm.dbg.value(metadata %"class.Cicada::MQTTCountdown"* %2, metadata !3197, metadata !DIExpression()), !dbg !3199
  call void @llvm.dbg.value(metadata i32 -1, metadata !3198, metadata !DIExpression()), !dbg !3199
  %4 = call noundef zeroext i1 @_ZN6Cicada13MQTTCountdown7expiredEv(%"class.Cicada::MQTTCountdown"* noundef nonnull align 4 dereferenceable(4) %2) #36, !dbg !3200
  br i1 %4, label %12, label %7, !dbg !3203

5:                                                ; preds = %7
  call void @llvm.dbg.value(metadata i32 %8, metadata !3198, metadata !DIExpression()), !dbg !3199
  %6 = call noundef zeroext i1 @_ZN6Cicada13MQTTCountdown7expiredEv(%"class.Cicada::MQTTCountdown"* noundef nonnull align 4 dereferenceable(4) %2) #36, !dbg !3200
  br i1 %6, label %12, label %7, !dbg !3203, !llvm.loop !3204

7:                                                ; preds = %3, %5
  %8 = call noundef i32 @_ZN4MQTT6ClientIN6Cicada18BlockingCommDeviceENS1_13MQTTCountdownELi100ELi5EE5cycleERS3_(%"class.MQTT::Client"* noundef nonnull align 4 dereferenceable(458) %0, %"class.Cicada::MQTTCountdown"* noundef nonnull align 4 dereferenceable(4) %2), !dbg !3207
  call void @llvm.dbg.value(metadata i32 %8, metadata !3198, metadata !DIExpression()), !dbg !3199
  %9 = icmp ne i32 %8, %1, !dbg !3208
  %10 = icmp sgt i32 %8, -1, !dbg !3209
  %11 = and i1 %9, %10, !dbg !3209
  br i1 %11, label %5, label %12, !dbg !3210, !llvm.loop !3204

12:                                               ; preds = %7, %5, %3
  %13 = phi i32 [ -1, %3 ], [ %8, %5 ], [ %8, %7 ], !dbg !3199
  call void @llvm.dbg.value(metadata i32 %13, metadata !3198, metadata !DIExpression()), !dbg !3199
  ret i32 %13, !dbg !3211
}

; Function Attrs: mustprogress noinline nounwind
define linkonce_odr dso_local noundef i32 @_ZN4MQTT6ClientIN6Cicada18BlockingCommDeviceENS1_13MQTTCountdownELi100ELi5EE17setMessageHandlerEPKcPFvRNS_11MessageDataEE(%"class.MQTT::Client"* noundef nonnull align 4 dereferenceable(458) %0, i8* noundef %1, void (%"struct.MQTT::MessageData"*)* noundef %2) local_unnamed_addr #0 comdat align 2 !dbg !3212 {
  call void @llvm.dbg.value(metadata %"class.MQTT::Client"* %0, metadata !3214, metadata !DIExpression()), !dbg !3219
  call void @llvm.dbg.value(metadata i8* %1, metadata !3215, metadata !DIExpression()), !dbg !3219
  call void @llvm.dbg.value(metadata void (%"struct.MQTT::MessageData"*)* %2, metadata !3216, metadata !DIExpression()), !dbg !3219
  call void @llvm.dbg.value(metadata i32 -1, metadata !3217, metadata !DIExpression()), !dbg !3219
  call void @llvm.dbg.value(metadata i32 -1, metadata !3218, metadata !DIExpression()), !dbg !3219
  call void @llvm.dbg.value(metadata i32 0, metadata !3218, metadata !DIExpression()), !dbg !3219
  br label %4, !dbg !3220

4:                                                ; preds = %3, %17
  %5 = phi i1 [ true, %3 ], [ %19, %17 ]
  %6 = phi i32 [ 0, %3 ], [ %18, %17 ]
  call void @llvm.dbg.value(metadata i32 %6, metadata !3218, metadata !DIExpression()), !dbg !3219
  %7 = getelementptr inbounds %"class.MQTT::Client", %"class.MQTT::Client"* %0, i32 0, i32 11, i32 %6, i32 0, !dbg !3222
  %8 = load i8*, i8** %7, align 4, !dbg !3222, !tbaa !3176
  %9 = icmp eq i8* %8, null, !dbg !3226
  br i1 %9, label %17, label %10, !dbg !3227

10:                                               ; preds = %4
  %11 = call i32 @strcmp(i8* noundef nonnull %8, i8* noundef nonnull dereferenceable(1) %1), !dbg !3228
  %12 = icmp eq i32 %11, 0, !dbg !3229
  br i1 %12, label %13, label %17, !dbg !3230

13:                                               ; preds = %10
  %14 = icmp eq void (%"struct.MQTT::MessageData"*)* %2, null, !dbg !3231
  br i1 %14, label %15, label %21, !dbg !3234

15:                                               ; preds = %13
  store i8* null, i8** %7, align 4, !dbg !3235, !tbaa !3176
  %16 = getelementptr inbounds %"class.MQTT::Client", %"class.MQTT::Client"* %0, i32 0, i32 11, i32 %6, i32 1, !dbg !3237
  call void @_ZN2FPIvRN4MQTT11MessageDataEE6detachEv(%class.FP* noundef nonnull align 4 dereferenceable(12) %16), !dbg !3238
  br label %21, !dbg !3239

17:                                               ; preds = %4, %10
  %18 = add nuw nsw i32 %6, 1, !dbg !3240
  call void @llvm.dbg.value(metadata i32 %18, metadata !3218, metadata !DIExpression()), !dbg !3219
  %19 = icmp ult i32 %6, 4, !dbg !3241
  %20 = icmp eq i32 %18, 5, !dbg !3241
  br i1 %20, label %21, label %4, !dbg !3220, !llvm.loop !3242

21:                                               ; preds = %17, %13, %15
  %22 = phi i32 [ %6, %15 ], [ %6, %13 ], [ 5, %17 ]
  %23 = phi i1 [ %5, %15 ], [ %5, %13 ], [ %19, %17 ]
  %24 = phi i32 [ 0, %15 ], [ 0, %13 ], [ -1, %17 ], !dbg !3219
  call void @llvm.dbg.value(metadata i32 %24, metadata !3217, metadata !DIExpression()), !dbg !3219
  %25 = icmp eq void (%"struct.MQTT::MessageData"*)* %2, null, !dbg !3244
  br i1 %25, label %42, label %26, !dbg !3246

26:                                               ; preds = %21
  br i1 %23, label %35, label %27, !dbg !3247

27:                                               ; preds = %26, %32
  %28 = phi i32 [ %33, %32 ], [ 0, %26 ]
  call void @llvm.dbg.value(metadata i32 %28, metadata !3218, metadata !DIExpression()), !dbg !3219
  %29 = getelementptr inbounds %"class.MQTT::Client", %"class.MQTT::Client"* %0, i32 0, i32 11, i32 %28, i32 0, !dbg !3249
  %30 = load i8*, i8** %29, align 4, !dbg !3249, !tbaa !3176
  %31 = icmp eq i8* %30, null, !dbg !3256
  br i1 %31, label %35, label %32, !dbg !3257

32:                                               ; preds = %27
  %33 = add nuw nsw i32 %28, 1, !dbg !3258
  call void @llvm.dbg.value(metadata i32 %33, metadata !3218, metadata !DIExpression()), !dbg !3219
  %34 = icmp eq i32 %33, 5, !dbg !3259
  br i1 %34, label %35, label %27, !dbg !3260, !llvm.loop !3261

35:                                               ; preds = %27, %32, %26
  %36 = phi i32 [ 0, %26 ], [ -1, %32 ], [ 0, %27 ], !dbg !3219
  %37 = phi i32 [ %22, %26 ], [ 5, %32 ], [ %28, %27 ], !dbg !3219
  call void @llvm.dbg.value(metadata i32 %37, metadata !3218, metadata !DIExpression()), !dbg !3219
  call void @llvm.dbg.value(metadata i32 %36, metadata !3217, metadata !DIExpression()), !dbg !3219
  %38 = icmp ult i32 %37, 5, !dbg !3263
  br i1 %38, label %39, label %42, !dbg !3265

39:                                               ; preds = %35
  %40 = getelementptr inbounds %"class.MQTT::Client", %"class.MQTT::Client"* %0, i32 0, i32 11, i32 %37, i32 0, !dbg !3266
  store i8* %1, i8** %40, align 4, !dbg !3268, !tbaa !3176
  %41 = getelementptr inbounds %"class.MQTT::Client", %"class.MQTT::Client"* %0, i32 0, i32 11, i32 %37, i32 1, !dbg !3269
  call void @_ZN2FPIvRN4MQTT11MessageDataEE6attachEPFvS2_E(%class.FP* noundef nonnull align 4 dereferenceable(12) %41, void (%"struct.MQTT::MessageData"*)* noundef nonnull %2), !dbg !3270
  br label %42, !dbg !3271

42:                                               ; preds = %35, %39, %21
  %43 = phi i32 [ %36, %39 ], [ %36, %35 ], [ %24, %21 ], !dbg !3219
  call void @llvm.dbg.value(metadata i32 %43, metadata !3217, metadata !DIExpression()), !dbg !3219
  ret i32 %43, !dbg !3272
}

; Function Attrs: nofree nosync nounwind readnone speculatable willreturn
declare void @llvm.dbg.label(metadata) #1

; Function Attrs: argmemonly mustprogress nofree nounwind readonly willreturn
declare dso_local i32 @strcmp(i8* nocapture noundef, i8* nocapture noundef) local_unnamed_addr #7

; Function Attrs: mustprogress noinline nounwind
define linkonce_odr dso_local void @_ZN2FPIvRN4MQTT11MessageDataEE6detachEv(%class.FP* noundef nonnull align 4 dereferenceable(12) %0) local_unnamed_addr #0 comdat align 2 !dbg !3273 {
  call void @llvm.dbg.value(metadata %class.FP* %0, metadata !3275, metadata !DIExpression()), !dbg !3277
  %2 = getelementptr inbounds %class.FP, %class.FP* %0, i32 0, i32 0, !dbg !3278
  store %"class.FP<void, MQTT::MessageData &>::FPtrDummy"* null, %"class.FP<void, MQTT::MessageData &>::FPtrDummy"** %2, align 4, !dbg !3279, !tbaa !3280
  %3 = getelementptr inbounds %class.FP, %class.FP* %0, i32 0, i32 1, !dbg !3281
  %4 = bitcast %union.anon* %3 to void (%"struct.MQTT::MessageData"*)**, !dbg !3281
  store void (%"struct.MQTT::MessageData"*)* null, void (%"struct.MQTT::MessageData"*)** %4, align 4, !dbg !3282, !tbaa !3283
  ret void, !dbg !3284
}

; Function Attrs: mustprogress noinline nounwind
define linkonce_odr dso_local void @_ZN2FPIvRN4MQTT11MessageDataEE6attachEPFvS2_E(%class.FP* noundef nonnull align 4 dereferenceable(12) %0, void (%"struct.MQTT::MessageData"*)* noundef %1) local_unnamed_addr #0 comdat align 2 !dbg !3285 {
  call void @llvm.dbg.value(metadata %class.FP* %0, metadata !3287, metadata !DIExpression()), !dbg !3289
  call void @llvm.dbg.value(metadata void (%"struct.MQTT::MessageData"*)* %1, metadata !3288, metadata !DIExpression()), !dbg !3289
  %3 = getelementptr inbounds %class.FP, %class.FP* %0, i32 0, i32 1, !dbg !3290
  %4 = bitcast %union.anon* %3 to void (%"struct.MQTT::MessageData"*)**, !dbg !3290
  store void (%"struct.MQTT::MessageData"*)* %1, void (%"struct.MQTT::MessageData"*)** %4, align 4, !dbg !3291, !tbaa !3283
  ret void, !dbg !3292
}

; Function Attrs: mustprogress noinline nounwind
define linkonce_odr dso_local noundef i32 @_ZN4MQTT6ClientIN6Cicada18BlockingCommDeviceENS1_13MQTTCountdownELi100ELi5EE5cycleERS3_(%"class.MQTT::Client"* noundef nonnull align 4 dereferenceable(458) %0, %"class.Cicada::MQTTCountdown"* noundef nonnull align 4 dereferenceable(4) %1) local_unnamed_addr #0 comdat align 2 !dbg !3293 {
  %3 = alloca %struct.MQTTString, align 4
  %4 = alloca %"struct.MQTT::Message", align 4
  %5 = alloca i32, align 4
  %6 = alloca i16, align 2
  %7 = alloca i8, align 1
  %8 = alloca i8, align 1
  call void @llvm.dbg.value(metadata %"class.MQTT::Client"* %0, metadata !3295, metadata !DIExpression()), !dbg !3309
  call void @llvm.dbg.value(metadata %"class.Cicada::MQTTCountdown"* %1, metadata !3296, metadata !DIExpression()), !dbg !3309
  call void @llvm.dbg.value(metadata i32 0, metadata !3297, metadata !DIExpression()), !dbg !3309
  call void @llvm.dbg.value(metadata i32 0, metadata !3298, metadata !DIExpression()), !dbg !3309
  %9 = call noundef i32 @_ZN4MQTT6ClientIN6Cicada18BlockingCommDeviceENS1_13MQTTCountdownELi100ELi5EE10readPacketERS3_(%"class.MQTT::Client"* noundef nonnull align 4 dereferenceable(458) %0, %"class.Cicada::MQTTCountdown"* noundef nonnull align 4 dereferenceable(4) %1), !dbg !3310
  call void @llvm.dbg.value(metadata i32 %9, metadata !3299, metadata !DIExpression()), !dbg !3309
  switch i32 %9, label %99 [
    i32 0, label %94
    i32 2, label %94
    i32 4, label %94
    i32 9, label %94
    i32 11, label %94
    i32 3, label %10
    i32 5, label %70
    i32 6, label %70
    i32 7, label %94
    i32 13, label %92
  ], !dbg !3311

10:                                               ; preds = %2
  %11 = bitcast %struct.MQTTString* %3 to i8*, !dbg !3312
  call void @llvm.lifetime.start.p0i8(i64 12, i8* nonnull %11) #36, !dbg !3312
  call void @llvm.dbg.declare(metadata %struct.MQTTString* %3, metadata !3300, metadata !DIExpression()), !dbg !3313
  call void @llvm.memset.p0i8.i32(i8* noundef nonnull align 4 dereferenceable(12) %11, i8 0, i32 12, i1 false), !dbg !3313
  %12 = bitcast %"struct.MQTT::Message"* %4 to i8*, !dbg !3314
  call void @llvm.lifetime.start.p0i8(i64 16, i8* nonnull %12) #36, !dbg !3314
  call void @llvm.dbg.declare(metadata %"struct.MQTT::Message"* %4, metadata !3303, metadata !DIExpression()), !dbg !3315
  %13 = bitcast i32* %5 to i8*, !dbg !3316
  call void @llvm.lifetime.start.p0i8(i64 4, i8* nonnull %13) #36, !dbg !3316
  %14 = getelementptr inbounds %"struct.MQTT::Message", %"struct.MQTT::Message"* %4, i32 0, i32 5, !dbg !3317
  store i32 0, i32* %14, align 4, !dbg !3318, !tbaa !2663
  %15 = getelementptr inbounds %"struct.MQTT::Message", %"struct.MQTT::Message"* %4, i32 0, i32 2, !dbg !3319
  %16 = getelementptr inbounds %"struct.MQTT::Message", %"struct.MQTT::Message"* %4, i32 0, i32 1, !dbg !3321
  %17 = getelementptr inbounds %"struct.MQTT::Message", %"struct.MQTT::Message"* %4, i32 0, i32 3, !dbg !3322
  %18 = getelementptr inbounds %"struct.MQTT::Message", %"struct.MQTT::Message"* %4, i32 0, i32 4, !dbg !3323
  %19 = getelementptr inbounds %"class.MQTT::Client", %"class.MQTT::Client"* %0, i32 0, i32 3, i32 0, !dbg !3324
  call void @llvm.dbg.value(metadata i32* %5, metadata !3304, metadata !DIExpression(DW_OP_deref)), !dbg !3325
  %20 = call i32 @MQTTDeserialize_publish(i8* noundef nonnull %15, i32* noundef nonnull %5, i8* noundef nonnull %16, i16* noundef nonnull %17, %struct.MQTTString* noundef nonnull %3, i8** noundef nonnull %18, i32* noundef nonnull %14, i8* noundef nonnull %19, i32 noundef 100) #36, !dbg !3326
  %21 = icmp eq i32 %20, 1, !dbg !3327
  br i1 %21, label %22, label %67, !dbg !3328

22:                                               ; preds = %10
  %23 = load i32, i32* %5, align 4, !dbg !3329, !tbaa !2643
  call void @llvm.dbg.value(metadata i32 %23, metadata !3304, metadata !DIExpression()), !dbg !3325
  %24 = getelementptr inbounds %"struct.MQTT::Message", %"struct.MQTT::Message"* %4, i32 0, i32 0, !dbg !3330
  store i32 %23, i32* %24, align 4, !dbg !3331, !tbaa !2646
  %25 = icmp eq i32 %23, 2, !dbg !3332
  br i1 %25, label %28, label %26, !dbg !3334

26:                                               ; preds = %22
  %27 = call noundef i32 @_ZN4MQTT6ClientIN6Cicada18BlockingCommDeviceENS1_13MQTTCountdownELi100ELi5EE14deliverMessageER10MQTTStringRNS_7MessageE(%"class.MQTT::Client"* noundef nonnull align 4 dereferenceable(458) %0, %struct.MQTTString* noundef nonnull align 4 dereferenceable(12) %3, %"struct.MQTT::Message"* noundef nonnull align 4 dereferenceable(16) %4), !dbg !3335
  br label %49, !dbg !3335

28:                                               ; preds = %22
  %29 = load i16, i16* %17, align 2, !dbg !3336, !tbaa !2659
  %30 = call noundef zeroext i1 @_ZN4MQTT6ClientIN6Cicada18BlockingCommDeviceENS1_13MQTTCountdownELi100ELi5EE15isQoS2msgidFreeEt(%"class.MQTT::Client"* noundef nonnull align 4 dereferenceable(458) %0, i16 noundef zeroext %29), !dbg !3338
  br i1 %30, label %31, label %49, !dbg !3339

31:                                               ; preds = %28
  %32 = load i16, i16* %17, align 2, !dbg !3340, !tbaa !2659
  %33 = call noundef zeroext i1 @_ZN4MQTT6ClientIN6Cicada18BlockingCommDeviceENS1_13MQTTCountdownELi100ELi5EE12useQoS2msgidEt(%"class.MQTT::Client"* noundef nonnull align 4 dereferenceable(458) %0, i16 noundef zeroext %32), !dbg !3343
  br i1 %33, label %34, label %36, !dbg !3344

34:                                               ; preds = %31
  %35 = call noundef i32 @_ZN4MQTT6ClientIN6Cicada18BlockingCommDeviceENS1_13MQTTCountdownELi100ELi5EE14deliverMessageER10MQTTStringRNS_7MessageE(%"class.MQTT::Client"* noundef nonnull align 4 dereferenceable(458) %0, %struct.MQTTString* noundef nonnull align 4 dereferenceable(12) %3, %"struct.MQTT::Message"* noundef nonnull align 4 dereferenceable(16) %4), !dbg !3345
  br label %49, !dbg !3345

36:                                               ; preds = %31
  %37 = load %struct._reent*, %struct._reent** @_impure_ptr, align 4, !dbg !3346, !tbaa !2733
  %38 = getelementptr inbounds %struct._reent, %struct._reent* %37, i32 0, i32 2, !dbg !3346
  %39 = load %struct.__sFILE*, %struct.__sFILE** %38, align 8, !dbg !3346, !tbaa !3348
  %40 = call i32 (%struct.__sFILE*, i8*, ...) @fprintf(%struct.__sFILE* noundef %39, i8* noundef getelementptr inbounds ([16 x i8], [16 x i8]* @.str.21, i32 0, i32 0), i8* noundef getelementptr inbounds ([216 x i8], [216 x i8]* @__PRETTY_FUNCTION__._ZN4MQTT6ClientIN6Cicada18BlockingCommDeviceENS1_13MQTTCountdownELi100ELi5EE5cycleERS3_, i32 0, i32 0), i32 noundef 620), !dbg !3346
  %41 = load %struct._reent*, %struct._reent** @_impure_ptr, align 4, !dbg !3346, !tbaa !2733
  %42 = getelementptr inbounds %struct._reent, %struct._reent* %41, i32 0, i32 2, !dbg !3346
  %43 = load %struct.__sFILE*, %struct.__sFILE** %42, align 8, !dbg !3346, !tbaa !3348
  %44 = call i32 @fwrite(i8* getelementptr inbounds ([50 x i8], [50 x i8]* @.str.22, i32 0, i32 0), i32 49, i32 1, %struct.__sFILE* %43), !dbg !3346
  %45 = load %struct._reent*, %struct._reent** @_impure_ptr, align 4, !dbg !3346, !tbaa !2733
  %46 = getelementptr inbounds %struct._reent, %struct._reent* %45, i32 0, i32 2, !dbg !3346
  %47 = load %struct.__sFILE*, %struct.__sFILE** %46, align 8, !dbg !3346, !tbaa !3348
  %48 = call i32 @fflush(%struct.__sFILE* noundef %47), !dbg !3346
  br label %49

49:                                               ; preds = %28, %36, %34, %26
  %50 = load i32, i32* %24, align 4, !dbg !3353, !tbaa !2646
  switch i32 %50, label %57 [
    i32 0, label %65
    i32 1, label %52
    i32 2, label %51
  ], !dbg !3355

51:                                               ; preds = %49
  call void @llvm.dbg.value(metadata i32 %56, metadata !3297, metadata !DIExpression()), !dbg !3309
  br label %52, !dbg !3356

52:                                               ; preds = %49, %51
  %53 = phi i8 [ 5, %51 ], [ 4, %49 ]
  %54 = getelementptr inbounds %"class.MQTT::Client", %"class.MQTT::Client"* %0, i32 0, i32 2, i32 0, !dbg !3360
  %55 = load i16, i16* %17, align 2, !dbg !3360, !tbaa !2659
  %56 = call i32 @MQTTSerialize_ack(i8* noundef nonnull %54, i32 noundef 100, i8 noundef zeroext %53, i8 noundef zeroext 0, i16 noundef zeroext %55) #36, !dbg !3360
  br label %57, !dbg !3361

57:                                               ; preds = %52, %49
  %58 = phi i32 [ 0, %49 ], [ %56, %52 ], !dbg !3309
  call void @llvm.dbg.value(metadata i32 %58, metadata !3297, metadata !DIExpression()), !dbg !3309
  %59 = icmp slt i32 %58, 1, !dbg !3361
  br i1 %59, label %62, label %60, !dbg !3363

60:                                               ; preds = %57
  %61 = call noundef i32 @_ZN4MQTT6ClientIN6Cicada18BlockingCommDeviceENS1_13MQTTCountdownELi100ELi5EE10sendPacketEiRS3_(%"class.MQTT::Client"* noundef nonnull align 4 dereferenceable(458) %0, i32 noundef %58, %"class.Cicada::MQTTCountdown"* noundef nonnull align 4 dereferenceable(4) %1), !dbg !3364
  call void @llvm.dbg.value(metadata i32 %61, metadata !3298, metadata !DIExpression()), !dbg !3309
  br label %62

62:                                               ; preds = %57, %60
  %63 = phi i32 [ %61, %60 ], [ -1, %57 ], !dbg !3365
  call void @llvm.dbg.value(metadata i32 %63, metadata !3298, metadata !DIExpression()), !dbg !3309
  %64 = icmp eq i32 %63, -1, !dbg !3366
  br i1 %64, label %67, label %65, !dbg !3368

65:                                               ; preds = %49, %62
  %66 = phi i32 [ %63, %62 ], [ %50, %49 ], !dbg !3309
  call void @llvm.dbg.value(metadata i32 %66, metadata !3298, metadata !DIExpression()), !dbg !3309
  br label %67, !dbg !3369

67:                                               ; preds = %62, %10, %65
  %68 = phi i32 [ %66, %65 ], [ 0, %10 ], [ -1, %62 ], !dbg !3309
  %69 = phi i1 [ true, %65 ], [ false, %10 ], [ false, %62 ]
  call void @llvm.dbg.value(metadata i32 %68, metadata !3298, metadata !DIExpression()), !dbg !3309
  call void @llvm.lifetime.end.p0i8(i64 4, i8* nonnull %13) #36, !dbg !3370
  call void @llvm.lifetime.end.p0i8(i64 16, i8* nonnull %12) #36, !dbg !3370
  call void @llvm.lifetime.end.p0i8(i64 12, i8* nonnull %11) #36, !dbg !3370
  br i1 %69, label %94, label %99

70:                                               ; preds = %2, %2
  %71 = getelementptr inbounds %"class.MQTT::Client", %"class.MQTT::Client"* %0, i32 0, i32 3, i32 0, !dbg !3371
  call void @llvm.dbg.value(metadata i16* %6, metadata !3305, metadata !DIExpression(DW_OP_deref)), !dbg !3373
  call void @llvm.dbg.value(metadata i8* %7, metadata !3306, metadata !DIExpression(DW_OP_deref)), !dbg !3373
  call void @llvm.dbg.value(metadata i8* %8, metadata !3307, metadata !DIExpression(DW_OP_deref)), !dbg !3373
  %72 = call i32 @MQTTDeserialize_ack(i8* noundef nonnull %8, i8* noundef nonnull %7, i16* noundef nonnull %6, i8* noundef nonnull %71, i32 noundef 100) #36, !dbg !3374
  %73 = icmp eq i32 %72, 1, !dbg !3375
  br i1 %73, label %74, label %85, !dbg !3376

74:                                               ; preds = %70
  %75 = getelementptr inbounds %"class.MQTT::Client", %"class.MQTT::Client"* %0, i32 0, i32 2, i32 0, !dbg !3377
  %76 = icmp eq i32 %9, 5, !dbg !3379
  %77 = select i1 %76, i8 6, i8 7, !dbg !3380
  %78 = load i16, i16* %6, align 2, !dbg !3381, !tbaa !3171
  call void @llvm.dbg.value(metadata i16 %78, metadata !3305, metadata !DIExpression()), !dbg !3373
  %79 = call i32 @MQTTSerialize_ack(i8* noundef nonnull %75, i32 noundef 100, i8 noundef zeroext %77, i8 noundef zeroext 0, i16 noundef zeroext %78) #36, !dbg !3382
  call void @llvm.dbg.value(metadata i32 %79, metadata !3297, metadata !DIExpression()), !dbg !3309
  %80 = icmp slt i32 %79, 1, !dbg !3383
  br i1 %80, label %85, label %81, !dbg !3384

81:                                               ; preds = %74
  %82 = call noundef i32 @_ZN4MQTT6ClientIN6Cicada18BlockingCommDeviceENS1_13MQTTCountdownELi100ELi5EE10sendPacketEiRS3_(%"class.MQTT::Client"* noundef nonnull align 4 dereferenceable(458) %0, i32 noundef %79, %"class.Cicada::MQTTCountdown"* noundef nonnull align 4 dereferenceable(4) %1), !dbg !3385
  call void @llvm.dbg.value(metadata i32 %82, metadata !3298, metadata !DIExpression()), !dbg !3309
  %83 = icmp ne i32 %82, 0, !dbg !3387
  %84 = sext i1 %83 to i32, !dbg !3388
  call void @llvm.dbg.value(metadata i32 %84, metadata !3298, metadata !DIExpression()), !dbg !3309
  br label %85

85:                                               ; preds = %74, %70, %81
  %86 = phi i32 [ %84, %81 ], [ -1, %70 ], [ -1, %74 ], !dbg !3389
  call void @llvm.dbg.value(metadata i32 %86, metadata !3298, metadata !DIExpression()), !dbg !3309
  %87 = icmp eq i32 %86, -1, !dbg !3390
  br i1 %87, label %99, label %88, !dbg !3392

88:                                               ; preds = %85
  %89 = icmp eq i32 %9, 6, !dbg !3393
  br i1 %89, label %90, label %94, !dbg !3395

90:                                               ; preds = %88
  %91 = load i16, i16* %6, align 2, !dbg !3396, !tbaa !3171
  call void @llvm.dbg.value(metadata i16 %91, metadata !3305, metadata !DIExpression()), !dbg !3373
  call void @_ZN4MQTT6ClientIN6Cicada18BlockingCommDeviceENS1_13MQTTCountdownELi100ELi5EE13freeQoS2msgidEt(%"class.MQTT::Client"* noundef nonnull align 4 dereferenceable(458) %0, i16 noundef zeroext %91), !dbg !3397
  br label %94, !dbg !3397

92:                                               ; preds = %2
  %93 = getelementptr inbounds %"class.MQTT::Client", %"class.MQTT::Client"* %0, i32 0, i32 7, !dbg !3398
  store i8 0, i8* %93, align 4, !dbg !3399, !tbaa !3140
  br label %94, !dbg !3400

94:                                               ; preds = %67, %88, %90, %2, %2, %2, %2, %92, %2, %2
  %95 = phi i32 [ 0, %92 ], [ %86, %90 ], [ %86, %88 ], [ %68, %67 ], [ 0, %2 ], [ 0, %2 ], [ 0, %2 ], [ 0, %2 ], [ 0, %2 ], [ 0, %2 ], !dbg !3309
  call void @llvm.dbg.value(metadata i32 %95, metadata !3298, metadata !DIExpression()), !dbg !3309
  %96 = call noundef i32 @_ZN4MQTT6ClientIN6Cicada18BlockingCommDeviceENS1_13MQTTCountdownELi100ELi5EE9keepaliveEv(%"class.MQTT::Client"* noundef nonnull align 4 dereferenceable(458) %0), !dbg !3401
  %97 = icmp eq i32 %96, 0, !dbg !3403
  %98 = select i1 %97, i32 %95, i32 -1, !dbg !3404
  br label %99, !dbg !3404

99:                                               ; preds = %94, %67, %2, %85
  %100 = phi i32 [ -1, %85 ], [ %68, %67 ], [ %9, %2 ], [ %98, %94 ], !dbg !3309
  call void @llvm.dbg.value(metadata i32 %100, metadata !3298, metadata !DIExpression()), !dbg !3309
  call void @llvm.dbg.label(metadata !3308), !dbg !3405
  %101 = icmp eq i32 %100, 0, !dbg !3406
  br i1 %101, label %107, label %102, !dbg !3408

102:                                              ; preds = %99
  %103 = getelementptr inbounds %"class.MQTT::Client", %"class.MQTT::Client"* %0, i32 0, i32 13, !dbg !3409
  %104 = load i8, i8* %103, align 4, !dbg !3409, !tbaa !3040, !range !2653
  %105 = icmp eq i8 %104, 0, !dbg !3409
  br i1 %105, label %107, label %106, !dbg !3411

106:                                              ; preds = %102
  call void @_ZN4MQTT6ClientIN6Cicada18BlockingCommDeviceENS1_13MQTTCountdownELi100ELi5EE12closeSessionEv(%"class.MQTT::Client"* noundef nonnull align 4 dereferenceable(458) %0), !dbg !3412
  br label %107, !dbg !3412

107:                                              ; preds = %106, %102, %99
  %108 = phi i32 [ %100, %106 ], [ %100, %102 ], [ %9, %99 ], !dbg !3309
  call void @llvm.dbg.value(metadata i32 %108, metadata !3298, metadata !DIExpression()), !dbg !3309
  ret i32 %108, !dbg !3413
}

; Function Attrs: mustprogress noinline nounwind
define linkonce_odr dso_local noundef i32 @_ZN4MQTT6ClientIN6Cicada18BlockingCommDeviceENS1_13MQTTCountdownELi100ELi5EE10readPacketERS3_(%"class.MQTT::Client"* noundef nonnull align 4 dereferenceable(458) %0, %"class.Cicada::MQTTCountdown"* noundef nonnull align 4 dereferenceable(4) %1) local_unnamed_addr #0 comdat align 2 !dbg !3414 {
  %3 = alloca i32, align 4
  call void @llvm.dbg.value(metadata %"class.MQTT::Client"* %0, metadata !3416, metadata !DIExpression()), !dbg !3434
  call void @llvm.dbg.value(metadata %"class.Cicada::MQTTCountdown"* %1, metadata !3417, metadata !DIExpression()), !dbg !3434
  call void @llvm.dbg.value(metadata i32 -1, metadata !3418, metadata !DIExpression()), !dbg !3434
  call void @llvm.dbg.value(metadata i8 undef, metadata !3419, metadata !DIExpression(DW_OP_LLVM_fragment, 0, 8)), !dbg !3434
  call void @llvm.dbg.value(metadata i32 0, metadata !3431, metadata !DIExpression()), !dbg !3434
  %4 = bitcast i32* %3 to i8*, !dbg !3435
  call void @llvm.lifetime.start.p0i8(i64 4, i8* nonnull %4) #36, !dbg !3435
  call void @llvm.dbg.value(metadata i32 0, metadata !3432, metadata !DIExpression()), !dbg !3434
  store i32 0, i32* %3, align 4, !dbg !3436, !tbaa !2643
  %5 = getelementptr inbounds %"class.MQTT::Client", %"class.MQTT::Client"* %0, i32 0, i32 0, !dbg !3437
  %6 = load %"class.Cicada::BlockingCommDevice"*, %"class.Cicada::BlockingCommDevice"** %5, align 4, !dbg !3437, !tbaa !3107
  %7 = getelementptr inbounds %"class.MQTT::Client", %"class.MQTT::Client"* %0, i32 0, i32 3, i32 0, !dbg !3438
  %8 = call noundef i32 @_ZN6Cicada13MQTTCountdown7left_msEv(%"class.Cicada::MQTTCountdown"* noundef nonnull align 4 dereferenceable(4) %1) #36, !dbg !3439
  %9 = call noundef i32 @_ZN6Cicada18BlockingCommDevice4readEPhii(%"class.Cicada::BlockingCommDevice"* noundef nonnull align 4 dereferenceable(16) %6, i8* noundef nonnull %7, i32 noundef 1, i32 noundef %8) #36, !dbg !3440
  call void @llvm.dbg.value(metadata i32 %9, metadata !3418, metadata !DIExpression()), !dbg !3434
  %10 = icmp eq i32 %9, 1, !dbg !3441
  br i1 %10, label %11, label %39, !dbg !3443

11:                                               ; preds = %2
  call void @llvm.dbg.value(metadata i32 1, metadata !3431, metadata !DIExpression()), !dbg !3434
  %12 = call noundef i32 @_ZN6Cicada13MQTTCountdown7left_msEv(%"class.Cicada::MQTTCountdown"* noundef nonnull align 4 dereferenceable(4) %1) #36, !dbg !3444
  call void @llvm.dbg.value(metadata i32* %3, metadata !3432, metadata !DIExpression(DW_OP_deref)), !dbg !3434
  %13 = call noundef i32 @_ZN4MQTT6ClientIN6Cicada18BlockingCommDeviceENS1_13MQTTCountdownELi100ELi5EE12decodePacketEPii(%"class.MQTT::Client"* noundef nonnull align 4 dereferenceable(458) %0, i32* noundef nonnull %3, i32 noundef %12), !dbg !3445
  %14 = getelementptr inbounds %"class.MQTT::Client", %"class.MQTT::Client"* %0, i32 0, i32 3, i32 1, !dbg !3446
  %15 = load i32, i32* %3, align 4, !dbg !3447, !tbaa !2643
  call void @llvm.dbg.value(metadata i32 %15, metadata !3432, metadata !DIExpression()), !dbg !3434
  %16 = call i32 @MQTTPacket_encode(i8* noundef nonnull %14, i32 noundef %15) #36, !dbg !3448
  %17 = add nsw i32 %16, 1, !dbg !3449
  call void @llvm.dbg.value(metadata i32 %17, metadata !3431, metadata !DIExpression()), !dbg !3434
  %18 = load i32, i32* %3, align 4, !dbg !3450, !tbaa !2643
  call void @llvm.dbg.value(metadata i32 %18, metadata !3432, metadata !DIExpression()), !dbg !3434
  %19 = sub i32 99, %16, !dbg !3452
  %20 = icmp sgt i32 %18, %19, !dbg !3453
  br i1 %20, label %39, label %21, !dbg !3454

21:                                               ; preds = %11
  %22 = icmp sgt i32 %18, 0, !dbg !3455
  br i1 %22, label %23, label %30, !dbg !3457

23:                                               ; preds = %21
  %24 = load %"class.Cicada::BlockingCommDevice"*, %"class.Cicada::BlockingCommDevice"** %5, align 4, !dbg !3458, !tbaa !3107
  %25 = getelementptr inbounds %"class.MQTT::Client", %"class.MQTT::Client"* %0, i32 0, i32 3, i32 %17, !dbg !3459
  %26 = call noundef i32 @_ZN6Cicada13MQTTCountdown7left_msEv(%"class.Cicada::MQTTCountdown"* noundef nonnull align 4 dereferenceable(4) %1) #36, !dbg !3460
  %27 = call noundef i32 @_ZN6Cicada18BlockingCommDevice4readEPhii(%"class.Cicada::BlockingCommDevice"* noundef nonnull align 4 dereferenceable(16) %24, i8* noundef nonnull %25, i32 noundef %18, i32 noundef %26) #36, !dbg !3461
  %28 = load i32, i32* %3, align 4, !dbg !3462, !tbaa !2643
  call void @llvm.dbg.value(metadata i32 %28, metadata !3432, metadata !DIExpression()), !dbg !3434
  %29 = icmp eq i32 %27, %28, !dbg !3463
  br i1 %29, label %30, label %39, !dbg !3464

30:                                               ; preds = %23, %21
  %31 = load i8, i8* %7, align 4, !dbg !3465, !tbaa !3283
  call void @llvm.dbg.value(metadata i8 %31, metadata !3419, metadata !DIExpression(DW_OP_LLVM_fragment, 0, 8)), !dbg !3434
  %32 = lshr i8 %31, 4, !dbg !3466
  %33 = zext i8 %32 to i32, !dbg !3466
  call void @llvm.dbg.value(metadata i32 %33, metadata !3418, metadata !DIExpression()), !dbg !3434
  %34 = getelementptr inbounds %"class.MQTT::Client", %"class.MQTT::Client"* %0, i32 0, i32 6, !dbg !3467
  %35 = load i32, i32* %34, align 4, !dbg !3467, !tbaa !3127
  %36 = icmp eq i32 %35, 0, !dbg !3469
  br i1 %36, label %39, label %37, !dbg !3470

37:                                               ; preds = %30
  %38 = getelementptr inbounds %"class.MQTT::Client", %"class.MQTT::Client"* %0, i32 0, i32 5, !dbg !3471
  call void @_ZN6Cicada13MQTTCountdown9countdownEi(%"class.Cicada::MQTTCountdown"* noundef nonnull align 4 dereferenceable(4) %38, i32 noundef %35) #36, !dbg !3472
  br label %39, !dbg !3471

39:                                               ; preds = %11, %30, %37, %23, %2
  %40 = phi i32 [ %9, %2 ], [ 1, %23 ], [ %33, %37 ], [ %33, %30 ], [ -2, %11 ], !dbg !3434
  call void @llvm.dbg.value(metadata i32 %40, metadata !3418, metadata !DIExpression()), !dbg !3434
  call void @llvm.dbg.label(metadata !3433), !dbg !3473
  call void @llvm.lifetime.end.p0i8(i64 4, i8* nonnull %4) #36, !dbg !3474
  ret i32 %40, !dbg !3475
}

; Function Attrs: mustprogress noinline nounwind
define linkonce_odr dso_local noundef i32 @_ZN4MQTT6ClientIN6Cicada18BlockingCommDeviceENS1_13MQTTCountdownELi100ELi5EE14deliverMessageER10MQTTStringRNS_7MessageE(%"class.MQTT::Client"* noundef nonnull align 4 dereferenceable(458) %0, %struct.MQTTString* noundef nonnull align 4 dereferenceable(12) %1, %"struct.MQTT::Message"* noundef nonnull align 4 dereferenceable(16) %2) local_unnamed_addr #0 comdat align 2 !dbg !3476 {
  %4 = alloca %"struct.MQTT::MessageData", align 4
  %5 = alloca %"struct.MQTT::MessageData", align 4
  call void @llvm.dbg.value(metadata %"class.MQTT::Client"* %0, metadata !3478, metadata !DIExpression()), !dbg !3494
  call void @llvm.dbg.value(metadata %struct.MQTTString* %1, metadata !3479, metadata !DIExpression()), !dbg !3494
  call void @llvm.dbg.value(metadata %"struct.MQTT::Message"* %2, metadata !3480, metadata !DIExpression()), !dbg !3494
  call void @llvm.dbg.value(metadata i32 -1, metadata !3481, metadata !DIExpression()), !dbg !3494
  call void @llvm.dbg.value(metadata i32 0, metadata !3482, metadata !DIExpression()), !dbg !3495
  %6 = bitcast %"struct.MQTT::MessageData"* %4 to i8*
  br label %9, !dbg !3496

7:                                                ; preds = %26
  %8 = icmp eq i32 %27, -1, !dbg !3497
  br i1 %8, label %30, label %36, !dbg !3498

9:                                                ; preds = %3, %26
  %10 = phi i32 [ 0, %3 ], [ %28, %26 ]
  %11 = phi i32 [ -1, %3 ], [ %27, %26 ]
  call void @llvm.dbg.value(metadata i32 %10, metadata !3482, metadata !DIExpression()), !dbg !3495
  call void @llvm.dbg.value(metadata i32 %11, metadata !3481, metadata !DIExpression()), !dbg !3494
  %12 = getelementptr inbounds %"class.MQTT::Client", %"class.MQTT::Client"* %0, i32 0, i32 11, i32 %10, i32 0, !dbg !3499
  %13 = load i8*, i8** %12, align 4, !dbg !3499, !tbaa !3176
  %14 = icmp eq i8* %13, null, !dbg !3500
  br i1 %14, label %26, label %15, !dbg !3501

15:                                               ; preds = %9
  %16 = call i32 @MQTTPacket_equals(%struct.MQTTString* noundef nonnull %1, i8* noundef nonnull %13) #36, !dbg !3502
  %17 = icmp eq i32 %16, 0, !dbg !3502
  br i1 %17, label %18, label %21, !dbg !3503

18:                                               ; preds = %15
  %19 = load i8*, i8** %12, align 4, !dbg !3504, !tbaa !3176
  %20 = call noundef zeroext i1 @_ZN4MQTT6ClientIN6Cicada18BlockingCommDeviceENS1_13MQTTCountdownELi100ELi5EE14isTopicMatchedEPcR10MQTTString(%"class.MQTT::Client"* noundef nonnull align 4 dereferenceable(458) %0, i8* noundef %19, %struct.MQTTString* noundef nonnull align 4 dereferenceable(12) %1), !dbg !3505
  br i1 %20, label %21, label %26, !dbg !3506

21:                                               ; preds = %18, %15
  %22 = getelementptr inbounds %"class.MQTT::Client", %"class.MQTT::Client"* %0, i32 0, i32 11, i32 %10, i32 1, !dbg !3507
  %23 = call noundef zeroext i1 @_ZN2FPIvRN4MQTT11MessageDataEE8attachedEv(%class.FP* noundef nonnull align 4 dereferenceable(12) %22), !dbg !3508
  br i1 %23, label %24, label %26, !dbg !3509

24:                                               ; preds = %21
  call void @llvm.lifetime.start.p0i8(i64 8, i8* nonnull %6) #36, !dbg !3510
  call void @llvm.dbg.declare(metadata %"struct.MQTT::MessageData"* %4, metadata !3484, metadata !DIExpression()), !dbg !3511
  %25 = call noundef %"struct.MQTT::MessageData"* @_ZN4MQTT11MessageDataC2ER10MQTTStringRNS_7MessageE(%"struct.MQTT::MessageData"* noundef nonnull align 4 dereferenceable(8) %4, %struct.MQTTString* noundef nonnull align 4 dereferenceable(12) %1, %"struct.MQTT::Message"* noundef nonnull align 4 dereferenceable(16) %2), !dbg !3511
  call void @_ZNK2FPIvRN4MQTT11MessageDataEEclES2_(%class.FP* noundef nonnull align 4 dereferenceable(12) %22, %"struct.MQTT::MessageData"* noundef nonnull align 4 dereferenceable(8) %4), !dbg !3512
  call void @llvm.dbg.value(metadata i32 0, metadata !3481, metadata !DIExpression()), !dbg !3494
  call void @llvm.lifetime.end.p0i8(i64 8, i8* nonnull %6) #36, !dbg !3513
  br label %26, !dbg !3514

26:                                               ; preds = %9, %18, %24, %21
  %27 = phi i32 [ 0, %24 ], [ %11, %21 ], [ %11, %18 ], [ %11, %9 ], !dbg !3494
  call void @llvm.dbg.value(metadata i32 %27, metadata !3481, metadata !DIExpression()), !dbg !3494
  %28 = add nuw nsw i32 %10, 1, !dbg !3515
  call void @llvm.dbg.value(metadata i32 %28, metadata !3482, metadata !DIExpression()), !dbg !3495
  %29 = icmp eq i32 %28, 5, !dbg !3516
  br i1 %29, label %7, label %9, !dbg !3496, !llvm.loop !3517

30:                                               ; preds = %7
  %31 = getelementptr inbounds %"class.MQTT::Client", %"class.MQTT::Client"* %0, i32 0, i32 12, !dbg !3519
  %32 = call noundef zeroext i1 @_ZN2FPIvRN4MQTT11MessageDataEE8attachedEv(%class.FP* noundef nonnull align 4 dereferenceable(12) %31), !dbg !3520
  br i1 %32, label %33, label %36, !dbg !3521

33:                                               ; preds = %30
  %34 = bitcast %"struct.MQTT::MessageData"* %5 to i8*, !dbg !3522
  call void @llvm.lifetime.start.p0i8(i64 8, i8* nonnull %34) #36, !dbg !3522
  call void @llvm.dbg.declare(metadata %"struct.MQTT::MessageData"* %5, metadata !3491, metadata !DIExpression()), !dbg !3523
  %35 = call noundef %"struct.MQTT::MessageData"* @_ZN4MQTT11MessageDataC2ER10MQTTStringRNS_7MessageE(%"struct.MQTT::MessageData"* noundef nonnull align 4 dereferenceable(8) %5, %struct.MQTTString* noundef nonnull align 4 dereferenceable(12) %1, %"struct.MQTT::Message"* noundef nonnull align 4 dereferenceable(16) %2), !dbg !3523
  call void @_ZNK2FPIvRN4MQTT11MessageDataEEclES2_(%class.FP* noundef nonnull align 4 dereferenceable(12) %31, %"struct.MQTT::MessageData"* noundef nonnull align 4 dereferenceable(8) %5), !dbg !3524
  call void @llvm.dbg.value(metadata i32 0, metadata !3481, metadata !DIExpression()), !dbg !3494
  call void @llvm.lifetime.end.p0i8(i64 8, i8* nonnull %34) #36, !dbg !3525
  br label %36, !dbg !3526

36:                                               ; preds = %33, %30, %7
  %37 = phi i32 [ 0, %33 ], [ -1, %30 ], [ 0, %7 ], !dbg !3494
  call void @llvm.dbg.value(metadata i32 %37, metadata !3481, metadata !DIExpression()), !dbg !3494
  ret i32 %37, !dbg !3527
}

; Function Attrs: mustprogress noinline nounwind
define linkonce_odr dso_local noundef zeroext i1 @_ZN4MQTT6ClientIN6Cicada18BlockingCommDeviceENS1_13MQTTCountdownELi100ELi5EE15isQoS2msgidFreeEt(%"class.MQTT::Client"* noundef nonnull align 4 dereferenceable(458) %0, i16 noundef zeroext %1) local_unnamed_addr #0 comdat align 2 !dbg !3528 {
  call void @llvm.dbg.value(metadata %"class.MQTT::Client"* %0, metadata !3530, metadata !DIExpression()), !dbg !3534
  call void @llvm.dbg.value(metadata i16 %1, metadata !3531, metadata !DIExpression()), !dbg !3534
  call void @llvm.dbg.value(metadata i32 0, metadata !3532, metadata !DIExpression()), !dbg !3535
  %3 = getelementptr inbounds %"class.MQTT::Client", %"class.MQTT::Client"* %0, i32 0, i32 22, i32 0, !dbg !3536
  %4 = load i16, i16* %3, align 2, !dbg !3536, !tbaa !3171
  %5 = icmp eq i16 %4, %1, !dbg !3540
  call void @llvm.dbg.value(metadata i32 0, metadata !3532, metadata !DIExpression(DW_OP_plus_uconst, 1, DW_OP_stack_value)), !dbg !3535
  br i1 %5, label %16, label %6, !dbg !3541

6:                                                ; preds = %2, %10
  %7 = phi i32 [ %8, %10 ], [ 0, %2 ]
  call void @llvm.dbg.value(metadata i32 %7, metadata !3532, metadata !DIExpression()), !dbg !3535
  %8 = add nuw nsw i32 %7, 1, !dbg !3542
  call void @llvm.dbg.value(metadata i32 %8, metadata !3532, metadata !DIExpression()), !dbg !3535
  call void @llvm.dbg.value(metadata i32 %7, metadata !3532, metadata !DIExpression(DW_OP_plus_uconst, 1, DW_OP_stack_value)), !dbg !3535
  %9 = icmp eq i32 %8, 10, !dbg !3543
  br i1 %9, label %14, label %10, !dbg !3544, !llvm.loop !3545

10:                                               ; preds = %6
  call void @llvm.dbg.value(metadata i32 %8, metadata !3532, metadata !DIExpression()), !dbg !3535
  %11 = getelementptr inbounds %"class.MQTT::Client", %"class.MQTT::Client"* %0, i32 0, i32 22, i32 %8, !dbg !3536
  %12 = load i16, i16* %11, align 2, !dbg !3536, !tbaa !3171
  %13 = icmp eq i16 %12, %1, !dbg !3540
  call void @llvm.dbg.value(metadata i32 %8, metadata !3532, metadata !DIExpression(DW_OP_plus_uconst, 1, DW_OP_stack_value)), !dbg !3535
  br i1 %13, label %14, label %6, !dbg !3541, !llvm.loop !3545

14:                                               ; preds = %10, %6
  %15 = icmp ugt i32 %7, 8, !dbg !3543
  br label %16, !dbg !3547

16:                                               ; preds = %14, %2
  %17 = phi i1 [ false, %2 ], [ %15, %14 ]
  ret i1 %17, !dbg !3547
}

; Function Attrs: mustprogress noinline nounwind
define linkonce_odr dso_local noundef zeroext i1 @_ZN4MQTT6ClientIN6Cicada18BlockingCommDeviceENS1_13MQTTCountdownELi100ELi5EE12useQoS2msgidEt(%"class.MQTT::Client"* noundef nonnull align 4 dereferenceable(458) %0, i16 noundef zeroext %1) local_unnamed_addr #0 comdat align 2 !dbg !3548 {
  call void @llvm.dbg.value(metadata %"class.MQTT::Client"* %0, metadata !3550, metadata !DIExpression()), !dbg !3554
  call void @llvm.dbg.value(metadata i16 %1, metadata !3551, metadata !DIExpression()), !dbg !3554
  call void @llvm.dbg.value(metadata i32 0, metadata !3552, metadata !DIExpression()), !dbg !3555
  %3 = getelementptr inbounds %"class.MQTT::Client", %"class.MQTT::Client"* %0, i32 0, i32 22, i32 0, !dbg !3556
  %4 = load i16, i16* %3, align 2, !dbg !3556, !tbaa !3171
  %5 = icmp eq i16 %4, 0, !dbg !3560
  call void @llvm.dbg.value(metadata i32 0, metadata !3552, metadata !DIExpression(DW_OP_plus_uconst, 1, DW_OP_stack_value)), !dbg !3555
  br i1 %5, label %16, label %6, !dbg !3561

6:                                                ; preds = %2, %10
  %7 = phi i32 [ %8, %10 ], [ 0, %2 ]
  call void @llvm.dbg.value(metadata i32 %7, metadata !3552, metadata !DIExpression()), !dbg !3555
  %8 = add nuw nsw i32 %7, 1, !dbg !3562
  call void @llvm.dbg.value(metadata i32 %8, metadata !3552, metadata !DIExpression()), !dbg !3555
  call void @llvm.dbg.value(metadata i32 %7, metadata !3552, metadata !DIExpression(DW_OP_plus_uconst, 1, DW_OP_stack_value)), !dbg !3555
  %9 = icmp eq i32 %8, 10, !dbg !3563
  br i1 %9, label %19, label %10, !dbg !3564, !llvm.loop !3565

10:                                               ; preds = %6
  call void @llvm.dbg.value(metadata i32 %8, metadata !3552, metadata !DIExpression()), !dbg !3555
  %11 = getelementptr inbounds %"class.MQTT::Client", %"class.MQTT::Client"* %0, i32 0, i32 22, i32 %8, !dbg !3556
  %12 = load i16, i16* %11, align 2, !dbg !3556, !tbaa !3171
  %13 = icmp eq i16 %12, 0, !dbg !3560
  call void @llvm.dbg.value(metadata i32 %8, metadata !3552, metadata !DIExpression(DW_OP_plus_uconst, 1, DW_OP_stack_value)), !dbg !3555
  br i1 %13, label %14, label %6, !dbg !3561, !llvm.loop !3565

14:                                               ; preds = %10
  %15 = icmp ult i32 %7, 9, !dbg !3563
  br label %16, !dbg !3567

16:                                               ; preds = %14, %2
  %17 = phi i1 [ true, %2 ], [ %15, %14 ]
  %18 = phi i16* [ %3, %2 ], [ %11, %14 ], !dbg !3556
  store i16 %1, i16* %18, align 2, !dbg !3567, !tbaa !3171
  br label %21, !dbg !3569

19:                                               ; preds = %6
  %20 = icmp ult i32 %7, 9, !dbg !3563
  br label %21, !dbg !3570

21:                                               ; preds = %19, %16
  %22 = phi i1 [ %17, %16 ], [ %20, %19 ]
  ret i1 %22, !dbg !3570
}

; Function Attrs: nofree nounwind
declare dso_local noundef i32 @fprintf(%struct.__sFILE* nocapture noundef, i8* nocapture noundef readonly, ...) local_unnamed_addr #9

; Function Attrs: nofree nounwind
declare noundef i32 @fwrite(i8* nocapture noundef, i32 noundef, i32 noundef, %struct.__sFILE* nocapture noundef) local_unnamed_addr #10

; Function Attrs: nofree nounwind
declare !dbg !3571 dso_local noundef i32 @fflush(%struct.__sFILE* nocapture noundef) local_unnamed_addr #9

; Function Attrs: mustprogress noinline nounwind
define linkonce_odr dso_local void @_ZN4MQTT6ClientIN6Cicada18BlockingCommDeviceENS1_13MQTTCountdownELi100ELi5EE13freeQoS2msgidEt(%"class.MQTT::Client"* noundef nonnull align 4 dereferenceable(458) %0, i16 noundef zeroext %1) local_unnamed_addr #0 comdat align 2 !dbg !3572 {
  call void @llvm.dbg.value(metadata %"class.MQTT::Client"* %0, metadata !3574, metadata !DIExpression()), !dbg !3578
  call void @llvm.dbg.value(metadata i16 %1, metadata !3575, metadata !DIExpression()), !dbg !3578
  call void @llvm.dbg.value(metadata i32 0, metadata !3576, metadata !DIExpression()), !dbg !3579
  br label %6, !dbg !3580

3:                                                ; preds = %6
  %4 = add nuw nsw i32 %7, 1, !dbg !3581
  call void @llvm.dbg.value(metadata i32 %4, metadata !3576, metadata !DIExpression()), !dbg !3579
  call void @llvm.dbg.value(metadata i32 %7, metadata !3576, metadata !DIExpression(DW_OP_plus_uconst, 1, DW_OP_stack_value)), !dbg !3579
  %5 = icmp eq i32 %4, 10, !dbg !3583
  br i1 %5, label %12, label %6, !dbg !3580, !llvm.loop !3584

6:                                                ; preds = %2, %3
  %7 = phi i32 [ 0, %2 ], [ %4, %3 ]
  call void @llvm.dbg.value(metadata i32 %7, metadata !3576, metadata !DIExpression()), !dbg !3579
  %8 = getelementptr inbounds %"class.MQTT::Client", %"class.MQTT::Client"* %0, i32 0, i32 22, i32 %7, !dbg !3586
  %9 = load i16, i16* %8, align 2, !dbg !3586, !tbaa !3171
  %10 = icmp eq i16 %9, %1, !dbg !3589
  call void @llvm.dbg.value(metadata i32 %7, metadata !3576, metadata !DIExpression(DW_OP_plus_uconst, 1, DW_OP_stack_value)), !dbg !3579
  br i1 %10, label %11, label %3, !dbg !3590

11:                                               ; preds = %6
  store i16 0, i16* %8, align 2, !dbg !3591, !tbaa !3171
  br label %12, !dbg !3593

12:                                               ; preds = %3, %11
  ret void, !dbg !3594
}

; Function Attrs: mustprogress noinline nounwind
define linkonce_odr dso_local noundef i32 @_ZN4MQTT6ClientIN6Cicada18BlockingCommDeviceENS1_13MQTTCountdownELi100ELi5EE9keepaliveEv(%"class.MQTT::Client"* noundef nonnull align 4 dereferenceable(458) %0) local_unnamed_addr #0 comdat align 2 !dbg !479 {
  %2 = alloca %"class.Cicada::MQTTCountdown", align 4
  call void @llvm.dbg.value(metadata %"class.MQTT::Client"* %0, metadata !481, metadata !DIExpression()), !dbg !3595
  call void @llvm.dbg.value(metadata i32 0, metadata !483, metadata !DIExpression()), !dbg !3595
  %3 = load atomic i8, i8* bitcast (i32* @_ZGVZN4MQTT6ClientIN6Cicada18BlockingCommDeviceENS1_13MQTTCountdownELi100ELi5EE9keepaliveEvE9ping_sent to i8*) acquire, align 4, !dbg !3596
  %4 = and i8 %3, 1, !dbg !3596
  %5 = icmp eq i8 %4, 0, !dbg !3596
  br i1 %5, label %6, label %11, !dbg !3596, !prof !3597

6:                                                ; preds = %1
  %7 = call i32 @__cxa_guard_acquire(i32* nonnull @_ZGVZN4MQTT6ClientIN6Cicada18BlockingCommDeviceENS1_13MQTTCountdownELi100ELi5EE9keepaliveEvE9ping_sent) #36, !dbg !3596
  %8 = icmp eq i32 %7, 0, !dbg !3596
  br i1 %8, label %11, label %9, !dbg !3596

9:                                                ; preds = %6
  %10 = call noundef %"class.Cicada::MQTTCountdown"* @_ZN6Cicada13MQTTCountdownC1Ev(%"class.Cicada::MQTTCountdown"* noundef nonnull align 4 dereferenceable(4) @_ZZN4MQTT6ClientIN6Cicada18BlockingCommDeviceENS1_13MQTTCountdownELi100ELi5EE9keepaliveEvE9ping_sent) #36, !dbg !3598
  call void @__cxa_guard_release(i32* nonnull @_ZGVZN4MQTT6ClientIN6Cicada18BlockingCommDeviceENS1_13MQTTCountdownELi100ELi5EE9keepaliveEvE9ping_sent) #36, !dbg !3596
  br label %11, !dbg !3596

11:                                               ; preds = %9, %6, %1
  %12 = getelementptr inbounds %"class.MQTT::Client", %"class.MQTT::Client"* %0, i32 0, i32 6, !dbg !3599
  %13 = load i32, i32* %12, align 4, !dbg !3599, !tbaa !3127
  %14 = icmp eq i32 %13, 0, !dbg !3601
  br i1 %14, label %41, label %15, !dbg !3602

15:                                               ; preds = %11
  %16 = getelementptr inbounds %"class.MQTT::Client", %"class.MQTT::Client"* %0, i32 0, i32 7, !dbg !3603
  %17 = load i8, i8* %16, align 4, !dbg !3603, !tbaa !3140, !range !2653
  %18 = icmp eq i8 %17, 0, !dbg !3603
  br i1 %18, label %22, label %19, !dbg !3604

19:                                               ; preds = %15
  %20 = call noundef zeroext i1 @_ZN6Cicada13MQTTCountdown7expiredEv(%"class.Cicada::MQTTCountdown"* noundef nonnull align 4 dereferenceable(4) @_ZZN4MQTT6ClientIN6Cicada18BlockingCommDeviceENS1_13MQTTCountdownELi100ELi5EE9keepaliveEvE9ping_sent) #36, !dbg !3605
  %21 = sext i1 %20 to i32, !dbg !3608
  br label %41, !dbg !3608

22:                                               ; preds = %15
  %23 = getelementptr inbounds %"class.MQTT::Client", %"class.MQTT::Client"* %0, i32 0, i32 4, !dbg !3609
  %24 = call noundef zeroext i1 @_ZN6Cicada13MQTTCountdown7expiredEv(%"class.Cicada::MQTTCountdown"* noundef nonnull align 4 dereferenceable(4) %23) #36, !dbg !3610
  br i1 %24, label %28, label %25, !dbg !3611

25:                                               ; preds = %22
  %26 = getelementptr inbounds %"class.MQTT::Client", %"class.MQTT::Client"* %0, i32 0, i32 5, !dbg !3612
  %27 = call noundef zeroext i1 @_ZN6Cicada13MQTTCountdown7expiredEv(%"class.Cicada::MQTTCountdown"* noundef nonnull align 4 dereferenceable(4) %26) #36, !dbg !3613
  br i1 %27, label %28, label %41, !dbg !3614

28:                                               ; preds = %25, %22
  %29 = bitcast %"class.Cicada::MQTTCountdown"* %2 to i8*, !dbg !3615
  call void @llvm.lifetime.start.p0i8(i64 4, i8* nonnull %29) #36, !dbg !3615
  call void @llvm.dbg.declare(metadata %"class.Cicada::MQTTCountdown"* %2, metadata !484, metadata !DIExpression()), !dbg !3616
  %30 = call noundef %"class.Cicada::MQTTCountdown"* @_ZN6Cicada13MQTTCountdownC1Ei(%"class.Cicada::MQTTCountdown"* noundef nonnull align 4 dereferenceable(4) %2, i32 noundef 1000) #36, !dbg !3616
  %31 = getelementptr inbounds %"class.MQTT::Client", %"class.MQTT::Client"* %0, i32 0, i32 2, i32 0, !dbg !3617
  %32 = call i32 @MQTTSerialize_pingreq(i8* noundef nonnull %31, i32 noundef 100) #36, !dbg !3618
  call void @llvm.dbg.value(metadata i32 %32, metadata !488, metadata !DIExpression()), !dbg !3619
  %33 = icmp sgt i32 %32, 0, !dbg !3620
  br i1 %33, label %34, label %39, !dbg !3622

34:                                               ; preds = %28
  %35 = call noundef i32 @_ZN4MQTT6ClientIN6Cicada18BlockingCommDeviceENS1_13MQTTCountdownELi100ELi5EE10sendPacketEiRS3_(%"class.MQTT::Client"* noundef nonnull align 4 dereferenceable(458) %0, i32 noundef %32, %"class.Cicada::MQTTCountdown"* noundef nonnull align 4 dereferenceable(4) %2), !dbg !3623
  call void @llvm.dbg.value(metadata i32 %35, metadata !483, metadata !DIExpression()), !dbg !3595
  %36 = icmp eq i32 %35, 0, !dbg !3624
  br i1 %36, label %37, label %39, !dbg !3625

37:                                               ; preds = %34
  store i8 1, i8* %16, align 4, !dbg !3626, !tbaa !3140
  %38 = load i32, i32* %12, align 4, !dbg !3628, !tbaa !3127
  call void @_ZN6Cicada13MQTTCountdown9countdownEi(%"class.Cicada::MQTTCountdown"* noundef nonnull align 4 dereferenceable(4) @_ZZN4MQTT6ClientIN6Cicada18BlockingCommDeviceENS1_13MQTTCountdownELi100ELi5EE9keepaliveEvE9ping_sent, i32 noundef %38) #36, !dbg !3629
  br label %39, !dbg !3630

39:                                               ; preds = %37, %34, %28
  %40 = phi i32 [ 0, %37 ], [ %35, %34 ], [ 0, %28 ], !dbg !3595
  call void @llvm.dbg.value(metadata i32 %40, metadata !483, metadata !DIExpression()), !dbg !3595
  call void @llvm.lifetime.end.p0i8(i64 4, i8* nonnull %29) #36, !dbg !3631
  br label %41, !dbg !3632

41:                                               ; preds = %19, %39, %25, %11
  %42 = phi i32 [ 0, %11 ], [ %40, %39 ], [ 0, %25 ], [ %21, %19 ], !dbg !3595
  call void @llvm.dbg.value(metadata i32 %42, metadata !483, metadata !DIExpression()), !dbg !3595
  call void @llvm.dbg.label(metadata !489), !dbg !3633
  ret i32 %42, !dbg !3634
}

; Function Attrs: nofree nounwind
declare dso_local i32 @__cxa_guard_acquire(i32*) local_unnamed_addr #10

; Function Attrs: nofree nounwind
declare dso_local void @__cxa_guard_release(i32*) local_unnamed_addr #10

; Function Attrs: mustprogress noinline nounwind
define linkonce_odr dso_local noundef zeroext i1 @_ZN4MQTT6ClientIN6Cicada18BlockingCommDeviceENS1_13MQTTCountdownELi100ELi5EE14isTopicMatchedEPcR10MQTTString(%"class.MQTT::Client"* noundef nonnull align 4 dereferenceable(458) %0, i8* noundef %1, %struct.MQTTString* noundef nonnull align 4 dereferenceable(12) %2) local_unnamed_addr #0 comdat align 2 !dbg !3635 {
  call void @llvm.dbg.value(metadata %"class.MQTT::Client"* %0, metadata !3637, metadata !DIExpression()), !dbg !3647
  call void @llvm.dbg.value(metadata i8* %1, metadata !3638, metadata !DIExpression()), !dbg !3647
  call void @llvm.dbg.value(metadata %struct.MQTTString* %2, metadata !3639, metadata !DIExpression()), !dbg !3647
  call void @llvm.dbg.value(metadata i8* %1, metadata !3640, metadata !DIExpression()), !dbg !3647
  %4 = getelementptr inbounds %struct.MQTTString, %struct.MQTTString* %2, i32 0, i32 1, i32 1, !dbg !3648
  %5 = load i8*, i8** %4, align 4, !dbg !3648, !tbaa !3649
  call void @llvm.dbg.value(metadata i8* %5, metadata !3641, metadata !DIExpression()), !dbg !3647
  %6 = getelementptr inbounds %struct.MQTTString, %struct.MQTTString* %2, i32 0, i32 1, i32 0, !dbg !3650
  %7 = load i32, i32* %6, align 4, !dbg !3650, !tbaa !3651
  %8 = getelementptr inbounds i8, i8* %5, i32 %7, !dbg !3652
  call void @llvm.dbg.value(metadata i8* %8, metadata !3642, metadata !DIExpression()), !dbg !3647
  call void @llvm.dbg.value(metadata i8* %1, metadata !3640, metadata !DIExpression()), !dbg !3647
  call void @llvm.dbg.value(metadata i8* %5, metadata !3641, metadata !DIExpression()), !dbg !3647
  %9 = load i8, i8* %1, align 1, !dbg !3653, !tbaa !3283
  %10 = icmp ne i8 %9, 0, !dbg !3653
  %11 = icmp sgt i32 %7, 0, !dbg !3654
  %12 = select i1 %10, i1 %11, i1 false, !dbg !3654
  br i1 %12, label %13, label %44, !dbg !3655

13:                                               ; preds = %3
  %14 = getelementptr inbounds i8, i8* %8, i32 -1
  br label %15, !dbg !3655

15:                                               ; preds = %13, %36
  %16 = phi i8 [ %9, %13 ], [ %40, %36 ]
  %17 = phi i8* [ %1, %13 ], [ %38, %36 ]
  %18 = phi i8* [ %5, %13 ], [ %39, %36 ]
  call void @llvm.dbg.value(metadata i8* %17, metadata !3640, metadata !DIExpression()), !dbg !3647
  call void @llvm.dbg.value(metadata i8* %18, metadata !3641, metadata !DIExpression()), !dbg !3647
  %19 = load i8, i8* %18, align 1, !dbg !3656, !tbaa !3283
  %20 = icmp ne i8 %19, 47, !dbg !3658
  %21 = icmp eq i8 %16, 47
  %22 = select i1 %20, i1 true, i1 %21, !dbg !3659
  br i1 %22, label %23, label %44, !dbg !3659

23:                                               ; preds = %15
  switch i8 %16, label %24 [
    i8 43, label %27
    i8 35, label %35
  ], !dbg !3660

24:                                               ; preds = %23
  %25 = icmp eq i8 %16, %19, !dbg !3662
  br i1 %25, label %26, label %44, !dbg !3663

26:                                               ; preds = %24
  switch i8 %16, label %36 [
    i8 43, label %27
    i8 35, label %35
  ], !dbg !3664

27:                                               ; preds = %26, %23
  br label %28, !dbg !3665

28:                                               ; preds = %27, %32
  %29 = phi i8* [ %30, %32 ], [ %18, %27 ], !dbg !3647
  %30 = getelementptr inbounds i8, i8* %29, i32 1, !dbg !3666
  call void @llvm.dbg.value(metadata i8* %30, metadata !3643, metadata !DIExpression()), !dbg !3666
  call void @llvm.dbg.value(metadata i8* %29, metadata !3641, metadata !DIExpression()), !dbg !3647
  %31 = icmp ult i8* %30, %8, !dbg !3667
  br i1 %31, label %32, label %36, !dbg !3668

32:                                               ; preds = %28
  %33 = load i8, i8* %30, align 1, !dbg !3669, !tbaa !3283
  %34 = icmp eq i8 %33, 47, !dbg !3670
  br i1 %34, label %36, label %28, !dbg !3665, !llvm.loop !3671

35:                                               ; preds = %23, %26
  call void @llvm.dbg.value(metadata i8* %14, metadata !3641, metadata !DIExpression()), !dbg !3647
  br label %36, !dbg !3673

36:                                               ; preds = %32, %28, %26, %35
  %37 = phi i8* [ %14, %35 ], [ %18, %26 ], [ %29, %28 ], [ %29, %32 ], !dbg !3647
  call void @llvm.dbg.value(metadata i8* %37, metadata !3641, metadata !DIExpression()), !dbg !3647
  %38 = getelementptr inbounds i8, i8* %17, i32 1, !dbg !3675
  call void @llvm.dbg.value(metadata i8* %38, metadata !3640, metadata !DIExpression()), !dbg !3647
  %39 = getelementptr inbounds i8, i8* %37, i32 1, !dbg !3676
  call void @llvm.dbg.value(metadata i8* %39, metadata !3641, metadata !DIExpression()), !dbg !3647
  %40 = load i8, i8* %38, align 1, !dbg !3653, !tbaa !3283
  %41 = icmp ne i8 %40, 0, !dbg !3653
  %42 = icmp ult i8* %39, %8, !dbg !3654
  %43 = select i1 %41, i1 %42, i1 false, !dbg !3654
  br i1 %43, label %15, label %44, !dbg !3655, !llvm.loop !3677

44:                                               ; preds = %36, %24, %15, %3
  %45 = phi i8* [ %5, %3 ], [ %39, %36 ], [ %18, %24 ], [ %18, %15 ], !dbg !3647
  %46 = phi i8 [ %9, %3 ], [ %40, %36 ], [ %16, %24 ], [ %16, %15 ], !dbg !3653
  %47 = icmp eq i8* %45, %8, !dbg !3679
  %48 = icmp eq i8 %46, 0
  %49 = select i1 %47, i1 %48, i1 false, !dbg !3680
  ret i1 %49, !dbg !3681
}

; Function Attrs: mustprogress noinline nounwind
define linkonce_odr dso_local noundef zeroext i1 @_ZN2FPIvRN4MQTT11MessageDataEE8attachedEv(%class.FP* noundef nonnull align 4 dereferenceable(12) %0) local_unnamed_addr #0 comdat align 2 !dbg !3682 {
  call void @llvm.dbg.value(metadata %class.FP* %0, metadata !3684, metadata !DIExpression()), !dbg !3685
  %2 = getelementptr inbounds %class.FP, %class.FP* %0, i32 0, i32 0, !dbg !3686
  %3 = load %"class.FP<void, MQTT::MessageData &>::FPtrDummy"*, %"class.FP<void, MQTT::MessageData &>::FPtrDummy"** %2, align 4, !dbg !3686, !tbaa !3280
  %4 = icmp ne %"class.FP<void, MQTT::MessageData &>::FPtrDummy"* %3, null, !dbg !3686
  %5 = getelementptr inbounds %class.FP, %class.FP* %0, i32 0, i32 1, !dbg !3687
  %6 = bitcast %union.anon* %5 to void (%"struct.MQTT::MessageData"*)**, !dbg !3687
  %7 = load void (%"struct.MQTT::MessageData"*)*, void (%"struct.MQTT::MessageData"*)** %6, align 4, !dbg !3687
  %8 = icmp ne void (%"struct.MQTT::MessageData"*)* %7, null, !dbg !3687
  %9 = select i1 %4, i1 true, i1 %8, !dbg !3687
  ret i1 %9, !dbg !3688
}

; Function Attrs: noinline nounwind
define linkonce_odr dso_local noundef %"struct.MQTT::MessageData"* @_ZN4MQTT11MessageDataC2ER10MQTTStringRNS_7MessageE(%"struct.MQTT::MessageData"* noundef nonnull returned align 4 dereferenceable(8) %0, %struct.MQTTString* noundef nonnull align 4 dereferenceable(12) %1, %"struct.MQTT::Message"* noundef nonnull align 4 dereferenceable(16) %2) unnamed_addr #5 comdat align 2 !dbg !3689 {
  call void @llvm.dbg.value(metadata %"struct.MQTT::MessageData"* %0, metadata !3691, metadata !DIExpression()), !dbg !3695
  call void @llvm.dbg.value(metadata %struct.MQTTString* %1, metadata !3693, metadata !DIExpression()), !dbg !3695
  call void @llvm.dbg.value(metadata %"struct.MQTT::Message"* %2, metadata !3694, metadata !DIExpression()), !dbg !3695
  %4 = getelementptr inbounds %"struct.MQTT::MessageData", %"struct.MQTT::MessageData"* %0, i32 0, i32 0, !dbg !3696
  store %"struct.MQTT::Message"* %2, %"struct.MQTT::Message"** %4, align 4, !dbg !3696, !tbaa !2733
  %5 = getelementptr inbounds %"struct.MQTT::MessageData", %"struct.MQTT::MessageData"* %0, i32 0, i32 1, !dbg !3697
  store %struct.MQTTString* %1, %struct.MQTTString** %5, align 4, !dbg !3697, !tbaa !2733
  ret %"struct.MQTT::MessageData"* %0, !dbg !3698
}

; Function Attrs: mustprogress noinline nounwind
define linkonce_odr dso_local void @_ZNK2FPIvRN4MQTT11MessageDataEEclES2_(%class.FP* noundef nonnull align 4 dereferenceable(12) %0, %"struct.MQTT::MessageData"* noundef nonnull align 4 dereferenceable(8) %1) local_unnamed_addr #0 comdat align 2 !dbg !3699 {
  call void @llvm.dbg.value(metadata %class.FP* %0, metadata !3701, metadata !DIExpression()), !dbg !3704
  call void @llvm.dbg.value(metadata %"struct.MQTT::MessageData"* %1, metadata !3703, metadata !DIExpression()), !dbg !3704
  %3 = getelementptr inbounds %class.FP, %class.FP* %0, i32 0, i32 1, !dbg !3705
  %4 = bitcast %union.anon* %3 to void (%"struct.MQTT::MessageData"*)**, !dbg !3705
  %5 = load void (%"struct.MQTT::MessageData"*)*, void (%"struct.MQTT::MessageData"*)** %4, align 4, !dbg !3705, !tbaa !3283
  %6 = icmp eq void (%"struct.MQTT::MessageData"*)* %5, null, !dbg !3707
  br i1 %6, label %33, label %7, !dbg !3708

7:                                                ; preds = %2
  %8 = getelementptr inbounds %class.FP, %class.FP* %0, i32 0, i32 0, !dbg !3709
  %9 = load %"class.FP<void, MQTT::MessageData &>::FPtrDummy"*, %"class.FP<void, MQTT::MessageData &>::FPtrDummy"** %8, align 4, !dbg !3709, !tbaa !3280
  %10 = icmp eq %"class.FP<void, MQTT::MessageData &>::FPtrDummy"* %9, null, !dbg !3709
  br i1 %10, label %32, label %11, !dbg !3709

11:                                               ; preds = %7
  %12 = getelementptr inbounds %union.anon, %union.anon* %3, i32 0, i32 0, i32 0, !dbg !3711
  %13 = load i32, i32* %12, align 4, !dbg !3711, !tbaa !3283
  %14 = getelementptr inbounds %class.FP, %class.FP* %0, i32 0, i32 1, i32 0, i32 1, !dbg !3711
  %15 = load i32, i32* %14, align 4, !dbg !3711, !tbaa !3283
  %16 = ashr i32 %15, 1, !dbg !3712
  %17 = bitcast %"class.FP<void, MQTT::MessageData &>::FPtrDummy"* %9 to i8*, !dbg !3712
  %18 = getelementptr inbounds i8, i8* %17, i32 %16, !dbg !3712
  %19 = bitcast i8* %18 to %"class.FP<void, MQTT::MessageData &>::FPtrDummy"*, !dbg !3712
  %20 = and i32 %15, 1, !dbg !3712
  %21 = icmp eq i32 %20, 0, !dbg !3712
  br i1 %21, label %28, label %22, !dbg !3712

22:                                               ; preds = %11
  %23 = bitcast i8* %18 to i8**, !dbg !3712
  %24 = load i8*, i8** %23, align 1, !dbg !3712, !tbaa !3713
  %25 = getelementptr i8, i8* %24, i32 %13, !dbg !3712, !nosanitize !463
  %26 = bitcast i8* %25 to void (%"class.FP<void, MQTT::MessageData &>::FPtrDummy"*, %"struct.MQTT::MessageData"*)**, !dbg !3712, !nosanitize !463
  %27 = load void (%"class.FP<void, MQTT::MessageData &>::FPtrDummy"*, %"struct.MQTT::MessageData"*)*, void (%"class.FP<void, MQTT::MessageData &>::FPtrDummy"*, %"struct.MQTT::MessageData"*)** %26, align 4, !dbg !3712, !nosanitize !463
  br label %30, !dbg !3712

28:                                               ; preds = %11
  %29 = inttoptr i32 %13 to void (%"class.FP<void, MQTT::MessageData &>::FPtrDummy"*, %"struct.MQTT::MessageData"*)*, !dbg !3712
  br label %30, !dbg !3712

30:                                               ; preds = %28, %22
  %31 = phi void (%"class.FP<void, MQTT::MessageData &>::FPtrDummy"*, %"struct.MQTT::MessageData"*)* [ %27, %22 ], [ %29, %28 ], !dbg !3712
  call void %31(%"class.FP<void, MQTT::MessageData &>::FPtrDummy"* noundef nonnull align 1 dereferenceable(1) %19, %"struct.MQTT::MessageData"* noundef nonnull align 4 dereferenceable(8) %1) #36, !dbg !3712
  br label %33, !dbg !3709

32:                                               ; preds = %7
  call void %5(%"struct.MQTT::MessageData"* noundef nonnull align 4 dereferenceable(8) %1) #36, !dbg !3715
  br label %33, !dbg !3709

33:                                               ; preds = %2, %30, %32
  ret void, !dbg !3716
}

; Function Attrs: mustprogress noinline nounwind
define linkonce_odr dso_local noundef i32 @_ZN4MQTT6ClientIN6Cicada18BlockingCommDeviceENS1_13MQTTCountdownELi100ELi5EE12decodePacketEPii(%"class.MQTT::Client"* noundef nonnull align 4 dereferenceable(458) %0, i32* noundef %1, i32 noundef %2) local_unnamed_addr #0 comdat align 2 !dbg !3717 {
  %4 = alloca i8, align 1
  call void @llvm.dbg.value(metadata %"class.MQTT::Client"* %0, metadata !3719, metadata !DIExpression()), !dbg !3729
  call void @llvm.dbg.value(metadata i32* %1, metadata !3720, metadata !DIExpression()), !dbg !3729
  call void @llvm.dbg.value(metadata i32 %2, metadata !3721, metadata !DIExpression()), !dbg !3729
  call void @llvm.lifetime.start.p0i8(i64 1, i8* nonnull %4) #36, !dbg !3730
  call void @llvm.dbg.value(metadata i32 1, metadata !3723, metadata !DIExpression()), !dbg !3729
  call void @llvm.dbg.value(metadata i32 0, metadata !3724, metadata !DIExpression()), !dbg !3729
  call void @llvm.dbg.value(metadata i32 4, metadata !3725, metadata !DIExpression()), !dbg !3729
  store i32 0, i32* %1, align 4, !dbg !3731, !tbaa !2643
  %5 = getelementptr inbounds %"class.MQTT::Client", %"class.MQTT::Client"* %0, i32 0, i32 0
  br label %6, !dbg !3732

6:                                                ; preds = %23, %3
  %7 = phi i32 [ 1, %3 ], [ %24, %23 ], !dbg !3733
  %8 = phi i32 [ 0, %3 ], [ %9, %23 ], !dbg !3729
  call void @llvm.dbg.value(metadata i32 %8, metadata !3724, metadata !DIExpression()), !dbg !3729
  call void @llvm.dbg.value(metadata i32 %7, metadata !3723, metadata !DIExpression()), !dbg !3729
  call void @llvm.dbg.value(metadata i32 -1, metadata !3726, metadata !DIExpression()), !dbg !3734
  %9 = add nuw nsw i32 %8, 1, !dbg !3735
  call void @llvm.dbg.value(metadata i32 %9, metadata !3724, metadata !DIExpression()), !dbg !3729
  %10 = icmp ugt i32 %8, 3, !dbg !3737
  br i1 %10, label %23, label %11, !dbg !3738

11:                                               ; preds = %6
  %12 = load %"class.Cicada::BlockingCommDevice"*, %"class.Cicada::BlockingCommDevice"** %5, align 4, !dbg !3739, !tbaa !3107
  call void @llvm.dbg.value(metadata i8* %4, metadata !3722, metadata !DIExpression(DW_OP_deref)), !dbg !3729
  %13 = call noundef i32 @_ZN6Cicada18BlockingCommDevice4readEPhii(%"class.Cicada::BlockingCommDevice"* noundef nonnull align 4 dereferenceable(16) %12, i8* noundef nonnull %4, i32 noundef 1, i32 noundef %2) #36, !dbg !3740
  call void @llvm.dbg.value(metadata i32 %13, metadata !3726, metadata !DIExpression()), !dbg !3734
  %14 = icmp eq i32 %13, 1, !dbg !3741
  br i1 %14, label %15, label %23, !dbg !3743

15:                                               ; preds = %11
  %16 = load i8, i8* %4, align 1, !dbg !3744, !tbaa !3283
  call void @llvm.dbg.value(metadata i8 %16, metadata !3722, metadata !DIExpression()), !dbg !3729
  %17 = and i8 %16, 127, !dbg !3745
  %18 = zext i8 %17 to i32, !dbg !3745
  %19 = mul nsw i32 %7, %18, !dbg !3746
  %20 = load i32, i32* %1, align 4, !dbg !3747, !tbaa !2643
  %21 = add nsw i32 %19, %20, !dbg !3747
  store i32 %21, i32* %1, align 4, !dbg !3747, !tbaa !2643
  %22 = shl nsw i32 %7, 7, !dbg !3748
  call void @llvm.dbg.value(metadata i32 %22, metadata !3723, metadata !DIExpression()), !dbg !3729
  br label %23, !dbg !3749

23:                                               ; preds = %11, %6, %15
  %24 = phi i32 [ %22, %15 ], [ %7, %6 ], [ %7, %11 ], !dbg !3729
  %25 = phi i1 [ false, %15 ], [ true, %6 ], [ true, %11 ]
  call void @llvm.dbg.value(metadata i32 %24, metadata !3723, metadata !DIExpression()), !dbg !3729
  %26 = load i8, i8* %4, align 1
  %27 = icmp sgt i8 %26, -1
  %28 = select i1 %25, i1 true, i1 %27
  call void @llvm.dbg.value(metadata i8 %26, metadata !3722, metadata !DIExpression()), !dbg !3729
  br i1 %28, label %29, label %6, !llvm.loop !3750

29:                                               ; preds = %23
  call void @llvm.dbg.label(metadata !3728), !dbg !3752
  call void @llvm.lifetime.end.p0i8(i64 1, i8* nonnull %4) #36, !dbg !3753
  ret i32 %9, !dbg !3753
}

; Function Attrs: mustprogress noinline nounwind
define linkonce_odr dso_local noundef i32 @_ZN4MQTT6ClientIN6Cicada18BlockingCommDeviceENS1_13MQTTCountdownELi100ELi5EE7publishEPKcPvjNS_3QoSEb(%"class.MQTT::Client"* noundef nonnull align 4 dereferenceable(458) %0, i8* noundef %1, i8* noundef %2, i32 noundef %3, i32 noundef %4, i1 noundef zeroext %5) local_unnamed_addr #0 comdat align 2 !dbg !3754 {
  %7 = alloca i16, align 2
  call void @llvm.dbg.value(metadata %"class.MQTT::Client"* %0, metadata !3756, metadata !DIExpression()), !dbg !3763
  call void @llvm.dbg.value(metadata i8* %1, metadata !3757, metadata !DIExpression()), !dbg !3763
  call void @llvm.dbg.value(metadata i8* %2, metadata !3758, metadata !DIExpression()), !dbg !3763
  call void @llvm.dbg.value(metadata i32 %3, metadata !3759, metadata !DIExpression()), !dbg !3763
  call void @llvm.dbg.value(metadata i32 %4, metadata !3760, metadata !DIExpression()), !dbg !3763
  call void @llvm.dbg.value(metadata i1 %5, metadata !3761, metadata !DIExpression(DW_OP_LLVM_convert, 1, DW_ATE_unsigned, DW_OP_LLVM_convert, 8, DW_ATE_unsigned, DW_OP_stack_value)), !dbg !3763
  %8 = bitcast i16* %7 to i8*, !dbg !3764
  call void @llvm.lifetime.start.p0i8(i64 2, i8* nonnull %8) #36, !dbg !3764
  call void @llvm.dbg.value(metadata i16 0, metadata !3762, metadata !DIExpression()), !dbg !3763
  store i16 0, i16* %7, align 2, !dbg !3765, !tbaa !3171
  call void @llvm.dbg.value(metadata i16* %7, metadata !3762, metadata !DIExpression(DW_OP_deref)), !dbg !3763
  %9 = call noundef i32 @_ZN4MQTT6ClientIN6Cicada18BlockingCommDeviceENS1_13MQTTCountdownELi100ELi5EE7publishEPKcPvjRtNS_3QoSEb(%"class.MQTT::Client"* noundef nonnull align 4 dereferenceable(458) %0, i8* noundef %1, i8* noundef %2, i32 noundef %3, i16* noundef nonnull align 2 dereferenceable(2) %7, i32 noundef %4, i1 noundef zeroext %5), !dbg !3766
  call void @llvm.lifetime.end.p0i8(i64 2, i8* nonnull %8) #36, !dbg !3767
  ret i32 %9, !dbg !3768
}

; Function Attrs: mustprogress noinline nounwind
define linkonce_odr dso_local noundef i32 @_ZN4MQTT6ClientIN6Cicada18BlockingCommDeviceENS1_13MQTTCountdownELi100ELi5EE7publishEPKcPvjRtNS_3QoSEb(%"class.MQTT::Client"* noundef nonnull align 4 dereferenceable(458) %0, i8* noundef %1, i8* noundef %2, i32 noundef %3, i16* noundef nonnull align 2 dereferenceable(2) %4, i32 noundef %5, i1 noundef zeroext %6) local_unnamed_addr #0 comdat align 2 !dbg !3769 {
  %8 = alloca %"class.Cicada::MQTTCountdown", align 4
  call void @llvm.dbg.value(metadata %"class.MQTT::Client"* %0, metadata !3771, metadata !DIExpression()), !dbg !3783
  call void @llvm.dbg.value(metadata i8* %1, metadata !3772, metadata !DIExpression()), !dbg !3783
  call void @llvm.dbg.value(metadata i8* %2, metadata !3773, metadata !DIExpression()), !dbg !3783
  call void @llvm.dbg.value(metadata i32 %3, metadata !3774, metadata !DIExpression()), !dbg !3783
  call void @llvm.dbg.value(metadata i16* %4, metadata !3775, metadata !DIExpression()), !dbg !3783
  call void @llvm.dbg.value(metadata i32 %5, metadata !3776, metadata !DIExpression()), !dbg !3783
  %9 = zext i1 %6 to i8
  call void @llvm.dbg.value(metadata i8 %9, metadata !3777, metadata !DIExpression()), !dbg !3783
  call void @llvm.dbg.value(metadata i32 -1, metadata !3778, metadata !DIExpression()), !dbg !3783
  %10 = bitcast %"class.Cicada::MQTTCountdown"* %8 to i8*, !dbg !3784
  call void @llvm.lifetime.start.p0i8(i64 4, i8* nonnull %10) #36, !dbg !3784
  call void @llvm.dbg.declare(metadata %"class.Cicada::MQTTCountdown"* %8, metadata !3779, metadata !DIExpression()), !dbg !3785
  %11 = getelementptr inbounds %"class.MQTT::Client", %"class.MQTT::Client"* %0, i32 0, i32 1, !dbg !3786
  %12 = load i32, i32* %11, align 4, !dbg !3786, !tbaa !2947
  %13 = call noundef %"class.Cicada::MQTTCountdown"* @_ZN6Cicada13MQTTCountdownC1Ei(%"class.Cicada::MQTTCountdown"* noundef nonnull align 4 dereferenceable(4) %8, i32 noundef %12) #36, !dbg !3785
  call void @llvm.dbg.value(metadata i8* null, metadata !3780, metadata !DIExpression(DW_OP_LLVM_fragment, 0, 32)), !dbg !3783
  call void @llvm.dbg.value(metadata i32 0, metadata !3780, metadata !DIExpression(DW_OP_LLVM_fragment, 32, 32)), !dbg !3783
  call void @llvm.dbg.value(metadata i32 0, metadata !3780, metadata !DIExpression(DW_OP_LLVM_fragment, 64, 32)), !dbg !3783
  call void @llvm.dbg.value(metadata i32 0, metadata !3781, metadata !DIExpression()), !dbg !3783
  %14 = getelementptr inbounds %"class.MQTT::Client", %"class.MQTT::Client"* %0, i32 0, i32 13, !dbg !3787
  %15 = load i8, i8* %14, align 4, !dbg !3787, !tbaa !3040, !range !2653
  %16 = icmp eq i8 %15, 0, !dbg !3787
  br i1 %16, label %46, label %17, !dbg !3789

17:                                               ; preds = %7
  call void @llvm.dbg.value(metadata i8* %1, metadata !3780, metadata !DIExpression(DW_OP_LLVM_fragment, 0, 32)), !dbg !3783
  %18 = add i32 %5, -1, !dbg !3790
  %19 = icmp ult i32 %18, 2, !dbg !3790
  br i1 %19, label %20, label %24, !dbg !3790

20:                                               ; preds = %17
  %21 = getelementptr inbounds %"class.MQTT::Client", %"class.MQTT::Client"* %0, i32 0, i32 10, !dbg !3792
  %22 = call noundef i32 @_ZN4MQTT8PacketId7getNextEv(%"class.Cicada::MQTTCountdown"* noundef nonnull align 4 dereferenceable(4) %21), !dbg !3793
  %23 = trunc i32 %22 to i16, !dbg !3792
  store i16 %23, i16* %4, align 2, !dbg !3794, !tbaa !3171
  br label %24, !dbg !3795

24:                                               ; preds = %17, %20
  %25 = getelementptr inbounds %"class.MQTT::Client", %"class.MQTT::Client"* %0, i32 0, i32 2, i32 0, !dbg !3796
  %26 = load i16, i16* %4, align 2, !dbg !3797, !tbaa !3171
  %27 = ptrtoint i8* %1 to i32, !dbg !3798
  %28 = insertvalue [3 x i32] poison, i32 %27, 0, !dbg !3799
  %29 = insertvalue [3 x i32] %28, i32 0, 1, !dbg !3799
  %30 = insertvalue [3 x i32] %29, i32 0, 2, !dbg !3799
  %31 = call i32 @MQTTSerialize_publish(i8* noundef nonnull %25, i32 noundef 100, i8 noundef zeroext 0, i32 noundef %5, i8 noundef zeroext %9, i16 noundef zeroext %26, [3 x i32] %30, i8* noundef %2, i32 noundef %3) #36, !dbg !3799
  call void @llvm.dbg.value(metadata i32 %31, metadata !3781, metadata !DIExpression()), !dbg !3783
  %32 = icmp slt i32 %31, 1, !dbg !3800
  br i1 %32, label %46, label %33, !dbg !3802

33:                                               ; preds = %24
  %34 = getelementptr inbounds %"class.MQTT::Client", %"class.MQTT::Client"* %0, i32 0, i32 8, !dbg !3803
  %35 = load i8, i8* %34, align 1, !dbg !3803, !tbaa !2955, !range !2653
  %36 = icmp eq i8 %35, 0, !dbg !3803
  br i1 %36, label %37, label %44, !dbg !3805

37:                                               ; preds = %33
  %38 = getelementptr inbounds %"class.MQTT::Client", %"class.MQTT::Client"* %0, i32 0, i32 14, i32 0, !dbg !3806
  call void @llvm.memcpy.p0i8.p0i8.i32(i8* nonnull align 1 %38, i8* nonnull align 4 %25, i32 %31, i1 false), !dbg !3806
  %39 = load i16, i16* %4, align 2, !dbg !3808, !tbaa !3171
  %40 = getelementptr inbounds %"class.MQTT::Client", %"class.MQTT::Client"* %0, i32 0, i32 17, !dbg !3809
  store i16 %39, i16* %40, align 4, !dbg !3810, !tbaa !3160
  %41 = getelementptr inbounds %"class.MQTT::Client", %"class.MQTT::Client"* %0, i32 0, i32 16, !dbg !3811
  store i32 %31, i32* %41, align 4, !dbg !3812, !tbaa !3813
  %42 = getelementptr inbounds %"class.MQTT::Client", %"class.MQTT::Client"* %0, i32 0, i32 19, !dbg !3814
  store i32 %5, i32* %42, align 4, !dbg !3815, !tbaa !3163
  %43 = getelementptr inbounds %"class.MQTT::Client", %"class.MQTT::Client"* %0, i32 0, i32 20, !dbg !3816
  store i8 0, i8* %43, align 4, !dbg !3817, !tbaa !3166
  br label %44, !dbg !3818

44:                                               ; preds = %37, %33
  %45 = call noundef i32 @_ZN4MQTT6ClientIN6Cicada18BlockingCommDeviceENS1_13MQTTCountdownELi100ELi5EE7publishEiRS3_NS_3QoSE(%"class.MQTT::Client"* noundef nonnull align 4 dereferenceable(458) %0, i32 noundef %31, %"class.Cicada::MQTTCountdown"* noundef nonnull align 4 dereferenceable(4) %8, i32 noundef %5), !dbg !3819
  call void @llvm.dbg.value(metadata i32 %45, metadata !3778, metadata !DIExpression()), !dbg !3783
  br label %46, !dbg !3820

46:                                               ; preds = %24, %7, %44
  %47 = phi i32 [ -1, %24 ], [ %45, %44 ], [ -1, %7 ], !dbg !3783
  call void @llvm.dbg.value(metadata i32 %47, metadata !3778, metadata !DIExpression()), !dbg !3783
  call void @llvm.dbg.label(metadata !3782), !dbg !3821
  call void @llvm.lifetime.end.p0i8(i64 4, i8* nonnull %10) #36, !dbg !3822
  ret i32 %47, !dbg !3823
}

; Function Attrs: mustprogress noinline nounwind
define linkonce_odr dso_local noundef i32 @_ZN4MQTT6ClientIN6Cicada18BlockingCommDeviceENS1_13MQTTCountdownELi100ELi5EE7publishEiRS3_NS_3QoSE(%"class.MQTT::Client"* noundef nonnull align 4 dereferenceable(458) %0, i32 noundef %1, %"class.Cicada::MQTTCountdown"* noundef nonnull align 4 dereferenceable(4) %2, i32 noundef %3) local_unnamed_addr #0 comdat align 2 !dbg !3824 {
  %5 = alloca i16, align 2
  %6 = alloca i8, align 1
  %7 = alloca i8, align 1
  %8 = alloca i16, align 2
  %9 = alloca i8, align 1
  %10 = alloca i8, align 1
  call void @llvm.dbg.value(metadata %"class.MQTT::Client"* %0, metadata !3826, metadata !DIExpression()), !dbg !3846
  call void @llvm.dbg.value(metadata i32 %1, metadata !3827, metadata !DIExpression()), !dbg !3846
  call void @llvm.dbg.value(metadata %"class.Cicada::MQTTCountdown"* %2, metadata !3828, metadata !DIExpression()), !dbg !3846
  call void @llvm.dbg.value(metadata i32 %3, metadata !3829, metadata !DIExpression()), !dbg !3846
  %11 = call noundef i32 @_ZN4MQTT6ClientIN6Cicada18BlockingCommDeviceENS1_13MQTTCountdownELi100ELi5EE10sendPacketEiRS3_(%"class.MQTT::Client"* noundef nonnull align 4 dereferenceable(458) %0, i32 noundef %1, %"class.Cicada::MQTTCountdown"* noundef nonnull align 4 dereferenceable(4) %2), !dbg !3847
  call void @llvm.dbg.value(metadata i32 %11, metadata !3830, metadata !DIExpression()), !dbg !3846
  %12 = icmp eq i32 %11, 0, !dbg !3849
  br i1 %12, label %13, label %46, !dbg !3850

13:                                               ; preds = %4
  switch i32 %3, label %46 [
    i32 1, label %14
    i32 2, label %30
  ], !dbg !3851

14:                                               ; preds = %13
  %15 = call noundef i32 @_ZN4MQTT6ClientIN6Cicada18BlockingCommDeviceENS1_13MQTTCountdownELi100ELi5EE7waitforEiRS3_(%"class.MQTT::Client"* noundef nonnull align 4 dereferenceable(458) %0, i32 noundef 4, %"class.Cicada::MQTTCountdown"* noundef nonnull align 4 dereferenceable(4) %2), !dbg !3852
  %16 = icmp eq i32 %15, 4, !dbg !3853
  br i1 %16, label %17, label %46, !dbg !3854

17:                                               ; preds = %14
  %18 = bitcast i16* %5 to i8*, !dbg !3855
  call void @llvm.lifetime.start.p0i8(i64 2, i8* nonnull %18) #36, !dbg !3855
  call void @llvm.lifetime.start.p0i8(i64 1, i8* nonnull %6) #36, !dbg !3856
  call void @llvm.lifetime.start.p0i8(i64 1, i8* nonnull %7) #36, !dbg !3856
  %19 = getelementptr inbounds %"class.MQTT::Client", %"class.MQTT::Client"* %0, i32 0, i32 3, i32 0, !dbg !3857
  call void @llvm.dbg.value(metadata i16* %5, metadata !3831, metadata !DIExpression(DW_OP_deref)), !dbg !3859
  call void @llvm.dbg.value(metadata i8* %6, metadata !3836, metadata !DIExpression(DW_OP_deref)), !dbg !3859
  call void @llvm.dbg.value(metadata i8* %7, metadata !3837, metadata !DIExpression(DW_OP_deref)), !dbg !3859
  %20 = call i32 @MQTTDeserialize_ack(i8* noundef nonnull %7, i8* noundef nonnull %6, i16* noundef nonnull %5, i8* noundef nonnull %19, i32 noundef 100) #36, !dbg !3860
  %21 = icmp eq i32 %20, 1, !dbg !3861
  br i1 %21, label %22, label %28, !dbg !3862

22:                                               ; preds = %17
  %23 = getelementptr inbounds %"class.MQTT::Client", %"class.MQTT::Client"* %0, i32 0, i32 17, !dbg !3863
  %24 = load i16, i16* %23, align 4, !dbg !3863, !tbaa !3160
  %25 = load i16, i16* %5, align 2, !dbg !3865, !tbaa !3171
  call void @llvm.dbg.value(metadata i16 %25, metadata !3831, metadata !DIExpression()), !dbg !3859
  %26 = icmp eq i16 %24, %25, !dbg !3866
  br i1 %26, label %27, label %28, !dbg !3867

27:                                               ; preds = %22
  store i16 0, i16* %23, align 4, !dbg !3868, !tbaa !3160
  br label %28, !dbg !3869

28:                                               ; preds = %17, %22, %27
  %29 = phi i32 [ 0, %27 ], [ 0, %22 ], [ -1, %17 ], !dbg !3846
  call void @llvm.dbg.value(metadata i32 %29, metadata !3830, metadata !DIExpression()), !dbg !3846
  call void @llvm.lifetime.end.p0i8(i64 1, i8* nonnull %7) #36, !dbg !3870
  call void @llvm.lifetime.end.p0i8(i64 1, i8* nonnull %6) #36, !dbg !3870
  call void @llvm.lifetime.end.p0i8(i64 2, i8* nonnull %18) #36, !dbg !3870
  br label %46, !dbg !3871

30:                                               ; preds = %13
  %31 = call noundef i32 @_ZN4MQTT6ClientIN6Cicada18BlockingCommDeviceENS1_13MQTTCountdownELi100ELi5EE7waitforEiRS3_(%"class.MQTT::Client"* noundef nonnull align 4 dereferenceable(458) %0, i32 noundef 7, %"class.Cicada::MQTTCountdown"* noundef nonnull align 4 dereferenceable(4) %2), !dbg !3872
  %32 = icmp eq i32 %31, 7, !dbg !3873
  br i1 %32, label %33, label %46, !dbg !3874

33:                                               ; preds = %30
  %34 = bitcast i16* %8 to i8*, !dbg !3875
  call void @llvm.lifetime.start.p0i8(i64 2, i8* nonnull %34) #36, !dbg !3875
  call void @llvm.lifetime.start.p0i8(i64 1, i8* nonnull %9) #36, !dbg !3876
  call void @llvm.lifetime.start.p0i8(i64 1, i8* nonnull %10) #36, !dbg !3876
  %35 = getelementptr inbounds %"class.MQTT::Client", %"class.MQTT::Client"* %0, i32 0, i32 3, i32 0, !dbg !3877
  call void @llvm.dbg.value(metadata i16* %8, metadata !3838, metadata !DIExpression(DW_OP_deref)), !dbg !3879
  call void @llvm.dbg.value(metadata i8* %9, metadata !3843, metadata !DIExpression(DW_OP_deref)), !dbg !3879
  call void @llvm.dbg.value(metadata i8* %10, metadata !3844, metadata !DIExpression(DW_OP_deref)), !dbg !3879
  %36 = call i32 @MQTTDeserialize_ack(i8* noundef nonnull %10, i8* noundef nonnull %9, i16* noundef nonnull %8, i8* noundef nonnull %35, i32 noundef 100) #36, !dbg !3880
  %37 = icmp eq i32 %36, 1, !dbg !3881
  br i1 %37, label %38, label %44, !dbg !3882

38:                                               ; preds = %33
  %39 = getelementptr inbounds %"class.MQTT::Client", %"class.MQTT::Client"* %0, i32 0, i32 17, !dbg !3883
  %40 = load i16, i16* %39, align 4, !dbg !3883, !tbaa !3160
  %41 = load i16, i16* %8, align 2, !dbg !3885, !tbaa !3171
  call void @llvm.dbg.value(metadata i16 %41, metadata !3838, metadata !DIExpression()), !dbg !3879
  %42 = icmp eq i16 %40, %41, !dbg !3886
  br i1 %42, label %43, label %44, !dbg !3887

43:                                               ; preds = %38
  store i16 0, i16* %39, align 4, !dbg !3888, !tbaa !3160
  br label %44, !dbg !3889

44:                                               ; preds = %33, %38, %43
  %45 = phi i32 [ 0, %43 ], [ 0, %38 ], [ -1, %33 ], !dbg !3846
  call void @llvm.dbg.value(metadata i32 %45, metadata !3830, metadata !DIExpression()), !dbg !3846
  call void @llvm.lifetime.end.p0i8(i64 1, i8* nonnull %10) #36, !dbg !3890
  call void @llvm.lifetime.end.p0i8(i64 1, i8* nonnull %9) #36, !dbg !3890
  call void @llvm.lifetime.end.p0i8(i64 2, i8* nonnull %34) #36, !dbg !3890
  br label %46, !dbg !3891

46:                                               ; preds = %30, %13, %14, %28, %44, %4
  %47 = phi i32 [ %11, %4 ], [ %29, %28 ], [ %45, %44 ], [ -1, %14 ], [ 0, %13 ], [ -1, %30 ], !dbg !3846
  call void @llvm.dbg.value(metadata i32 %47, metadata !3830, metadata !DIExpression()), !dbg !3846
  call void @llvm.dbg.label(metadata !3845), !dbg !3892
  %48 = icmp eq i32 %47, 0, !dbg !3893
  br i1 %48, label %50, label %49, !dbg !3895

49:                                               ; preds = %46
  call void @_ZN4MQTT6ClientIN6Cicada18BlockingCommDeviceENS1_13MQTTCountdownELi100ELi5EE12closeSessionEv(%"class.MQTT::Client"* noundef nonnull align 4 dereferenceable(458) %0), !dbg !3896
  br label %50, !dbg !3896

50:                                               ; preds = %49, %46
  ret i32 %47, !dbg !3897
}

; Function Attrs: mustprogress noinline nounwind
define linkonce_odr dso_local noundef i32 @_ZN4MQTT6ClientIN6Cicada18BlockingCommDeviceENS1_13MQTTCountdownELi100ELi5EE9subscribeEPKcNS_3QoSEPFvRNS_11MessageDataEERNS_10subackDataE(%"class.MQTT::Client"* noundef nonnull align 4 dereferenceable(458) %0, i8* noundef %1, i32 noundef %2, void (%"struct.MQTT::MessageData"*)* noundef %3, %"class.Cicada::MQTTCountdown"* noundef nonnull align 4 dereferenceable(4) %4) local_unnamed_addr #0 comdat align 2 !dbg !3898 {
  %6 = alloca i32, align 4
  %7 = alloca %"class.Cicada::MQTTCountdown", align 4
  %8 = alloca %struct.MQTTString, align 4
  %9 = alloca i32, align 4
  %10 = alloca i16, align 2
  call void @llvm.dbg.value(metadata %"class.MQTT::Client"* %0, metadata !3900, metadata !DIExpression()), !dbg !3914
  call void @llvm.dbg.value(metadata i8* %1, metadata !3901, metadata !DIExpression()), !dbg !3914
  call void @llvm.dbg.value(metadata i32 %2, metadata !3902, metadata !DIExpression()), !dbg !3914
  store i32 %2, i32* %6, align 4, !tbaa !3915
  call void @llvm.dbg.value(metadata void (%"struct.MQTT::MessageData"*)* %3, metadata !3903, metadata !DIExpression()), !dbg !3914
  call void @llvm.dbg.value(metadata %"class.Cicada::MQTTCountdown"* %4, metadata !3904, metadata !DIExpression()), !dbg !3914
  call void @llvm.dbg.value(metadata i32 -1, metadata !3905, metadata !DIExpression()), !dbg !3914
  %11 = bitcast %"class.Cicada::MQTTCountdown"* %7 to i8*, !dbg !3916
  call void @llvm.lifetime.start.p0i8(i64 4, i8* nonnull %11) #36, !dbg !3916
  call void @llvm.dbg.declare(metadata %"class.Cicada::MQTTCountdown"* %7, metadata !3906, metadata !DIExpression()), !dbg !3917
  %12 = getelementptr inbounds %"class.MQTT::Client", %"class.MQTT::Client"* %0, i32 0, i32 1, !dbg !3918
  %13 = load i32, i32* %12, align 4, !dbg !3918, !tbaa !2947
  %14 = call noundef %"class.Cicada::MQTTCountdown"* @_ZN6Cicada13MQTTCountdownC1Ei(%"class.Cicada::MQTTCountdown"* noundef nonnull align 4 dereferenceable(4) %7, i32 noundef %13) #36, !dbg !3917
  call void @llvm.dbg.value(metadata i32 0, metadata !3907, metadata !DIExpression()), !dbg !3914
  %15 = bitcast %struct.MQTTString* %8 to i8*, !dbg !3919
  call void @llvm.lifetime.start.p0i8(i64 12, i8* nonnull %15) #36, !dbg !3919
  call void @llvm.dbg.declare(metadata %struct.MQTTString* %8, metadata !3908, metadata !DIExpression()), !dbg !3920
  %16 = getelementptr inbounds %struct.MQTTString, %struct.MQTTString* %8, i32 0, i32 0, !dbg !3921
  store i8* %1, i8** %16, align 4, !dbg !3921, !tbaa !3034
  %17 = getelementptr inbounds %struct.MQTTString, %struct.MQTTString* %8, i32 0, i32 1, i32 0, !dbg !3922
  store i32 0, i32* %17, align 4, !dbg !3922, !tbaa !3036
  %18 = getelementptr inbounds %struct.MQTTString, %struct.MQTTString* %8, i32 0, i32 1, i32 1, !dbg !3922
  store i8* null, i8** %18, align 4, !dbg !3922, !tbaa !3037
  %19 = getelementptr inbounds %"class.MQTT::Client", %"class.MQTT::Client"* %0, i32 0, i32 13, !dbg !3923
  %20 = load i8, i8* %19, align 4, !dbg !3923, !tbaa !3040, !range !2653
  %21 = icmp eq i8 %20, 0, !dbg !3923
  br i1 %21, label %49, label %22, !dbg !3925

22:                                               ; preds = %5
  %23 = getelementptr inbounds %"class.MQTT::Client", %"class.MQTT::Client"* %0, i32 0, i32 2, i32 0, !dbg !3926
  %24 = getelementptr inbounds %"class.MQTT::Client", %"class.MQTT::Client"* %0, i32 0, i32 10, !dbg !3927
  %25 = call noundef i32 @_ZN4MQTT8PacketId7getNextEv(%"class.Cicada::MQTTCountdown"* noundef nonnull align 4 dereferenceable(4) %24), !dbg !3928
  %26 = trunc i32 %25 to i16, !dbg !3927
  call void @llvm.dbg.value(metadata i32* %6, metadata !3902, metadata !DIExpression(DW_OP_deref)), !dbg !3914
  %27 = call i32 @MQTTSerialize_subscribe(i8* noundef nonnull %23, i32 noundef 100, i8 noundef zeroext 0, i16 noundef zeroext %26, i32 noundef 1, %struct.MQTTString* noundef nonnull %8, i32* noundef nonnull %6) #36, !dbg !3929
  call void @llvm.dbg.value(metadata i32 %27, metadata !3907, metadata !DIExpression()), !dbg !3914
  %28 = icmp slt i32 %27, 1, !dbg !3930
  br i1 %28, label %49, label %29, !dbg !3932

29:                                               ; preds = %22
  %30 = call noundef i32 @_ZN4MQTT6ClientIN6Cicada18BlockingCommDeviceENS1_13MQTTCountdownELi100ELi5EE10sendPacketEiRS3_(%"class.MQTT::Client"* noundef nonnull align 4 dereferenceable(458) %0, i32 noundef %27, %"class.Cicada::MQTTCountdown"* noundef nonnull align 4 dereferenceable(4) %7), !dbg !3933
  call void @llvm.dbg.value(metadata i32 %30, metadata !3905, metadata !DIExpression()), !dbg !3914
  %31 = icmp eq i32 %30, 0, !dbg !3935
  br i1 %31, label %32, label %49, !dbg !3936

32:                                               ; preds = %29
  %33 = call noundef i32 @_ZN4MQTT6ClientIN6Cicada18BlockingCommDeviceENS1_13MQTTCountdownELi100ELi5EE7waitforEiRS3_(%"class.MQTT::Client"* noundef nonnull align 4 dereferenceable(458) %0, i32 noundef 9, %"class.Cicada::MQTTCountdown"* noundef nonnull align 4 dereferenceable(4) %7), !dbg !3937
  %34 = icmp eq i32 %33, 9, !dbg !3938
  br i1 %34, label %35, label %49, !dbg !3939

35:                                               ; preds = %32
  %36 = bitcast i32* %9 to i8*, !dbg !3940
  call void @llvm.lifetime.start.p0i8(i64 4, i8* nonnull %36) #36, !dbg !3940
  call void @llvm.dbg.value(metadata i32 0, metadata !3909, metadata !DIExpression()), !dbg !3941
  store i32 0, i32* %9, align 4, !dbg !3942, !tbaa !2643
  %37 = bitcast i16* %10 to i8*, !dbg !3943
  call void @llvm.lifetime.start.p0i8(i64 2, i8* nonnull %37) #36, !dbg !3943
  %38 = getelementptr inbounds %"class.Cicada::MQTTCountdown", %"class.Cicada::MQTTCountdown"* %4, i32 0, i32 0, !dbg !3944
  store i32 0, i32* %38, align 4, !dbg !3945, !tbaa !3946
  %39 = getelementptr inbounds %"class.MQTT::Client", %"class.MQTT::Client"* %0, i32 0, i32 3, i32 0, !dbg !3948
  call void @llvm.dbg.value(metadata i32* %9, metadata !3909, metadata !DIExpression(DW_OP_deref)), !dbg !3941
  call void @llvm.dbg.value(metadata i16* %10, metadata !3912, metadata !DIExpression(DW_OP_deref)), !dbg !3941
  %40 = call i32 @MQTTDeserialize_suback(i16* noundef nonnull %10, i32 noundef 1, i32* noundef nonnull %9, i32* noundef nonnull %38, i8* noundef nonnull %39, i32 noundef 100) #36, !dbg !3950
  %41 = icmp ne i32 %40, 1, !dbg !3951
  %42 = load i32, i32* %38, align 4
  %43 = icmp eq i32 %42, 128
  %44 = select i1 %41, i1 true, i1 %43, !dbg !3952
  br i1 %44, label %47, label %45, !dbg !3952

45:                                               ; preds = %35
  %46 = call noundef i32 @_ZN4MQTT6ClientIN6Cicada18BlockingCommDeviceENS1_13MQTTCountdownELi100ELi5EE17setMessageHandlerEPKcPFvRNS_11MessageDataEE(%"class.MQTT::Client"* noundef nonnull align 4 dereferenceable(458) %0, i8* noundef %1, void (%"struct.MQTT::MessageData"*)* noundef %3), !dbg !3953
  call void @llvm.dbg.value(metadata i32 %46, metadata !3905, metadata !DIExpression()), !dbg !3914
  br label %47, !dbg !3956

47:                                               ; preds = %45, %35
  %48 = phi i32 [ %46, %45 ], [ 0, %35 ], !dbg !3914
  call void @llvm.dbg.value(metadata i32 %48, metadata !3905, metadata !DIExpression()), !dbg !3914
  call void @llvm.lifetime.end.p0i8(i64 2, i8* nonnull %37) #36, !dbg !3957
  call void @llvm.lifetime.end.p0i8(i64 4, i8* nonnull %36) #36, !dbg !3957
  br label %49, !dbg !3958

49:                                               ; preds = %32, %47, %29, %22, %5
  %50 = phi i32 [ -1, %22 ], [ %30, %29 ], [ %48, %47 ], [ -1, %5 ], [ -1, %32 ], !dbg !3914
  call void @llvm.dbg.value(metadata i32 %50, metadata !3905, metadata !DIExpression()), !dbg !3914
  call void @llvm.dbg.label(metadata !3913), !dbg !3959
  %51 = icmp eq i32 %50, -1, !dbg !3960
  br i1 %51, label %52, label %53, !dbg !3962

52:                                               ; preds = %49
  call void @_ZN4MQTT6ClientIN6Cicada18BlockingCommDeviceENS1_13MQTTCountdownELi100ELi5EE12closeSessionEv(%"class.MQTT::Client"* noundef nonnull align 4 dereferenceable(458) %0), !dbg !3963
  br label %53, !dbg !3963

53:                                               ; preds = %52, %49
  call void @llvm.lifetime.end.p0i8(i64 12, i8* nonnull %15) #36, !dbg !3964
  call void @llvm.lifetime.end.p0i8(i64 4, i8* nonnull %11) #36, !dbg !3964
  ret i32 %50, !dbg !3965
}

; Function Attrs: mustprogress noinline nounwind
define linkonce_odr dso_local noundef i32 @_ZN4MQTT6ClientIN6Cicada18BlockingCommDeviceENS1_13MQTTCountdownELi100ELi5EE7connectER22MQTTPacket_connectDataRNS_11connackDataE(%"class.MQTT::Client"* noundef nonnull align 4 dereferenceable(458) %0, %struct.MQTTPacket_connectData* noundef nonnull align 4 dereferenceable(88) %1, %"struct.MQTT::connackData"* noundef nonnull align 4 dereferenceable(8) %2) local_unnamed_addr #0 comdat align 2 !dbg !3966 {
  %4 = alloca %"class.Cicada::MQTTCountdown", align 4
  call void @llvm.dbg.value(metadata %"class.MQTT::Client"* %0, metadata !3968, metadata !DIExpression()), !dbg !3975
  call void @llvm.dbg.value(metadata %struct.MQTTPacket_connectData* %1, metadata !3969, metadata !DIExpression()), !dbg !3975
  call void @llvm.dbg.value(metadata %"struct.MQTT::connackData"* %2, metadata !3970, metadata !DIExpression()), !dbg !3975
  %5 = bitcast %"class.Cicada::MQTTCountdown"* %4 to i8*, !dbg !3976
  call void @llvm.lifetime.start.p0i8(i64 4, i8* nonnull %5) #36, !dbg !3976
  call void @llvm.dbg.declare(metadata %"class.Cicada::MQTTCountdown"* %4, metadata !3971, metadata !DIExpression()), !dbg !3977
  %6 = getelementptr inbounds %"class.MQTT::Client", %"class.MQTT::Client"* %0, i32 0, i32 1, !dbg !3978
  %7 = load i32, i32* %6, align 4, !dbg !3978, !tbaa !2947
  %8 = call noundef %"class.Cicada::MQTTCountdown"* @_ZN6Cicada13MQTTCountdownC1Ei(%"class.Cicada::MQTTCountdown"* noundef nonnull align 4 dereferenceable(4) %4, i32 noundef %7) #36, !dbg !3977
  call void @llvm.dbg.value(metadata i32 -1, metadata !3972, metadata !DIExpression()), !dbg !3975
  call void @llvm.dbg.value(metadata i32 0, metadata !3973, metadata !DIExpression()), !dbg !3975
  %9 = getelementptr inbounds %"class.MQTT::Client", %"class.MQTT::Client"* %0, i32 0, i32 13, !dbg !3979
  %10 = load i8, i8* %9, align 4, !dbg !3979, !tbaa !3040, !range !2653
  %11 = icmp eq i8 %10, 0, !dbg !3979
  br i1 %11, label %12, label %72, !dbg !3981

12:                                               ; preds = %3
  %13 = getelementptr inbounds %struct.MQTTPacket_connectData, %struct.MQTTPacket_connectData* %1, i32 0, i32 4, !dbg !3982
  %14 = load i16, i16* %13, align 4, !dbg !3982, !tbaa !3983
  %15 = zext i16 %14 to i32, !dbg !3984
  %16 = getelementptr inbounds %"class.MQTT::Client", %"class.MQTT::Client"* %0, i32 0, i32 6, !dbg !3985
  store i32 %15, i32* %16, align 4, !dbg !3986, !tbaa !3127
  %17 = getelementptr inbounds %struct.MQTTPacket_connectData, %struct.MQTTPacket_connectData* %1, i32 0, i32 5, !dbg !3987
  %18 = load i8, i8* %17, align 2, !dbg !3987, !tbaa !3988
  %19 = icmp ne i8 %18, 0, !dbg !3989
  %20 = getelementptr inbounds %"class.MQTT::Client", %"class.MQTT::Client"* %0, i32 0, i32 8, !dbg !3990
  %21 = zext i1 %19 to i8, !dbg !3991
  store i8 %21, i8* %20, align 1, !dbg !3991, !tbaa !2955
  %22 = getelementptr inbounds %"class.MQTT::Client", %"class.MQTT::Client"* %0, i32 0, i32 2, i32 0, !dbg !3992
  %23 = call i32 @MQTTSerialize_connect(i8* noundef nonnull %22, i32 noundef 100, %struct.MQTTPacket_connectData* noundef nonnull %1) #36, !dbg !3994
  call void @llvm.dbg.value(metadata i32 %23, metadata !3973, metadata !DIExpression()), !dbg !3975
  %24 = icmp slt i32 %23, 1, !dbg !3995
  br i1 %24, label %72, label %25, !dbg !3996

25:                                               ; preds = %12
  %26 = call noundef i32 @_ZN4MQTT6ClientIN6Cicada18BlockingCommDeviceENS1_13MQTTCountdownELi100ELi5EE10sendPacketEiRS3_(%"class.MQTT::Client"* noundef nonnull align 4 dereferenceable(458) %0, i32 noundef %23, %"class.Cicada::MQTTCountdown"* noundef nonnull align 4 dereferenceable(4) %4), !dbg !3997
  call void @llvm.dbg.value(metadata i32 %26, metadata !3972, metadata !DIExpression()), !dbg !3975
  %27 = icmp eq i32 %26, 0, !dbg !3999
  br i1 %27, label %28, label %72, !dbg !4000

28:                                               ; preds = %25
  %29 = load i32, i32* %16, align 4, !dbg !4001, !tbaa !3127
  %30 = icmp eq i32 %29, 0, !dbg !4003
  br i1 %30, label %33, label %31, !dbg !4004

31:                                               ; preds = %28
  %32 = getelementptr inbounds %"class.MQTT::Client", %"class.MQTT::Client"* %0, i32 0, i32 5, !dbg !4005
  call void @_ZN6Cicada13MQTTCountdown9countdownEi(%"class.Cicada::MQTTCountdown"* noundef nonnull align 4 dereferenceable(4) %32, i32 noundef %29) #36, !dbg !4006
  br label %33, !dbg !4005

33:                                               ; preds = %31, %28
  %34 = call noundef i32 @_ZN4MQTT6ClientIN6Cicada18BlockingCommDeviceENS1_13MQTTCountdownELi100ELi5EE7waitforEiRS3_(%"class.MQTT::Client"* noundef nonnull align 4 dereferenceable(458) %0, i32 noundef 2, %"class.Cicada::MQTTCountdown"* noundef nonnull align 4 dereferenceable(4) %4), !dbg !4007
  %35 = icmp eq i32 %34, 2, !dbg !4009
  br i1 %35, label %36, label %45, !dbg !4010

36:                                               ; preds = %33
  %37 = getelementptr inbounds %"struct.MQTT::connackData", %"struct.MQTT::connackData"* %2, i32 0, i32 0, !dbg !4011
  store i32 0, i32* %37, align 4, !dbg !4013, !tbaa !4014
  %38 = getelementptr inbounds %"struct.MQTT::connackData", %"struct.MQTT::connackData"* %2, i32 0, i32 1, !dbg !4016
  store i8 0, i8* %38, align 4, !dbg !4017, !tbaa !4018
  %39 = bitcast %"struct.MQTT::connackData"* %2 to i8*, !dbg !4019
  %40 = getelementptr inbounds %"class.MQTT::Client", %"class.MQTT::Client"* %0, i32 0, i32 3, i32 0, !dbg !4021
  %41 = call i32 @MQTTDeserialize_connack(i8* noundef nonnull %38, i8* noundef nonnull %39, i8* noundef nonnull %40, i32 noundef 100) #36, !dbg !4022
  %42 = icmp eq i32 %41, 1, !dbg !4023
  %43 = load i32, i32* %37, align 4
  %44 = select i1 %42, i32 %43, i32 -1, !dbg !4024
  br label %45, !dbg !4024

45:                                               ; preds = %36, %33
  %46 = phi i32 [ -1, %33 ], [ %44, %36 ], !dbg !4025
  call void @llvm.dbg.value(metadata i32 %46, metadata !3972, metadata !DIExpression()), !dbg !3975
  %47 = getelementptr inbounds %"class.MQTT::Client", %"class.MQTT::Client"* %0, i32 0, i32 17, !dbg !4026
  %48 = load i16, i16* %47, align 4, !dbg !4026, !tbaa !3160
  %49 = icmp eq i16 %48, 0, !dbg !4028
  br i1 %49, label %72, label %50, !dbg !4029

50:                                               ; preds = %45
  %51 = getelementptr inbounds %"class.MQTT::Client", %"class.MQTT::Client"* %0, i32 0, i32 19, !dbg !4030
  %52 = load i32, i32* %51, align 4, !dbg !4030, !tbaa !3163
  %53 = icmp ne i32 %52, 2, !dbg !4031
  %54 = getelementptr inbounds %"class.MQTT::Client", %"class.MQTT::Client"* %0, i32 0, i32 20
  %55 = load i8, i8* %54, align 4
  %56 = icmp eq i8 %55, 0
  %57 = select i1 %53, i1 true, i1 %56, !dbg !4032
  br i1 %57, label %61, label %58, !dbg !4032

58:                                               ; preds = %50
  %59 = call i32 @MQTTSerialize_ack(i8* noundef nonnull %22, i32 noundef 100, i8 noundef zeroext 6, i8 noundef zeroext 0, i16 noundef zeroext %48) #36, !dbg !4033
  call void @llvm.dbg.value(metadata i32 %59, metadata !3973, metadata !DIExpression()), !dbg !3975
  %60 = icmp slt i32 %59, 1, !dbg !4036
  br i1 %60, label %72, label %67, !dbg !4037

61:                                               ; preds = %50
  br i1 %49, label %72, label %62, !dbg !4038

62:                                               ; preds = %61
  %63 = getelementptr inbounds %"class.MQTT::Client", %"class.MQTT::Client"* %0, i32 0, i32 14, i32 0, !dbg !4039
  call void @llvm.memcpy.p0i8.p0i8.i32(i8* noundef nonnull align 4 dereferenceable(100) %22, i8* noundef nonnull align 1 dereferenceable(100) %63, i32 100, i1 false), !dbg !4039
  %64 = getelementptr inbounds %"class.MQTT::Client", %"class.MQTT::Client"* %0, i32 0, i32 16, !dbg !4042
  %65 = load i32, i32* %64, align 4, !dbg !4042, !tbaa !3813
  %66 = getelementptr inbounds %"class.MQTT::Client", %"class.MQTT::Client"* %0, i32 0, i32 19, !dbg !4043
  call void @llvm.dbg.value(metadata i32 undef, metadata !3972, metadata !DIExpression()), !dbg !3975
  br label %67, !dbg !4044

67:                                               ; preds = %58, %62
  %68 = phi i32* [ %66, %62 ], [ %51, %58 ]
  %69 = phi i32 [ %65, %62 ], [ %59, %58 ]
  %70 = load i32, i32* %68, align 4, !dbg !4045, !tbaa !3163
  %71 = call noundef i32 @_ZN4MQTT6ClientIN6Cicada18BlockingCommDeviceENS1_13MQTTCountdownELi100ELi5EE7publishEiRS3_NS_3QoSE(%"class.MQTT::Client"* noundef nonnull align 4 dereferenceable(458) %0, i32 noundef %69, %"class.Cicada::MQTTCountdown"* noundef nonnull align 4 dereferenceable(4) %4, i32 noundef %70), !dbg !4045
  br label %72, !dbg !4046

72:                                               ; preds = %67, %45, %58, %61, %25, %12, %3
  %73 = phi i32 [ -1, %3 ], [ -1, %12 ], [ %26, %25 ], [ %46, %61 ], [ -1, %58 ], [ %46, %45 ], [ %71, %67 ], !dbg !3975
  call void @llvm.dbg.value(metadata i32 %73, metadata !3972, metadata !DIExpression()), !dbg !3975
  call void @llvm.dbg.label(metadata !3974), !dbg !4048
  %74 = icmp eq i32 %73, 0, !dbg !4046
  br i1 %74, label %75, label %77, !dbg !4049

75:                                               ; preds = %72
  store i8 1, i8* %9, align 4, !dbg !4050, !tbaa !3040
  %76 = getelementptr inbounds %"class.MQTT::Client", %"class.MQTT::Client"* %0, i32 0, i32 7, !dbg !4052
  store i8 0, i8* %76, align 4, !dbg !4053, !tbaa !3140
  br label %77, !dbg !4054

77:                                               ; preds = %75, %72
  call void @llvm.lifetime.end.p0i8(i64 4, i8* nonnull %5) #36, !dbg !4055
  ret i32 %73, !dbg !4056
}

; Function Attrs: noinline nounwind
define linkonce_odr dso_local noundef %"class.Cicada::MQTTCountdown"* @_ZN4MQTT8PacketIdC2Ev(%"class.Cicada::MQTTCountdown"* noundef nonnull returned align 4 dereferenceable(4) %0) unnamed_addr #5 comdat align 2 !dbg !4057 {
  call void @llvm.dbg.value(metadata %"class.Cicada::MQTTCountdown"* %0, metadata !4059, metadata !DIExpression()), !dbg !4060
  %2 = getelementptr inbounds %"class.Cicada::MQTTCountdown", %"class.Cicada::MQTTCountdown"* %0, i32 0, i32 0, !dbg !4061
  store i32 0, i32* %2, align 4, !dbg !4063, !tbaa !3188
  ret %"class.Cicada::MQTTCountdown"* %0, !dbg !4064
}

; Function Attrs: noinline nounwind
define linkonce_odr dso_local noundef %"struct.MQTT::Client<Cicada::BlockingCommDevice, Cicada::MQTTCountdown, 100, 5>::MessageHandlers"* @_ZN4MQTT6ClientIN6Cicada18BlockingCommDeviceENS1_13MQTTCountdownELi100ELi5EE15MessageHandlersC2Ev(%"struct.MQTT::Client<Cicada::BlockingCommDevice, Cicada::MQTTCountdown, 100, 5>::MessageHandlers"* noundef nonnull returned align 4 dereferenceable(16) %0) unnamed_addr #5 comdat align 2 !dbg !4065 {
  call void @llvm.dbg.value(metadata %"struct.MQTT::Client<Cicada::BlockingCommDevice, Cicada::MQTTCountdown, 100, 5>::MessageHandlers"* %0, metadata !4071, metadata !DIExpression()), !dbg !4073
  %2 = getelementptr inbounds %"struct.MQTT::Client<Cicada::BlockingCommDevice, Cicada::MQTTCountdown, 100, 5>::MessageHandlers", %"struct.MQTT::Client<Cicada::BlockingCommDevice, Cicada::MQTTCountdown, 100, 5>::MessageHandlers"* %0, i32 0, i32 1, !dbg !4074
  %3 = call noundef %class.FP* @_ZN2FPIvRN4MQTT11MessageDataEEC2Ev(%class.FP* noundef nonnull align 4 dereferenceable(12) %2), !dbg !4074
  ret %"struct.MQTT::Client<Cicada::BlockingCommDevice, Cicada::MQTTCountdown, 100, 5>::MessageHandlers"* %0, !dbg !4074
}

; Function Attrs: noinline nounwind
define linkonce_odr dso_local noundef %class.FP* @_ZN2FPIvRN4MQTT11MessageDataEEC2Ev(%class.FP* noundef nonnull returned align 4 dereferenceable(12) %0) unnamed_addr #5 comdat align 2 !dbg !4075 {
  call void @llvm.dbg.value(metadata %class.FP* %0, metadata !4077, metadata !DIExpression()), !dbg !4078
  %2 = getelementptr inbounds %class.FP, %class.FP* %0, i32 0, i32 0, !dbg !4079
  store %"class.FP<void, MQTT::MessageData &>::FPtrDummy"* null, %"class.FP<void, MQTT::MessageData &>::FPtrDummy"** %2, align 4, !dbg !4081, !tbaa !3280
  %3 = getelementptr inbounds %class.FP, %class.FP* %0, i32 0, i32 1, !dbg !4082
  %4 = bitcast %union.anon* %3 to void (%"struct.MQTT::MessageData"*)**, !dbg !4082
  store void (%"struct.MQTT::MessageData"*)* null, void (%"struct.MQTT::MessageData"*)** %4, align 4, !dbg !4083, !tbaa !3283
  ret %class.FP* %0, !dbg !4084
}

; Function Attrs: mustprogress noinline nounwind
define dso_local void @SysTick_Handler() local_unnamed_addr #0 !dbg !4085 {
  call void @HAL_IncTick() #36, !dbg !4086
  ret void, !dbg !4087
}

; Function Attrs: mustprogress noinline nounwind
define dso_local void @USART1_IRQHandler() local_unnamed_addr #0 !dbg !460 {
  %1 = load atomic i8, i8* bitcast (i32* @_ZGVZ17USART1_IRQHandlerE8instance to i8*) acquire, align 4, !dbg !4088
  %2 = and i8 %1, 1, !dbg !4088
  %3 = icmp eq i8 %2, 0, !dbg !4088
  br i1 %3, label %4, label %9, !dbg !4088, !prof !3597

4:                                                ; preds = %0
  %5 = call i32 @__cxa_guard_acquire(i32* nonnull @_ZGVZ17USART1_IRQHandlerE8instance) #36, !dbg !4088
  %6 = icmp eq i32 %5, 0, !dbg !4088
  br i1 %6, label %9, label %7, !dbg !4088

7:                                                ; preds = %4
  %8 = call noundef %"class.Cicada::Stm32Uart"* @_ZN6Cicada9Stm32Uart11getInstanceEP13USART_TypeDef(%struct.USART_TypeDef* noundef nonnull inttoptr (i32 1073821696 to %struct.USART_TypeDef*)) #36, !dbg !4089
  store %"class.Cicada::Stm32Uart"* %8, %"class.Cicada::Stm32Uart"** @_ZZ17USART1_IRQHandlerE8instance, align 4, !dbg !4088, !tbaa !2733
  call void @__cxa_guard_release(i32* nonnull @_ZGVZ17USART1_IRQHandlerE8instance) #36, !dbg !4088
  br label %9, !dbg !4088

9:                                                ; preds = %7, %4, %0
  %10 = load %"class.Cicada::Stm32Uart"*, %"class.Cicada::Stm32Uart"** @_ZZ17USART1_IRQHandlerE8instance, align 4, !dbg !4090, !tbaa !2733
  call void @_ZN6Cicada9Stm32Uart15handleInterruptEv(%"class.Cicada::Stm32Uart"* noundef nonnull align 8 dereferenceable(192) %10) #36, !dbg !4091
  ret void, !dbg !4092
}

; Function Attrs: mustprogress noinline nounwind
define dso_local void @USART2_IRQHandler() local_unnamed_addr #0 !dbg !469 {
  %1 = load atomic i8, i8* bitcast (i32* @_ZGVZ17USART2_IRQHandlerE8instance to i8*) acquire, align 4, !dbg !4093
  %2 = and i8 %1, 1, !dbg !4093
  %3 = icmp eq i8 %2, 0, !dbg !4093
  br i1 %3, label %4, label %9, !dbg !4093, !prof !3597

4:                                                ; preds = %0
  %5 = call i32 @__cxa_guard_acquire(i32* nonnull @_ZGVZ17USART2_IRQHandlerE8instance) #36, !dbg !4093
  %6 = icmp eq i32 %5, 0, !dbg !4093
  br i1 %6, label %9, label %7, !dbg !4093

7:                                                ; preds = %4
  %8 = call noundef %"class.Cicada::Stm32Uart"* @_ZN6Cicada9Stm32Uart11getInstanceEP13USART_TypeDef(%struct.USART_TypeDef* noundef nonnull inttoptr (i32 1073759232 to %struct.USART_TypeDef*)) #36, !dbg !4094
  store %"class.Cicada::Stm32Uart"* %8, %"class.Cicada::Stm32Uart"** @_ZZ17USART2_IRQHandlerE8instance, align 4, !dbg !4093, !tbaa !2733
  call void @__cxa_guard_release(i32* nonnull @_ZGVZ17USART2_IRQHandlerE8instance) #36, !dbg !4093
  br label %9, !dbg !4093

9:                                                ; preds = %7, %4, %0
  %10 = load %"class.Cicada::Stm32Uart"*, %"class.Cicada::Stm32Uart"** @_ZZ17USART2_IRQHandlerE8instance, align 4, !dbg !4095, !tbaa !2733
  call void @_ZN6Cicada9Stm32Uart15handleInterruptEv(%"class.Cicada::Stm32Uart"* noundef nonnull align 8 dereferenceable(192) %10) #36, !dbg !4096
  ret void, !dbg !4097
}

; Function Attrs: mustprogress noinline nounwind
define dso_local void @_putchar(i8 noundef zeroext %0) local_unnamed_addr #0 !dbg !472 {
  call void @llvm.dbg.value(metadata i8 %0, metadata !476, metadata !DIExpression()), !dbg !4098
  %2 = load %"class.Cicada::Stm32Uart"*, %"class.Cicada::Stm32Uart"** @_ZZ8_putcharE6serial, align 4, !dbg !4099, !tbaa !2733
  %3 = icmp eq %"class.Cicada::Stm32Uart"* %2, null, !dbg !4099
  br i1 %3, label %4, label %6, !dbg !4101

4:                                                ; preds = %1
  %5 = call noundef %"class.Cicada::Stm32Uart"* @_ZN6Cicada9Stm32Uart11getInstanceEP13USART_TypeDef(%struct.USART_TypeDef* noundef nonnull inttoptr (i32 1073759232 to %struct.USART_TypeDef*)) #36, !dbg !4102
  store %"class.Cicada::Stm32Uart"* %5, %"class.Cicada::Stm32Uart"** @_ZZ8_putcharE6serial, align 4, !dbg !4104, !tbaa !2733
  br label %6, !dbg !4105

6:                                                ; preds = %4, %1
  %7 = load %"class.Cicada::BufferedSerial"*, %"class.Cicada::BufferedSerial"** bitcast (%"class.Cicada::Stm32Uart"** @_ZZ8_putcharE6serial to %"class.Cicada::BufferedSerial"**), align 4, !dbg !4106, !tbaa !2733
  %8 = bitcast %"class.Cicada::BufferedSerial"* %7 to void (%"class.Cicada::BufferedSerial"*, i8)***, !dbg !4107
  %9 = load void (%"class.Cicada::BufferedSerial"*, i8)**, void (%"class.Cicada::BufferedSerial"*, i8)*** %8, align 8, !dbg !4107, !tbaa !3713
  %10 = getelementptr inbounds void (%"class.Cicada::BufferedSerial"*, i8)*, void (%"class.Cicada::BufferedSerial"*, i8)** %9, i32 9, !dbg !4107
  %11 = load void (%"class.Cicada::BufferedSerial"*, i8)*, void (%"class.Cicada::BufferedSerial"*, i8)** %10, align 4, !dbg !4107
  call void %11(%"class.Cicada::BufferedSerial"* noundef nonnull align 8 dereferenceable(104) %7, i8 noundef zeroext %0) #36, !dbg !4107
  ret void, !dbg !4108
}

; Function Attrs: noinline nounwind
define dso_local i32 @printf_(i8* noundef %0, ...) local_unnamed_addr #5 !dbg !4109 {
  %2 = alloca %struct.__va_list, align 4
  %3 = alloca [1 x i8], align 1
  call void @llvm.dbg.value(metadata i8* %0, metadata !4111, metadata !DIExpression()), !dbg !4122
  %4 = bitcast %struct.__va_list* %2 to i8*, !dbg !4123
  call void @llvm.lifetime.start.p0i8(i64 4, i8* nonnull %4) #36, !dbg !4123
  call void @llvm.dbg.declare(metadata %struct.__va_list* %2, metadata !4112, metadata !DIExpression()), !dbg !4124
  call void @llvm.va_start(i8* nonnull %4), !dbg !4125
  %5 = getelementptr inbounds [1 x i8], [1 x i8]* %3, i32 0, i32 0, !dbg !4126
  call void @llvm.lifetime.start.p0i8(i64 1, i8* nonnull %5) #36, !dbg !4126
  call void @llvm.dbg.declare(metadata [1 x i8]* %3, metadata !4119, metadata !DIExpression()), !dbg !4127
  %6 = bitcast %struct.__va_list* %2 to i32*, !dbg !4128
  %7 = load i32, i32* %6, align 4, !dbg !4128
  %8 = insertvalue [1 x i32] poison, i32 %7, 0, !dbg !4128
  %9 = call fastcc i32 @_vsnprintf(void (i8, i8*, i32, i32)* noundef nonnull @_out_char, i8* noundef nonnull %5, i32 noundef -1, i8* noundef %0, [1 x i32] %8), !dbg !4128
  call void @llvm.dbg.value(metadata i32 %9, metadata !4121, metadata !DIExpression()), !dbg !4122
  call void @llvm.va_end(i8* %4), !dbg !4129
  call void @llvm.lifetime.end.p0i8(i64 1, i8* nonnull %5) #36, !dbg !4130
  call void @llvm.lifetime.end.p0i8(i64 4, i8* nonnull %4) #36, !dbg !4130
  ret i32 %9, !dbg !4131
}

; Function Attrs: nofree nosync nounwind willreturn
declare void @llvm.va_start(i8*) #11

; Function Attrs: noinline nounwind
define internal void @_out_char(i8 noundef zeroext %0, i8* nocapture noundef readnone %1, i32 noundef %2, i32 noundef %3) #5 !dbg !4132 {
  call void @llvm.dbg.value(metadata i8 %0, metadata !4134, metadata !DIExpression()), !dbg !4138
  call void @llvm.dbg.value(metadata i8* %1, metadata !4135, metadata !DIExpression()), !dbg !4138
  call void @llvm.dbg.value(metadata i32 %2, metadata !4136, metadata !DIExpression()), !dbg !4138
  call void @llvm.dbg.value(metadata i32 %3, metadata !4137, metadata !DIExpression()), !dbg !4138
  %5 = icmp eq i8 %0, 0, !dbg !4139
  br i1 %5, label %7, label %6, !dbg !4141

6:                                                ; preds = %4
  call void @_putchar(i8 noundef zeroext %0) #36, !dbg !4142
  br label %7, !dbg !4144

7:                                                ; preds = %6, %4
  ret void, !dbg !4145
}

; Function Attrs: noinline nounwind
define internal fastcc i32 @_vsnprintf(void (i8, i8*, i32, i32)* nocapture noundef readonly %0, i8* noundef %1, i32 noundef %2, i8* noundef %3, [1 x i32] %4) unnamed_addr #5 !dbg !4146 {
  %6 = alloca i8*, align 4
  %7 = extractvalue [1 x i32] %4, 0
  %8 = inttoptr i32 %7 to i8*
  call void @llvm.dbg.value(metadata i8* %8, metadata !4154, metadata !DIExpression()), !dbg !4200
  call void @llvm.dbg.value(metadata void (i8, i8*, i32, i32)* %0, metadata !4150, metadata !DIExpression()), !dbg !4200
  call void @llvm.dbg.value(metadata i8* %1, metadata !4151, metadata !DIExpression()), !dbg !4200
  call void @llvm.dbg.value(metadata i32 %2, metadata !4152, metadata !DIExpression()), !dbg !4200
  call void @llvm.dbg.value(metadata i8* %3, metadata !4153, metadata !DIExpression()), !dbg !4200
  store i8* %3, i8** %6, align 4, !tbaa !4201
  call void @llvm.dbg.value(metadata i32 0, metadata !4159, metadata !DIExpression()), !dbg !4200
  %9 = icmp eq i8* %1, null, !dbg !4205
  %10 = select i1 %9, void (i8, i8*, i32, i32)* @_out_null, void (i8, i8*, i32, i32)* %0, !dbg !4207
  call void @llvm.dbg.value(metadata void (i8, i8*, i32, i32)* %10, metadata !4150, metadata !DIExpression()), !dbg !4200
  br label %11, !dbg !4208

11:                                               ; preds = %354, %5
  %12 = phi i32 [ 0, %5 ], [ %355, %354 ]
  %13 = phi i8* [ %8, %5 ], [ %356, %354 ]
  br label %14, !dbg !4208

14:                                               ; preds = %11, %18
  %15 = phi i32 [ %19, %18 ], [ %12, %11 ], !dbg !4200
  call void @llvm.dbg.value(metadata i8* %13, metadata !4154, metadata !DIExpression()), !dbg !4200
  call void @llvm.dbg.value(metadata i32 %15, metadata !4159, metadata !DIExpression()), !dbg !4200
  %16 = load i8*, i8** %6, align 4, !dbg !4209, !tbaa !4201
  call void @llvm.dbg.value(metadata i8* %16, metadata !4153, metadata !DIExpression()), !dbg !4200
  %17 = load i8, i8* %16, align 1, !dbg !4210, !tbaa !4211
  switch i8 %17, label %18 [
    i8 0, label %357
    i8 37, label %22
  ], !dbg !4208

18:                                               ; preds = %14
  %19 = add i32 %15, 1, !dbg !4212
  call void @llvm.dbg.value(metadata i32 %19, metadata !4159, metadata !DIExpression()), !dbg !4200
  call void %10(i8 noundef zeroext %17, i8* noundef %1, i32 noundef %15, i32 noundef %2) #36, !dbg !4215, !callees !4216
  %20 = load i8*, i8** %6, align 4, !dbg !4217, !tbaa !4201
  call void @llvm.dbg.value(metadata i8* %20, metadata !4153, metadata !DIExpression()), !dbg !4200
  %21 = getelementptr inbounds i8, i8* %20, i32 1, !dbg !4217
  call void @llvm.dbg.value(metadata i8* %21, metadata !4153, metadata !DIExpression()), !dbg !4200
  store i8* %21, i8** %6, align 4, !dbg !4217, !tbaa !4201
  br label %14, !dbg !4218, !llvm.loop !4219

22:                                               ; preds = %14
  %23 = getelementptr inbounds i8, i8* %16, i32 1, !dbg !4221
  call void @llvm.dbg.value(metadata i8* %23, metadata !4153, metadata !DIExpression()), !dbg !4200
  store i8* %23, i8** %6, align 4, !dbg !4221, !tbaa !4201
  call void @llvm.dbg.value(metadata i32 0, metadata !4155, metadata !DIExpression()), !dbg !4200
  br label %24, !dbg !4223

24:                                               ; preds = %43, %22
  %25 = phi i32 [ 0, %22 ], [ %45, %43 ], !dbg !4224
  call void @llvm.dbg.value(metadata i32 %25, metadata !4155, metadata !DIExpression()), !dbg !4200
  %26 = load i8*, i8** %6, align 4, !dbg !4225, !tbaa !4201
  call void @llvm.dbg.value(metadata i8* %26, metadata !4153, metadata !DIExpression()), !dbg !4200
  %27 = load i8, i8* %26, align 1, !dbg !4227, !tbaa !4211
  switch i8 %27, label %43 [
    i8 48, label %28
    i8 45, label %31
    i8 43, label %34
    i8 32, label %37
    i8 35, label %40
  ], !dbg !4228

28:                                               ; preds = %24
  %29 = or i32 %25, 1, !dbg !4229
  call void @llvm.dbg.value(metadata i32 %29, metadata !4155, metadata !DIExpression()), !dbg !4200
  %30 = getelementptr inbounds i8, i8* %26, i32 1, !dbg !4231
  call void @llvm.dbg.value(metadata i8* %30, metadata !4153, metadata !DIExpression()), !dbg !4200
  store i8* %30, i8** %6, align 4, !dbg !4231, !tbaa !4201
  call void @llvm.dbg.value(metadata i32 1, metadata !4158, metadata !DIExpression()), !dbg !4200
  br label %43, !dbg !4232

31:                                               ; preds = %24
  %32 = or i32 %25, 2, !dbg !4233
  call void @llvm.dbg.value(metadata i32 %32, metadata !4155, metadata !DIExpression()), !dbg !4200
  %33 = getelementptr inbounds i8, i8* %26, i32 1, !dbg !4234
  call void @llvm.dbg.value(metadata i8* %33, metadata !4153, metadata !DIExpression()), !dbg !4200
  store i8* %33, i8** %6, align 4, !dbg !4234, !tbaa !4201
  call void @llvm.dbg.value(metadata i32 1, metadata !4158, metadata !DIExpression()), !dbg !4200
  br label %43, !dbg !4235

34:                                               ; preds = %24
  %35 = or i32 %25, 4, !dbg !4236
  call void @llvm.dbg.value(metadata i32 %35, metadata !4155, metadata !DIExpression()), !dbg !4200
  %36 = getelementptr inbounds i8, i8* %26, i32 1, !dbg !4237
  call void @llvm.dbg.value(metadata i8* %36, metadata !4153, metadata !DIExpression()), !dbg !4200
  store i8* %36, i8** %6, align 4, !dbg !4237, !tbaa !4201
  call void @llvm.dbg.value(metadata i32 1, metadata !4158, metadata !DIExpression()), !dbg !4200
  br label %43, !dbg !4238

37:                                               ; preds = %24
  %38 = or i32 %25, 8, !dbg !4239
  call void @llvm.dbg.value(metadata i32 %38, metadata !4155, metadata !DIExpression()), !dbg !4200
  %39 = getelementptr inbounds i8, i8* %26, i32 1, !dbg !4240
  call void @llvm.dbg.value(metadata i8* %39, metadata !4153, metadata !DIExpression()), !dbg !4200
  store i8* %39, i8** %6, align 4, !dbg !4240, !tbaa !4201
  call void @llvm.dbg.value(metadata i32 1, metadata !4158, metadata !DIExpression()), !dbg !4200
  br label %43, !dbg !4241

40:                                               ; preds = %24
  %41 = or i32 %25, 16, !dbg !4242
  call void @llvm.dbg.value(metadata i32 %41, metadata !4155, metadata !DIExpression()), !dbg !4200
  %42 = getelementptr inbounds i8, i8* %26, i32 1, !dbg !4243
  call void @llvm.dbg.value(metadata i8* %42, metadata !4153, metadata !DIExpression()), !dbg !4200
  store i8* %42, i8** %6, align 4, !dbg !4243, !tbaa !4201
  call void @llvm.dbg.value(metadata i32 1, metadata !4158, metadata !DIExpression()), !dbg !4200
  br label %43, !dbg !4244

43:                                               ; preds = %24, %28, %31, %34, %37, %40
  %44 = phi i1 [ false, %28 ], [ false, %31 ], [ false, %34 ], [ false, %37 ], [ false, %40 ], [ true, %24 ], !dbg !4245
  %45 = phi i32 [ %29, %28 ], [ %32, %31 ], [ %35, %34 ], [ %38, %37 ], [ %41, %40 ], [ %25, %24 ], !dbg !4246
  call void @llvm.dbg.value(metadata i32 %45, metadata !4155, metadata !DIExpression()), !dbg !4200
  call void @llvm.dbg.value(metadata i32 undef, metadata !4158, metadata !DIExpression()), !dbg !4200
  br i1 %44, label %46, label %24, !dbg !4247, !llvm.loop !4248

46:                                               ; preds = %43
  call void @llvm.dbg.value(metadata i32 0, metadata !4156, metadata !DIExpression()), !dbg !4200
  %47 = load i8*, i8** %6, align 4, !dbg !4250, !tbaa !4201
  call void @llvm.dbg.value(metadata i8* %47, metadata !4153, metadata !DIExpression()), !dbg !4200
  %48 = load i8, i8* %47, align 1, !dbg !4251, !tbaa !4211
  %49 = call fastcc zeroext i1 @_is_digit(i8 noundef zeroext %48), !dbg !4252
  br i1 %49, label %50, label %52, !dbg !4253

50:                                               ; preds = %46
  call void @llvm.dbg.value(metadata i8** %6, metadata !4153, metadata !DIExpression(DW_OP_deref)), !dbg !4200
  %51 = call fastcc i32 @_atoi(i8** noundef nonnull %6), !dbg !4254
  call void @llvm.dbg.value(metadata i32 %51, metadata !4156, metadata !DIExpression()), !dbg !4200
  br label %64, !dbg !4256

52:                                               ; preds = %46
  call void @llvm.dbg.value(metadata i8* %47, metadata !4153, metadata !DIExpression()), !dbg !4200
  %53 = icmp eq i8 %48, 42, !dbg !4257
  br i1 %53, label %54, label %64, !dbg !4258

54:                                               ; preds = %52
  %55 = getelementptr inbounds i8, i8* %13, i32 4, !dbg !4259
  call void @llvm.dbg.value(metadata i8* %55, metadata !4154, metadata !DIExpression()), !dbg !4200
  %56 = bitcast i8* %13 to i32*, !dbg !4259
  %57 = load i32, i32* %56, align 4, !dbg !4259
  call void @llvm.dbg.value(metadata i32 %57, metadata !4160, metadata !DIExpression()), !dbg !4260
  %58 = icmp slt i32 %57, 0, !dbg !4261
  %59 = or i32 %45, 2, !dbg !4263
  %60 = sub nsw i32 0, %57, !dbg !4263
  %61 = select i1 %58, i32 %60, i32 %57, !dbg !4263
  %62 = select i1 %58, i32 %59, i32 %45, !dbg !4263
  call void @llvm.dbg.value(metadata i32 %62, metadata !4155, metadata !DIExpression()), !dbg !4200
  call void @llvm.dbg.value(metadata i32 %61, metadata !4156, metadata !DIExpression()), !dbg !4200
  call void @llvm.dbg.value(metadata i8* %47, metadata !4153, metadata !DIExpression()), !dbg !4200
  %63 = getelementptr inbounds i8, i8* %47, i32 1, !dbg !4264
  call void @llvm.dbg.value(metadata i8* %63, metadata !4153, metadata !DIExpression()), !dbg !4200
  store i8* %63, i8** %6, align 4, !dbg !4264, !tbaa !4201
  br label %64, !dbg !4265

64:                                               ; preds = %52, %54, %50
  %65 = phi i32 [ %51, %50 ], [ %61, %54 ], [ 0, %52 ], !dbg !4246
  %66 = phi i32 [ %45, %50 ], [ %62, %54 ], [ %45, %52 ], !dbg !4246
  %67 = phi i8* [ %13, %50 ], [ %55, %54 ], [ %13, %52 ]
  call void @llvm.dbg.value(metadata i8* %67, metadata !4154, metadata !DIExpression()), !dbg !4200
  call void @llvm.dbg.value(metadata i32 %66, metadata !4155, metadata !DIExpression()), !dbg !4200
  call void @llvm.dbg.value(metadata i32 %65, metadata !4156, metadata !DIExpression()), !dbg !4200
  call void @llvm.dbg.value(metadata i32 0, metadata !4157, metadata !DIExpression()), !dbg !4200
  %68 = load i8*, i8** %6, align 4, !dbg !4266, !tbaa !4201
  call void @llvm.dbg.value(metadata i8* %68, metadata !4153, metadata !DIExpression()), !dbg !4200
  %69 = load i8, i8* %68, align 1, !dbg !4267, !tbaa !4211
  %70 = icmp eq i8 %69, 46, !dbg !4268
  br i1 %70, label %71, label %87, !dbg !4269

71:                                               ; preds = %64
  %72 = or i32 %66, 1024, !dbg !4270
  call void @llvm.dbg.value(metadata i32 %72, metadata !4155, metadata !DIExpression()), !dbg !4200
  %73 = getelementptr inbounds i8, i8* %68, i32 1, !dbg !4271
  call void @llvm.dbg.value(metadata i8* %73, metadata !4153, metadata !DIExpression()), !dbg !4200
  store i8* %73, i8** %6, align 4, !dbg !4271, !tbaa !4201
  %74 = load i8, i8* %73, align 1, !dbg !4272, !tbaa !4211
  %75 = call fastcc zeroext i1 @_is_digit(i8 noundef zeroext %74), !dbg !4273
  br i1 %75, label %76, label %78, !dbg !4274

76:                                               ; preds = %71
  call void @llvm.dbg.value(metadata i8** %6, metadata !4153, metadata !DIExpression(DW_OP_deref)), !dbg !4200
  %77 = call fastcc i32 @_atoi(i8** noundef nonnull %6), !dbg !4275
  call void @llvm.dbg.value(metadata i32 %77, metadata !4157, metadata !DIExpression()), !dbg !4200
  br label %87, !dbg !4277

78:                                               ; preds = %71
  call void @llvm.dbg.value(metadata i8* %73, metadata !4153, metadata !DIExpression()), !dbg !4200
  %79 = icmp eq i8 %74, 42, !dbg !4278
  br i1 %79, label %80, label %87, !dbg !4279

80:                                               ; preds = %78
  %81 = getelementptr inbounds i8, i8* %67, i32 4, !dbg !4280
  call void @llvm.dbg.value(metadata i8* %81, metadata !4154, metadata !DIExpression()), !dbg !4200
  %82 = bitcast i8* %67 to i32*, !dbg !4280
  %83 = load i32, i32* %82, align 4, !dbg !4280
  call void @llvm.dbg.value(metadata i32 %83, metadata !4165, metadata !DIExpression()), !dbg !4281
  %84 = icmp sgt i32 %83, 0, !dbg !4282
  %85 = select i1 %84, i32 %83, i32 0, !dbg !4283
  call void @llvm.dbg.value(metadata i32 %85, metadata !4157, metadata !DIExpression()), !dbg !4200
  %86 = getelementptr inbounds i8, i8* %68, i32 2, !dbg !4284
  call void @llvm.dbg.value(metadata i8* %86, metadata !4153, metadata !DIExpression()), !dbg !4200
  store i8* %86, i8** %6, align 4, !dbg !4284, !tbaa !4201
  br label %87, !dbg !4285

87:                                               ; preds = %76, %80, %78, %64
  %88 = phi i32 [ %77, %76 ], [ %85, %80 ], [ 0, %78 ], [ 0, %64 ], !dbg !4246
  %89 = phi i32 [ %72, %76 ], [ %72, %80 ], [ %72, %78 ], [ %66, %64 ], !dbg !4246
  %90 = phi i8* [ %67, %76 ], [ %81, %80 ], [ %67, %78 ], [ %67, %64 ]
  call void @llvm.dbg.value(metadata i8* %90, metadata !4154, metadata !DIExpression()), !dbg !4200
  call void @llvm.dbg.value(metadata i32 %89, metadata !4155, metadata !DIExpression()), !dbg !4200
  call void @llvm.dbg.value(metadata i32 %88, metadata !4157, metadata !DIExpression()), !dbg !4200
  %91 = load i8*, i8** %6, align 4, !dbg !4286, !tbaa !4201
  call void @llvm.dbg.value(metadata i8* %91, metadata !4153, metadata !DIExpression()), !dbg !4200
  %92 = load i8, i8* %91, align 1, !dbg !4287, !tbaa !4211
  %93 = zext i8 %92 to i32, !dbg !4287
  %94 = add nsw i32 %93, -104, !dbg !4288
  %95 = call i32 @llvm.fshl.i32(i32 %94, i32 %94, i32 31), !dbg !4288
  switch i32 %95, label %121 [
    i32 2, label %96
    i32 0, label %104
    i32 6, label %112
    i32 1, label %115
    i32 9, label %118
  ], !dbg !4288

96:                                               ; preds = %87
  %97 = or i32 %89, 256, !dbg !4289
  call void @llvm.dbg.value(metadata i32 %97, metadata !4155, metadata !DIExpression()), !dbg !4200
  %98 = getelementptr inbounds i8, i8* %91, i32 1, !dbg !4291
  call void @llvm.dbg.value(metadata i8* %98, metadata !4153, metadata !DIExpression()), !dbg !4200
  store i8* %98, i8** %6, align 4, !dbg !4291, !tbaa !4201
  %99 = load i8, i8* %98, align 1, !dbg !4292, !tbaa !4211
  %100 = icmp eq i8 %99, 108, !dbg !4294
  br i1 %100, label %101, label %121, !dbg !4295

101:                                              ; preds = %96
  %102 = or i32 %89, 768, !dbg !4296
  call void @llvm.dbg.value(metadata i32 %102, metadata !4155, metadata !DIExpression()), !dbg !4200
  %103 = getelementptr inbounds i8, i8* %91, i32 2, !dbg !4298
  call void @llvm.dbg.value(metadata i8* %103, metadata !4153, metadata !DIExpression()), !dbg !4200
  store i8* %103, i8** %6, align 4, !dbg !4298, !tbaa !4201
  br label %121, !dbg !4299

104:                                              ; preds = %87
  %105 = or i32 %89, 128, !dbg !4300
  call void @llvm.dbg.value(metadata i32 %105, metadata !4155, metadata !DIExpression()), !dbg !4200
  %106 = getelementptr inbounds i8, i8* %91, i32 1, !dbg !4301
  call void @llvm.dbg.value(metadata i8* %106, metadata !4153, metadata !DIExpression()), !dbg !4200
  store i8* %106, i8** %6, align 4, !dbg !4301, !tbaa !4201
  %107 = load i8, i8* %106, align 1, !dbg !4302, !tbaa !4211
  %108 = icmp eq i8 %107, 104, !dbg !4304
  br i1 %108, label %109, label %121, !dbg !4305

109:                                              ; preds = %104
  %110 = or i32 %89, 192, !dbg !4306
  call void @llvm.dbg.value(metadata i32 %110, metadata !4155, metadata !DIExpression()), !dbg !4200
  %111 = getelementptr inbounds i8, i8* %91, i32 2, !dbg !4308
  call void @llvm.dbg.value(metadata i8* %111, metadata !4153, metadata !DIExpression()), !dbg !4200
  store i8* %111, i8** %6, align 4, !dbg !4308, !tbaa !4201
  br label %121, !dbg !4309

112:                                              ; preds = %87
  %113 = or i32 %89, 256, !dbg !4310
  call void @llvm.dbg.value(metadata i32 %113, metadata !4155, metadata !DIExpression()), !dbg !4200
  %114 = getelementptr inbounds i8, i8* %91, i32 1, !dbg !4311
  call void @llvm.dbg.value(metadata i8* %114, metadata !4153, metadata !DIExpression()), !dbg !4200
  store i8* %114, i8** %6, align 4, !dbg !4311, !tbaa !4201
  br label %121, !dbg !4312

115:                                              ; preds = %87
  %116 = or i32 %89, 512, !dbg !4313
  call void @llvm.dbg.value(metadata i32 %116, metadata !4155, metadata !DIExpression()), !dbg !4200
  %117 = getelementptr inbounds i8, i8* %91, i32 1, !dbg !4314
  call void @llvm.dbg.value(metadata i8* %117, metadata !4153, metadata !DIExpression()), !dbg !4200
  store i8* %117, i8** %6, align 4, !dbg !4314, !tbaa !4201
  br label %121, !dbg !4315

