; ModuleID = './examples/dualport_freertos.elf.bc'
source_filename = "llvm-link"
target datalayout = "e-m:e-p:32:32-Fi8-i64:64-v128:64:128-a:0:32-n32-S64"
target triple = "thumbv7m-none-unknown-eabi"

%struct.xSTATIC_TCB = type { i8*, [2 x %struct.xSTATIC_LIST_ITEM], i32, i8*, [16 x i8], i32, i8 }
%struct.xSTATIC_LIST_ITEM = type { i32, [4 x i8*] }
%"class.Cicada::Stm32Uart" = type { %"class.Cicada::BufferedSerial", i8, %struct.__UART_HandleTypeDef, %struct.USART_TypeDef*, i16, i16, i32 }
%"class.Cicada::BufferedSerial" = type { %"class.Cicada::IBufferedSerial", %"class.Cicada::LineCircularBuffer", %"class.Cicada::LineCircularBuffer" }
%"class.Cicada::IBufferedSerial" = type { %"class.Cicada::ICommDevice", %"class.Cicada::ICommDevice" }
%"class.Cicada::ICommDevice" = type { i32 (...)** }
%"class.Cicada::LineCircularBuffer" = type { %"class.Cicada::CircularBuffer.base", i16, [2 x i8] }
%"class.Cicada::CircularBuffer.base" = type <{ i32 (...)**, [4 x i8], i64, i64, i64, i64, i8* }>
%struct.__UART_HandleTypeDef = type { %struct.USART_TypeDef*, %struct.USART_TypeDef, i8*, i16, i16, i8*, i16, i16, %struct.__DMA_HandleTypeDef*, %struct.__DMA_HandleTypeDef*, i32, i32, i32, i32 }
%struct.USART_TypeDef = type { i32, i32, i32, i32, i32, i32, i32 }
%struct.__DMA_HandleTypeDef = type { %struct.DMA_Channel_TypeDef*, %struct.USART_TypeDef, i32, i32, i8*, void (%struct.__DMA_HandleTypeDef*)*, void (%struct.__DMA_HandleTypeDef*)*, void (%struct.__DMA_HandleTypeDef*)*, void (%struct.__DMA_HandleTypeDef*)*, i32, %struct.DMA_TypeDef*, i32 }
%struct.DMA_Channel_TypeDef = type { i32, i32, i32, i32 }
%struct.DMA_TypeDef = type { i32, i32 }
%struct.tskTaskControlBlock = type { i32*, %struct.xLIST_ITEM, %struct.xLIST_ITEM, i32, i32*, [16 x i8], i32, i8 }
%struct.xLIST_ITEM = type { i32, %struct.xLIST_ITEM*, %struct.xLIST_ITEM*, i8*, i8* }
%struct.xLIST = type { i32, %struct.xLIST_ITEM*, %struct.xMINI_LIST_ITEM }
%struct.xMINI_LIST_ITEM = type { i32, %struct.xLIST_ITEM*, %struct.xLIST_ITEM* }
%struct.RCC_OscInitTypeDef = type { i32, i32, i32, i32, i32, i32, i32, %struct.RCC_PLLInitTypeDef }
%struct.RCC_PLLInitTypeDef = type { i32, i32, i32 }
%struct.RCC_ClkInitTypeDef = type { i32, i32, i32, i32, i32 }
%struct.__va_list = type { i8* }
%struct.out_fct_wrap_type = type { void (i8, i8*)*, i8* }
%struct.xMEMORY_REGION = type { i8*, i32, i32 }
%"class.Cicada::CircularBuffer" = type <{ i32 (...)**, [4 x i8], i64, i64, i64, i64, i8*, [4 x i8] }>

$_ZN6Cicada14BufferedSerialD2Ev = comdat any

$_ZN6Cicada14BufferedSerialD0Ev = comdat any

$_ZThn4_N6Cicada14BufferedSerialD1Ev = comdat any

$_ZThn4_N6Cicada14BufferedSerialD0Ev = comdat any

$_ZNK6Cicada14CircularBufferIcE4sizeEv = comdat any

$_ZN6Cicada18LineCircularBuffer5flushEv = comdat any

$_ZN6Cicada14CircularBufferIcE5flushEv = comdat any

$_ZNK6Cicada18LineCircularBuffer16numBufferedLinesEv = comdat any

$_ZN6Cicada18LineCircularBuffer4pushEc = comdat any

$_ZN6Cicada14CircularBufferIcE4pushEc = comdat any

$_ZN6Cicada14CircularBufferIcE20incrementOrResetHeadERy = comdat any

$_ZN6Cicada18LineCircularBuffer4pullEv = comdat any

$_ZN6Cicada14CircularBufferIcE4pullEv = comdat any

$_ZNK6Cicada14CircularBufferIcE14spaceAvailableEv = comdat any

$_ZNK6Cicada14CircularBufferIcE14bytesAvailableEv = comdat any

$_ZN6Cicada14CircularBufferIcED2Ev = comdat any

$_ZN6Cicada15IBufferedSerialD2Ev = comdat any

$_ZN6Cicada7ISerialD2Ev = comdat any

$_ZN6Cicada11ICommDeviceD2Ev = comdat any

$_ZN6Cicada15IBufferedSerialC2Ev = comdat any

$_ZN6Cicada18LineCircularBufferC2EPcy = comdat any

$_ZN6Cicada14CircularBufferIcEC2EPcy = comdat any

$_ZN6Cicada18LineCircularBufferD0Ev = comdat any

$_ZN6Cicada18LineCircularBuffer4pushEPKcy = comdat any

$_ZN6Cicada18LineCircularBuffer4pullEPcy = comdat any

$_ZN6Cicada14CircularBufferIcE4readEv = comdat any

$_ZNK6Cicada14CircularBufferIcE7isEmptyEv = comdat any

$_ZNK6Cicada14CircularBufferIcE6isFullEv = comdat any

$_ZN6Cicada14CircularBufferIcED0Ev = comdat any

$_ZN6Cicada14CircularBufferIcE4pushEPKcy = comdat any

$_ZN6Cicada14CircularBufferIcE4pullEPcy = comdat any

$_ZN6Cicada11ICommDeviceC2Ev = comdat any

$_ZN6Cicada7ISerialC2Ev = comdat any

$_ZN6Cicada15IBufferedSerialD0Ev = comdat any

$_ZThn4_N6Cicada15IBufferedSerialD1Ev = comdat any

$_ZThn4_N6Cicada15IBufferedSerialD0Ev = comdat any

$_ZN6Cicada7ISerialD0Ev = comdat any

$_ZN6Cicada11ICommDeviceD0Ev = comdat any

$_ZTSN6Cicada15IBufferedSerialE = comdat any

$_ZTSN6Cicada11ICommDeviceE = comdat any

$_ZTIN6Cicada11ICommDeviceE = comdat any

$_ZTSN6Cicada7ISerialE = comdat any

$_ZTIN6Cicada7ISerialE = comdat any

$_ZTIN6Cicada15IBufferedSerialE = comdat any

$_ZTVN6Cicada15IBufferedSerialE = comdat any

$_ZTVN6Cicada11ICommDeviceE = comdat any

$_ZTVN6Cicada7ISerialE = comdat any

$_ZTVN6Cicada18LineCircularBufferE = comdat any

$_ZTSN6Cicada18LineCircularBufferE = comdat any

$_ZTSN6Cicada14CircularBufferIcEE = comdat any

$_ZTIN6Cicada14CircularBufferIcEE = comdat any

$_ZTIN6Cicada18LineCircularBufferE = comdat any

$_ZTVN6Cicada14CircularBufferIcEE = comdat any

@xStack = dso_local global [2048 x i32] zeroinitializer, align 4, !dbg !0
@xTaskBuffer = dso_local global %struct.xSTATIC_TCB zeroinitializer, align 4, !dbg !47
@.str = private unnamed_addr constant [5 x i8] c"AT\0D\0A\00", align 1
@.str.1 = private unnamed_addr constant [20 x i8] c"Sending command: %s\00", align 1
@.str.2 = private unnamed_addr constant [19 x i8] c"%d bytes written\0D\0A\00", align 1
@.str.3 = private unnamed_addr constant [20 x i8] c"%d bytes received\0D\0A\00", align 1
@.str.4 = private unnamed_addr constant [21 x i8] c"Received message: %s\00", align 1
@.str.5 = private unnamed_addr constant [11 x i8] c"serialTask\00", align 1
@_ZZ29vApplicationGetIdleTaskMemoryE12xIdleTaskTCB = internal global %struct.xSTATIC_TCB zeroinitializer, align 4, !dbg !76
@_ZZ29vApplicationGetIdleTaskMemoryE15uxIdleTaskStack = internal global [128 x i32] zeroinitializer, align 4, !dbg !91
@_ZZ17USART1_IRQHandlerE8instance = internal unnamed_addr global %"class.Cicada::Stm32Uart"* null, align 4, !dbg !96
@_ZGVZ17USART1_IRQHandlerE8instance = internal global i32 0, align 4
@_ZZ17USART2_IRQHandlerE8instance = internal unnamed_addr global %"class.Cicada::Stm32Uart"* null, align 4, !dbg !106
@_ZGVZ17USART2_IRQHandlerE8instance = internal global i32 0, align 4
@_ZZ8_putcharE6serial = internal unnamed_addr global %"class.Cicada::Stm32Uart"* null, align 4, !dbg !109
@_ftoa.pow10 = internal unnamed_addr constant [10 x double] [double 1.000000e+00, double 1.000000e+01, double 1.000000e+02, double 1.000000e+03, double 1.000000e+04, double 1.000000e+05, double 1.000000e+06, double 1.000000e+07, double 1.000000e+08, double 1.000000e+09], align 8, !dbg !200
@AHBPrescTable = dso_local local_unnamed_addr constant [16 x i8] c"\00\00\00\00\00\00\00\00\01\02\03\04\06\07\08\09", align 1, !dbg !262
@__const.HAL_RCC_GetSysClockFreq.aPLLMULFactorTable = private unnamed_addr constant [16 x i8] c"\02\03\04\05\06\07\08\09\0A\0B\0C\0D\0E\0F\10\10", align 1
@__const.HAL_RCC_GetSysClockFreq.aPredivFactorTable = private unnamed_addr constant [2 x i8] c"\01\02", align 1
@APBPrescTable = dso_local local_unnamed_addr constant [8 x i8] c"\00\00\00\00\01\02\03\04", align 1, !dbg !327
@uwTickPrio = dso_local local_unnamed_addr global i32 16, align 4, !dbg !333
@uwTickFreq = dso_local local_unnamed_addr global i32 1, align 4, !dbg !448
@uwTick = dso_local global i32 0, align 4, !dbg !451
@ucMaxSysCallPriority = internal unnamed_addr global i8 0, align 1, !dbg !453
@ulMaxPRIGROUPValue = internal unnamed_addr global i32 0, align 4, !dbg !468
@uxCriticalNesting = internal unnamed_addr global i32 -1431655766, align 4, !dbg !470
@SystemCoreClock = dso_local local_unnamed_addr global i32 16000000, align 4, !dbg !325
@pxCurrentTCB = dso_local global %struct.tskTaskControlBlock* null, align 4, !dbg !472
@uxSchedulerSuspended = internal global i32 0, align 4, !dbg !534
@.str.27 = private unnamed_addr constant [5 x i8] c"IDLE\00", align 1
@xIdleTaskHandle = internal unnamed_addr global i8* null, align 4, !dbg !536
@xNextTaskUnblockTime = internal global i32 0, align 4, !dbg !538
@xSchedulerRunning = internal global i32 0, align 4, !dbg !541
@xTickCount = internal global i32 0, align 4, !dbg !544
@uxCurrentNumberOfTasks = internal global i32 0, align 4, !dbg !546
@xPendingReadyList = internal global %struct.xLIST zeroinitializer, align 4, !dbg !548
@uxTopReadyPriority = internal global i32 0, align 4, !dbg !550
@pxReadyTasksLists = internal global [7 x %struct.xLIST] zeroinitializer, align 4, !dbg !552
@xYieldPending = internal global i32 0, align 4, !dbg !557
@uxPendedTicks = internal global i32 0, align 4, !dbg !559
@pxDelayedTaskList = internal global %struct.xLIST* null, align 4, !dbg !561
@pxOverflowDelayedTaskList = internal global %struct.xLIST* null, align 4, !dbg !565
@xNumOfOverflows = internal global i32 0, align 4, !dbg !567
@uxTaskNumber = internal unnamed_addr global i32 0, align 4, !dbg !532
@xDelayedTaskList1 = internal global %struct.xLIST zeroinitializer, align 4, !dbg !514
@xDelayedTaskList2 = internal global %struct.xLIST zeroinitializer, align 4, !dbg !530
@_ZTVN6Cicada14BufferedSerialE = dso_local unnamed_addr constant { [17 x i8*], [12 x i8*] } { [17 x i8*] [i8* null, i8* bitcast ({ i8*, i8*, i8* }* @_ZTIN6Cicada14BufferedSerialE to i8*), i8* bitcast (%"class.Cicada::BufferedSerial"* (%"class.Cicada::BufferedSerial"*)* @_ZN6Cicada14BufferedSerialD2Ev to i8*), i8* bitcast (void (%"class.Cicada::BufferedSerial"*)* @_ZN6Cicada14BufferedSerialD0Ev to i8*), i8* bitcast (i64 (%"class.Cicada::BufferedSerial"*)* @_ZNK6Cicada14BufferedSerial14bytesAvailableEv to i8*), i8* bitcast (i64 (%"class.Cicada::BufferedSerial"*)* @_ZNK6Cicada14BufferedSerial14spaceAvailableEv to i8*), i8* bitcast (void ()* @__cxa_pure_virtual to i8*), i8* bitcast (i64 (%"class.Cicada::BufferedSerial"*, i8*, i64)* @_ZN6Cicada14BufferedSerial4readEPhy to i8*), i8* bitcast (i64 (%"class.Cicada::BufferedSerial"*, i8*, i64)* @_ZN6Cicada14BufferedSerial5writeEPKhy to i8*), i8* bitcast (i8 (%"class.Cicada::BufferedSerial"*)* @_ZN6Cicada14BufferedSerial4readEv to i8*), i8* bitcast (i64 (%"class.Cicada::BufferedSerial"*, i8*)* @_ZN6Cicada14BufferedSerial5writeEPKh to i8*), i8* bitcast (void (%"class.Cicada::BufferedSerial"*, i8)* @_ZN6Cicada14BufferedSerial5writeEh to i8*), i8* bitcast (i1 (%"class.Cicada::BufferedSerial"*)* @_ZNK6Cicada14BufferedSerial11canReadLineEv to i8*), i8* bitcast (i64 (%"class.Cicada::BufferedSerial"*, i8*, i64)* @_ZN6Cicada14BufferedSerial8readLineEPhy to i8*), i8* bitcast (void (%"class.Cicada::BufferedSerial"*)* @_ZN6Cicada14BufferedSerial19flushReceiveBuffersEv to i8*), i8* bitcast (i64 (%"class.Cicada::BufferedSerial"*)* @_ZN6Cicada14BufferedSerial14readBufferSizeEv to i8*), i8* bitcast (i64 (%"class.Cicada::BufferedSerial"*)* @_ZN6Cicada14BufferedSerial15writeBufferSizeEv to i8*)], [12 x i8*] [i8* inttoptr (i32 -4 to i8*), i8* bitcast ({ i8*, i8*, i8* }* @_ZTIN6Cicada14BufferedSerialE to i8*), i8* bitcast (%"class.Cicada::BufferedSerial"* (%"class.Cicada::BufferedSerial"*)* @_ZThn4_N6Cicada14BufferedSerialD1Ev to i8*), i8* bitcast (void (%"class.Cicada::BufferedSerial"*)* @_ZThn4_N6Cicada14BufferedSerialD0Ev to i8*), i8* bitcast (void ()* @__cxa_pure_virtual to i8*), i8* bitcast (void ()* @__cxa_pure_virtual to i8*), i8* bitcast (void ()* @__cxa_pure_virtual to i8*), i8* bitcast (void ()* @__cxa_pure_virtual to i8*), i8* bitcast (void ()* @__cxa_pure_virtual to i8*), i8* bitcast (void ()* @__cxa_pure_virtual to i8*), i8* bitcast (void ()* @__cxa_pure_virtual to i8*), i8* bitcast (void ()* @__cxa_pure_virtual to i8*)] }, align 4
@_ZTSN6Cicada14BufferedSerialE = dso_local constant [26 x i8] c"N6Cicada14BufferedSerialE\00", align 1
@_ZTVN10__cxxabiv121__vmi_class_type_infoE = external dso_local global i8*
@_ZTSN6Cicada15IBufferedSerialE = linkonce_odr dso_local constant [27 x i8] c"N6Cicada15IBufferedSerialE\00", comdat, align 1
@_ZTVN10__cxxabiv117__class_type_infoE = external dso_local global i8*
@_ZTSN6Cicada11ICommDeviceE = linkonce_odr dso_local constant [23 x i8] c"N6Cicada11ICommDeviceE\00", comdat, align 1
@_ZTIN6Cicada11ICommDeviceE = linkonce_odr dso_local constant { i8*, i8* } { i8* bitcast (i8** getelementptr inbounds (i8*, i8** @_ZTVN10__cxxabiv117__class_type_infoE, i32 2) to i8*), i8* getelementptr inbounds ([23 x i8], [23 x i8]* @_ZTSN6Cicada11ICommDeviceE, i32 0, i32 0) }, comdat, align 4
@_ZTSN6Cicada7ISerialE = linkonce_odr dso_local constant [18 x i8] c"N6Cicada7ISerialE\00", comdat, align 1
@_ZTIN6Cicada7ISerialE = linkonce_odr dso_local constant { i8*, i8* } { i8* bitcast (i8** getelementptr inbounds (i8*, i8** @_ZTVN10__cxxabiv117__class_type_infoE, i32 2) to i8*), i8* getelementptr inbounds ([18 x i8], [18 x i8]* @_ZTSN6Cicada7ISerialE, i32 0, i32 0) }, comdat, align 4
@_ZTIN6Cicada15IBufferedSerialE = linkonce_odr dso_local constant { i8*, i8*, i32, i32, i8*, i32, i8*, i32 } { i8* bitcast (i8** getelementptr inbounds (i8*, i8** @_ZTVN10__cxxabiv121__vmi_class_type_infoE, i32 2) to i8*), i8* getelementptr inbounds ([27 x i8], [27 x i8]* @_ZTSN6Cicada15IBufferedSerialE, i32 0, i32 0), i32 0, i32 2, i8* bitcast ({ i8*, i8* }* @_ZTIN6Cicada11ICommDeviceE to i8*), i32 2, i8* bitcast ({ i8*, i8* }* @_ZTIN6Cicada7ISerialE to i8*), i32 1026 }, comdat, align 4
@_ZTVN6Cicada15IBufferedSerialE = linkonce_odr dso_local unnamed_addr constant { [17 x i8*], [12 x i8*] } { [17 x i8*] [i8* null, i8* bitcast ({ i8*, i8*, i32, i32, i8*, i32, i8*, i32 }* @_ZTIN6Cicada15IBufferedSerialE to i8*), i8* bitcast (%"class.Cicada::IBufferedSerial"* (%"class.Cicada::IBufferedSerial"*)* @_ZN6Cicada15IBufferedSerialD2Ev to i8*), i8* bitcast (void (%"class.Cicada::IBufferedSerial"*)* @_ZN6Cicada15IBufferedSerialD0Ev to i8*), i8* bitcast (void ()* @__cxa_pure_virtual to i8*), i8* bitcast (void ()* @__cxa_pure_virtual to i8*), i8* bitcast (void ()* @__cxa_pure_virtual to i8*), i8* bitcast (void ()* @__cxa_pure_virtual to i8*), i8* bitcast (void ()* @__cxa_pure_virtual to i8*), i8* bitcast (void ()* @__cxa_pure_virtual to i8*), i8* bitcast (void ()* @__cxa_pure_virtual to i8*), i8* bitcast (void ()* @__cxa_pure_virtual to i8*), i8* bitcast (void ()* @__cxa_pure_virtual to i8*), i8* bitcast (void ()* @__cxa_pure_virtual to i8*), i8* bitcast (void ()* @__cxa_pure_virtual to i8*), i8* bitcast (void ()* @__cxa_pure_virtual to i8*), i8* bitcast (void ()* @__cxa_pure_virtual to i8*)], [12 x i8*] [i8* inttoptr (i32 -4 to i8*), i8* bitcast ({ i8*, i8*, i32, i32, i8*, i32, i8*, i32 }* @_ZTIN6Cicada15IBufferedSerialE to i8*), i8* bitcast (%"class.Cicada::IBufferedSerial"* (%"class.Cicada::IBufferedSerial"*)* @_ZThn4_N6Cicada15IBufferedSerialD1Ev to i8*), i8* bitcast (void (%"class.Cicada::IBufferedSerial"*)* @_ZThn4_N6Cicada15IBufferedSerialD0Ev to i8*), i8* bitcast (void ()* @__cxa_pure_virtual to i8*), i8* bitcast (void ()* @__cxa_pure_virtual to i8*), i8* bitcast (void ()* @__cxa_pure_virtual to i8*), i8* bitcast (void ()* @__cxa_pure_virtual to i8*), i8* bitcast (void ()* @__cxa_pure_virtual to i8*), i8* bitcast (void ()* @__cxa_pure_virtual to i8*), i8* bitcast (void ()* @__cxa_pure_virtual to i8*), i8* bitcast (void ()* @__cxa_pure_virtual to i8*)] }, comdat, align 4
@_ZTVN6Cicada11ICommDeviceE = linkonce_odr dso_local unnamed_addr constant { [9 x i8*] } { [9 x i8*] [i8* null, i8* bitcast ({ i8*, i8* }* @_ZTIN6Cicada11ICommDeviceE to i8*), i8* bitcast (%"class.Cicada::ICommDevice"* (%"class.Cicada::ICommDevice"*)* @_ZN6Cicada11ICommDeviceD2Ev to i8*), i8* bitcast (void (%"class.Cicada::ICommDevice"*)* @_ZN6Cicada11ICommDeviceD0Ev to i8*), i8* bitcast (void ()* @__cxa_pure_virtual to i8*), i8* bitcast (void ()* @__cxa_pure_virtual to i8*), i8* bitcast (void ()* @__cxa_pure_virtual to i8*), i8* bitcast (void ()* @__cxa_pure_virtual to i8*), i8* bitcast (void ()* @__cxa_pure_virtual to i8*)] }, comdat, align 4
@_ZTVN6Cicada7ISerialE = linkonce_odr dso_local unnamed_addr constant { [12 x i8*] } { [12 x i8*] [i8* null, i8* bitcast ({ i8*, i8* }* @_ZTIN6Cicada7ISerialE to i8*), i8* bitcast (%"class.Cicada::ICommDevice"* (%"class.Cicada::ICommDevice"*)* @_ZN6Cicada7ISerialD2Ev to i8*), i8* bitcast (void (%"class.Cicada::ICommDevice"*)* @_ZN6Cicada7ISerialD0Ev to i8*), i8* bitcast (void ()* @__cxa_pure_virtual to i8*), i8* bitcast (void ()* @__cxa_pure_virtual to i8*), i8* bitcast (void ()* @__cxa_pure_virtual to i8*), i8* bitcast (void ()* @__cxa_pure_virtual to i8*), i8* bitcast (void ()* @__cxa_pure_virtual to i8*), i8* bitcast (void ()* @__cxa_pure_virtual to i8*), i8* bitcast (void ()* @__cxa_pure_virtual to i8*), i8* bitcast (void ()* @__cxa_pure_virtual to i8*)] }, comdat, align 4
@_ZTVN6Cicada18LineCircularBufferE = linkonce_odr dso_local unnamed_addr constant { [15 x i8*] } { [15 x i8*] [i8* null, i8* bitcast ({ i8*, i8*, i8* }* @_ZTIN6Cicada18LineCircularBufferE to i8*), i8* bitcast (%"class.Cicada::CircularBuffer"* (%"class.Cicada::CircularBuffer"*)* @_ZN6Cicada14CircularBufferIcED2Ev to i8*), i8* bitcast (void (%"class.Cicada::LineCircularBuffer"*)* @_ZN6Cicada18LineCircularBufferD0Ev to i8*), i8* bitcast (i64 (%"class.Cicada::LineCircularBuffer"*, i8*, i64)* @_ZN6Cicada18LineCircularBuffer4pushEPKcy to i8*), i8* bitcast (void (%"class.Cicada::LineCircularBuffer"*, i8)* @_ZN6Cicada18LineCircularBuffer4pushEc to i8*), i8* bitcast (i64 (%"class.Cicada::LineCircularBuffer"*, i8*, i64)* @_ZN6Cicada18LineCircularBuffer4pullEPcy to i8*), i8* bitcast (i8 (%"class.Cicada::LineCircularBuffer"*)* @_ZN6Cicada18LineCircularBuffer4pullEv to i8*), i8* bitcast (i8 (%"class.Cicada::CircularBuffer"*)* @_ZN6Cicada14CircularBufferIcE4readEv to i8*), i8* bitcast (void (%"class.Cicada::LineCircularBuffer"*)* @_ZN6Cicada18LineCircularBuffer5flushEv to i8*), i8* bitcast (i1 (%"class.Cicada::CircularBuffer"*)* @_ZNK6Cicada14CircularBufferIcE7isEmptyEv to i8*), i8* bitcast (i1 (%"class.Cicada::CircularBuffer"*)* @_ZNK6Cicada14CircularBufferIcE6isFullEv to i8*), i8* bitcast (i64 (%"class.Cicada::CircularBuffer"*)* @_ZNK6Cicada14CircularBufferIcE14bytesAvailableEv to i8*), i8* bitcast (i64 (%"class.Cicada::CircularBuffer"*)* @_ZNK6Cicada14CircularBufferIcE14spaceAvailableEv to i8*), i8* bitcast (i64 (%"class.Cicada::CircularBuffer"*)* @_ZNK6Cicada14CircularBufferIcE4sizeEv to i8*)] }, comdat, align 4
@_ZTSN6Cicada18LineCircularBufferE = linkonce_odr dso_local constant [30 x i8] c"N6Cicada18LineCircularBufferE\00", comdat, align 1
@_ZTSN6Cicada14CircularBufferIcEE = linkonce_odr dso_local constant [29 x i8] c"N6Cicada14CircularBufferIcEE\00", comdat, align 1
@_ZTIN6Cicada14CircularBufferIcEE = linkonce_odr dso_local constant { i8*, i8* } { i8* bitcast (i8** getelementptr inbounds (i8*, i8** @_ZTVN10__cxxabiv117__class_type_infoE, i32 2) to i8*), i8* getelementptr inbounds ([29 x i8], [29 x i8]* @_ZTSN6Cicada14CircularBufferIcEE, i32 0, i32 0) }, comdat, align 4
@_ZTIN6Cicada18LineCircularBufferE = linkonce_odr dso_local constant { i8*, i8*, i8* } { i8* bitcast (i8** getelementptr inbounds (i8*, i8** @_ZTVN10__cxxabiv120__si_class_type_infoE, i32 2) to i8*), i8* getelementptr inbounds ([30 x i8], [30 x i8]* @_ZTSN6Cicada18LineCircularBufferE, i32 0, i32 0), i8* bitcast ({ i8*, i8* }* @_ZTIN6Cicada14CircularBufferIcEE to i8*) }, comdat, align 4
@_ZTVN6Cicada14CircularBufferIcEE = linkonce_odr dso_local unnamed_addr constant { [15 x i8*] } { [15 x i8*] [i8* null, i8* bitcast ({ i8*, i8* }* @_ZTIN6Cicada14CircularBufferIcEE to i8*), i8* bitcast (%"class.Cicada::CircularBuffer"* (%"class.Cicada::CircularBuffer"*)* @_ZN6Cicada14CircularBufferIcED2Ev to i8*), i8* bitcast (void (%"class.Cicada::CircularBuffer"*)* @_ZN6Cicada14CircularBufferIcED0Ev to i8*), i8* bitcast (i64 (%"class.Cicada::CircularBuffer"*, i8*, i64)* @_ZN6Cicada14CircularBufferIcE4pushEPKcy to i8*), i8* bitcast (void (%"class.Cicada::CircularBuffer"*, i8)* @_ZN6Cicada14CircularBufferIcE4pushEc to i8*), i8* bitcast (i64 (%"class.Cicada::CircularBuffer"*, i8*, i64)* @_ZN6Cicada14CircularBufferIcE4pullEPcy to i8*), i8* bitcast (i8 (%"class.Cicada::CircularBuffer"*)* @_ZN6Cicada14CircularBufferIcE4pullEv to i8*), i8* bitcast (i8 (%"class.Cicada::CircularBuffer"*)* @_ZN6Cicada14CircularBufferIcE4readEv to i8*), i8* bitcast (void (%"class.Cicada::CircularBuffer"*)* @_ZN6Cicada14CircularBufferIcE5flushEv to i8*), i8* bitcast (i1 (%"class.Cicada::CircularBuffer"*)* @_ZNK6Cicada14CircularBufferIcE7isEmptyEv to i8*), i8* bitcast (i1 (%"class.Cicada::CircularBuffer"*)* @_ZNK6Cicada14CircularBufferIcE6isFullEv to i8*), i8* bitcast (i64 (%"class.Cicada::CircularBuffer"*)* @_ZNK6Cicada14CircularBufferIcE14bytesAvailableEv to i8*), i8* bitcast (i64 (%"class.Cicada::CircularBuffer"*)* @_ZNK6Cicada14CircularBufferIcE14spaceAvailableEv to i8*), i8* bitcast (i64 (%"class.Cicada::CircularBuffer"*)* @_ZNK6Cicada14CircularBufferIcE4sizeEv to i8*)] }, comdat, align 4
@_ZN6Cicada9Stm32Uart8instanceE = dso_local local_unnamed_addr global [4 x %"class.Cicada::Stm32Uart"*] zeroinitializer, align 4, !dbg !570
@_ZTVN6Cicada9Stm32UartE = dso_local unnamed_addr constant { [26 x i8*], [12 x i8*] } { [26 x i8*] [i8* null, i8* bitcast ({ i8*, i8*, i8* }* @_ZTIN6Cicada9Stm32UartE to i8*), i8* bitcast (%"class.Cicada::Stm32Uart"* (%"class.Cicada::Stm32Uart"*)* @_ZN6Cicada9Stm32UartD2Ev to i8*), i8* bitcast (void (%"class.Cicada::Stm32Uart"*)* @_ZN6Cicada9Stm32UartD0Ev to i8*), i8* bitcast (i64 (%"class.Cicada::BufferedSerial"*)* @_ZNK6Cicada14BufferedSerial14bytesAvailableEv to i8*), i8* bitcast (i64 (%"class.Cicada::BufferedSerial"*)* @_ZNK6Cicada14BufferedSerial14spaceAvailableEv to i8*), i8* bitcast (i1 (%"class.Cicada::Stm32Uart"*)* @_ZNK6Cicada9Stm32Uart20writeBufferProcessedEv to i8*), i8* bitcast (i64 (%"class.Cicada::BufferedSerial"*, i8*, i64)* @_ZN6Cicada14BufferedSerial4readEPhy to i8*), i8* bitcast (i64 (%"class.Cicada::BufferedSerial"*, i8*, i64)* @_ZN6Cicada14BufferedSerial5writeEPKhy to i8*), i8* bitcast (i8 (%"class.Cicada::BufferedSerial"*)* @_ZN6Cicada14BufferedSerial4readEv to i8*), i8* bitcast (i64 (%"class.Cicada::BufferedSerial"*, i8*)* @_ZN6Cicada14BufferedSerial5writeEPKh to i8*), i8* bitcast (void (%"class.Cicada::BufferedSerial"*, i8)* @_ZN6Cicada14BufferedSerial5writeEh to i8*), i8* bitcast (i1 (%"class.Cicada::BufferedSerial"*)* @_ZNK6Cicada14BufferedSerial11canReadLineEv to i8*), i8* bitcast (i64 (%"class.Cicada::BufferedSerial"*, i8*, i64)* @_ZN6Cicada14BufferedSerial8readLineEPhy to i8*), i8* bitcast (void (%"class.Cicada::BufferedSerial"*)* @_ZN6Cicada14BufferedSerial19flushReceiveBuffersEv to i8*), i8* bitcast (i64 (%"class.Cicada::BufferedSerial"*)* @_ZN6Cicada14BufferedSerial14readBufferSizeEv to i8*), i8* bitcast (i64 (%"class.Cicada::BufferedSerial"*)* @_ZN6Cicada14BufferedSerial15writeBufferSizeEv to i8*), i8* bitcast (i1 (%"class.Cicada::Stm32Uart"*)* @_ZN6Cicada9Stm32Uart4openEv to i8*), i8* bitcast (i1 (%"class.Cicada::Stm32Uart"*, i8)* @_ZN6Cicada9Stm32Uart4openEh to i8*), i8* bitcast (i1 (%"class.Cicada::Stm32Uart"*)* @_ZN6Cicada9Stm32Uart6isOpenEv to i8*), i8* bitcast (i1 (%"class.Cicada::Stm32Uart"*, i32, i8)* @_ZN6Cicada9Stm32Uart15setSerialConfigEjh to i8*), i8* bitcast (void (%"class.Cicada::Stm32Uart"*)* @_ZN6Cicada9Stm32Uart5closeEv to i8*), i8* bitcast (i8* (%"class.Cicada::Stm32Uart"*)* @_ZNK6Cicada9Stm32Uart8portNameEv to i8*), i8* bitcast (i1 (%"class.Cicada::Stm32Uart"*, i8*)* @_ZN6Cicada9Stm32Uart7rawReadERh to i8*), i8* bitcast (i1 (%"class.Cicada::Stm32Uart"*, i8)* @_ZN6Cicada9Stm32Uart8rawWriteEh to i8*), i8* bitcast (void (%"class.Cicada::Stm32Uart"*)* @_ZN6Cicada9Stm32Uart13startTransmitEv to i8*)], [12 x i8*] [i8* inttoptr (i32 -4 to i8*), i8* bitcast ({ i8*, i8*, i8* }* @_ZTIN6Cicada9Stm32UartE to i8*), i8* bitcast (%"class.Cicada::Stm32Uart"* (%"class.Cicada::Stm32Uart"*)* @_ZThn4_N6Cicada9Stm32UartD1Ev to i8*), i8* bitcast (void (%"class.Cicada::Stm32Uart"*)* @_ZThn4_N6Cicada9Stm32UartD0Ev to i8*), i8* bitcast (i1 (%"class.Cicada::Stm32Uart"*)* @_ZThn4_N6Cicada9Stm32Uart4openEv to i8*), i8* bitcast (i1 (%"class.Cicada::Stm32Uart"*)* @_ZThn4_N6Cicada9Stm32Uart6isOpenEv to i8*), i8* bitcast (i1 (%"class.Cicada::Stm32Uart"*, i32, i8)* @_ZThn4_N6Cicada9Stm32Uart15setSerialConfigEjh to i8*), i8* bitcast (void (%"class.Cicada::Stm32Uart"*)* @_ZThn4_N6Cicada9Stm32Uart5closeEv to i8*), i8* bitcast (i8* (%"class.Cicada::Stm32Uart"*)* @_ZThn4_NK6Cicada9Stm32Uart8portNameEv to i8*), i8* bitcast (i1 (%"class.Cicada::Stm32Uart"*, i8*)* @_ZThn4_N6Cicada9Stm32Uart7rawReadERh to i8*), i8* bitcast (i1 (%"class.Cicada::Stm32Uart"*, i8)* @_ZThn4_N6Cicada9Stm32Uart8rawWriteEh to i8*), i8* bitcast (void (%"class.Cicada::Stm32Uart"*)* @_ZThn4_N6Cicada9Stm32Uart13startTransmitEv to i8*)] }, align 4
@_ZTVN10__cxxabiv120__si_class_type_infoE = external dso_local global i8*
@_ZTSN6Cicada9Stm32UartE = dso_local constant [20 x i8] c"N6Cicada9Stm32UartE\00", align 1
@_ZTIN6Cicada14BufferedSerialE = dso_local constant { i8*, i8*, i8* } { i8* bitcast (i8** getelementptr inbounds (i8*, i8** @_ZTVN10__cxxabiv120__si_class_type_infoE, i32 2) to i8*), i8* getelementptr inbounds ([26 x i8], [26 x i8]* @_ZTSN6Cicada14BufferedSerialE, i32 0, i32 0), i8* bitcast ({ i8*, i8*, i32, i32, i8*, i32, i8*, i32 }* @_ZTIN6Cicada15IBufferedSerialE to i8*) }, align 4
@_ZTIN6Cicada9Stm32UartE = dso_local constant { i8*, i8*, i8* } { i8* bitcast (i8** getelementptr inbounds (i8*, i8** @_ZTVN10__cxxabiv120__si_class_type_infoE, i32 2) to i8*), i8* getelementptr inbounds ([20 x i8], [20 x i8]* @_ZTSN6Cicada9Stm32UartE, i32 0, i32 0), i8* bitcast ({ i8*, i8*, i8* }* @_ZTIN6Cicada14BufferedSerialE to i8*) }, align 4

@_ZN6Cicada9Stm32UartC1EPcS1_yyP13USART_TypeDefP12GPIO_TypeDeftt = dso_local unnamed_addr alias %"class.Cicada::Stm32Uart"* (%"class.Cicada::Stm32Uart"*, i8*, i8*, i64, i64, %struct.USART_TypeDef*, %struct.USART_TypeDef*, i16, i16), %"class.Cicada::Stm32Uart"* (%"class.Cicada::Stm32Uart"*, i8*, i8*, i64, i64, %struct.USART_TypeDef*, %struct.USART_TypeDef*, i16, i16)* @_ZN6Cicada9Stm32UartC2EPcS1_yyP13USART_TypeDefP12GPIO_TypeDeftt
@_ZN6Cicada9Stm32UartC1EPcS1_yP13USART_TypeDefP12GPIO_TypeDeftt = dso_local unnamed_addr alias %"class.Cicada::Stm32Uart"* (%"class.Cicada::Stm32Uart"*, i8*, i8*, i64, %struct.USART_TypeDef*, %struct.USART_TypeDef*, i16, i16), %"class.Cicada::Stm32Uart"* (%"class.Cicada::Stm32Uart"*, i8*, i8*, i64, %struct.USART_TypeDef*, %struct.USART_TypeDef*, i16, i16)* @_ZN6Cicada9Stm32UartC2EPcS1_yP13USART_TypeDefP12GPIO_TypeDeftt
@_ZN6Cicada9Stm32UartD1Ev = dso_local unnamed_addr alias %"class.Cicada::Stm32Uart"* (%"class.Cicada::Stm32Uart"*), %"class.Cicada::Stm32Uart"* (%"class.Cicada::Stm32Uart"*)* @_ZN6Cicada9Stm32UartD2Ev

; Function Attrs: mustprogress noinline noreturn nounwind
define dso_local void @_Z10serialTaskPv(i8* nocapture readnone %0) #0 !dbg !1307 {
  %2 = alloca [1504 x i8], align 1
  %3 = alloca [1504 x i8], align 1
  %4 = alloca [1504 x i8], align 1
  %5 = alloca [1504 x i8], align 1
  %6 = alloca %"class.Cicada::Stm32Uart", align 8
  %7 = alloca %"class.Cicada::Stm32Uart", align 8
  %8 = alloca [32 x i8], align 1
  call void @llvm.dbg.value(metadata i8* undef, metadata !1311, metadata !DIExpression()), !dbg !1330
  call void @llvm.dbg.value(metadata i16 1504, metadata !1312, metadata !DIExpression()), !dbg !1330
  %9 = getelementptr inbounds [1504 x i8], [1504 x i8]* %2, i32 0, i32 0, !dbg !1331
  call void @llvm.lifetime.start.p0i8(i64 1504, i8* nonnull %9) #27, !dbg !1331
  call void @llvm.dbg.declare(metadata [1504 x i8]* %2, metadata !1314, metadata !DIExpression()), !dbg !1332
  %10 = getelementptr inbounds [1504 x i8], [1504 x i8]* %3, i32 0, i32 0, !dbg !1333
  call void @llvm.lifetime.start.p0i8(i64 1504, i8* nonnull %10) #27, !dbg !1333
  call void @llvm.dbg.declare(metadata [1504 x i8]* %3, metadata !1318, metadata !DIExpression()), !dbg !1334
  %11 = getelementptr inbounds [1504 x i8], [1504 x i8]* %4, i32 0, i32 0, !dbg !1335
  call void @llvm.lifetime.start.p0i8(i64 1504, i8* nonnull %11) #27, !dbg !1335
  call void @llvm.dbg.declare(metadata [1504 x i8]* %4, metadata !1319, metadata !DIExpression()), !dbg !1336
  %12 = getelementptr inbounds [1504 x i8], [1504 x i8]* %5, i32 0, i32 0, !dbg !1337
  call void @llvm.lifetime.start.p0i8(i64 1504, i8* nonnull %12) #27, !dbg !1337
  call void @llvm.dbg.declare(metadata [1504 x i8]* %5, metadata !1320, metadata !DIExpression()), !dbg !1338
  %13 = bitcast %"class.Cicada::Stm32Uart"* %6 to i8*, !dbg !1339
  call void @llvm.lifetime.start.p0i8(i64 192, i8* nonnull %13) #27, !dbg !1339
  call void @llvm.dbg.declare(metadata %"class.Cicada::Stm32Uart"* %6, metadata !1321, metadata !DIExpression()), !dbg !1340
  %14 = call noundef %"class.Cicada::Stm32Uart"* @_ZN6Cicada9Stm32UartC1EPcS1_yP13USART_TypeDefP12GPIO_TypeDeftt(%"class.Cicada::Stm32Uart"* noundef nonnull align 8 dereferenceable(192) %6, i8* noundef nonnull %9, i8* noundef nonnull %10, i64 noundef 1504, %struct.USART_TypeDef* noundef nonnull inttoptr (i32 1073759232 to %struct.USART_TypeDef*), %struct.USART_TypeDef* noundef nonnull inttoptr (i32 1073809408 to %struct.USART_TypeDef*), i16 noundef zeroext 4, i16 noundef zeroext 8) #27, !dbg !1340
  %15 = bitcast %"class.Cicada::Stm32Uart"* %7 to i8*, !dbg !1341
  call void @llvm.lifetime.start.p0i8(i64 192, i8* nonnull %15) #27, !dbg !1341
  call void @llvm.dbg.declare(metadata %"class.Cicada::Stm32Uart"* %7, metadata !1322, metadata !DIExpression()), !dbg !1342
  %16 = call noundef %"class.Cicada::Stm32Uart"* @_ZN6Cicada9Stm32UartC1EPcS1_yP13USART_TypeDefP12GPIO_TypeDeftt(%"class.Cicada::Stm32Uart"* noundef nonnull align 8 dereferenceable(192) %7, i8* noundef nonnull %11, i8* noundef nonnull %12, i64 noundef 1504, %struct.USART_TypeDef* noundef nonnull inttoptr (i32 1073821696 to %struct.USART_TypeDef*), %struct.USART_TypeDef* noundef nonnull inttoptr (i32 1073809408 to %struct.USART_TypeDef*), i16 noundef zeroext 512, i16 noundef zeroext 1024) #27, !dbg !1342
  %17 = call noundef zeroext i1 @_ZN6Cicada9Stm32Uart4openEv(%"class.Cicada::Stm32Uart"* noundef nonnull align 8 dereferenceable(192) %6) #27, !dbg !1343
  %18 = call noundef zeroext i1 @_ZN6Cicada9Stm32Uart4openEv(%"class.Cicada::Stm32Uart"* noundef nonnull align 8 dereferenceable(192) %7) #27, !dbg !1344
  %19 = getelementptr inbounds %"class.Cicada::Stm32Uart", %"class.Cicada::Stm32Uart"* %7, i32 0, i32 0
  %20 = getelementptr inbounds [32 x i8], [32 x i8]* %8, i32 0, i32 0
  br label %21, !dbg !1345

21:                                               ; preds = %31, %1
  call void @llvm.dbg.value(metadata i8* getelementptr inbounds ([5 x i8], [5 x i8]* @.str, i32 0, i32 0), metadata !1323, metadata !DIExpression()), !dbg !1346
  %22 = call i32 (i8*, ...) @printf_(i8* noundef getelementptr inbounds ([20 x i8], [20 x i8]* @.str.1, i32 0, i32 0), i8* noundef getelementptr inbounds ([5 x i8], [5 x i8]* @.str, i32 0, i32 0)) #27, !dbg !1347
  %23 = call noundef i64 @_ZN6Cicada14BufferedSerial5writeEPKh(%"class.Cicada::BufferedSerial"* noundef nonnull align 8 dereferenceable(104) %19, i8* noundef getelementptr inbounds ([5 x i8], [5 x i8]* @.str, i32 0, i32 0)) #27, !dbg !1348
  %24 = trunc i64 %23 to i32, !dbg !1349
  call void @llvm.dbg.value(metadata i32 %24, metadata !1327, metadata !DIExpression()), !dbg !1346
  %25 = call i32 (i8*, ...) @printf_(i8* noundef getelementptr inbounds ([19 x i8], [19 x i8]* @.str.2, i32 0, i32 0), i32 noundef %24) #27, !dbg !1350
  %26 = call noundef i64 @_ZNK6Cicada14BufferedSerial14bytesAvailableEv(%"class.Cicada::BufferedSerial"* noundef nonnull align 8 dereferenceable(104) %19) #27, !dbg !1351
  %27 = icmp eq i64 %26, 0, !dbg !1352
  br i1 %27, label %28, label %31, !dbg !1353

28:                                               ; preds = %21, %28
  call void @vTaskDelay(i32 noundef 100) #27, !dbg !1354
  %29 = call noundef i64 @_ZNK6Cicada14BufferedSerial14bytesAvailableEv(%"class.Cicada::BufferedSerial"* noundef nonnull align 8 dereferenceable(104) %19) #27, !dbg !1351
  %30 = icmp eq i64 %29, 0, !dbg !1352
  br i1 %30, label %28, label %31, !dbg !1353, !llvm.loop !1356

31:                                               ; preds = %28, %21
  call void @llvm.lifetime.start.p0i8(i64 32, i8* nonnull %20) #27, !dbg !1360
  call void @llvm.dbg.declare(metadata [32 x i8]* %8, metadata !1328, metadata !DIExpression()), !dbg !1361
  %32 = call noundef i64 @_ZN6Cicada14BufferedSerial4readEPhy(%"class.Cicada::BufferedSerial"* noundef nonnull align 8 dereferenceable(104) %19, i8* noundef nonnull %20, i64 noundef 31) #27, !dbg !1362
  %33 = trunc i64 %32 to i32, !dbg !1363
  call void @llvm.dbg.value(metadata i32 %33, metadata !1329, metadata !DIExpression()), !dbg !1346
  %34 = call i32 (i8*, ...) @printf_(i8* noundef getelementptr inbounds ([20 x i8], [20 x i8]* @.str.3, i32 0, i32 0), i32 noundef %33) #27, !dbg !1364
  %35 = getelementptr inbounds [32 x i8], [32 x i8]* %8, i32 0, i32 %33, !dbg !1365
  store i8 0, i8* %35, align 1, !dbg !1366, !tbaa !1367
  %36 = call i32 (i8*, ...) @printf_(i8* noundef getelementptr inbounds ([21 x i8], [21 x i8]* @.str.4, i32 0, i32 0), i8* noundef nonnull %20) #27, !dbg !1370
  call void @vTaskDelay(i32 noundef 500) #27, !dbg !1371
  call void @llvm.lifetime.end.p0i8(i64 32, i8* nonnull %20) #27, !dbg !1372
  br label %21, !dbg !1373, !llvm.loop !1374
}

; Function Attrs: nofree nosync nounwind readnone speculatable willreturn
declare void @llvm.dbg.value(metadata, metadata, metadata) #1

; Function Attrs: argmemonly nofree nosync nounwind willreturn
declare void @llvm.lifetime.start.p0i8(i64 immarg, i8* nocapture) #2

; Function Attrs: nofree nosync nounwind readnone speculatable willreturn
declare void @llvm.dbg.declare(metadata, metadata, metadata) #1

; Function Attrs: argmemonly nofree nosync nounwind willreturn
declare void @llvm.lifetime.end.p0i8(i64 immarg, i8* nocapture) #2

; Function Attrs: mustprogress noinline norecurse nounwind
define dso_local noundef i32 @main(i32 noundef %0, i8** nocapture noundef readnone %1) local_unnamed_addr #3 !dbg !1377 {
  call void @llvm.dbg.value(metadata i32 %0, metadata !1382, metadata !DIExpression()), !dbg !1384
  call void @llvm.dbg.value(metadata i8** %1, metadata !1383, metadata !DIExpression()), !dbg !1384
  %3 = call i32 @HAL_Init() #27, !dbg !1385
  call fastcc void @_ZL18SystemClock_Configv(), !dbg !1386
  %4 = call i8* @xTaskCreateStatic(void (i8*)* noundef nonnull @_Z10serialTaskPv, i8* noundef getelementptr inbounds ([11 x i8], [11 x i8]* @.str.5, i32 0, i32 0), i32 noundef 2048, i8* noundef null, i32 noundef 0, i32* noundef getelementptr inbounds ([2048 x i32], [2048 x i32]* @xStack, i32 0, i32 0), %struct.xSTATIC_TCB* noundef nonnull @xTaskBuffer) #27, !dbg !1387
  call void @vTaskStartScheduler() #27, !dbg !1388
  ret i32 0, !dbg !1389
}

; Function Attrs: mustprogress noinline norecurse nounwind
define internal fastcc void @_ZL18SystemClock_Configv() unnamed_addr #3 !dbg !1390 {
  %1 = alloca %struct.RCC_OscInitTypeDef, align 4
  %2 = alloca %struct.RCC_ClkInitTypeDef, align 4
  %3 = bitcast %struct.RCC_OscInitTypeDef* %1 to i8*, !dbg !1421
  call void @llvm.lifetime.start.p0i8(i64 40, i8* nonnull %3) #27, !dbg !1421
  call void @llvm.dbg.declare(metadata %struct.RCC_OscInitTypeDef* %1, metadata !1392, metadata !DIExpression()), !dbg !1422
  call void @llvm.memset.p0i8.i32(i8* noundef nonnull align 4 dereferenceable(40) %3, i8 0, i32 40, i1 false), !dbg !1422
  %4 = bitcast %struct.RCC_ClkInitTypeDef* %2 to i8*, !dbg !1423
  call void @llvm.lifetime.start.p0i8(i64 20, i8* nonnull %4) #27, !dbg !1423
  call void @llvm.dbg.declare(metadata %struct.RCC_ClkInitTypeDef* %2, metadata !1412, metadata !DIExpression()), !dbg !1424
  call void @llvm.memset.p0i8.i32(i8* noundef nonnull align 4 dereferenceable(20) %4, i8 0, i32 20, i1 false), !dbg !1424
  %5 = getelementptr inbounds %struct.RCC_OscInitTypeDef, %struct.RCC_OscInitTypeDef* %1, i32 0, i32 0, !dbg !1425
  store i32 2, i32* %5, align 4, !dbg !1426, !tbaa !1427
  %6 = getelementptr inbounds %struct.RCC_OscInitTypeDef, %struct.RCC_OscInitTypeDef* %1, i32 0, i32 4, !dbg !1431
  store i32 1, i32* %6, align 4, !dbg !1432, !tbaa !1433
  %7 = getelementptr inbounds %struct.RCC_OscInitTypeDef, %struct.RCC_OscInitTypeDef* %1, i32 0, i32 5, !dbg !1434
  store i32 16, i32* %7, align 4, !dbg !1435, !tbaa !1436
  %8 = getelementptr inbounds %struct.RCC_OscInitTypeDef, %struct.RCC_OscInitTypeDef* %1, i32 0, i32 7, i32 0, !dbg !1437
  store i32 2, i32* %8, align 4, !dbg !1438, !tbaa !1439
  %9 = getelementptr inbounds %struct.RCC_OscInitTypeDef, %struct.RCC_OscInitTypeDef* %1, i32 0, i32 7, i32 1, !dbg !1440
  store i32 0, i32* %9, align 4, !dbg !1441, !tbaa !1442
  %10 = getelementptr inbounds %struct.RCC_OscInitTypeDef, %struct.RCC_OscInitTypeDef* %1, i32 0, i32 7, i32 2, !dbg !1443
  store i32 3670016, i32* %10, align 4, !dbg !1444, !tbaa !1445
  %11 = call i32 @HAL_RCC_OscConfig(%struct.RCC_OscInitTypeDef* noundef nonnull %1) #27, !dbg !1446
  %12 = getelementptr inbounds %struct.RCC_ClkInitTypeDef, %struct.RCC_ClkInitTypeDef* %2, i32 0, i32 0, !dbg !1447
  store i32 15, i32* %12, align 4, !dbg !1448, !tbaa !1449
  %13 = getelementptr inbounds %struct.RCC_ClkInitTypeDef, %struct.RCC_ClkInitTypeDef* %2, i32 0, i32 1, !dbg !1451
  store i32 2, i32* %13, align 4, !dbg !1452, !tbaa !1453
  %14 = getelementptr inbounds %struct.RCC_ClkInitTypeDef, %struct.RCC_ClkInitTypeDef* %2, i32 0, i32 2, !dbg !1454
  store i32 0, i32* %14, align 4, !dbg !1455, !tbaa !1456
  %15 = getelementptr inbounds %struct.RCC_ClkInitTypeDef, %struct.RCC_ClkInitTypeDef* %2, i32 0, i32 3, !dbg !1457
  store i32 1024, i32* %15, align 4, !dbg !1458, !tbaa !1459
  %16 = getelementptr inbounds %struct.RCC_ClkInitTypeDef, %struct.RCC_ClkInitTypeDef* %2, i32 0, i32 4, !dbg !1460
  store i32 0, i32* %16, align 4, !dbg !1461, !tbaa !1462
  %17 = call i32 @HAL_RCC_ClockConfig(%struct.RCC_ClkInitTypeDef* noundef nonnull %2, i32 noundef 2) #27, !dbg !1463
  call void @llvm.lifetime.end.p0i8(i64 20, i8* nonnull %4) #27, !dbg !1464
  call void @llvm.lifetime.end.p0i8(i64 40, i8* nonnull %3) #27, !dbg !1464
  ret void, !dbg !1464
}

; Function Attrs: argmemonly nofree nounwind willreturn writeonly
declare void @llvm.memset.p0i8.i32(i8* nocapture writeonly, i8, i32, i1 immarg) #4

; Function Attrs: mustprogress nofree noinline norecurse nosync nounwind willreturn writeonly
define dso_local void @vApplicationGetIdleTaskMemory(%struct.xSTATIC_TCB** nocapture noundef writeonly %0, i32** nocapture noundef writeonly %1, i32* nocapture noundef writeonly %2) local_unnamed_addr #5 !dbg !78 {
  call void @llvm.dbg.value(metadata %struct.xSTATIC_TCB** %0, metadata !88, metadata !DIExpression()), !dbg !1465
  call void @llvm.dbg.value(metadata i32** %1, metadata !89, metadata !DIExpression()), !dbg !1465
  call void @llvm.dbg.value(metadata i32* %2, metadata !90, metadata !DIExpression()), !dbg !1465
  store %struct.xSTATIC_TCB* @_ZZ29vApplicationGetIdleTaskMemoryE12xIdleTaskTCB, %struct.xSTATIC_TCB** %0, align 4, !dbg !1466, !tbaa !1467
  store i32* getelementptr inbounds ([128 x i32], [128 x i32]* @_ZZ29vApplicationGetIdleTaskMemoryE15uxIdleTaskStack, i32 0, i32 0), i32** %1, align 4, !dbg !1469, !tbaa !1467
  store i32 128, i32* %2, align 4, !dbg !1470, !tbaa !1471
  ret void, !dbg !1472
}

; Function Attrs: mustprogress noinline nounwind
define dso_local void @SysTick_Handler() local_unnamed_addr #6 !dbg !1473 {
  call void @HAL_IncTick() #27, !dbg !1474
  call void @xPortSysTickHandler() #27, !dbg !1475
  ret void, !dbg !1476
}

; Function Attrs: mustprogress noinline nounwind
define dso_local void @USART1_IRQHandler() local_unnamed_addr #6 !dbg !98 {
  %1 = load atomic i8, i8* bitcast (i32* @_ZGVZ17USART1_IRQHandlerE8instance to i8*) acquire, align 4, !dbg !1477
  %2 = and i8 %1, 1, !dbg !1477
  %3 = icmp eq i8 %2, 0, !dbg !1477
  br i1 %3, label %4, label %9, !dbg !1477, !prof !1478

4:                                                ; preds = %0
  %5 = call i32 @__cxa_guard_acquire(i32* nonnull @_ZGVZ17USART1_IRQHandlerE8instance) #27, !dbg !1477
  %6 = icmp eq i32 %5, 0, !dbg !1477
  br i1 %6, label %9, label %7, !dbg !1477

7:                                                ; preds = %4
  %8 = call noundef %"class.Cicada::Stm32Uart"* @_ZN6Cicada9Stm32Uart11getInstanceEP13USART_TypeDef(%struct.USART_TypeDef* noundef nonnull inttoptr (i32 1073821696 to %struct.USART_TypeDef*)) #27, !dbg !1479
  store %"class.Cicada::Stm32Uart"* %8, %"class.Cicada::Stm32Uart"** @_ZZ17USART1_IRQHandlerE8instance, align 4, !dbg !1477, !tbaa !1467
  call void @__cxa_guard_release(i32* nonnull @_ZGVZ17USART1_IRQHandlerE8instance) #27, !dbg !1477
  br label %9, !dbg !1477

9:                                                ; preds = %7, %4, %0
  %10 = load %"class.Cicada::Stm32Uart"*, %"class.Cicada::Stm32Uart"** @_ZZ17USART1_IRQHandlerE8instance, align 4, !dbg !1480, !tbaa !1467
  call void @_ZN6Cicada9Stm32Uart15handleInterruptEv(%"class.Cicada::Stm32Uart"* noundef nonnull align 8 dereferenceable(192) %10) #27, !dbg !1481
  ret void, !dbg !1482
}

; Function Attrs: nofree nounwind
declare dso_local i32 @__cxa_guard_acquire(i32*) local_unnamed_addr #7

; Function Attrs: nofree nounwind
declare dso_local void @__cxa_guard_release(i32*) local_unnamed_addr #7

; Function Attrs: mustprogress noinline nounwind
define dso_local void @USART2_IRQHandler() local_unnamed_addr #6 !dbg !108 {
  %1 = load atomic i8, i8* bitcast (i32* @_ZGVZ17USART2_IRQHandlerE8instance to i8*) acquire, align 4, !dbg !1483
  %2 = and i8 %1, 1, !dbg !1483
  %3 = icmp eq i8 %2, 0, !dbg !1483
  br i1 %3, label %4, label %9, !dbg !1483, !prof !1478

4:                                                ; preds = %0
  %5 = call i32 @__cxa_guard_acquire(i32* nonnull @_ZGVZ17USART2_IRQHandlerE8instance) #27, !dbg !1483
  %6 = icmp eq i32 %5, 0, !dbg !1483
  br i1 %6, label %9, label %7, !dbg !1483

7:                                                ; preds = %4
  %8 = call noundef %"class.Cicada::Stm32Uart"* @_ZN6Cicada9Stm32Uart11getInstanceEP13USART_TypeDef(%struct.USART_TypeDef* noundef nonnull inttoptr (i32 1073759232 to %struct.USART_TypeDef*)) #27, !dbg !1484
  store %"class.Cicada::Stm32Uart"* %8, %"class.Cicada::Stm32Uart"** @_ZZ17USART2_IRQHandlerE8instance, align 4, !dbg !1483, !tbaa !1467
  call void @__cxa_guard_release(i32* nonnull @_ZGVZ17USART2_IRQHandlerE8instance) #27, !dbg !1483
  br label %9, !dbg !1483

9:                                                ; preds = %7, %4, %0
  %10 = load %"class.Cicada::Stm32Uart"*, %"class.Cicada::Stm32Uart"** @_ZZ17USART2_IRQHandlerE8instance, align 4, !dbg !1485, !tbaa !1467
  call void @_ZN6Cicada9Stm32Uart15handleInterruptEv(%"class.Cicada::Stm32Uart"* noundef nonnull align 8 dereferenceable(192) %10) #27, !dbg !1486
  ret void, !dbg !1487
}

; Function Attrs: mustprogress noinline nounwind
define dso_local void @_putchar(i8 noundef zeroext %0) local_unnamed_addr #6 !dbg !111 {
  call void @llvm.dbg.value(metadata i8 %0, metadata !116, metadata !DIExpression()), !dbg !1488
  %2 = load %"class.Cicada::Stm32Uart"*, %"class.Cicada::Stm32Uart"** @_ZZ8_putcharE6serial, align 4, !dbg !1489, !tbaa !1467
  %3 = icmp eq %"class.Cicada::Stm32Uart"* %2, null, !dbg !1489
  br i1 %3, label %4, label %6, !dbg !1491

4:                                                ; preds = %1
  %5 = call noundef %"class.Cicada::Stm32Uart"* @_ZN6Cicada9Stm32Uart11getInstanceEP13USART_TypeDef(%struct.USART_TypeDef* noundef nonnull inttoptr (i32 1073759232 to %struct.USART_TypeDef*)) #27, !dbg !1492
  store %"class.Cicada::Stm32Uart"* %5, %"class.Cicada::Stm32Uart"** @_ZZ8_putcharE6serial, align 4, !dbg !1494, !tbaa !1467
  br label %6, !dbg !1495

6:                                                ; preds = %4, %1
  %7 = load %"class.Cicada::BufferedSerial"*, %"class.Cicada::BufferedSerial"** bitcast (%"class.Cicada::Stm32Uart"** @_ZZ8_putcharE6serial to %"class.Cicada::BufferedSerial"**), align 4, !dbg !1496, !tbaa !1467
  %8 = bitcast %"class.Cicada::BufferedSerial"* %7 to void (%"class.Cicada::BufferedSerial"*, i8)***, !dbg !1497
  %9 = load void (%"class.Cicada::BufferedSerial"*, i8)**, void (%"class.Cicada::BufferedSerial"*, i8)*** %8, align 8, !dbg !1497, !tbaa !1498
  %10 = getelementptr inbounds void (%"class.Cicada::BufferedSerial"*, i8)*, void (%"class.Cicada::BufferedSerial"*, i8)** %9, i32 9, !dbg !1497
  %11 = load void (%"class.Cicada::BufferedSerial"*, i8)*, void (%"class.Cicada::BufferedSerial"*, i8)** %10, align 4, !dbg !1497
  call void %11(%"class.Cicada::BufferedSerial"* noundef nonnull align 8 dereferenceable(104) %7, i8 noundef zeroext %0) #27, !dbg !1497
  ret void, !dbg !1500
}

; Function Attrs: noinline nounwind
define dso_local i32 @printf_(i8* noundef %0, ...) local_unnamed_addr #8 !dbg !1501 {
  %2 = alloca %struct.__va_list, align 4
  %3 = alloca [1 x i8], align 1
  call void @llvm.dbg.value(metadata i8* %0, metadata !1505, metadata !DIExpression()), !dbg !1520
  %4 = bitcast %struct.__va_list* %2 to i8*, !dbg !1521
  call void @llvm.lifetime.start.p0i8(i64 4, i8* nonnull %4) #27, !dbg !1521
  call void @llvm.dbg.declare(metadata %struct.__va_list* %2, metadata !1506, metadata !DIExpression()), !dbg !1522
  call void @llvm.va_start(i8* nonnull %4), !dbg !1523
  %5 = getelementptr inbounds [1 x i8], [1 x i8]* %3, i32 0, i32 0, !dbg !1524
  call void @llvm.lifetime.start.p0i8(i64 1, i8* nonnull %5) #27, !dbg !1524
  call void @llvm.dbg.declare(metadata [1 x i8]* %3, metadata !1514, metadata !DIExpression()), !dbg !1525
  %6 = bitcast %struct.__va_list* %2 to i32*, !dbg !1526
  %7 = load i32, i32* %6, align 4, !dbg !1526
  %8 = insertvalue [1 x i32] poison, i32 %7, 0, !dbg !1526
  %9 = call fastcc i32 @_vsnprintf(void (i8, i8*, i32, i32)* noundef nonnull @_out_char, i8* noundef nonnull %5, i32 noundef -1, i8* noundef %0, [1 x i32] %8), !dbg !1526
  call void @llvm.dbg.value(metadata i32 %9, metadata !1518, metadata !DIExpression()), !dbg !1520
  call void @llvm.va_end(i8* %4), !dbg !1527
  call void @llvm.lifetime.end.p0i8(i64 1, i8* nonnull %5) #27, !dbg !1528
  call void @llvm.lifetime.end.p0i8(i64 4, i8* nonnull %4) #27, !dbg !1528
  ret i32 %9, !dbg !1529
}

; Function Attrs: nofree nosync nounwind willreturn
declare void @llvm.va_start(i8*) #9

; Function Attrs: noinline nounwind
define internal void @_out_char(i8 noundef zeroext %0, i8* nocapture noundef readnone %1, i32 noundef %2, i32 noundef %3) #8 !dbg !1530 {
  call void @llvm.dbg.value(metadata i8 %0, metadata !1532, metadata !DIExpression()), !dbg !1536
  call void @llvm.dbg.value(metadata i8* %1, metadata !1533, metadata !DIExpression()), !dbg !1536
  call void @llvm.dbg.value(metadata i32 %2, metadata !1534, metadata !DIExpression()), !dbg !1536
  call void @llvm.dbg.value(metadata i32 %3, metadata !1535, metadata !DIExpression()), !dbg !1536
  %5 = icmp eq i8 %0, 0, !dbg !1537
  br i1 %5, label %7, label %6, !dbg !1539

6:                                                ; preds = %4
  call void @_putchar(i8 noundef zeroext %0) #27, !dbg !1540
  br label %7, !dbg !1542

7:                                                ; preds = %6, %4
  ret void, !dbg !1543
}

; Function Attrs: noinline nounwind
define internal fastcc i32 @_vsnprintf(void (i8, i8*, i32, i32)* nocapture noundef readonly %0, i8* noundef %1, i32 noundef %2, i8* noundef %3, [1 x i32] %4) unnamed_addr #8 !dbg !1544 {
  %6 = alloca i8*, align 4
  %7 = extractvalue [1 x i32] %4, 0
  %8 = inttoptr i32 %7 to i8*
  call void @llvm.dbg.value(metadata i8* %8, metadata !1552, metadata !DIExpression()), !dbg !1598
  call void @llvm.dbg.value(metadata void (i8, i8*, i32, i32)* %0, metadata !1548, metadata !DIExpression()), !dbg !1598
  call void @llvm.dbg.value(metadata i8* %1, metadata !1549, metadata !DIExpression()), !dbg !1598
  call void @llvm.dbg.value(metadata i32 %2, metadata !1550, metadata !DIExpression()), !dbg !1598
  call void @llvm.dbg.value(metadata i8* %3, metadata !1551, metadata !DIExpression()), !dbg !1598
  store i8* %3, i8** %6, align 4, !tbaa !1599
  call void @llvm.dbg.value(metadata i32 0, metadata !1557, metadata !DIExpression()), !dbg !1598
  %9 = icmp eq i8* %1, null, !dbg !1603
  %10 = select i1 %9, void (i8, i8*, i32, i32)* @_out_null, void (i8, i8*, i32, i32)* %0, !dbg !1605
  call void @llvm.dbg.value(metadata void (i8, i8*, i32, i32)* %10, metadata !1548, metadata !DIExpression()), !dbg !1598
  br label %11, !dbg !1606

11:                                               ; preds = %354, %5
  %12 = phi i32 [ 0, %5 ], [ %355, %354 ]
  %13 = phi i8* [ %8, %5 ], [ %356, %354 ]
  br label %14, !dbg !1606

14:                                               ; preds = %11, %18
  %15 = phi i32 [ %19, %18 ], [ %12, %11 ], !dbg !1598
  call void @llvm.dbg.value(metadata i8* %13, metadata !1552, metadata !DIExpression()), !dbg !1598
  call void @llvm.dbg.value(metadata i32 %15, metadata !1557, metadata !DIExpression()), !dbg !1598
  %16 = load i8*, i8** %6, align 4, !dbg !1607, !tbaa !1599
  call void @llvm.dbg.value(metadata i8* %16, metadata !1551, metadata !DIExpression()), !dbg !1598
  %17 = load i8, i8* %16, align 1, !dbg !1608, !tbaa !1609
  switch i8 %17, label %18 [
    i8 0, label %357
    i8 37, label %22
  ], !dbg !1606

18:                                               ; preds = %14
  %19 = add i32 %15, 1, !dbg !1610
  call void @llvm.dbg.value(metadata i32 %19, metadata !1557, metadata !DIExpression()), !dbg !1598
  call void %10(i8 noundef zeroext %17, i8* noundef %1, i32 noundef %15, i32 noundef %2) #27, !dbg !1613, !callees !1614
  %20 = load i8*, i8** %6, align 4, !dbg !1615, !tbaa !1599
  call void @llvm.dbg.value(metadata i8* %20, metadata !1551, metadata !DIExpression()), !dbg !1598
  %21 = getelementptr inbounds i8, i8* %20, i32 1, !dbg !1615
  call void @llvm.dbg.value(metadata i8* %21, metadata !1551, metadata !DIExpression()), !dbg !1598
  store i8* %21, i8** %6, align 4, !dbg !1615, !tbaa !1599
  br label %14, !dbg !1616, !llvm.loop !1617

22:                                               ; preds = %14
  %23 = getelementptr inbounds i8, i8* %16, i32 1, !dbg !1619
  call void @llvm.dbg.value(metadata i8* %23, metadata !1551, metadata !DIExpression()), !dbg !1598
  store i8* %23, i8** %6, align 4, !dbg !1619, !tbaa !1599
  call void @llvm.dbg.value(metadata i32 0, metadata !1553, metadata !DIExpression()), !dbg !1598
  br label %24, !dbg !1621

24:                                               ; preds = %43, %22
  %25 = phi i32 [ 0, %22 ], [ %45, %43 ], !dbg !1622
  call void @llvm.dbg.value(metadata i32 %25, metadata !1553, metadata !DIExpression()), !dbg !1598
  %26 = load i8*, i8** %6, align 4, !dbg !1623, !tbaa !1599
  call void @llvm.dbg.value(metadata i8* %26, metadata !1551, metadata !DIExpression()), !dbg !1598
  %27 = load i8, i8* %26, align 1, !dbg !1625, !tbaa !1609
  switch i8 %27, label %43 [
    i8 48, label %28
    i8 45, label %31
    i8 43, label %34
    i8 32, label %37
    i8 35, label %40
  ], !dbg !1626

28:                                               ; preds = %24
  %29 = or i32 %25, 1, !dbg !1627
  call void @llvm.dbg.value(metadata i32 %29, metadata !1553, metadata !DIExpression()), !dbg !1598
  %30 = getelementptr inbounds i8, i8* %26, i32 1, !dbg !1629
  call void @llvm.dbg.value(metadata i8* %30, metadata !1551, metadata !DIExpression()), !dbg !1598
  store i8* %30, i8** %6, align 4, !dbg !1629, !tbaa !1599
  call void @llvm.dbg.value(metadata i32 1, metadata !1556, metadata !DIExpression()), !dbg !1598
  br label %43, !dbg !1630

31:                                               ; preds = %24
  %32 = or i32 %25, 2, !dbg !1631
  call void @llvm.dbg.value(metadata i32 %32, metadata !1553, metadata !DIExpression()), !dbg !1598
  %33 = getelementptr inbounds i8, i8* %26, i32 1, !dbg !1632
  call void @llvm.dbg.value(metadata i8* %33, metadata !1551, metadata !DIExpression()), !dbg !1598
  store i8* %33, i8** %6, align 4, !dbg !1632, !tbaa !1599
  call void @llvm.dbg.value(metadata i32 1, metadata !1556, metadata !DIExpression()), !dbg !1598
  br label %43, !dbg !1633

34:                                               ; preds = %24
  %35 = or i32 %25, 4, !dbg !1634
  call void @llvm.dbg.value(metadata i32 %35, metadata !1553, metadata !DIExpression()), !dbg !1598
  %36 = getelementptr inbounds i8, i8* %26, i32 1, !dbg !1635
  call void @llvm.dbg.value(metadata i8* %36, metadata !1551, metadata !DIExpression()), !dbg !1598
  store i8* %36, i8** %6, align 4, !dbg !1635, !tbaa !1599
  call void @llvm.dbg.value(metadata i32 1, metadata !1556, metadata !DIExpression()), !dbg !1598
  br label %43, !dbg !1636

37:                                               ; preds = %24
  %38 = or i32 %25, 8, !dbg !1637
  call void @llvm.dbg.value(metadata i32 %38, metadata !1553, metadata !DIExpression()), !dbg !1598
  %39 = getelementptr inbounds i8, i8* %26, i32 1, !dbg !1638
  call void @llvm.dbg.value(metadata i8* %39, metadata !1551, metadata !DIExpression()), !dbg !1598
  store i8* %39, i8** %6, align 4, !dbg !1638, !tbaa !1599
  call void @llvm.dbg.value(metadata i32 1, metadata !1556, metadata !DIExpression()), !dbg !1598
  br label %43, !dbg !1639

40:                                               ; preds = %24
  %41 = or i32 %25, 16, !dbg !1640
  call void @llvm.dbg.value(metadata i32 %41, metadata !1553, metadata !DIExpression()), !dbg !1598
  %42 = getelementptr inbounds i8, i8* %26, i32 1, !dbg !1641
  call void @llvm.dbg.value(metadata i8* %42, metadata !1551, metadata !DIExpression()), !dbg !1598
  store i8* %42, i8** %6, align 4, !dbg !1641, !tbaa !1599
  call void @llvm.dbg.value(metadata i32 1, metadata !1556, metadata !DIExpression()), !dbg !1598
  br label %43, !dbg !1642

43:                                               ; preds = %24, %28, %31, %34, %37, %40
  %44 = phi i1 [ false, %28 ], [ false, %31 ], [ false, %34 ], [ false, %37 ], [ false, %40 ], [ true, %24 ], !dbg !1643
  %45 = phi i32 [ %29, %28 ], [ %32, %31 ], [ %35, %34 ], [ %38, %37 ], [ %41, %40 ], [ %25, %24 ], !dbg !1644
  call void @llvm.dbg.value(metadata i32 %45, metadata !1553, metadata !DIExpression()), !dbg !1598
  call void @llvm.dbg.value(metadata i32 undef, metadata !1556, metadata !DIExpression()), !dbg !1598
  br i1 %44, label %46, label %24, !dbg !1645, !llvm.loop !1646

46:                                               ; preds = %43
  call void @llvm.dbg.value(metadata i32 0, metadata !1554, metadata !DIExpression()), !dbg !1598
  %47 = load i8*, i8** %6, align 4, !dbg !1648, !tbaa !1599
  call void @llvm.dbg.value(metadata i8* %47, metadata !1551, metadata !DIExpression()), !dbg !1598
  %48 = load i8, i8* %47, align 1, !dbg !1649, !tbaa !1609
  %49 = call fastcc zeroext i1 @_is_digit(i8 noundef zeroext %48), !dbg !1650
  br i1 %49, label %50, label %52, !dbg !1651

50:                                               ; preds = %46
  call void @llvm.dbg.value(metadata i8** %6, metadata !1551, metadata !DIExpression(DW_OP_deref)), !dbg !1598
  %51 = call fastcc i32 @_atoi(i8** noundef nonnull %6), !dbg !1652
  call void @llvm.dbg.value(metadata i32 %51, metadata !1554, metadata !DIExpression()), !dbg !1598
  br label %64, !dbg !1654

52:                                               ; preds = %46
  call void @llvm.dbg.value(metadata i8* %47, metadata !1551, metadata !DIExpression()), !dbg !1598
  %53 = icmp eq i8 %48, 42, !dbg !1655
  br i1 %53, label %54, label %64, !dbg !1656

54:                                               ; preds = %52
  %55 = getelementptr inbounds i8, i8* %13, i32 4, !dbg !1657
  call void @llvm.dbg.value(metadata i8* %55, metadata !1552, metadata !DIExpression()), !dbg !1598
  %56 = bitcast i8* %13 to i32*, !dbg !1657
  %57 = load i32, i32* %56, align 4, !dbg !1657
  call void @llvm.dbg.value(metadata i32 %57, metadata !1558, metadata !DIExpression()), !dbg !1658
  %58 = icmp slt i32 %57, 0, !dbg !1659
  %59 = or i32 %45, 2, !dbg !1661
  %60 = sub nsw i32 0, %57, !dbg !1661
  %61 = select i1 %58, i32 %60, i32 %57, !dbg !1661
  %62 = select i1 %58, i32 %59, i32 %45, !dbg !1661
  call void @llvm.dbg.value(metadata i32 %62, metadata !1553, metadata !DIExpression()), !dbg !1598
  call void @llvm.dbg.value(metadata i32 %61, metadata !1554, metadata !DIExpression()), !dbg !1598
  call void @llvm.dbg.value(metadata i8* %47, metadata !1551, metadata !DIExpression()), !dbg !1598
  %63 = getelementptr inbounds i8, i8* %47, i32 1, !dbg !1662
  call void @llvm.dbg.value(metadata i8* %63, metadata !1551, metadata !DIExpression()), !dbg !1598
  store i8* %63, i8** %6, align 4, !dbg !1662, !tbaa !1599
  br label %64, !dbg !1663

64:                                               ; preds = %52, %54, %50
  %65 = phi i32 [ %51, %50 ], [ %61, %54 ], [ 0, %52 ], !dbg !1644
  %66 = phi i32 [ %45, %50 ], [ %62, %54 ], [ %45, %52 ], !dbg !1644
  %67 = phi i8* [ %13, %50 ], [ %55, %54 ], [ %13, %52 ]
  call void @llvm.dbg.value(metadata i8* %67, metadata !1552, metadata !DIExpression()), !dbg !1598
  call void @llvm.dbg.value(metadata i32 %66, metadata !1553, metadata !DIExpression()), !dbg !1598
  call void @llvm.dbg.value(metadata i32 %65, metadata !1554, metadata !DIExpression()), !dbg !1598
  call void @llvm.dbg.value(metadata i32 0, metadata !1555, metadata !DIExpression()), !dbg !1598
  %68 = load i8*, i8** %6, align 4, !dbg !1664, !tbaa !1599
  call void @llvm.dbg.value(metadata i8* %68, metadata !1551, metadata !DIExpression()), !dbg !1598
  %69 = load i8, i8* %68, align 1, !dbg !1665, !tbaa !1609
  %70 = icmp eq i8 %69, 46, !dbg !1666
  br i1 %70, label %71, label %87, !dbg !1667

71:                                               ; preds = %64
  %72 = or i32 %66, 1024, !dbg !1668
  call void @llvm.dbg.value(metadata i32 %72, metadata !1553, metadata !DIExpression()), !dbg !1598
  %73 = getelementptr inbounds i8, i8* %68, i32 1, !dbg !1669
  call void @llvm.dbg.value(metadata i8* %73, metadata !1551, metadata !DIExpression()), !dbg !1598
  store i8* %73, i8** %6, align 4, !dbg !1669, !tbaa !1599
  %74 = load i8, i8* %73, align 1, !dbg !1670, !tbaa !1609
  %75 = call fastcc zeroext i1 @_is_digit(i8 noundef zeroext %74), !dbg !1671
  br i1 %75, label %76, label %78, !dbg !1672

76:                                               ; preds = %71
  call void @llvm.dbg.value(metadata i8** %6, metadata !1551, metadata !DIExpression(DW_OP_deref)), !dbg !1598
  %77 = call fastcc i32 @_atoi(i8** noundef nonnull %6), !dbg !1673
  call void @llvm.dbg.value(metadata i32 %77, metadata !1555, metadata !DIExpression()), !dbg !1598
  br label %87, !dbg !1675

78:                                               ; preds = %71
  call void @llvm.dbg.value(metadata i8* %73, metadata !1551, metadata !DIExpression()), !dbg !1598
  %79 = icmp eq i8 %74, 42, !dbg !1676
  br i1 %79, label %80, label %87, !dbg !1677

80:                                               ; preds = %78
  %81 = getelementptr inbounds i8, i8* %67, i32 4, !dbg !1678
  call void @llvm.dbg.value(metadata i8* %81, metadata !1552, metadata !DIExpression()), !dbg !1598
  %82 = bitcast i8* %67 to i32*, !dbg !1678
  %83 = load i32, i32* %82, align 4, !dbg !1678
  call void @llvm.dbg.value(metadata i32 %83, metadata !1563, metadata !DIExpression()), !dbg !1679
  %84 = icmp sgt i32 %83, 0, !dbg !1680
  %85 = select i1 %84, i32 %83, i32 0, !dbg !1681
  call void @llvm.dbg.value(metadata i32 %85, metadata !1555, metadata !DIExpression()), !dbg !1598
  %86 = getelementptr inbounds i8, i8* %68, i32 2, !dbg !1682
  call void @llvm.dbg.value(metadata i8* %86, metadata !1551, metadata !DIExpression()), !dbg !1598
  store i8* %86, i8** %6, align 4, !dbg !1682, !tbaa !1599
  br label %87, !dbg !1683

87:                                               ; preds = %76, %80, %78, %64
  %88 = phi i32 [ %77, %76 ], [ %85, %80 ], [ 0, %78 ], [ 0, %64 ], !dbg !1644
  %89 = phi i32 [ %72, %76 ], [ %72, %80 ], [ %72, %78 ], [ %66, %64 ], !dbg !1644
  %90 = phi i8* [ %67, %76 ], [ %81, %80 ], [ %67, %78 ], [ %67, %64 ]
  call void @llvm.dbg.value(metadata i8* %90, metadata !1552, metadata !DIExpression()), !dbg !1598
  call void @llvm.dbg.value(metadata i32 %89, metadata !1553, metadata !DIExpression()), !dbg !1598
  call void @llvm.dbg.value(metadata i32 %88, metadata !1555, metadata !DIExpression()), !dbg !1598
  %91 = load i8*, i8** %6, align 4, !dbg !1684, !tbaa !1599
  call void @llvm.dbg.value(metadata i8* %91, metadata !1551, metadata !DIExpression()), !dbg !1598
  %92 = load i8, i8* %91, align 1, !dbg !1685, !tbaa !1609
  %93 = zext i8 %92 to i32, !dbg !1685
  %94 = add nsw i32 %93, -104, !dbg !1686
  %95 = call i32 @llvm.fshl.i32(i32 %94, i32 %94, i32 31), !dbg !1686
  switch i32 %95, label %121 [
    i32 2, label %96
    i32 0, label %104
    i32 6, label %112
    i32 1, label %115
    i32 9, label %118
  ], !dbg !1686

96:                                               ; preds = %87
  %97 = or i32 %89, 256, !dbg !1687
  call void @llvm.dbg.value(metadata i32 %97, metadata !1553, metadata !DIExpression()), !dbg !1598
  %98 = getelementptr inbounds i8, i8* %91, i32 1, !dbg !1689
  call void @llvm.dbg.value(metadata i8* %98, metadata !1551, metadata !DIExpression()), !dbg !1598
  store i8* %98, i8** %6, align 4, !dbg !1689, !tbaa !1599
  %99 = load i8, i8* %98, align 1, !dbg !1690, !tbaa !1609
  %100 = icmp eq i8 %99, 108, !dbg !1692
  br i1 %100, label %101, label %121, !dbg !1693

101:                                              ; preds = %96
  %102 = or i32 %89, 768, !dbg !1694
  call void @llvm.dbg.value(metadata i32 %102, metadata !1553, metadata !DIExpression()), !dbg !1598
  %103 = getelementptr inbounds i8, i8* %91, i32 2, !dbg !1696
  call void @llvm.dbg.value(metadata i8* %103, metadata !1551, metadata !DIExpression()), !dbg !1598
  store i8* %103, i8** %6, align 4, !dbg !1696, !tbaa !1599
  br label %121, !dbg !1697

104:                                              ; preds = %87
  %105 = or i32 %89, 128, !dbg !1698
  call void @llvm.dbg.value(metadata i32 %105, metadata !1553, metadata !DIExpression()), !dbg !1598
  %106 = getelementptr inbounds i8, i8* %91, i32 1, !dbg !1699
  call void @llvm.dbg.value(metadata i8* %106, metadata !1551, metadata !DIExpression()), !dbg !1598
  store i8* %106, i8** %6, align 4, !dbg !1699, !tbaa !1599
  %107 = load i8, i8* %106, align 1, !dbg !1700, !tbaa !1609
  %108 = icmp eq i8 %107, 104, !dbg !1702
  br i1 %108, label %109, label %121, !dbg !1703

109:                                              ; preds = %104
  %110 = or i32 %89, 192, !dbg !1704
  call void @llvm.dbg.value(metadata i32 %110, metadata !1553, metadata !DIExpression()), !dbg !1598
  %111 = getelementptr inbounds i8, i8* %91, i32 2, !dbg !1706
  call void @llvm.dbg.value(metadata i8* %111, metadata !1551, metadata !DIExpression()), !dbg !1598
  store i8* %111, i8** %6, align 4, !dbg !1706, !tbaa !1599
  br label %121, !dbg !1707

112:                                              ; preds = %87
  %113 = or i32 %89, 256, !dbg !1708
  call void @llvm.dbg.value(metadata i32 %113, metadata !1553, metadata !DIExpression()), !dbg !1598
  %114 = getelementptr inbounds i8, i8* %91, i32 1, !dbg !1709
  call void @llvm.dbg.value(metadata i8* %114, metadata !1551, metadata !DIExpression()), !dbg !1598
  store i8* %114, i8** %6, align 4, !dbg !1709, !tbaa !1599
  br label %121, !dbg !1710

115:                                              ; preds = %87
  %116 = or i32 %89, 512, !dbg !1711
  call void @llvm.dbg.value(metadata i32 %116, metadata !1553, metadata !DIExpression()), !dbg !1598
  %117 = getelementptr inbounds i8, i8* %91, i32 1, !dbg !1712
  call void @llvm.dbg.value(metadata i8* %117, metadata !1551, metadata !DIExpression()), !dbg !1598
  store i8* %117, i8** %6, align 4, !dbg !1712, !tbaa !1599
  br label %121, !dbg !1713

118:                                              ; preds = %87
  %119 = or i32 %89, 256, !dbg !1714
  call void @llvm.dbg.value(metadata i32 %119, metadata !1553, metadata !DIExpression()), !dbg !1598
  %120 = getelementptr inbounds i8, i8* %91, i32 1, !dbg !1715
  call void @llvm.dbg.value(metadata i8* %120, metadata !1551, metadata !DIExpression()), !dbg !1598
  store i8* %120, i8** %6, align 4, !dbg !1715, !tbaa !1599
  br label %121, !dbg !1716

121:                                              ; preds = %87, %104, %109, %96, %101, %118, %115, %112
  %122 = phi i32 [ %89, %87 ], [ %119, %118 ], [ %116, %115 ], [ %113, %112 ], [ %110, %109 ], [ %105, %104 ], [ %102, %101 ], [ %97, %96 ], !dbg !1644
  call void @llvm.dbg.value(metadata i32 %122, metadata !1553, metadata !DIExpression()), !dbg !1598
  %123 = load i8*, i8** %6, align 4, !dbg !1717, !tbaa !1599
  call void @llvm.dbg.value(metadata i8* %123, metadata !1551, metadata !DIExpression()), !dbg !1598
  %124 = load i8, i8* %123, align 1, !dbg !1718, !tbaa !1609
  switch i8 %124, label %350 [
    i8 37, label %346
    i8 112, label %337
    i8 115, label %278
    i8 99, label %244
    i8 70, label %233
    i8 102, label %233
    i8 120, label %129
    i8 88, label %129
    i8 111, label %125
    i8 98, label %126
    i8 100, label %127
    i8 105, label %127
    i8 117, label %127
  ], !dbg !1719

125:                                              ; preds = %121
  call void @llvm.dbg.value(metadata i32 8, metadata !1569, metadata !DIExpression()), !dbg !1720
  br label %129, !dbg !1721

126:                                              ; preds = %121
  call void @llvm.dbg.value(metadata i32 2, metadata !1569, metadata !DIExpression()), !dbg !1720
  br label %129, !dbg !1725

127:                                              ; preds = %121, %121, %121
  call void @llvm.dbg.value(metadata i32 10, metadata !1569, metadata !DIExpression()), !dbg !1720
  %128 = and i32 %122, -17, !dbg !1728
  call void @llvm.dbg.value(metadata i32 %128, metadata !1553, metadata !DIExpression()), !dbg !1598
  br label %129

129:                                              ; preds = %121, %121, %125, %127, %126
  %130 = phi i32 [ 8, %125 ], [ 2, %126 ], [ 10, %127 ], [ 16, %121 ], [ 16, %121 ], !dbg !1730
  %131 = phi i32 [ %122, %125 ], [ %122, %126 ], [ %128, %127 ], [ %122, %121 ], [ %122, %121 ], !dbg !1644
  call void @llvm.dbg.value(metadata i32 %131, metadata !1553, metadata !DIExpression()), !dbg !1598
  call void @llvm.dbg.value(metadata i32 %130, metadata !1569, metadata !DIExpression()), !dbg !1720
  call void @llvm.dbg.value(metadata i8* %123, metadata !1551, metadata !DIExpression()), !dbg !1598
  %132 = icmp eq i8 %124, 88, !dbg !1731
  %133 = or i32 %131, 32
  %134 = select i1 %132, i32 %133, i32 %131, !dbg !1733
  call void @llvm.dbg.value(metadata i32 %134, metadata !1553, metadata !DIExpression()), !dbg !1598
  call void @llvm.dbg.value(metadata i8* %123, metadata !1551, metadata !DIExpression()), !dbg !1598
  switch i8 %124, label %135 [
    i8 105, label %137
    i8 100, label %137
  ], !dbg !1734

135:                                              ; preds = %129
  %136 = and i32 %134, -13, !dbg !1736
  call void @llvm.dbg.value(metadata i32 %136, metadata !1553, metadata !DIExpression()), !dbg !1598
  br label %137, !dbg !1738

137:                                              ; preds = %129, %129, %135
  %138 = phi i32 [ %136, %135 ], [ %134, %129 ], [ %134, %129 ], !dbg !1720
  call void @llvm.dbg.value(metadata i32 %138, metadata !1553, metadata !DIExpression()), !dbg !1598
  %139 = and i32 %138, 1024, !dbg !1739
  %140 = icmp eq i32 %139, 0, !dbg !1739
  %141 = and i32 %138, -2
  %142 = select i1 %140, i32 %138, i32 %141, !dbg !1741
  call void @llvm.dbg.value(metadata i32 %142, metadata !1553, metadata !DIExpression()), !dbg !1598
  call void @llvm.dbg.value(metadata i8* %123, metadata !1551, metadata !DIExpression()), !dbg !1598
  switch i8 %124, label %189 [
    i8 105, label %143
    i8 100, label %143
  ], !dbg !1742

143:                                              ; preds = %137, %137
  %144 = and i32 %142, 512, !dbg !1743
  %145 = icmp eq i32 %144, 0, !dbg !1743
  br i1 %145, label %158, label %146, !dbg !1744

146:                                              ; preds = %143
  %147 = ptrtoint i8* %90 to i32, !dbg !1745
  %148 = add i32 %147, 7, !dbg !1745
  %149 = and i32 %148, -8, !dbg !1745
  %150 = inttoptr i32 %149 to i8*, !dbg !1745
  %151 = getelementptr inbounds i8, i8* %150, i32 8, !dbg !1745
  call void @llvm.dbg.value(metadata i8* %151, metadata !1552, metadata !DIExpression()), !dbg !1598
  %152 = inttoptr i32 %149 to i64*, !dbg !1745
  %153 = load i64, i64* %152, align 8, !dbg !1745
  call void @llvm.dbg.value(metadata i64 %153, metadata !1572, metadata !DIExpression()), !dbg !1746
  %154 = call i64 @llvm.abs.i64(i64 %153, i1 true), !dbg !1747
  %155 = icmp slt i64 %153, 0, !dbg !1748
  %156 = zext i32 %130 to i64, !dbg !1749
  %157 = call fastcc i32 @_ntoa_long_long(void (i8, i8*, i32, i32)* noundef %10, i8* noundef %1, i32 noundef %15, i32 noundef %2, i64 noundef %154, i1 noundef zeroext %155, i64 noundef %156, i32 noundef %88, i32 noundef %65, i32 noundef %142), !dbg !1750
  call void @llvm.dbg.value(metadata i32 %157, metadata !1557, metadata !DIExpression()), !dbg !1598
  br label %228, !dbg !1751

158:                                              ; preds = %143
  %159 = and i32 %142, 256, !dbg !1752
  %160 = icmp eq i32 %159, 0, !dbg !1752
  br i1 %160, label %168, label %161, !dbg !1753

161:                                              ; preds = %158
  %162 = getelementptr inbounds i8, i8* %90, i32 4, !dbg !1754
  call void @llvm.dbg.value(metadata i8* %162, metadata !1552, metadata !DIExpression()), !dbg !1598
  %163 = bitcast i8* %90 to i32*, !dbg !1754
  %164 = load i32, i32* %163, align 4, !dbg !1754
  call void @llvm.dbg.value(metadata i32 %164, metadata !1578, metadata !DIExpression()), !dbg !1755
  %165 = call i32 @llvm.abs.i32(i32 %164, i1 true), !dbg !1756
  %166 = icmp slt i32 %164, 0, !dbg !1757
  %167 = call fastcc i32 @_ntoa_long(void (i8, i8*, i32, i32)* noundef %10, i8* noundef %1, i32 noundef %15, i32 noundef %2, i32 noundef %165, i1 noundef zeroext %166, i32 noundef %130, i32 noundef %88, i32 noundef %65, i32 noundef %142), !dbg !1758
  call void @llvm.dbg.value(metadata i32 %167, metadata !1557, metadata !DIExpression()), !dbg !1598
  br label %228, !dbg !1759

168:                                              ; preds = %158
  %169 = and i32 %142, 64, !dbg !1760
  %170 = icmp eq i32 %169, 0, !dbg !1760
  br i1 %170, label %175, label %171, !dbg !1761

171:                                              ; preds = %168
  call void @llvm.dbg.value(metadata i8* %90, metadata !1552, metadata !DIExpression(DW_OP_plus_uconst, 4, DW_OP_stack_value)), !dbg !1598
  %172 = bitcast i8* %90 to i32*, !dbg !1762
  %173 = load i32, i32* %172, align 4, !dbg !1762
  %174 = and i32 %173, 255, !dbg !1763
  br label %183, !dbg !1761

175:                                              ; preds = %168
  %176 = and i32 %142, 128, !dbg !1764
  %177 = icmp eq i32 %176, 0, !dbg !1764
  call void @llvm.dbg.value(metadata i8* %90, metadata !1552, metadata !DIExpression(DW_OP_plus_uconst, 4, DW_OP_stack_value)), !dbg !1598
  call void @llvm.dbg.value(metadata i8* %90, metadata !1552, metadata !DIExpression(DW_OP_plus_uconst, 4, DW_OP_stack_value)), !dbg !1598
  %178 = bitcast i8* %90 to i32*, !dbg !1765
  %179 = load i32, i32* %178, align 4, !dbg !1765
  br i1 %177, label %183, label %180, !dbg !1766

180:                                              ; preds = %175
  %181 = shl i32 %179, 16, !dbg !1767
  %182 = ashr exact i32 %181, 16, !dbg !1767
  br label %183, !dbg !1766

183:                                              ; preds = %175, %180, %171
  %184 = phi i32 [ %174, %171 ], [ %182, %180 ], [ %179, %175 ], !dbg !1761
  %185 = getelementptr inbounds i8, i8* %90, i32 4, !dbg !1765
  call void @llvm.dbg.value(metadata i8* %185, metadata !1552, metadata !DIExpression()), !dbg !1598
  call void @llvm.dbg.value(metadata i32 %184, metadata !1582, metadata !DIExpression()), !dbg !1765
  %186 = call i32 @llvm.abs.i32(i32 %184, i1 true), !dbg !1768
  %187 = icmp slt i32 %184, 0, !dbg !1769
  %188 = call fastcc i32 @_ntoa_long(void (i8, i8*, i32, i32)* noundef %10, i8* noundef %1, i32 noundef %15, i32 noundef %2, i32 noundef %186, i1 noundef zeroext %187, i32 noundef %130, i32 noundef %88, i32 noundef %65, i32 noundef %142), !dbg !1770
  call void @llvm.dbg.value(metadata i32 %188, metadata !1557, metadata !DIExpression()), !dbg !1598
  br label %228

189:                                              ; preds = %137
  %190 = and i32 %142, 512, !dbg !1771
  %191 = icmp eq i32 %190, 0, !dbg !1771
  br i1 %191, label %202, label %192, !dbg !1772

192:                                              ; preds = %189
  %193 = ptrtoint i8* %90 to i32, !dbg !1773
  %194 = add i32 %193, 7, !dbg !1773
  %195 = and i32 %194, -8, !dbg !1773
  %196 = inttoptr i32 %195 to i8*, !dbg !1773
  %197 = getelementptr inbounds i8, i8* %196, i32 8, !dbg !1773
  call void @llvm.dbg.value(metadata i8* %197, metadata !1552, metadata !DIExpression()), !dbg !1598
  %198 = inttoptr i32 %195 to i64*, !dbg !1773
  %199 = load i64, i64* %198, align 8, !dbg !1773
  %200 = zext i32 %130 to i64, !dbg !1775
  %201 = call fastcc i32 @_ntoa_long_long(void (i8, i8*, i32, i32)* noundef %10, i8* noundef %1, i32 noundef %15, i32 noundef %2, i64 noundef %199, i1 noundef zeroext false, i64 noundef %200, i32 noundef %88, i32 noundef %65, i32 noundef %142), !dbg !1776
  call void @llvm.dbg.value(metadata i32 %201, metadata !1557, metadata !DIExpression()), !dbg !1598
  br label %228, !dbg !1777

202:                                              ; preds = %189
  %203 = and i32 %142, 256, !dbg !1778
  %204 = icmp eq i32 %203, 0, !dbg !1778
  br i1 %204, label %210, label %205, !dbg !1779

205:                                              ; preds = %202
  %206 = getelementptr inbounds i8, i8* %90, i32 4, !dbg !1780
  call void @llvm.dbg.value(metadata i8* %206, metadata !1552, metadata !DIExpression()), !dbg !1598
  %207 = bitcast i8* %90 to i32*, !dbg !1780
  %208 = load i32, i32* %207, align 4, !dbg !1780
  %209 = call fastcc i32 @_ntoa_long(void (i8, i8*, i32, i32)* noundef %10, i8* noundef %1, i32 noundef %15, i32 noundef %2, i32 noundef %208, i1 noundef zeroext false, i32 noundef %130, i32 noundef %88, i32 noundef %65, i32 noundef %142), !dbg !1782
  call void @llvm.dbg.value(metadata i32 %209, metadata !1557, metadata !DIExpression()), !dbg !1598
  br label %228, !dbg !1783

210:                                              ; preds = %202
  %211 = and i32 %142, 64, !dbg !1784
  %212 = icmp eq i32 %211, 0, !dbg !1784
  br i1 %212, label %217, label %213, !dbg !1785

213:                                              ; preds = %210
  call void @llvm.dbg.value(metadata i8* %90, metadata !1552, metadata !DIExpression(DW_OP_plus_uconst, 4, DW_OP_stack_value)), !dbg !1598
  %214 = bitcast i8* %90 to i32*, !dbg !1786
  %215 = load i32, i32* %214, align 4, !dbg !1786
  %216 = and i32 %215, 255, !dbg !1787
  br label %224, !dbg !1785

217:                                              ; preds = %210
  %218 = and i32 %142, 128, !dbg !1788
  %219 = icmp eq i32 %218, 0, !dbg !1788
  call void @llvm.dbg.value(metadata i8* %90, metadata !1552, metadata !DIExpression(DW_OP_plus_uconst, 4, DW_OP_stack_value)), !dbg !1598
  call void @llvm.dbg.value(metadata i8* %90, metadata !1552, metadata !DIExpression(DW_OP_plus_uconst, 4, DW_OP_stack_value)), !dbg !1598
  %220 = bitcast i8* %90 to i32*, !dbg !1789
  %221 = load i32, i32* %220, align 4, !dbg !1789
  %222 = and i32 %221, 65535
  %223 = select i1 %219, i32 %221, i32 %222, !dbg !1790
  br label %224, !dbg !1790

224:                                              ; preds = %217, %213
  %225 = phi i32 [ %216, %213 ], [ %223, %217 ], !dbg !1785
  %226 = getelementptr inbounds i8, i8* %90, i32 4, !dbg !1789
  call void @llvm.dbg.value(metadata i8* %226, metadata !1552, metadata !DIExpression()), !dbg !1598
  call void @llvm.dbg.value(metadata i32 %225, metadata !1584, metadata !DIExpression()), !dbg !1789
  %227 = call fastcc i32 @_ntoa_long(void (i8, i8*, i32, i32)* noundef %10, i8* noundef %1, i32 noundef %15, i32 noundef %2, i32 noundef %225, i1 noundef zeroext false, i32 noundef %130, i32 noundef %88, i32 noundef %65, i32 noundef %142), !dbg !1791
  call void @llvm.dbg.value(metadata i32 %227, metadata !1557, metadata !DIExpression()), !dbg !1598
  br label %228

228:                                              ; preds = %192, %224, %205, %146, %183, %161
  %229 = phi i32 [ %157, %146 ], [ %167, %161 ], [ %188, %183 ], [ %201, %192 ], [ %209, %205 ], [ %227, %224 ], !dbg !1792
  %230 = phi i8* [ %151, %146 ], [ %162, %161 ], [ %185, %183 ], [ %197, %192 ], [ %206, %205 ], [ %226, %224 ], !dbg !1792
  call void @llvm.dbg.value(metadata i8* %230, metadata !1552, metadata !DIExpression()), !dbg !1598
  call void @llvm.dbg.value(metadata i32 %229, metadata !1557, metadata !DIExpression()), !dbg !1598
  %231 = load i8*, i8** %6, align 4, !dbg !1793, !tbaa !1599
  call void @llvm.dbg.value(metadata i8* %231, metadata !1551, metadata !DIExpression()), !dbg !1598
  %232 = getelementptr inbounds i8, i8* %231, i32 1, !dbg !1793
  call void @llvm.dbg.value(metadata i8* %232, metadata !1551, metadata !DIExpression()), !dbg !1598
  store i8* %232, i8** %6, align 4, !dbg !1793, !tbaa !1599
  br label %354

233:                                              ; preds = %121, %121
  %234 = ptrtoint i8* %90 to i32, !dbg !1794
  %235 = add i32 %234, 7, !dbg !1794
  %236 = and i32 %235, -8, !dbg !1794
  %237 = inttoptr i32 %236 to i8*, !dbg !1794
  %238 = getelementptr inbounds i8, i8* %237, i32 8, !dbg !1794
  call void @llvm.dbg.value(metadata i8* %238, metadata !1552, metadata !DIExpression()), !dbg !1598
  %239 = inttoptr i32 %236 to double*, !dbg !1794
  %240 = load double, double* %239, align 8, !dbg !1794
  %241 = call fastcc i32 @_ftoa(void (i8, i8*, i32, i32)* noundef %10, i8* noundef %1, i32 noundef %15, i32 noundef %2, double noundef %240, i32 noundef %88, i32 noundef %65, i32 noundef %122), !dbg !1795
  call void @llvm.dbg.value(metadata i32 %241, metadata !1557, metadata !DIExpression()), !dbg !1598
  %242 = load i8*, i8** %6, align 4, !dbg !1796, !tbaa !1599
  call void @llvm.dbg.value(metadata i8* %242, metadata !1551, metadata !DIExpression()), !dbg !1598
  %243 = getelementptr inbounds i8, i8* %242, i32 1, !dbg !1796
  call void @llvm.dbg.value(metadata i8* %243, metadata !1551, metadata !DIExpression()), !dbg !1598
  store i8* %243, i8** %6, align 4, !dbg !1796, !tbaa !1599
  br label %354, !dbg !1797

244:                                              ; preds = %121
  call void @llvm.dbg.value(metadata i32 1, metadata !1590, metadata !DIExpression()), !dbg !1798
  %245 = and i32 %122, 2, !dbg !1799
  %246 = icmp eq i32 %245, 0, !dbg !1799
  br i1 %246, label %247, label %257, !dbg !1801

247:                                              ; preds = %244
  call void @llvm.dbg.value(metadata i32 1, metadata !1590, metadata !DIExpression()), !dbg !1798
  call void @llvm.dbg.value(metadata i32 %15, metadata !1557, metadata !DIExpression()), !dbg !1598
  call void @llvm.dbg.value(metadata i32 2, metadata !1590, metadata !DIExpression()), !dbg !1798
  %248 = icmp ugt i32 %65, 1, !dbg !1802
  br i1 %248, label %249, label %257, !dbg !1804

249:                                              ; preds = %247
  %250 = add i32 %65, 1, !dbg !1804
  br label %251, !dbg !1804

251:                                              ; preds = %249, %251
  %252 = phi i32 [ %255, %251 ], [ 2, %249 ]
  %253 = phi i32 [ %254, %251 ], [ %15, %249 ]
  call void @llvm.dbg.value(metadata i32 %253, metadata !1557, metadata !DIExpression()), !dbg !1598
  %254 = add i32 %253, 1, !dbg !1805
  call void @llvm.dbg.value(metadata i32 %254, metadata !1557, metadata !DIExpression()), !dbg !1598
  call void %10(i8 noundef zeroext 32, i8* noundef %1, i32 noundef %253, i32 noundef %2) #27, !dbg !1807, !callees !1614
  call void @llvm.dbg.value(metadata i32 %252, metadata !1590, metadata !DIExpression()), !dbg !1798
  %255 = add i32 %252, 1, !dbg !1808
  call void @llvm.dbg.value(metadata i32 %255, metadata !1590, metadata !DIExpression()), !dbg !1798
  %256 = icmp eq i32 %252, %65, !dbg !1802
  br i1 %256, label %257, label %251, !dbg !1804, !llvm.loop !1809

257:                                              ; preds = %251, %247, %244
  %258 = phi i32 [ %15, %244 ], [ %15, %247 ], [ %254, %251 ], !dbg !1811
  %259 = phi i32 [ 1, %244 ], [ 2, %247 ], [ %250, %251 ], !dbg !1798
  call void @llvm.dbg.value(metadata i32 %259, metadata !1590, metadata !DIExpression()), !dbg !1798
  call void @llvm.dbg.value(metadata i32 %258, metadata !1557, metadata !DIExpression()), !dbg !1598
  %260 = getelementptr inbounds i8, i8* %90, i32 4, !dbg !1812
  call void @llvm.dbg.value(metadata i8* %260, metadata !1552, metadata !DIExpression()), !dbg !1598
  %261 = bitcast i8* %90 to i32*, !dbg !1812
  %262 = load i32, i32* %261, align 4, !dbg !1812
  %263 = trunc i32 %262 to i8, !dbg !1813
  %264 = add i32 %258, 1, !dbg !1814
  call void @llvm.dbg.value(metadata i32 %264, metadata !1557, metadata !DIExpression()), !dbg !1598
  call void %10(i8 noundef zeroext %263, i8* noundef %1, i32 noundef %258, i32 noundef %2) #27, !dbg !1815, !callees !1614
  %265 = xor i1 %246, true, !dbg !1816
  %266 = icmp ult i32 %259, %65
  %267 = select i1 %265, i1 %266, i1 false, !dbg !1816
  call void @llvm.dbg.value(metadata i32 %259, metadata !1590, metadata !DIExpression()), !dbg !1798
  call void @llvm.dbg.value(metadata i32 %264, metadata !1557, metadata !DIExpression()), !dbg !1598
  call void @llvm.dbg.value(metadata i32 %259, metadata !1590, metadata !DIExpression(DW_OP_plus_uconst, 1, DW_OP_stack_value)), !dbg !1798
  br i1 %267, label %268, label %274, !dbg !1816

268:                                              ; preds = %257, %268
  %269 = phi i32 [ %271, %268 ], [ %259, %257 ]
  %270 = phi i32 [ %272, %268 ], [ %264, %257 ]
  call void @llvm.dbg.value(metadata i32 %269, metadata !1590, metadata !DIExpression()), !dbg !1798
  call void @llvm.dbg.value(metadata i32 %270, metadata !1557, metadata !DIExpression()), !dbg !1598
  %271 = add nuw i32 %269, 1, !dbg !1817
  call void @llvm.dbg.value(metadata i32 %271, metadata !1590, metadata !DIExpression()), !dbg !1798
  %272 = add i32 %270, 1, !dbg !1820
  call void @llvm.dbg.value(metadata i32 %272, metadata !1557, metadata !DIExpression()), !dbg !1598
  call void %10(i8 noundef zeroext 32, i8* noundef %1, i32 noundef %270, i32 noundef %2) #27, !dbg !1822, !callees !1614
  call void @llvm.dbg.value(metadata i32 %271, metadata !1590, metadata !DIExpression(DW_OP_plus_uconst, 1, DW_OP_stack_value)), !dbg !1798
  %273 = icmp eq i32 %271, %65, !dbg !1823
  br i1 %273, label %274, label %268, !dbg !1824, !llvm.loop !1825

274:                                              ; preds = %268, %257
  %275 = phi i32 [ %264, %257 ], [ %272, %268 ], !dbg !1814
  call void @llvm.dbg.value(metadata i32 %275, metadata !1557, metadata !DIExpression()), !dbg !1598
  %276 = load i8*, i8** %6, align 4, !dbg !1827, !tbaa !1599
  call void @llvm.dbg.value(metadata i8* %276, metadata !1551, metadata !DIExpression()), !dbg !1598
  %277 = getelementptr inbounds i8, i8* %276, i32 1, !dbg !1827
  call void @llvm.dbg.value(metadata i8* %277, metadata !1551, metadata !DIExpression()), !dbg !1598
  store i8* %277, i8** %6, align 4, !dbg !1827, !tbaa !1599
  br label %354

278:                                              ; preds = %121
  %279 = getelementptr inbounds i8, i8* %90, i32 4, !dbg !1828
  call void @llvm.dbg.value(metadata i8* %279, metadata !1552, metadata !DIExpression()), !dbg !1598
  %280 = bitcast i8* %90 to i8**, !dbg !1828
  %281 = load i8*, i8** %280, align 4, !dbg !1828
  call void @llvm.dbg.value(metadata i8* %281, metadata !1592, metadata !DIExpression()), !dbg !1829
  %282 = icmp eq i32 %88, 0, !dbg !1830
  %283 = select i1 %282, i32 -1, i32 %88, !dbg !1830
  %284 = call fastcc i32 @_strnlen_s(i8* noundef %281, i32 noundef %283), !dbg !1831
  call void @llvm.dbg.value(metadata i32 %284, metadata !1594, metadata !DIExpression()), !dbg !1829
  %285 = and i32 %122, 1024, !dbg !1832
  %286 = icmp eq i32 %285, 0, !dbg !1832
  %287 = icmp ult i32 %284, %88, !dbg !1834
  %288 = select i1 %286, i1 true, i1 %287, !dbg !1834
  %289 = select i1 %288, i32 %284, i32 %88, !dbg !1834
  call void @llvm.dbg.value(metadata i32 %289, metadata !1594, metadata !DIExpression()), !dbg !1829
  %290 = and i32 %122, 2, !dbg !1835
  %291 = icmp eq i32 %290, 0, !dbg !1835
  br i1 %291, label %292, label %303, !dbg !1837

292:                                              ; preds = %278
  call void @llvm.dbg.value(metadata i32 %289, metadata !1594, metadata !DIExpression()), !dbg !1829
  call void @llvm.dbg.value(metadata i32 %15, metadata !1557, metadata !DIExpression()), !dbg !1598
  %293 = add i32 %289, 1, !dbg !1838
  call void @llvm.dbg.value(metadata i32 %293, metadata !1594, metadata !DIExpression()), !dbg !1829
  %294 = icmp ult i32 %289, %65, !dbg !1840
  br i1 %294, label %295, label %303, !dbg !1841

295:                                              ; preds = %292
  %296 = add i32 %65, 1, !dbg !1841
  br label %297, !dbg !1841

297:                                              ; preds = %295, %297
  %298 = phi i32 [ %301, %297 ], [ %293, %295 ]
  %299 = phi i32 [ %300, %297 ], [ %15, %295 ]
  call void @llvm.dbg.value(metadata i32 %299, metadata !1557, metadata !DIExpression()), !dbg !1598
  %300 = add i32 %299, 1, !dbg !1842
  call void @llvm.dbg.value(metadata i32 %300, metadata !1557, metadata !DIExpression()), !dbg !1598
  call void %10(i8 noundef zeroext 32, i8* noundef %1, i32 noundef %299, i32 noundef %2) #27, !dbg !1844, !callees !1614
  call void @llvm.dbg.value(metadata i32 %298, metadata !1594, metadata !DIExpression()), !dbg !1829
  %301 = add i32 %298, 1, !dbg !1838
  call void @llvm.dbg.value(metadata i32 %301, metadata !1594, metadata !DIExpression()), !dbg !1829
  %302 = icmp eq i32 %298, %65, !dbg !1840
  br i1 %302, label %303, label %297, !dbg !1841, !llvm.loop !1845

303:                                              ; preds = %297, %292, %278
  %304 = phi i32 [ %15, %278 ], [ %15, %292 ], [ %300, %297 ], !dbg !1811
  %305 = phi i32 [ %289, %278 ], [ %293, %292 ], [ %296, %297 ], !dbg !1829
  call void @llvm.dbg.value(metadata i32 %305, metadata !1594, metadata !DIExpression()), !dbg !1829
  call void @llvm.dbg.value(metadata i32 %304, metadata !1557, metadata !DIExpression()), !dbg !1598
  call void @llvm.dbg.value(metadata i8* %281, metadata !1592, metadata !DIExpression()), !dbg !1829
  call void @llvm.dbg.value(metadata i32 %88, metadata !1555, metadata !DIExpression()), !dbg !1598
  %306 = load i8, i8* %281, align 1, !dbg !1847, !tbaa !1609
  %307 = icmp eq i8 %306, 0, !dbg !1848
  br i1 %307, label %322, label %308, !dbg !1849

308:                                              ; preds = %303, %316
  %309 = phi i8 [ %320, %316 ], [ %306, %303 ]
  %310 = phi i8* [ %318, %316 ], [ %281, %303 ]
  %311 = phi i32 [ %317, %316 ], [ %88, %303 ]
  %312 = phi i32 [ %319, %316 ], [ %304, %303 ]
  call void @llvm.dbg.value(metadata i8* %310, metadata !1592, metadata !DIExpression()), !dbg !1829
  call void @llvm.dbg.value(metadata i32 %311, metadata !1555, metadata !DIExpression()), !dbg !1598
  call void @llvm.dbg.value(metadata i32 %312, metadata !1557, metadata !DIExpression()), !dbg !1598
  br i1 %286, label %316, label %313, !dbg !1850

313:                                              ; preds = %308
  %314 = add i32 %311, -1, !dbg !1851
  call void @llvm.dbg.value(metadata i32 %314, metadata !1555, metadata !DIExpression()), !dbg !1598
  %315 = icmp eq i32 %311, 0, !dbg !1850
  br i1 %315, label %322, label %316, !dbg !1852

316:                                              ; preds = %308, %313
  %317 = phi i32 [ %314, %313 ], [ %311, %308 ], !dbg !1644
  call void @llvm.dbg.value(metadata i32 %317, metadata !1555, metadata !DIExpression()), !dbg !1598
  %318 = getelementptr inbounds i8, i8* %310, i32 1, !dbg !1853
  call void @llvm.dbg.value(metadata i8* %318, metadata !1592, metadata !DIExpression()), !dbg !1829
  %319 = add i32 %312, 1, !dbg !1855
  call void @llvm.dbg.value(metadata i32 %319, metadata !1557, metadata !DIExpression()), !dbg !1598
  call void %10(i8 noundef zeroext %309, i8* noundef %1, i32 noundef %312, i32 noundef %2) #27, !dbg !1856, !callees !1614
  %320 = load i8, i8* %318, align 1, !dbg !1847, !tbaa !1609
  %321 = icmp eq i8 %320, 0, !dbg !1848
  br i1 %321, label %322, label %308, !dbg !1849, !llvm.loop !1857

322:                                              ; preds = %313, %316, %303
  %323 = phi i32 [ %304, %303 ], [ %312, %313 ], [ %319, %316 ], !dbg !1598
  %324 = xor i1 %291, true, !dbg !1859
  %325 = icmp ult i32 %305, %65
  %326 = select i1 %324, i1 %325, i1 false, !dbg !1859
  call void @llvm.dbg.value(metadata i32 %305, metadata !1594, metadata !DIExpression()), !dbg !1829
  call void @llvm.dbg.value(metadata i32 %323, metadata !1557, metadata !DIExpression()), !dbg !1598
  call void @llvm.dbg.value(metadata i32 %305, metadata !1594, metadata !DIExpression(DW_OP_plus_uconst, 1, DW_OP_stack_value)), !dbg !1829
  br i1 %326, label %327, label %333, !dbg !1859

327:                                              ; preds = %322, %327
  %328 = phi i32 [ %330, %327 ], [ %305, %322 ]
  %329 = phi i32 [ %331, %327 ], [ %323, %322 ]
  call void @llvm.dbg.value(metadata i32 %328, metadata !1594, metadata !DIExpression()), !dbg !1829
  call void @llvm.dbg.value(metadata i32 %329, metadata !1557, metadata !DIExpression()), !dbg !1598
  %330 = add nuw i32 %328, 1, !dbg !1860
  call void @llvm.dbg.value(metadata i32 %330, metadata !1594, metadata !DIExpression()), !dbg !1829
  %331 = add i32 %329, 1, !dbg !1863
  call void @llvm.dbg.value(metadata i32 %331, metadata !1557, metadata !DIExpression()), !dbg !1598
  call void %10(i8 noundef zeroext 32, i8* noundef %1, i32 noundef %329, i32 noundef %2) #27, !dbg !1865, !callees !1614
  call void @llvm.dbg.value(metadata i32 %330, metadata !1594, metadata !DIExpression(DW_OP_plus_uconst, 1, DW_OP_stack_value)), !dbg !1829
  %332 = icmp eq i32 %330, %65, !dbg !1866
  br i1 %332, label %333, label %327, !dbg !1867, !llvm.loop !1868

333:                                              ; preds = %327, %322
  %334 = phi i32 [ %323, %322 ], [ %331, %327 ], !dbg !1811
  call void @llvm.dbg.value(metadata i32 %334, metadata !1557, metadata !DIExpression()), !dbg !1598
  %335 = load i8*, i8** %6, align 4, !dbg !1870, !tbaa !1599
  call void @llvm.dbg.value(metadata i8* %335, metadata !1551, metadata !DIExpression()), !dbg !1598
  %336 = getelementptr inbounds i8, i8* %335, i32 1, !dbg !1870
  call void @llvm.dbg.value(metadata i8* %336, metadata !1551, metadata !DIExpression()), !dbg !1598
  store i8* %336, i8** %6, align 4, !dbg !1870, !tbaa !1599
  br label %354

337:                                              ; preds = %121
  call void @llvm.dbg.value(metadata i32 8, metadata !1554, metadata !DIExpression()), !dbg !1598
  %338 = or i32 %122, 33, !dbg !1871
  call void @llvm.dbg.value(metadata i32 %338, metadata !1553, metadata !DIExpression()), !dbg !1598
  call void @llvm.dbg.value(metadata i8 0, metadata !1595, metadata !DIExpression()), !dbg !1872
  %339 = getelementptr inbounds i8, i8* %90, i32 4, !dbg !1873
  call void @llvm.dbg.value(metadata i8* %339, metadata !1552, metadata !DIExpression()), !dbg !1598
  %340 = bitcast i8* %90 to i8**, !dbg !1873
  %341 = load i8*, i8** %340, align 4, !dbg !1873
  %342 = ptrtoint i8* %341 to i32, !dbg !1876
  %343 = call fastcc i32 @_ntoa_long(void (i8, i8*, i32, i32)* noundef %10, i8* noundef %1, i32 noundef %15, i32 noundef %2, i32 noundef %342, i1 noundef zeroext false, i32 noundef 16, i32 noundef %88, i32 noundef 8, i32 noundef %338), !dbg !1877
  call void @llvm.dbg.value(metadata i32 %343, metadata !1557, metadata !DIExpression()), !dbg !1598
  %344 = load i8*, i8** %6, align 4, !dbg !1878, !tbaa !1599
  call void @llvm.dbg.value(metadata i8* %344, metadata !1551, metadata !DIExpression()), !dbg !1598
  %345 = getelementptr inbounds i8, i8* %344, i32 1, !dbg !1878
  call void @llvm.dbg.value(metadata i8* %345, metadata !1551, metadata !DIExpression()), !dbg !1598
  store i8* %345, i8** %6, align 4, !dbg !1878, !tbaa !1599
  br label %354

346:                                              ; preds = %121
  %347 = add i32 %15, 1, !dbg !1879
  call void @llvm.dbg.value(metadata i32 %347, metadata !1557, metadata !DIExpression()), !dbg !1598
  call void %10(i8 noundef zeroext 37, i8* noundef %1, i32 noundef %15, i32 noundef %2) #27, !dbg !1880, !callees !1614
  %348 = load i8*, i8** %6, align 4, !dbg !1881, !tbaa !1599
  call void @llvm.dbg.value(metadata i8* %348, metadata !1551, metadata !DIExpression()), !dbg !1598
  %349 = getelementptr inbounds i8, i8* %348, i32 1, !dbg !1881
  call void @llvm.dbg.value(metadata i8* %349, metadata !1551, metadata !DIExpression()), !dbg !1598
  store i8* %349, i8** %6, align 4, !dbg !1881, !tbaa !1599
  br label %354, !dbg !1882

350:                                              ; preds = %121
  %351 = add i32 %15, 1, !dbg !1883
  call void @llvm.dbg.value(metadata i32 %351, metadata !1557, metadata !DIExpression()), !dbg !1598
  call void %10(i8 noundef zeroext %124, i8* noundef %1, i32 noundef %15, i32 noundef %2) #27, !dbg !1884, !callees !1614
  %352 = load i8*, i8** %6, align 4, !dbg !1885, !tbaa !1599
  call void @llvm.dbg.value(metadata i8* %352, metadata !1551, metadata !DIExpression()), !dbg !1598
  %353 = getelementptr inbounds i8, i8* %352, i32 1, !dbg !1885
  call void @llvm.dbg.value(metadata i8* %353, metadata !1551, metadata !DIExpression()), !dbg !1598
  store i8* %353, i8** %6, align 4, !dbg !1885, !tbaa !1599
  br label %354, !dbg !1886

354:                                              ; preds = %350, %346, %337, %333, %274, %233, %228
  %355 = phi i32 [ %351, %350 ], [ %347, %346 ], [ %343, %337 ], [ %334, %333 ], [ %275, %274 ], [ %241, %233 ], [ %229, %228 ]
  %356 = phi i8* [ %90, %350 ], [ %90, %346 ], [ %339, %337 ], [ %279, %333 ], [ %260, %274 ], [ %238, %233 ], [ %230, %228 ]
  br label %11, !dbg !1606, !llvm.loop !1617

357:                                              ; preds = %14
  %358 = icmp ult i32 %15, %2, !dbg !1887
  %359 = add i32 %2, -1, !dbg !1888
  %360 = select i1 %358, i32 %15, i32 %359, !dbg !1888
  call void %10(i8 noundef zeroext 0, i8* noundef %1, i32 noundef %360, i32 noundef %2) #27, !dbg !1889, !callees !1614
  ret i32 %15, !dbg !1890
}

; Function Attrs: nofree nosync nounwind willreturn
declare void @llvm.va_end(i8*) #9

; Function Attrs: mustprogress nofree noinline norecurse nosync nounwind readnone willreturn
define internal void @_out_null(i8 noundef zeroext %0, i8* nocapture noundef %1, i32 noundef %2, i32 noundef %3) #10 !dbg !1891 {
  call void @llvm.dbg.value(metadata i8 %0, metadata !1893, metadata !DIExpression()), !dbg !1897
  call void @llvm.dbg.value(metadata i8* %1, metadata !1894, metadata !DIExpression()), !dbg !1897
  call void @llvm.dbg.value(metadata i32 %2, metadata !1895, metadata !DIExpression()), !dbg !1897
  call void @llvm.dbg.value(metadata i32 %3, metadata !1896, metadata !DIExpression()), !dbg !1897
  ret void, !dbg !1898
}

; Function Attrs: mustprogress nofree noinline norecurse nosync nounwind willreturn writeonly
define internal void @_out_buffer(i8 noundef zeroext %0, i8* nocapture noundef writeonly %1, i32 noundef %2, i32 noundef %3) #5 !dbg !1899 {
  call void @llvm.dbg.value(metadata i8 %0, metadata !1901, metadata !DIExpression()), !dbg !1905
  call void @llvm.dbg.value(metadata i8* %1, metadata !1902, metadata !DIExpression()), !dbg !1905
  call void @llvm.dbg.value(metadata i32 %2, metadata !1903, metadata !DIExpression()), !dbg !1905
  call void @llvm.dbg.value(metadata i32 %3, metadata !1904, metadata !DIExpression()), !dbg !1905
  %5 = icmp ult i32 %2, %3, !dbg !1906
  br i1 %5, label %6, label %8, !dbg !1908

6:                                                ; preds = %4
  %7 = getelementptr inbounds i8, i8* %1, i32 %2, !dbg !1909
  store i8 %0, i8* %7, align 1, !dbg !1911, !tbaa !1609
  br label %8, !dbg !1912

8:                                                ; preds = %6, %4
  ret void, !dbg !1913
}

; Function Attrs: noinline nounwind
define internal void @_out_fct(i8 noundef zeroext %0, i8* nocapture noundef readonly %1, i32 noundef %2, i32 noundef %3) #8 !dbg !1914 {
  call void @llvm.dbg.value(metadata i8 %0, metadata !1916, metadata !DIExpression()), !dbg !1920
  call void @llvm.dbg.value(metadata i8* %1, metadata !1917, metadata !DIExpression()), !dbg !1920
  call void @llvm.dbg.value(metadata i32 %2, metadata !1918, metadata !DIExpression()), !dbg !1920
  call void @llvm.dbg.value(metadata i32 %3, metadata !1919, metadata !DIExpression()), !dbg !1920
  %5 = icmp eq i8 %0, 0, !dbg !1921
  br i1 %5, label %12, label %6, !dbg !1923

6:                                                ; preds = %4
  %7 = bitcast i8* %1 to void (i8, i8*)**, !dbg !1924
  %8 = load void (i8, i8*)*, void (i8, i8*)** %7, align 4, !dbg !1924, !tbaa !1926
  %9 = getelementptr inbounds i8, i8* %1, i32 4, !dbg !1928
  %10 = bitcast i8* %9 to i8**, !dbg !1928
  %11 = load i8*, i8** %10, align 4, !dbg !1928, !tbaa !1929
  call void %8(i8 noundef zeroext %0, i8* noundef %11) #27, !dbg !1930
  br label %12, !dbg !1931

12:                                               ; preds = %6, %4
  ret void, !dbg !1932
}

; Function Attrs: mustprogress nofree noinline norecurse nosync nounwind readnone willreturn
define internal fastcc zeroext i1 @_is_digit(i8 noundef zeroext %0) unnamed_addr #10 !dbg !1933 {
  call void @llvm.dbg.value(metadata i8 %0, metadata !1937, metadata !DIExpression()), !dbg !1938
  %2 = add i8 %0, -48, !dbg !1939
  %3 = icmp ult i8 %2, 10, !dbg !1939
  ret i1 %3, !dbg !1940
}

; Function Attrs: nofree noinline norecurse nosync nounwind
define internal fastcc i32 @_atoi(i8** nocapture noundef %0) unnamed_addr #11 !dbg !1941 {
  call void @llvm.dbg.value(metadata i8** %0, metadata !1946, metadata !DIExpression()), !dbg !1948
  call void @llvm.dbg.value(metadata i32 0, metadata !1947, metadata !DIExpression()), !dbg !1948
  %2 = load i8*, i8** %0, align 4, !dbg !1949, !tbaa !1599
  %3 = load i8, i8* %2, align 1, !dbg !1950, !tbaa !1609
  %4 = call fastcc zeroext i1 @_is_digit(i8 noundef zeroext %3), !dbg !1951
  br i1 %4, label %5, label %16, !dbg !1952

5:                                                ; preds = %1, %5
  %6 = phi i8* [ %9, %5 ], [ %2, %1 ]
  %7 = phi i32 [ %13, %5 ], [ 0, %1 ]
  call void @llvm.dbg.value(metadata i32 %7, metadata !1947, metadata !DIExpression()), !dbg !1948
  %8 = mul i32 %7, 10, !dbg !1953
  %9 = getelementptr inbounds i8, i8* %6, i32 1, !dbg !1955
  store i8* %9, i8** %0, align 4, !dbg !1955, !tbaa !1599
  %10 = load i8, i8* %6, align 1, !dbg !1956, !tbaa !1609
  %11 = zext i8 %10 to i32, !dbg !1956
  %12 = add i32 %8, -48, !dbg !1957
  %13 = add i32 %12, %11, !dbg !1958
  call void @llvm.dbg.value(metadata i32 %13, metadata !1947, metadata !DIExpression()), !dbg !1948
  %14 = load i8, i8* %9, align 1, !dbg !1950, !tbaa !1609
  %15 = call fastcc zeroext i1 @_is_digit(i8 noundef zeroext %14), !dbg !1951
  br i1 %15, label %5, label %16, !dbg !1952, !llvm.loop !1959

16:                                               ; preds = %5, %1
  %17 = phi i32 [ 0, %1 ], [ %13, %5 ], !dbg !1948
  ret i32 %17, !dbg !1961
}

; Function Attrs: nofree nosync nounwind readnone speculatable willreturn
declare i32 @llvm.fshl.i32(i32, i32, i32) #1

; Function Attrs: nofree nosync nounwind readnone speculatable willreturn
declare i64 @llvm.abs.i64(i64, i1 immarg) #1

; Function Attrs: noinline nounwind
define internal fastcc i32 @_ntoa_long_long(void (i8, i8*, i32, i32)* nocapture noundef readonly %0, i8* noundef %1, i32 noundef %2, i32 noundef %3, i64 noundef %4, i1 noundef zeroext %5, i64 noundef %6, i32 noundef %7, i32 noundef %8, i32 noundef %9) unnamed_addr #8 !dbg !1962 {
  %11 = alloca [32 x i8], align 1
  call void @llvm.dbg.value(metadata void (i8, i8*, i32, i32)* %0, metadata !1966, metadata !DIExpression()), !dbg !1982
  call void @llvm.dbg.value(metadata i8* %1, metadata !1967, metadata !DIExpression()), !dbg !1982
  call void @llvm.dbg.value(metadata i32 %2, metadata !1968, metadata !DIExpression()), !dbg !1982
  call void @llvm.dbg.value(metadata i32 %3, metadata !1969, metadata !DIExpression()), !dbg !1982
  call void @llvm.dbg.value(metadata i64 %4, metadata !1970, metadata !DIExpression()), !dbg !1982
  call void @llvm.dbg.value(metadata i1 %5, metadata !1971, metadata !DIExpression(DW_OP_LLVM_convert, 1, DW_ATE_unsigned, DW_OP_LLVM_convert, 8, DW_ATE_unsigned, DW_OP_stack_value)), !dbg !1982
  call void @llvm.dbg.value(metadata i64 %6, metadata !1972, metadata !DIExpression()), !dbg !1982
  call void @llvm.dbg.value(metadata i32 %7, metadata !1973, metadata !DIExpression()), !dbg !1982
  call void @llvm.dbg.value(metadata i32 %8, metadata !1974, metadata !DIExpression()), !dbg !1982
  call void @llvm.dbg.value(metadata i32 %9, metadata !1975, metadata !DIExpression()), !dbg !1982
  %12 = getelementptr inbounds [32 x i8], [32 x i8]* %11, i32 0, i32 0, !dbg !1983
  call void @llvm.lifetime.start.p0i8(i64 32, i8* nonnull %12) #27, !dbg !1983
  call void @llvm.dbg.declare(metadata [32 x i8]* %11, metadata !1976, metadata !DIExpression()), !dbg !1984
  call void @llvm.dbg.value(metadata i32 0, metadata !1977, metadata !DIExpression()), !dbg !1982
  %13 = icmp ne i64 %4, 0, !dbg !1985
  %14 = and i32 %9, -17
  %15 = select i1 %13, i32 %9, i32 %14, !dbg !1987
  call void @llvm.dbg.value(metadata i32 %15, metadata !1975, metadata !DIExpression()), !dbg !1982
  %16 = and i32 %15, 1024, !dbg !1988
  %17 = icmp eq i32 %16, 0, !dbg !1988
  %18 = or i1 %13, %17, !dbg !1989
  br i1 %18, label %19, label %41, !dbg !1989

19:                                               ; preds = %10
  %20 = and i32 %15, 32
  %21 = xor i32 %20, 97
  %22 = add nuw nsw i32 %21, 246
  br label %23, !dbg !1990

23:                                               ; preds = %19, %23
  %24 = phi i32 [ %36, %23 ], [ 0, %19 ], !dbg !1982
  %25 = phi i64 [ %27, %23 ], [ %4, %19 ]
  call void @llvm.dbg.value(metadata i64 %25, metadata !1970, metadata !DIExpression()), !dbg !1982
  call void @llvm.dbg.value(metadata i32 %24, metadata !1977, metadata !DIExpression()), !dbg !1982
  %26 = freeze i64 %25
  %27 = udiv i64 %26, %6, !dbg !1991
  %28 = mul i64 %27, %6
  %29 = sub i64 %26, %28
  %30 = trunc i64 %29 to i32, !dbg !1992
  %31 = and i32 %30, 254, !dbg !1993
  call void @llvm.dbg.value(metadata i32 %30, metadata !1978, metadata !DIExpression()), !dbg !1994
  %32 = icmp ult i32 %31, 10, !dbg !1995
  %33 = select i1 %32, i32 48, i32 %22, !dbg !1993
  %34 = add i32 %33, %30, !dbg !1993
  %35 = trunc i32 %34 to i8, !dbg !1993
  %36 = add nuw nsw i32 %24, 1, !dbg !1996
  call void @llvm.dbg.value(metadata i32 %36, metadata !1977, metadata !DIExpression()), !dbg !1982
  %37 = getelementptr inbounds [32 x i8], [32 x i8]* %11, i32 0, i32 %24, !dbg !1997
  store i8 %35, i8* %37, align 1, !dbg !1998, !tbaa !1609
  call void @llvm.dbg.value(metadata i64 %27, metadata !1970, metadata !DIExpression()), !dbg !1982
  %38 = icmp uge i64 %25, %6, !dbg !1999
  %39 = icmp ult i32 %24, 31, !dbg !2000
  %40 = select i1 %38, i1 %39, i1 false, !dbg !2000
  br i1 %40, label %23, label %41, !dbg !2001, !llvm.loop !2002

41:                                               ; preds = %23, %10
  %42 = phi i32 [ 0, %10 ], [ %36, %23 ], !dbg !1982
  call void @llvm.dbg.value(metadata i32 %42, metadata !1977, metadata !DIExpression()), !dbg !1982
  %43 = trunc i64 %6 to i32, !dbg !2004
  %44 = call fastcc i32 @_ntoa_format(void (i8, i8*, i32, i32)* noundef %0, i8* noundef %1, i32 noundef %2, i32 noundef %3, i8* noundef nonnull %12, i32 noundef %42, i1 noundef zeroext %5, i32 noundef %43, i32 noundef %7, i32 noundef %8, i32 noundef %15), !dbg !2005
  call void @llvm.lifetime.end.p0i8(i64 32, i8* nonnull %12) #27, !dbg !2006
  ret i32 %44, !dbg !2007
}

; Function Attrs: nofree nosync nounwind readnone speculatable willreturn
declare i32 @llvm.abs.i32(i32, i1 immarg) #1

; Function Attrs: noinline nounwind
define internal fastcc i32 @_ntoa_long(void (i8, i8*, i32, i32)* nocapture noundef readonly %0, i8* noundef %1, i32 noundef %2, i32 noundef %3, i32 noundef %4, i1 noundef zeroext %5, i32 noundef %6, i32 noundef %7, i32 noundef %8, i32 noundef %9) unnamed_addr #8 !dbg !2008 {
  %11 = alloca [32 x i8], align 1
  call void @llvm.dbg.value(metadata void (i8, i8*, i32, i32)* %0, metadata !2012, metadata !DIExpression()), !dbg !2028
  call void @llvm.dbg.value(metadata i8* %1, metadata !2013, metadata !DIExpression()), !dbg !2028
  call void @llvm.dbg.value(metadata i32 %2, metadata !2014, metadata !DIExpression()), !dbg !2028
  call void @llvm.dbg.value(metadata i32 %3, metadata !2015, metadata !DIExpression()), !dbg !2028
  call void @llvm.dbg.value(metadata i32 %4, metadata !2016, metadata !DIExpression()), !dbg !2028
  call void @llvm.dbg.value(metadata i1 %5, metadata !2017, metadata !DIExpression(DW_OP_LLVM_convert, 1, DW_ATE_unsigned, DW_OP_LLVM_convert, 8, DW_ATE_unsigned, DW_OP_stack_value)), !dbg !2028
  call void @llvm.dbg.value(metadata i32 %6, metadata !2018, metadata !DIExpression()), !dbg !2028
  call void @llvm.dbg.value(metadata i32 %7, metadata !2019, metadata !DIExpression()), !dbg !2028
  call void @llvm.dbg.value(metadata i32 %8, metadata !2020, metadata !DIExpression()), !dbg !2028
  call void @llvm.dbg.value(metadata i32 %9, metadata !2021, metadata !DIExpression()), !dbg !2028
  %12 = getelementptr inbounds [32 x i8], [32 x i8]* %11, i32 0, i32 0, !dbg !2029
  call void @llvm.lifetime.start.p0i8(i64 32, i8* nonnull %12) #27, !dbg !2029
  call void @llvm.dbg.declare(metadata [32 x i8]* %11, metadata !2022, metadata !DIExpression()), !dbg !2030
  call void @llvm.dbg.value(metadata i32 0, metadata !2023, metadata !DIExpression()), !dbg !2028
  %13 = icmp ne i32 %4, 0, !dbg !2031
  %14 = and i32 %9, -17
  %15 = select i1 %13, i32 %9, i32 %14, !dbg !2033
  call void @llvm.dbg.value(metadata i32 %15, metadata !2021, metadata !DIExpression()), !dbg !2028
  %16 = and i32 %15, 1024, !dbg !2034
  %17 = icmp eq i32 %16, 0, !dbg !2034
  %18 = or i1 %13, %17, !dbg !2035
  br i1 %18, label %19, label %40, !dbg !2035

19:                                               ; preds = %10
  %20 = and i32 %15, 32
  %21 = xor i32 %20, 97
  %22 = add nuw nsw i32 %21, 246
  br label %23, !dbg !2036

23:                                               ; preds = %19, %23
  %24 = phi i32 [ %35, %23 ], [ 0, %19 ], !dbg !2028
  %25 = phi i32 [ %27, %23 ], [ %4, %19 ]
  call void @llvm.dbg.value(metadata i32 %25, metadata !2016, metadata !DIExpression()), !dbg !2028
  call void @llvm.dbg.value(metadata i32 %24, metadata !2023, metadata !DIExpression()), !dbg !2028
  %26 = freeze i32 %25
  %27 = udiv i32 %26, %6, !dbg !2037
  %28 = mul i32 %27, %6
  %29 = sub i32 %26, %28
  %30 = and i32 %29, 254, !dbg !2038
  call void @llvm.dbg.value(metadata i32 %29, metadata !2024, metadata !DIExpression()), !dbg !2039
  %31 = icmp ult i32 %30, 10, !dbg !2040
  %32 = select i1 %31, i32 48, i32 %22, !dbg !2038
  %33 = add i32 %29, %32, !dbg !2038
  %34 = trunc i32 %33 to i8, !dbg !2038
  %35 = add nuw nsw i32 %24, 1, !dbg !2041
  call void @llvm.dbg.value(metadata i32 %35, metadata !2023, metadata !DIExpression()), !dbg !2028
  %36 = getelementptr inbounds [32 x i8], [32 x i8]* %11, i32 0, i32 %24, !dbg !2042
  store i8 %34, i8* %36, align 1, !dbg !2043, !tbaa !1609
  call void @llvm.dbg.value(metadata i32 %27, metadata !2016, metadata !DIExpression()), !dbg !2028
  %37 = icmp uge i32 %25, %6, !dbg !2044
  %38 = icmp ult i32 %24, 31, !dbg !2045
  %39 = select i1 %37, i1 %38, i1 false, !dbg !2045
  br i1 %39, label %23, label %40, !dbg !2046, !llvm.loop !2047

40:                                               ; preds = %23, %10
  %41 = phi i32 [ 0, %10 ], [ %35, %23 ], !dbg !2028
  call void @llvm.dbg.value(metadata i32 %41, metadata !2023, metadata !DIExpression()), !dbg !2028
  %42 = call fastcc i32 @_ntoa_format(void (i8, i8*, i32, i32)* noundef %0, i8* noundef %1, i32 noundef %2, i32 noundef %3, i8* noundef nonnull %12, i32 noundef %41, i1 noundef zeroext %5, i32 noundef %6, i32 noundef %7, i32 noundef %8, i32 noundef %15), !dbg !2049
  call void @llvm.lifetime.end.p0i8(i64 32, i8* nonnull %12) #27, !dbg !2050
  ret i32 %42, !dbg !2051
}

; Function Attrs: noinline nounwind
define internal fastcc i32 @_ftoa(void (i8, i8*, i32, i32)* nocapture noundef readonly %0, i8* noundef %1, i32 noundef %2, i32 noundef %3, double noundef %4, i32 noundef %5, i32 noundef %6, i32 noundef %7) unnamed_addr #8 !dbg !202 {
  %9 = alloca [32 x i8], align 1
  %10 = getelementptr inbounds [32 x i8], [32 x i8]* %9, i32 0, i32 0, !dbg !2052
  call void @llvm.dbg.value(metadata void (i8, i8*, i32, i32)* %0, metadata !227, metadata !DIExpression()), !dbg !2052
  call void @llvm.dbg.value(metadata i8* %1, metadata !228, metadata !DIExpression()), !dbg !2052
  call void @llvm.dbg.value(metadata i32 %2, metadata !229, metadata !DIExpression()), !dbg !2052
  call void @llvm.dbg.value(metadata i32 %3, metadata !230, metadata !DIExpression()), !dbg !2052
  call void @llvm.dbg.value(metadata double %4, metadata !231, metadata !DIExpression()), !dbg !2052
  call void @llvm.dbg.value(metadata i32 %5, metadata !232, metadata !DIExpression()), !dbg !2052
  call void @llvm.dbg.value(metadata i32 %6, metadata !233, metadata !DIExpression()), !dbg !2052
  call void @llvm.dbg.value(metadata i32 %7, metadata !234, metadata !DIExpression()), !dbg !2052
  call void @llvm.dbg.value(metadata i32 %2, metadata !235, metadata !DIExpression()), !dbg !2052
  %11 = getelementptr inbounds [32 x i8], [32 x i8]* %9, i32 0, i32 0, !dbg !2053
  call void @llvm.lifetime.start.p0i8(i64 32, i8* nonnull %11) #27, !dbg !2053
  call void @llvm.dbg.declare(metadata [32 x i8]* %9, metadata !237, metadata !DIExpression()), !dbg !2054
  call void @llvm.dbg.value(metadata i32 0, metadata !241, metadata !DIExpression()), !dbg !2052
  call void @llvm.dbg.value(metadata double 0.000000e+00, metadata !242, metadata !DIExpression()), !dbg !2052
  call void @llvm.dbg.value(metadata double 0x41DFFFFFFFC00000, metadata !243, metadata !DIExpression()), !dbg !2052
  %12 = fcmp uno double %4, 0.000000e+00, !dbg !2055
  br i1 %12, label %13, label %17, !dbg !2057

13:                                               ; preds = %8
  %14 = add i32 %2, 1, !dbg !2058
  call void @llvm.dbg.value(metadata i32 %14, metadata !229, metadata !DIExpression()), !dbg !2052
  call void %0(i8 noundef zeroext 110, i8* noundef %1, i32 noundef %2, i32 noundef %3) #27, !dbg !2060, !callees !1614
  %15 = add i32 %2, 2, !dbg !2061
  call void @llvm.dbg.value(metadata i32 %15, metadata !229, metadata !DIExpression()), !dbg !2052
  call void %0(i8 noundef zeroext 97, i8* noundef %1, i32 noundef %14, i32 noundef %3) #27, !dbg !2062, !callees !1614
  %16 = add i32 %2, 3, !dbg !2063
  call void @llvm.dbg.value(metadata i32 %16, metadata !229, metadata !DIExpression()), !dbg !2052
  call void %0(i8 noundef zeroext 110, i8* noundef %1, i32 noundef %15, i32 noundef %3) #27, !dbg !2064, !callees !1614
  br label %221, !dbg !2065

17:                                               ; preds = %8
  call void @llvm.dbg.value(metadata i8 0, metadata !245, metadata !DIExpression()), !dbg !2052
  %18 = fcmp olt double %4, 0.000000e+00, !dbg !2066
  %19 = fsub double 0.000000e+00, %4, !dbg !2068
  %20 = select i1 %18, double %19, double %4, !dbg !2068
  call void @llvm.dbg.value(metadata i8 poison, metadata !245, metadata !DIExpression()), !dbg !2052
  call void @llvm.dbg.value(metadata double %20, metadata !231, metadata !DIExpression()), !dbg !2052
  %21 = and i32 %7, 1024, !dbg !2069
  %22 = icmp eq i32 %21, 0, !dbg !2069
  %23 = select i1 %22, i32 6, i32 %5, !dbg !2071
  call void @llvm.dbg.value(metadata i32 %23, metadata !232, metadata !DIExpression()), !dbg !2052
  call void @llvm.dbg.value(metadata i32 0, metadata !241, metadata !DIExpression()), !dbg !2052
  %24 = icmp ugt i32 %23, 9, !dbg !2072
  br i1 %24, label %25, label %39, !dbg !2073

25:                                               ; preds = %17
  %26 = add i32 %23, -10, !dbg !2073
  %27 = call i32 @llvm.umin.i32(i32 %26, i32 31), !dbg !2073
  %28 = add nuw nsw i32 %27, 1, !dbg !2073
  call void @llvm.memset.p0i8.i32(i8* noundef nonnull align 1 %10, i8 48, i32 %28, i1 false), !dbg !2074, !tbaa !1609
  %29 = call i32 @llvm.umin.i32(i32 %26, i32 31), !dbg !2073
  %30 = add nuw nsw i32 %29, 1, !dbg !2073
  br label %31, !dbg !2073

31:                                               ; preds = %25, %31
  %32 = phi i32 [ %34, %31 ], [ 0, %25 ]
  %33 = phi i32 [ %35, %31 ], [ %23, %25 ]
  call void @llvm.dbg.value(metadata i32 %32, metadata !241, metadata !DIExpression()), !dbg !2052
  call void @llvm.dbg.value(metadata i32 %33, metadata !232, metadata !DIExpression()), !dbg !2052
  %34 = add nuw nsw i32 %32, 1, !dbg !2076
  call void @llvm.dbg.value(metadata i32 %34, metadata !241, metadata !DIExpression()), !dbg !2052
  %35 = add i32 %33, -1, !dbg !2077
  call void @llvm.dbg.value(metadata i32 %35, metadata !232, metadata !DIExpression()), !dbg !2052
  %36 = icmp eq i32 %32, %29, !dbg !2072
  br i1 %36, label %37, label %31, !dbg !2073, !llvm.loop !2078

37:                                               ; preds = %31
  %38 = icmp ult i32 %32, 31, !dbg !2080
  br label %39, !dbg !2081

39:                                               ; preds = %37, %17
  %40 = phi i32 [ %23, %17 ], [ %35, %37 ]
  %41 = phi i32 [ 0, %17 ], [ %30, %37 ], !dbg !2052
  %42 = phi i1 [ true, %17 ], [ %38, %37 ], !dbg !2080
  %43 = fptosi double %20 to i32, !dbg !2081
  call void @llvm.dbg.value(metadata i32 %43, metadata !247, metadata !DIExpression()), !dbg !2052
  %44 = sitofp i32 %43 to double, !dbg !2082
  %45 = fsub double %20, %44, !dbg !2083
  %46 = getelementptr inbounds [10 x double], [10 x double]* @_ftoa.pow10, i32 0, i32 %40, !dbg !2084
  %47 = load double, double* %46, align 8, !dbg !2084, !tbaa !2085
  %48 = fmul double %45, %47, !dbg !2087
  call void @llvm.dbg.value(metadata double %48, metadata !248, metadata !DIExpression()), !dbg !2052
  %49 = fptoui double %48 to i32, !dbg !2088
  call void @llvm.dbg.value(metadata i32 %49, metadata !249, metadata !DIExpression()), !dbg !2052
  %50 = uitofp i32 %49 to double, !dbg !2089
  %51 = fsub double %48, %50, !dbg !2090
  call void @llvm.dbg.value(metadata double %51, metadata !242, metadata !DIExpression()), !dbg !2052
  %52 = fcmp ogt double %51, 5.000000e-01, !dbg !2091
  br i1 %52, label %53, label %59, !dbg !2093

53:                                               ; preds = %39
  %54 = add i32 %49, 1, !dbg !2094
  call void @llvm.dbg.value(metadata i32 %54, metadata !249, metadata !DIExpression()), !dbg !2052
  %55 = uitofp i32 %54 to double, !dbg !2096
  %56 = fcmp ugt double %47, %55, !dbg !2098
  br i1 %56, label %68, label %57, !dbg !2099

57:                                               ; preds = %53
  call void @llvm.dbg.value(metadata i32 0, metadata !249, metadata !DIExpression()), !dbg !2052
  %58 = add nsw i32 %43, 1, !dbg !2100
  call void @llvm.dbg.value(metadata i32 %58, metadata !247, metadata !DIExpression()), !dbg !2052
  br label %68, !dbg !2102

59:                                               ; preds = %39
  %60 = fcmp olt double %51, 5.000000e-01, !dbg !2103
  br i1 %60, label %68, label %61, !dbg !2105

61:                                               ; preds = %59
  %62 = icmp eq i32 %49, 0, !dbg !2106
  %63 = and i32 %49, 1
  %64 = icmp ne i32 %63, 0
  %65 = or i1 %62, %64, !dbg !2108
  %66 = zext i1 %65 to i32, !dbg !2108
  %67 = add i32 %66, %49, !dbg !2108
  br label %68, !dbg !2108

68:                                               ; preds = %61, %59, %53, %57
  %69 = phi i32 [ %58, %57 ], [ %43, %53 ], [ %43, %59 ], [ %43, %61 ], !dbg !2052
  %70 = phi i32 [ 0, %57 ], [ %54, %53 ], [ %49, %59 ], [ %67, %61 ], !dbg !2052
  call void @llvm.dbg.value(metadata i32 %70, metadata !249, metadata !DIExpression()), !dbg !2052
  call void @llvm.dbg.value(metadata i32 %69, metadata !247, metadata !DIExpression()), !dbg !2052
  %71 = fcmp ogt double %20, 0x41DFFFFFFFC00000, !dbg !2109
  br i1 %71, label %221, label %72, !dbg !2111

72:                                               ; preds = %68
  %73 = icmp eq i32 %40, 0, !dbg !2112
  br i1 %73, label %74, label %83, !dbg !2113

74:                                               ; preds = %72
  %75 = sitofp i32 %69 to double, !dbg !2114
  %76 = fsub double %20, %75, !dbg !2116
  call void @llvm.dbg.value(metadata double %76, metadata !242, metadata !DIExpression()), !dbg !2052
  %77 = fcmp uge double %76, 5.000000e-01, !dbg !2117
  %78 = and i32 %69, 1
  %79 = icmp ne i32 %78, 0
  %80 = select i1 %77, i1 %79, i1 false, !dbg !2117
  %81 = zext i1 %80 to i32, !dbg !2117
  %82 = add nsw i32 %69, %81, !dbg !2117
  br label %123, !dbg !2117

83:                                               ; preds = %72
  call void @llvm.dbg.value(metadata i32 %40, metadata !250, metadata !DIExpression()), !dbg !2119
  br i1 %42, label %84, label %100, !dbg !2120

84:                                               ; preds = %83, %84
  %85 = phi i32 [ %95, %84 ], [ %41, %83 ], !dbg !2052
  %86 = phi i32 [ %90, %84 ], [ %70, %83 ], !dbg !2052
  %87 = phi i32 [ %88, %84 ], [ %40, %83 ], !dbg !2119
  call void @llvm.dbg.value(metadata i32 %87, metadata !250, metadata !DIExpression()), !dbg !2119
  call void @llvm.dbg.value(metadata i32 %86, metadata !249, metadata !DIExpression()), !dbg !2052
  call void @llvm.dbg.value(metadata i32 %85, metadata !241, metadata !DIExpression()), !dbg !2052
  %88 = add i32 %87, -1, !dbg !2121
  call void @llvm.dbg.value(metadata i32 %88, metadata !250, metadata !DIExpression()), !dbg !2119
  %89 = freeze i32 %86
  %90 = udiv i32 %89, 10, !dbg !2123
  %91 = mul i32 %90, 10
  %92 = sub i32 %89, %91
  %93 = trunc i32 %92 to i8, !dbg !2125
  %94 = or i8 %93, 48, !dbg !2125
  %95 = add nuw nsw i32 %85, 1, !dbg !2126
  call void @llvm.dbg.value(metadata i32 %95, metadata !241, metadata !DIExpression()), !dbg !2052
  %96 = getelementptr inbounds [32 x i8], [32 x i8]* %9, i32 0, i32 %85, !dbg !2127
  store i8 %94, i8* %96, align 1, !dbg !2128, !tbaa !1609
  call void @llvm.dbg.value(metadata i32 %90, metadata !249, metadata !DIExpression()), !dbg !2052
  %97 = icmp ugt i32 %86, 9, !dbg !2123
  %98 = icmp ult i32 %85, 31
  %99 = select i1 %97, i1 %98, i1 false, !dbg !2129
  br i1 %99, label %84, label %100, !dbg !2129, !llvm.loop !2130

100:                                              ; preds = %84, %83
  %101 = phi i32 [ %41, %83 ], [ %95, %84 ], !dbg !2052
  %102 = phi i32 [ %40, %83 ], [ %88, %84 ], !dbg !2119
  call void @llvm.dbg.value(metadata i32 %102, metadata !250, metadata !DIExpression()), !dbg !2119
  call void @llvm.dbg.value(metadata i32 %101, metadata !241, metadata !DIExpression()), !dbg !2052
  %103 = icmp ult i32 %101, 32, !dbg !2132
  %104 = xor i1 %103, true, !dbg !2133
  %105 = icmp eq i32 %102, 0
  %106 = select i1 %104, i1 true, i1 %105, !dbg !2133
  call void @llvm.dbg.value(metadata i32 %102, metadata !250, metadata !DIExpression(DW_OP_constu, 1, DW_OP_minus, DW_OP_stack_value)), !dbg !2119
  br i1 %106, label %117, label %107, !dbg !2133

107:                                              ; preds = %100, %107
  %108 = phi i32 [ %110, %107 ], [ %102, %100 ]
  %109 = phi i32 [ %111, %107 ], [ %101, %100 ]
  call void @llvm.dbg.value(metadata i32 %108, metadata !250, metadata !DIExpression()), !dbg !2119
  call void @llvm.dbg.value(metadata i32 %109, metadata !241, metadata !DIExpression()), !dbg !2052
  %110 = add i32 %108, -1, !dbg !2134
  call void @llvm.dbg.value(metadata i32 %110, metadata !250, metadata !DIExpression()), !dbg !2119
  %111 = add i32 %109, 1, !dbg !2135
  call void @llvm.dbg.value(metadata i32 %111, metadata !241, metadata !DIExpression()), !dbg !2052
  %112 = getelementptr inbounds [32 x i8], [32 x i8]* %9, i32 0, i32 %109, !dbg !2137
  store i8 48, i8* %112, align 1, !dbg !2138, !tbaa !1609
  %113 = icmp ult i32 %111, 32, !dbg !2132
  %114 = xor i1 %113, true, !dbg !2133
  %115 = icmp eq i32 %110, 0
  %116 = select i1 %114, i1 true, i1 %115, !dbg !2133
  call void @llvm.dbg.value(metadata i32 %110, metadata !250, metadata !DIExpression(DW_OP_constu, 1, DW_OP_minus, DW_OP_stack_value)), !dbg !2119
  br i1 %116, label %117, label %107, !dbg !2133, !llvm.loop !2139

117:                                              ; preds = %107, %100
  %118 = phi i32 [ %101, %100 ], [ %111, %107 ], !dbg !2119
  %119 = phi i1 [ %103, %100 ], [ %113, %107 ], !dbg !2132
  br i1 %119, label %120, label %123, !dbg !2142

120:                                              ; preds = %117
  %121 = add i32 %118, 1, !dbg !2143
  call void @llvm.dbg.value(metadata i32 %121, metadata !241, metadata !DIExpression()), !dbg !2052
  %122 = getelementptr inbounds [32 x i8], [32 x i8]* %9, i32 0, i32 %118, !dbg !2146
  store i8 46, i8* %122, align 1, !dbg !2147, !tbaa !1609
  br label %123, !dbg !2148

123:                                              ; preds = %74, %117, %120
  %124 = phi i32 [ %121, %120 ], [ %118, %117 ], [ %41, %74 ], !dbg !2052
  %125 = phi i32 [ %69, %120 ], [ %69, %117 ], [ %82, %74 ], !dbg !2052
  call void @llvm.dbg.value(metadata i32 %125, metadata !247, metadata !DIExpression()), !dbg !2052
  call void @llvm.dbg.value(metadata i32 %124, metadata !241, metadata !DIExpression()), !dbg !2052
  %126 = icmp ult i32 %124, 32, !dbg !2149
  br i1 %126, label %127, label %142, !dbg !2150

127:                                              ; preds = %123, %127
  %128 = phi i32 [ %136, %127 ], [ %124, %123 ], !dbg !2052
  %129 = phi i32 [ %131, %127 ], [ %125, %123 ], !dbg !2052
  call void @llvm.dbg.value(metadata i32 %129, metadata !247, metadata !DIExpression()), !dbg !2052
  call void @llvm.dbg.value(metadata i32 %128, metadata !241, metadata !DIExpression()), !dbg !2052
  %130 = freeze i32 %129
  %131 = sdiv i32 %130, 10, !dbg !2151
  %132 = mul i32 %131, 10
  %133 = sub i32 %130, %132
  %134 = trunc i32 %133 to i8, !dbg !2154
  %135 = add i8 %134, 48, !dbg !2154
  %136 = add nuw nsw i32 %128, 1, !dbg !2155
  call void @llvm.dbg.value(metadata i32 %136, metadata !241, metadata !DIExpression()), !dbg !2052
  %137 = getelementptr inbounds [32 x i8], [32 x i8]* %9, i32 0, i32 %128, !dbg !2156
  store i8 %135, i8* %137, align 1, !dbg !2157, !tbaa !1609
  call void @llvm.dbg.value(metadata i32 %131, metadata !247, metadata !DIExpression()), !dbg !2052
  %138 = add i32 %129, -10, !dbg !2151
  %139 = icmp ult i32 %138, -19, !dbg !2151
  %140 = icmp ult i32 %128, 31
  %141 = select i1 %139, i1 %140, i1 false, !dbg !2158
  br i1 %141, label %127, label %142, !dbg !2158, !llvm.loop !2159

142:                                              ; preds = %127, %123
  %143 = phi i32 [ %124, %123 ], [ %136, %127 ], !dbg !2052
  call void @llvm.dbg.value(metadata i32 %143, metadata !241, metadata !DIExpression()), !dbg !2052
  %144 = and i32 %7, 2, !dbg !2161
  %145 = icmp ne i32 %144, 0, !dbg !2161
  %146 = and i32 %7, 3, !dbg !2163
  %147 = icmp eq i32 %146, 1, !dbg !2163
  br i1 %147, label %148, label %171, !dbg !2163

148:                                              ; preds = %142
  %149 = icmp eq i32 %6, 0, !dbg !2164
  br i1 %149, label %156, label %150, !dbg !2167

150:                                              ; preds = %148
  %151 = and i32 %7, 12
  %152 = icmp ne i32 %151, 0
  %153 = or i1 %18, %152, !dbg !2168
  %154 = sext i1 %153 to i32, !dbg !2168
  %155 = add i32 %154, %6, !dbg !2168
  br label %156, !dbg !2168

156:                                              ; preds = %150, %148
  %157 = phi i32 [ 0, %148 ], [ %155, %150 ]
  call void @llvm.dbg.value(metadata i32 %157, metadata !233, metadata !DIExpression()), !dbg !2052
  call void @llvm.dbg.value(metadata i32 %143, metadata !241, metadata !DIExpression()), !dbg !2052
  %158 = icmp ult i32 %143, %157, !dbg !2169
  %159 = icmp ult i32 %143, 32, !dbg !2170
  %160 = and i1 %158, %159, !dbg !2170
  br i1 %160, label %161, label %171, !dbg !2171

161:                                              ; preds = %156
  %162 = getelementptr [32 x i8], [32 x i8]* %9, i32 0, i32 %143, !dbg !2171
  %163 = xor i32 %143, -1, !dbg !2171
  %164 = add i32 %157, %163, !dbg !2171
  %165 = sub i32 31, %143, !dbg !2171
  %166 = call i32 @llvm.umin.i32(i32 %164, i32 %165), !dbg !2171
  %167 = add nuw i32 %166, 1, !dbg !2171
  call void @llvm.memset.p0i8.i32(i8* align 1 %162, i8 48, i32 %167, i1 false), !dbg !2172, !tbaa !1609
  %168 = call i32 @llvm.umin.i32(i32 %164, i32 %165), !dbg !2171
  %169 = add i32 %143, %168, !dbg !2171
  call void @llvm.dbg.value(metadata i32 undef, metadata !241, metadata !DIExpression()), !dbg !2052
  call void @llvm.dbg.value(metadata i32 undef, metadata !241, metadata !DIExpression(DW_OP_plus_uconst, 1, DW_OP_stack_value)), !dbg !2052
  %170 = add i32 %169, 1, !dbg !2171
  br label %171, !dbg !2174

171:                                              ; preds = %161, %156, %142
  %172 = phi i32 [ %6, %142 ], [ %157, %156 ], [ %157, %161 ]
  %173 = phi i32 [ %143, %142 ], [ %143, %156 ], [ %170, %161 ], !dbg !2155
  call void @llvm.dbg.value(metadata i32 %173, metadata !241, metadata !DIExpression()), !dbg !2052
  call void @llvm.dbg.value(metadata i32 %172, metadata !233, metadata !DIExpression()), !dbg !2052
  %174 = icmp ult i32 %173, 32, !dbg !2174
  br i1 %174, label %175, label %186, !dbg !2176

175:                                              ; preds = %171
  br i1 %18, label %182, label %176, !dbg !2177

176:                                              ; preds = %175
  %177 = and i32 %7, 4, !dbg !2179
  %178 = icmp eq i32 %177, 0, !dbg !2179
  br i1 %178, label %179, label %182, !dbg !2182

179:                                              ; preds = %176
  %180 = and i32 %7, 8, !dbg !2183
  %181 = icmp eq i32 %180, 0, !dbg !2183
  br i1 %181, label %186, label %182, !dbg !2185

182:                                              ; preds = %179, %176, %175
  %183 = phi i8 [ 45, %175 ], [ 43, %176 ], [ 32, %179 ]
  %184 = add i32 %173, 1, !dbg !2186
  %185 = getelementptr inbounds [32 x i8], [32 x i8]* %9, i32 0, i32 %173, !dbg !2186
  store i8 %183, i8* %185, align 1, !dbg !2186, !tbaa !1609
  br label %186, !dbg !2187

186:                                              ; preds = %182, %179, %171
  %187 = phi i32 [ %173, %179 ], [ %173, %171 ], [ %184, %182 ], !dbg !2052
  call void @llvm.dbg.value(metadata i32 %187, metadata !241, metadata !DIExpression()), !dbg !2052
  %188 = and i32 %7, 3, !dbg !2187
  %189 = icmp eq i32 %188, 0, !dbg !2187
  %190 = icmp ult i32 %187, %172
  %191 = select i1 %189, i1 %190, i1 false, !dbg !2187
  call void @llvm.dbg.value(metadata i32 %187, metadata !253, metadata !DIExpression()), !dbg !2188
  call void @llvm.dbg.value(metadata i32 %2, metadata !229, metadata !DIExpression()), !dbg !2052
  br i1 %191, label %192, label %198, !dbg !2187

192:                                              ; preds = %186, %192
  %193 = phi i32 [ %196, %192 ], [ %187, %186 ]
  %194 = phi i32 [ %195, %192 ], [ %2, %186 ]
  call void @llvm.dbg.value(metadata i32 %193, metadata !253, metadata !DIExpression()), !dbg !2188
  call void @llvm.dbg.value(metadata i32 %194, metadata !229, metadata !DIExpression()), !dbg !2052
  %195 = add i32 %194, 1, !dbg !2189
  call void @llvm.dbg.value(metadata i32 %195, metadata !229, metadata !DIExpression()), !dbg !2052
  call void %0(i8 noundef zeroext 32, i8* noundef %1, i32 noundef %194, i32 noundef %3) #27, !dbg !2192, !callees !1614
  %196 = add nuw i32 %193, 1, !dbg !2193
  call void @llvm.dbg.value(metadata i32 %196, metadata !253, metadata !DIExpression()), !dbg !2188
  %197 = icmp eq i32 %196, %172, !dbg !2194
  br i1 %197, label %198, label %192, !dbg !2195, !llvm.loop !2196

198:                                              ; preds = %192, %186
  %199 = phi i32 [ %2, %186 ], [ %195, %192 ]
  call void @llvm.dbg.value(metadata i32 %199, metadata !229, metadata !DIExpression()), !dbg !2052
  call void @llvm.dbg.value(metadata i32 0, metadata !257, metadata !DIExpression()), !dbg !2198
  %200 = icmp eq i32 %187, 0, !dbg !2199
  br i1 %200, label %201, label %206, !dbg !2201

201:                                              ; preds = %206, %198
  %202 = phi i32 [ %199, %198 ], [ %213, %206 ]
  %203 = sub i32 %202, %2
  %204 = icmp ult i32 %203, %172
  %205 = select i1 %145, i1 %204, i1 false, !dbg !2202
  call void @llvm.dbg.value(metadata i32 %202, metadata !229, metadata !DIExpression()), !dbg !2052
  br i1 %205, label %216, label %221, !dbg !2202

206:                                              ; preds = %198, %206
  %207 = phi i32 [ %214, %206 ], [ 0, %198 ]
  %208 = phi i32 [ %213, %206 ], [ %199, %198 ]
  call void @llvm.dbg.value(metadata i32 %207, metadata !257, metadata !DIExpression()), !dbg !2198
  call void @llvm.dbg.value(metadata i32 %208, metadata !229, metadata !DIExpression()), !dbg !2052
  %209 = xor i32 %207, -1, !dbg !2203
  %210 = add i32 %187, %209, !dbg !2203
  %211 = getelementptr inbounds [32 x i8], [32 x i8]* %9, i32 0, i32 %210, !dbg !2205
  %212 = load i8, i8* %211, align 1, !dbg !2205, !tbaa !1609
  %213 = add i32 %208, 1, !dbg !2206
  call void @llvm.dbg.value(metadata i32 %213, metadata !229, metadata !DIExpression()), !dbg !2052
  call void %0(i8 noundef zeroext %212, i8* noundef %1, i32 noundef %208, i32 noundef %3) #27, !dbg !2207, !callees !1614
  %214 = add nuw i32 %207, 1, !dbg !2208
  call void @llvm.dbg.value(metadata i32 %214, metadata !257, metadata !DIExpression()), !dbg !2198
  %215 = icmp eq i32 %214, %187, !dbg !2199
  br i1 %215, label %201, label %206, !dbg !2201, !llvm.loop !2209

216:                                              ; preds = %201, %216
  %217 = phi i32 [ %218, %216 ], [ %202, %201 ]
  call void @llvm.dbg.value(metadata i32 %217, metadata !229, metadata !DIExpression()), !dbg !2052
  %218 = add i32 %217, 1, !dbg !2211
  call void @llvm.dbg.value(metadata i32 %218, metadata !229, metadata !DIExpression()), !dbg !2052
  call void %0(i8 noundef zeroext 32, i8* noundef %1, i32 noundef %217, i32 noundef %3) #27, !dbg !2215, !callees !1614
  %219 = sub i32 %218, %2, !dbg !2216
  %220 = icmp ult i32 %219, %172, !dbg !2217
  br i1 %220, label %216, label %221, !dbg !2218, !llvm.loop !2219

221:                                              ; preds = %216, %68, %201, %13
  %222 = phi i32 [ %16, %13 ], [ 0, %68 ], [ %202, %201 ], [ %218, %216 ], !dbg !2052
  call void @llvm.lifetime.end.p0i8(i64 32, i8* nonnull %11) #27, !dbg !2221
  ret i32 %222, !dbg !2221
}

; Function Attrs: nofree noinline norecurse nosync nounwind readonly
define internal fastcc i32 @_strnlen_s(i8* noundef %0, i32 noundef %1) unnamed_addr #12 !dbg !2222 {
  call void @llvm.dbg.value(metadata i8* %0, metadata !2226, metadata !DIExpression()), !dbg !2229
  call void @llvm.dbg.value(metadata i32 %1, metadata !2227, metadata !DIExpression()), !dbg !2229
  call void @llvm.dbg.value(metadata i8* %0, metadata !2228, metadata !DIExpression()), !dbg !2229
  %3 = load i8, i8* %0, align 1, !dbg !2230, !tbaa !1609
  %4 = icmp eq i8 %3, 0, !dbg !2230
  %5 = icmp eq i32 %1, 0, !dbg !2233
  %6 = or i1 %4, %5, !dbg !2233
  call void @llvm.dbg.value(metadata i32 %1, metadata !2227, metadata !DIExpression(DW_OP_constu, 1, DW_OP_minus, DW_OP_stack_value)), !dbg !2229
  br i1 %6, label %16, label %7, !dbg !2233

7:                                                ; preds = %2, %7
  %8 = phi i8* [ %11, %7 ], [ %0, %2 ]
  %9 = phi i32 [ %10, %7 ], [ %1, %2 ]
  call void @llvm.dbg.value(metadata i8* %8, metadata !2228, metadata !DIExpression()), !dbg !2229
  call void @llvm.dbg.value(metadata i32 %9, metadata !2227, metadata !DIExpression()), !dbg !2229
  %10 = add i32 %9, -1, !dbg !2234
  call void @llvm.dbg.value(metadata i32 %10, metadata !2227, metadata !DIExpression()), !dbg !2229
  %11 = getelementptr inbounds i8, i8* %8, i32 1, !dbg !2235
  call void @llvm.dbg.value(metadata i8* %11, metadata !2228, metadata !DIExpression()), !dbg !2229
  %12 = load i8, i8* %11, align 1, !dbg !2230, !tbaa !1609
  %13 = icmp eq i8 %12, 0, !dbg !2230
  %14 = icmp eq i32 %10, 0, !dbg !2233
  %15 = select i1 %13, i1 true, i1 %14, !dbg !2233
  call void @llvm.dbg.value(metadata i32 %10, metadata !2227, metadata !DIExpression(DW_OP_constu, 1, DW_OP_minus, DW_OP_stack_value)), !dbg !2229
  br i1 %15, label %16, label %7, !dbg !2233, !llvm.loop !2236

16:                                               ; preds = %7, %2
  %17 = phi i8* [ %0, %2 ], [ %11, %7 ], !dbg !2239
  %18 = ptrtoint i8* %17 to i32, !dbg !2240
  %19 = ptrtoint i8* %0 to i32, !dbg !2240
  %20 = sub i32 %18, %19, !dbg !2240
  ret i32 %20, !dbg !2241
}

; Function Attrs: nofree nosync nounwind readnone speculatable willreturn
declare i32 @llvm.umin.i32(i32, i32) #1

; Function Attrs: noinline nounwind
define internal fastcc i32 @_ntoa_format(void (i8, i8*, i32, i32)* nocapture noundef readonly %0, i8* noundef %1, i32 noundef %2, i32 noundef %3, i8* nocapture noundef %4, i32 noundef %5, i1 noundef zeroext %6, i32 noundef %7, i32 noundef %8, i32 noundef %9, i32 noundef %10) unnamed_addr #8 !dbg !2242 {
  call void @llvm.dbg.value(metadata void (i8, i8*, i32, i32)* %0, metadata !2246, metadata !DIExpression()), !dbg !2264
  call void @llvm.dbg.value(metadata i8* %1, metadata !2247, metadata !DIExpression()), !dbg !2264
  call void @llvm.dbg.value(metadata i32 %2, metadata !2248, metadata !DIExpression()), !dbg !2264
  call void @llvm.dbg.value(metadata i32 %3, metadata !2249, metadata !DIExpression()), !dbg !2264
  call void @llvm.dbg.value(metadata i8* %4, metadata !2250, metadata !DIExpression()), !dbg !2264
  call void @llvm.dbg.value(metadata i32 %5, metadata !2251, metadata !DIExpression()), !dbg !2264
  call void @llvm.dbg.value(metadata i1 %6, metadata !2252, metadata !DIExpression(DW_OP_LLVM_convert, 1, DW_ATE_unsigned, DW_OP_LLVM_convert, 8, DW_ATE_unsigned, DW_OP_stack_value)), !dbg !2264
  call void @llvm.dbg.value(metadata i32 %7, metadata !2253, metadata !DIExpression()), !dbg !2264
  call void @llvm.dbg.value(metadata i32 %8, metadata !2254, metadata !DIExpression()), !dbg !2264
  call void @llvm.dbg.value(metadata i32 %9, metadata !2255, metadata !DIExpression()), !dbg !2264
  call void @llvm.dbg.value(metadata i32 %10, metadata !2256, metadata !DIExpression()), !dbg !2264
  call void @llvm.dbg.value(metadata i32 %2, metadata !2257, metadata !DIExpression()), !dbg !2264
  %12 = and i32 %10, 2, !dbg !2265
  %13 = icmp eq i32 %12, 0, !dbg !2265
  br i1 %13, label %14, label %55, !dbg !2267

14:                                               ; preds = %11
  %15 = icmp eq i32 %9, 0, !dbg !2268
  br i1 %15, label %25, label %16, !dbg !2271

16:                                               ; preds = %14
  %17 = and i32 %10, 1, !dbg !2272
  %18 = icmp eq i32 %17, 0, !dbg !2272
  br i1 %18, label %25, label %19, !dbg !2273

19:                                               ; preds = %16
  %20 = and i32 %10, 12
  %21 = icmp ne i32 %20, 0
  %22 = or i1 %21, %6, !dbg !2274
  %23 = sext i1 %22 to i32, !dbg !2274
  %24 = add i32 %23, %9, !dbg !2274
  br label %25, !dbg !2274

25:                                               ; preds = %19, %16, %14
  %26 = phi i32 [ %9, %16 ], [ 0, %14 ], [ %24, %19 ]
  call void @llvm.dbg.value(metadata i32 %26, metadata !2255, metadata !DIExpression()), !dbg !2264
  call void @llvm.dbg.value(metadata i32 %5, metadata !2251, metadata !DIExpression()), !dbg !2264
  %27 = icmp ult i32 %5, %8, !dbg !2275
  %28 = icmp ult i32 %5, 32, !dbg !2276
  %29 = and i1 %27, %28, !dbg !2276
  br i1 %29, label %30, label %40, !dbg !2277

30:                                               ; preds = %25
  %31 = getelementptr i8, i8* %4, i32 %5, !dbg !2277
  %32 = xor i32 %5, -1, !dbg !2277
  %33 = add i32 %32, %8, !dbg !2277
  %34 = sub i32 31, %5, !dbg !2277
  %35 = call i32 @llvm.umin.i32(i32 %33, i32 %34), !dbg !2277
  %36 = add nuw i32 %35, 1, !dbg !2277
  call void @llvm.memset.p0i8.i32(i8* align 1 %31, i8 48, i32 %36, i1 false), !dbg !2278, !tbaa !1609
  %37 = call i32 @llvm.umin.i32(i32 %33, i32 %34), !dbg !2277
  %38 = add i32 %37, %5, !dbg !2277
  call void @llvm.dbg.value(metadata i32 undef, metadata !2251, metadata !DIExpression()), !dbg !2264
  call void @llvm.dbg.value(metadata i32 undef, metadata !2251, metadata !DIExpression(DW_OP_plus_uconst, 1, DW_OP_stack_value)), !dbg !2264
  %39 = add i32 %38, 1, !dbg !2277
  br label %40

40:                                               ; preds = %30, %25
  %41 = phi i32 [ %5, %25 ], [ %39, %30 ]
  %42 = and i32 %10, 1
  %43 = icmp eq i32 %42, 0
  call void @llvm.dbg.value(metadata i32 %41, metadata !2251, metadata !DIExpression()), !dbg !2264
  br i1 %43, label %55, label %44, !dbg !2280

44:                                               ; preds = %40
  call void @llvm.dbg.value(metadata i32 %41, metadata !2251, metadata !DIExpression()), !dbg !2264
  %45 = icmp ult i32 %41, %26, !dbg !2281
  %46 = icmp ult i32 %41, 32
  %47 = and i1 %45, %46, !dbg !2282
  br i1 %47, label %48, label %55, !dbg !2282

48:                                               ; preds = %44, %48
  %49 = phi i32 [ %50, %48 ], [ %41, %44 ]
  call void @llvm.dbg.value(metadata i32 %49, metadata !2251, metadata !DIExpression()), !dbg !2264
  %50 = add i32 %49, 1, !dbg !2283
  call void @llvm.dbg.value(metadata i32 %50, metadata !2251, metadata !DIExpression()), !dbg !2264
  %51 = getelementptr inbounds i8, i8* %4, i32 %49, !dbg !2285
  store i8 48, i8* %51, align 1, !dbg !2286, !tbaa !1609
  %52 = icmp ult i32 %50, %26, !dbg !2281
  %53 = icmp ult i32 %50, 32
  %54 = and i1 %52, %53, !dbg !2282
  br i1 %54, label %48, label %55, !dbg !2282, !llvm.loop !2287

55:                                               ; preds = %48, %44, %40, %11
  %56 = phi i32 [ %9, %11 ], [ %26, %40 ], [ %26, %44 ], [ %26, %48 ]
  %57 = phi i32 [ %5, %11 ], [ %41, %40 ], [ %41, %44 ], [ %50, %48 ]
  call void @llvm.dbg.value(metadata i32 %57, metadata !2251, metadata !DIExpression()), !dbg !2264
  call void @llvm.dbg.value(metadata i32 %56, metadata !2255, metadata !DIExpression()), !dbg !2264
  %58 = and i32 %10, 16, !dbg !2290
  %59 = icmp eq i32 %58, 0, !dbg !2290
  br i1 %59, label %101, label %60, !dbg !2292

60:                                               ; preds = %55
  %61 = and i32 %10, 1024, !dbg !2293
  %62 = icmp eq i32 %61, 0, !dbg !2293
  %63 = icmp ne i32 %57, 0
  %64 = select i1 %62, i1 %63, i1 false, !dbg !2296
  br i1 %64, label %65, label %76, !dbg !2296

65:                                               ; preds = %60
  %66 = icmp eq i32 %57, %8, !dbg !2297
  %67 = icmp eq i32 %57, %56
  %68 = or i1 %66, %67, !dbg !2298
  br i1 %68, label %69, label %76, !dbg !2298

69:                                               ; preds = %65
  %70 = add i32 %57, -1, !dbg !2299
  call void @llvm.dbg.value(metadata i32 %70, metadata !2251, metadata !DIExpression()), !dbg !2264
  %71 = icmp ne i32 %70, 0, !dbg !2301
  %72 = icmp eq i32 %7, 16
  %73 = and i1 %72, %71, !dbg !2303
  %74 = add i32 %57, -2
  %75 = select i1 %73, i32 %74, i32 %70, !dbg !2303
  br label %76, !dbg !2303

76:                                               ; preds = %69, %65, %60
  %77 = phi i32 [ %57, %60 ], [ %57, %65 ], [ %75, %69 ]
  call void @llvm.dbg.value(metadata i32 %77, metadata !2251, metadata !DIExpression()), !dbg !2264
  %78 = icmp eq i32 %7, 16, !dbg !2304
  br i1 %78, label %79, label %87, !dbg !2306

79:                                               ; preds = %76
  %80 = and i32 %10, 32, !dbg !2307
  %81 = icmp eq i32 %80, 0, !dbg !2307
  %82 = icmp ult i32 %77, 32
  %83 = select i1 %81, i1 %82, i1 false, !dbg !2308
  br i1 %83, label %91, label %84, !dbg !2308

84:                                               ; preds = %79
  %85 = icmp ne i32 %80, 0, !dbg !2309
  %86 = select i1 %85, i1 %82, i1 false, !dbg !2311
  br i1 %86, label %91, label %87, !dbg !2311

87:                                               ; preds = %76, %84
  %88 = icmp eq i32 %7, 2, !dbg !2312
  %89 = icmp ult i32 %77, 32
  %90 = select i1 %88, i1 %89, i1 false, !dbg !2314
  br i1 %90, label %91, label %95, !dbg !2314

91:                                               ; preds = %87, %84, %79
  %92 = phi i8 [ 120, %79 ], [ 88, %84 ], [ 98, %87 ]
  %93 = add i32 %77, 1, !dbg !2315
  %94 = getelementptr inbounds i8, i8* %4, i32 %77, !dbg !2315
  store i8 %92, i8* %94, align 1, !dbg !2315, !tbaa !1609
  br label %95, !dbg !2316

95:                                               ; preds = %91, %87
  %96 = phi i32 [ %77, %87 ], [ %93, %91 ], !dbg !2318
  call void @llvm.dbg.value(metadata i32 %96, metadata !2251, metadata !DIExpression()), !dbg !2264
  %97 = icmp ult i32 %96, 32, !dbg !2316
  br i1 %97, label %98, label %101, !dbg !2319

98:                                               ; preds = %95
  %99 = add i32 %96, 1, !dbg !2320
  call void @llvm.dbg.value(metadata i32 %99, metadata !2251, metadata !DIExpression()), !dbg !2264
  %100 = getelementptr inbounds i8, i8* %4, i32 %96, !dbg !2322
  store i8 48, i8* %100, align 1, !dbg !2323, !tbaa !1609
  br label %101, !dbg !2324

101:                                              ; preds = %95, %98, %55
  %102 = phi i32 [ %99, %98 ], [ %96, %95 ], [ %57, %55 ]
  call void @llvm.dbg.value(metadata i32 %102, metadata !2251, metadata !DIExpression()), !dbg !2264
  %103 = icmp ult i32 %102, 32, !dbg !2325
  br i1 %103, label %104, label %115, !dbg !2327

104:                                              ; preds = %101
  br i1 %6, label %111, label %105, !dbg !2328

105:                                              ; preds = %104
  %106 = and i32 %10, 4, !dbg !2330
  %107 = icmp eq i32 %106, 0, !dbg !2330
  br i1 %107, label %108, label %111, !dbg !2333

108:                                              ; preds = %105
  %109 = and i32 %10, 8, !dbg !2334
  %110 = icmp eq i32 %109, 0, !dbg !2334
  br i1 %110, label %115, label %111, !dbg !2336

111:                                              ; preds = %108, %105, %104
  %112 = phi i8 [ 45, %104 ], [ 43, %105 ], [ 32, %108 ]
  %113 = add i32 %102, 1, !dbg !2337
  %114 = getelementptr inbounds i8, i8* %4, i32 %102, !dbg !2337
  store i8 %112, i8* %114, align 1, !dbg !2337, !tbaa !1609
  br label %115, !dbg !2338

115:                                              ; preds = %111, %108, %101
  %116 = phi i32 [ %102, %108 ], [ %102, %101 ], [ %113, %111 ], !dbg !2264
  call void @llvm.dbg.value(metadata i32 %116, metadata !2251, metadata !DIExpression()), !dbg !2264
  %117 = and i32 %10, 3, !dbg !2338
  %118 = icmp eq i32 %117, 0, !dbg !2338
  %119 = icmp ult i32 %116, %56
  %120 = select i1 %118, i1 %119, i1 false, !dbg !2338
  call void @llvm.dbg.value(metadata i32 %116, metadata !2258, metadata !DIExpression()), !dbg !2339
  call void @llvm.dbg.value(metadata i32 %2, metadata !2248, metadata !DIExpression()), !dbg !2264
  br i1 %120, label %121, label %127, !dbg !2338

121:                                              ; preds = %115, %121
  %122 = phi i32 [ %125, %121 ], [ %116, %115 ]
  %123 = phi i32 [ %124, %121 ], [ %2, %115 ]
  call void @llvm.dbg.value(metadata i32 %122, metadata !2258, metadata !DIExpression()), !dbg !2339
  call void @llvm.dbg.value(metadata i32 %123, metadata !2248, metadata !DIExpression()), !dbg !2264
  %124 = add i32 %123, 1, !dbg !2340
  call void @llvm.dbg.value(metadata i32 %124, metadata !2248, metadata !DIExpression()), !dbg !2264
  call void %0(i8 noundef zeroext 32, i8* noundef %1, i32 noundef %123, i32 noundef %3) #27, !dbg !2343, !callees !1614
  %125 = add nuw i32 %122, 1, !dbg !2344
  call void @llvm.dbg.value(metadata i32 %125, metadata !2258, metadata !DIExpression()), !dbg !2339
  %126 = icmp eq i32 %125, %56, !dbg !2345
  br i1 %126, label %127, label %121, !dbg !2346, !llvm.loop !2347

127:                                              ; preds = %121, %115
  %128 = phi i32 [ %2, %115 ], [ %124, %121 ]
  call void @llvm.dbg.value(metadata i32 %128, metadata !2248, metadata !DIExpression()), !dbg !2264
  call void @llvm.dbg.value(metadata i32 0, metadata !2262, metadata !DIExpression()), !dbg !2349
  %129 = icmp eq i32 %116, 0, !dbg !2350
  br i1 %129, label %130, label %136, !dbg !2352

130:                                              ; preds = %136, %127
  %131 = phi i32 [ %128, %127 ], [ %143, %136 ]
  %132 = xor i1 %13, true, !dbg !2353
  %133 = sub i32 %131, %2
  %134 = icmp ult i32 %133, %56
  %135 = select i1 %132, i1 %134, i1 false, !dbg !2353
  call void @llvm.dbg.value(metadata i32 %131, metadata !2248, metadata !DIExpression()), !dbg !2264
  br i1 %135, label %146, label %151, !dbg !2353

136:                                              ; preds = %127, %136
  %137 = phi i32 [ %144, %136 ], [ 0, %127 ]
  %138 = phi i32 [ %143, %136 ], [ %128, %127 ]
  call void @llvm.dbg.value(metadata i32 %137, metadata !2262, metadata !DIExpression()), !dbg !2349
  call void @llvm.dbg.value(metadata i32 %138, metadata !2248, metadata !DIExpression()), !dbg !2264
  %139 = xor i32 %137, -1, !dbg !2354
  %140 = add i32 %116, %139, !dbg !2354
  %141 = getelementptr inbounds i8, i8* %4, i32 %140, !dbg !2356
  %142 = load i8, i8* %141, align 1, !dbg !2356, !tbaa !1609
  %143 = add i32 %138, 1, !dbg !2357
  call void @llvm.dbg.value(metadata i32 %143, metadata !2248, metadata !DIExpression()), !dbg !2264
  call void %0(i8 noundef zeroext %142, i8* noundef %1, i32 noundef %138, i32 noundef %3) #27, !dbg !2358, !callees !1614
  %144 = add nuw i32 %137, 1, !dbg !2359
  call void @llvm.dbg.value(metadata i32 %144, metadata !2262, metadata !DIExpression()), !dbg !2349
  %145 = icmp eq i32 %144, %116, !dbg !2350
  br i1 %145, label %130, label %136, !dbg !2352, !llvm.loop !2360

146:                                              ; preds = %130, %146
  %147 = phi i32 [ %148, %146 ], [ %131, %130 ]
  call void @llvm.dbg.value(metadata i32 %147, metadata !2248, metadata !DIExpression()), !dbg !2264
  %148 = add i32 %147, 1, !dbg !2362
  call void @llvm.dbg.value(metadata i32 %148, metadata !2248, metadata !DIExpression()), !dbg !2264
  call void %0(i8 noundef zeroext 32, i8* noundef %1, i32 noundef %147, i32 noundef %3) #27, !dbg !2366, !callees !1614
  %149 = sub i32 %148, %2, !dbg !2367
  %150 = icmp ult i32 %149, %56, !dbg !2368
  br i1 %150, label %146, label %151, !dbg !2369, !llvm.loop !2370

151:                                              ; preds = %146, %130
  %152 = phi i32 [ %131, %130 ], [ %148, %146 ]
  call void @llvm.dbg.value(metadata i32 %152, metadata !2248, metadata !DIExpression()), !dbg !2264
  ret i32 %152, !dbg !2372
}

; Function Attrs: noinline nounwind
define dso_local i32 @sprintf_(i8* noundef %0, i8* noundef %1, ...) local_unnamed_addr #8 !dbg !2373 {
  %3 = alloca %struct.__va_list, align 4
  call void @llvm.dbg.value(metadata i8* %0, metadata !2377, metadata !DIExpression()), !dbg !2381
  call void @llvm.dbg.value(metadata i8* %1, metadata !2378, metadata !DIExpression()), !dbg !2381
  %4 = bitcast %struct.__va_list* %3 to i8*, !dbg !2382
  call void @llvm.lifetime.start.p0i8(i64 4, i8* nonnull %4) #27, !dbg !2382
  call void @llvm.dbg.declare(metadata %struct.__va_list* %3, metadata !2379, metadata !DIExpression()), !dbg !2383
  call void @llvm.va_start(i8* nonnull %4), !dbg !2384
  %5 = bitcast %struct.__va_list* %3 to i32*, !dbg !2385
  %6 = load i32, i32* %5, align 4, !dbg !2385
  %7 = insertvalue [1 x i32] poison, i32 %6, 0, !dbg !2385
  %8 = call fastcc i32 @_vsnprintf(void (i8, i8*, i32, i32)* noundef nonnull @_out_buffer, i8* noundef %0, i32 noundef -1, i8* noundef %1, [1 x i32] %7), !dbg !2385
  call void @llvm.dbg.value(metadata i32 %8, metadata !2380, metadata !DIExpression()), !dbg !2381
  call void @llvm.va_end(i8* %4), !dbg !2386
  call void @llvm.lifetime.end.p0i8(i64 4, i8* nonnull %4) #27, !dbg !2387
  ret i32 %8, !dbg !2388
}

; Function Attrs: noinline nounwind
define dso_local i32 @snprintf_(i8* noundef %0, i32 noundef %1, i8* noundef %2, ...) local_unnamed_addr #8 !dbg !2389 {
  %4 = alloca %struct.__va_list, align 4
  call void @llvm.dbg.value(metadata i8* %0, metadata !2393, metadata !DIExpression()), !dbg !2398
  call void @llvm.dbg.value(metadata i32 %1, metadata !2394, metadata !DIExpression()), !dbg !2398
  call void @llvm.dbg.value(metadata i8* %2, metadata !2395, metadata !DIExpression()), !dbg !2398
  %5 = bitcast %struct.__va_list* %4 to i8*, !dbg !2399
  call void @llvm.lifetime.start.p0i8(i64 4, i8* nonnull %5) #27, !dbg !2399
  call void @llvm.dbg.declare(metadata %struct.__va_list* %4, metadata !2396, metadata !DIExpression()), !dbg !2400
  call void @llvm.va_start(i8* nonnull %5), !dbg !2401
  %6 = bitcast %struct.__va_list* %4 to i32*, !dbg !2402
  %7 = load i32, i32* %6, align 4, !dbg !2402
  %8 = insertvalue [1 x i32] poison, i32 %7, 0, !dbg !2402
  %9 = call fastcc i32 @_vsnprintf(void (i8, i8*, i32, i32)* noundef nonnull @_out_buffer, i8* noundef %0, i32 noundef %1, i8* noundef %2, [1 x i32] %8), !dbg !2402
  call void @llvm.dbg.value(metadata i32 %9, metadata !2397, metadata !DIExpression()), !dbg !2398
  call void @llvm.va_end(i8* %5), !dbg !2403
  call void @llvm.lifetime.end.p0i8(i64 4, i8* nonnull %5) #27, !dbg !2404
  ret i32 %9, !dbg !2405
}

; Function Attrs: noinline nounwind
define dso_local i32 @vsnprintf_(i8* noundef %0, i32 noundef %1, i8* noundef %2, [1 x i32] %3) local_unnamed_addr #8 !dbg !2406 {
  call void @llvm.dbg.value(metadata i32 undef, metadata !2413, metadata !DIExpression()), !dbg !2414
  call void @llvm.dbg.value(metadata i8* %0, metadata !2410, metadata !DIExpression()), !dbg !2414
  call void @llvm.dbg.value(metadata i32 %1, metadata !2411, metadata !DIExpression()), !dbg !2414
  call void @llvm.dbg.value(metadata i8* %2, metadata !2412, metadata !DIExpression()), !dbg !2414
  %5 = call fastcc i32 @_vsnprintf(void (i8, i8*, i32, i32)* noundef nonnull @_out_buffer, i8* noundef %0, i32 noundef %1, i8* noundef %2, [1 x i32] %3), !dbg !2415
  ret i32 %5, !dbg !2416
}

; Function Attrs: noinline nounwind
define dso_local i32 @fctprintf(void (i8, i8*)* noundef %0, i8* noundef %1, i8* noundef %2, ...) local_unnamed_addr #8 !dbg !2417 {
  %4 = alloca %struct.__va_list, align 4
  %5 = alloca %struct.out_fct_wrap_type, align 4
  call void @llvm.dbg.value(metadata void (i8, i8*)* %0, metadata !2421, metadata !DIExpression()), !dbg !2428
  call void @llvm.dbg.value(metadata i8* %1, metadata !2422, metadata !DIExpression()), !dbg !2428
  call void @llvm.dbg.value(metadata i8* %2, metadata !2423, metadata !DIExpression()), !dbg !2428
  %6 = bitcast %struct.__va_list* %4 to i8*, !dbg !2429
  call void @llvm.lifetime.start.p0i8(i64 4, i8* nonnull %6) #27, !dbg !2429
  call void @llvm.dbg.declare(metadata %struct.__va_list* %4, metadata !2424, metadata !DIExpression()), !dbg !2430
  call void @llvm.va_start(i8* nonnull %6), !dbg !2431
  %7 = bitcast %struct.out_fct_wrap_type* %5 to i8*, !dbg !2432
  call void @llvm.lifetime.start.p0i8(i64 8, i8* nonnull %7) #27, !dbg !2432
  call void @llvm.dbg.declare(metadata %struct.out_fct_wrap_type* %5, metadata !2425, metadata !DIExpression()), !dbg !2433
  %8 = getelementptr inbounds %struct.out_fct_wrap_type, %struct.out_fct_wrap_type* %5, i32 0, i32 0, !dbg !2434
  store void (i8, i8*)* %0, void (i8, i8*)** %8, align 4, !dbg !2434, !tbaa !1926
  %9 = getelementptr inbounds %struct.out_fct_wrap_type, %struct.out_fct_wrap_type* %5, i32 0, i32 1, !dbg !2434
  store i8* %1, i8** %9, align 4, !dbg !2434, !tbaa !1929
  %10 = bitcast %struct.__va_list* %4 to i32*, !dbg !2435
  %11 = load i32, i32* %10, align 4, !dbg !2435
  %12 = insertvalue [1 x i32] poison, i32 %11, 0, !dbg !2435
  %13 = call fastcc i32 @_vsnprintf(void (i8, i8*, i32, i32)* noundef nonnull @_out_fct, i8* noundef nonnull %7, i32 noundef -1, i8* noundef %2, [1 x i32] %12), !dbg !2435
  call void @llvm.dbg.value(metadata i32 %13, metadata !2427, metadata !DIExpression()), !dbg !2428
  call void @llvm.va_end(i8* %6), !dbg !2436
  call void @llvm.lifetime.end.p0i8(i64 8, i8* nonnull %7) #27, !dbg !2437
  call void @llvm.lifetime.end.p0i8(i64 4, i8* nonnull %6) #27, !dbg !2437
  ret i32 %13, !dbg !2438
}

; Function Attrs: nofree noinline norecurse nounwind
define dso_local void @SystemInit() local_unnamed_addr #13 !dbg !2439 {
  %1 = load volatile i32, i32* inttoptr (i32 1073876992 to i32*), align 4096, !dbg !2440, !tbaa !2441
  %2 = or i32 %1, 1, !dbg !2440
  store volatile i32 %2, i32* inttoptr (i32 1073876992 to i32*), align 4096, !dbg !2440, !tbaa !2441
  %3 = load volatile i32, i32* inttoptr (i32 1073876996 to i32*), align 4, !dbg !2444, !tbaa !2445
  %4 = and i32 %3, -117506048, !dbg !2444
  store volatile i32 %4, i32* inttoptr (i32 1073876996 to i32*), align 4, !dbg !2444, !tbaa !2445
  %5 = load volatile i32, i32* inttoptr (i32 1073876992 to i32*), align 4096, !dbg !2446, !tbaa !2441
  %6 = and i32 %5, -17367041, !dbg !2446
  store volatile i32 %6, i32* inttoptr (i32 1073876992 to i32*), align 4096, !dbg !2446, !tbaa !2441
  %7 = load volatile i32, i32* inttoptr (i32 1073876992 to i32*), align 4096, !dbg !2447, !tbaa !2441
  %8 = and i32 %7, -262145, !dbg !2447
  store volatile i32 %8, i32* inttoptr (i32 1073876992 to i32*), align 4096, !dbg !2447, !tbaa !2441
  %9 = load volatile i32, i32* inttoptr (i32 1073876996 to i32*), align 4, !dbg !2448, !tbaa !2445
  %10 = and i32 %9, -8323073, !dbg !2448
  store volatile i32 %10, i32* inttoptr (i32 1073876996 to i32*), align 4, !dbg !2448, !tbaa !2445
  store volatile i32 10420224, i32* inttoptr (i32 1073877000 to i32*), align 8, !dbg !2449, !tbaa !2450
  store volatile i32 134217728, i32* inttoptr (i32 -536810232 to i32*), align 8, !dbg !2451, !tbaa !2452
  ret void, !dbg !2454
}

; Function Attrs: mustprogress nofree noinline norecurse nounwind willreturn
define dso_local void @SystemCoreClockUpdate() local_unnamed_addr #14 !dbg !2455 {
  call void @llvm.dbg.value(metadata i32 0, metadata !2457, metadata !DIExpression()), !dbg !2460
  call void @llvm.dbg.value(metadata i32 0, metadata !2458, metadata !DIExpression()), !dbg !2460
  call void @llvm.dbg.value(metadata i32 0, metadata !2459, metadata !DIExpression()), !dbg !2460
  %1 = load volatile i32, i32* inttoptr (i32 1073876996 to i32*), align 4, !dbg !2461, !tbaa !2445
  %2 = and i32 %1, 12, !dbg !2462
  call void @llvm.dbg.value(metadata i32 %2, metadata !2457, metadata !DIExpression()), !dbg !2460
  %3 = icmp eq i32 %2, 8, !dbg !2463
  br i1 %3, label %4, label %22, !dbg !2463

4:                                                ; preds = %0
  %5 = load volatile i32, i32* inttoptr (i32 1073876996 to i32*), align 4, !dbg !2464, !tbaa !2445
  call void @llvm.dbg.value(metadata i32 %5, metadata !2458, metadata !DIExpression(DW_OP_constu, 3932160, DW_OP_and, DW_OP_stack_value)), !dbg !2460
  %6 = load volatile i32, i32* inttoptr (i32 1073876996 to i32*), align 4, !dbg !2466, !tbaa !2445
  %7 = and i32 %6, 65536, !dbg !2467
  call void @llvm.dbg.value(metadata i32 %7, metadata !2459, metadata !DIExpression()), !dbg !2460
  %8 = lshr i32 %5, 18, !dbg !2468
  %9 = and i32 %8, 15, !dbg !2468
  %10 = add nuw nsw i32 %9, 2, !dbg !2469
  call void @llvm.dbg.value(metadata i32 %10, metadata !2458, metadata !DIExpression()), !dbg !2460
  %11 = icmp eq i32 %7, 0, !dbg !2470
  br i1 %11, label %12, label %14, !dbg !2472

12:                                               ; preds = %4
  %13 = mul nuw nsw i32 %10, 4000000, !dbg !2473
  br label %22, !dbg !2475

14:                                               ; preds = %4
  %15 = load volatile i32, i32* inttoptr (i32 1073876996 to i32*), align 4, !dbg !2476, !tbaa !2445
  %16 = and i32 %15, 131072, !dbg !2479
  %17 = icmp eq i32 %16, 0, !dbg !2480
  br i1 %17, label %20, label %18, !dbg !2481

18:                                               ; preds = %14
  %19 = mul nuw nsw i32 %10, 4000000, !dbg !2482
  br label %22, !dbg !2484

20:                                               ; preds = %14
  %21 = mul nuw nsw i32 %10, 8000000, !dbg !2485
  br label %22

22:                                               ; preds = %0, %12, %20, %18
  %23 = phi i32 [ %13, %12 ], [ %21, %20 ], [ %19, %18 ], [ 8000000, %0 ]
  store i32 %23, i32* @SystemCoreClock, align 4, !dbg !2487, !tbaa !2488
  %24 = load volatile i32, i32* inttoptr (i32 1073876996 to i32*), align 4, !dbg !2489, !tbaa !2445
  %25 = lshr i32 %24, 4, !dbg !2490
  %26 = and i32 %25, 15, !dbg !2490
  %27 = getelementptr inbounds [16 x i8], [16 x i8]* @AHBPrescTable, i32 0, i32 %26, !dbg !2491
  %28 = load i8, i8* %27, align 1, !dbg !2491, !tbaa !1609
  %29 = zext i8 %28 to i32, !dbg !2491
  call void @llvm.dbg.value(metadata i32 %29, metadata !2457, metadata !DIExpression()), !dbg !2460
  %30 = load i32, i32* @SystemCoreClock, align 4, !dbg !2492, !tbaa !2488
  %31 = lshr i32 %30, %29, !dbg !2492
  store i32 %31, i32* @SystemCoreClock, align 4, !dbg !2492, !tbaa !2488
  ret void, !dbg !2493
}

; Function Attrs: noinline nounwind
define dso_local i32 @HAL_RCC_DeInit() local_unnamed_addr #8 !dbg !2494 {
  %1 = call i32 @HAL_GetTick() #27, !dbg !2500
  call void @llvm.dbg.value(metadata i32 %1, metadata !2499, metadata !DIExpression()), !dbg !2501
  %2 = load volatile i32, i32* inttoptr (i32 1073876992 to i32*), align 4096, !dbg !2502, !tbaa !2441
  %3 = or i32 %2, 1, !dbg !2502
  store volatile i32 %3, i32* inttoptr (i32 1073876992 to i32*), align 4096, !dbg !2502, !tbaa !2441
  br label %4, !dbg !2503

4:                                                ; preds = %8, %0
  %5 = load volatile i32, i32* inttoptr (i32 1073876992 to i32*), align 4096, !dbg !2504, !tbaa !2441
  %6 = and i32 %5, 2, !dbg !2504
  %7 = icmp eq i32 %6, 0, !dbg !2505
  br i1 %7, label %8, label %12, !dbg !2503

8:                                                ; preds = %4
  %9 = call i32 @HAL_GetTick() #27, !dbg !2506
  %10 = sub i32 %9, %1, !dbg !2509
  %11 = icmp ugt i32 %10, 2, !dbg !2510
  br i1 %11, label %58, label %4, !dbg !2511, !llvm.loop !2512

12:                                               ; preds = %4
  %13 = load volatile i32, i32* inttoptr (i32 1073876992 to i32*), align 4096, !dbg !2514, !tbaa !2441
  %14 = and i32 %13, -249, !dbg !2514
  %15 = or i32 %14, 128, !dbg !2514
  store volatile i32 %15, i32* inttoptr (i32 1073876992 to i32*), align 4096, !dbg !2514, !tbaa !2441
  %16 = call i32 @HAL_GetTick() #27, !dbg !2515
  call void @llvm.dbg.value(metadata i32 %16, metadata !2499, metadata !DIExpression()), !dbg !2501
  store volatile i32 0, i32* inttoptr (i32 1073876996 to i32*), align 4, !dbg !2516, !tbaa !2445
  br label %17, !dbg !2517

17:                                               ; preds = %21, %12
  %18 = load volatile i32, i32* inttoptr (i32 1073876996 to i32*), align 4, !dbg !2518, !tbaa !2445
  %19 = and i32 %18, 12, !dbg !2518
  %20 = icmp eq i32 %19, 0, !dbg !2519
  br i1 %20, label %25, label %21, !dbg !2517

21:                                               ; preds = %17
  %22 = call i32 @HAL_GetTick() #27, !dbg !2520
  %23 = sub i32 %22, %16, !dbg !2523
  %24 = icmp ugt i32 %23, 5000, !dbg !2524
  br i1 %24, label %58, label %17, !dbg !2525, !llvm.loop !2526

25:                                               ; preds = %17
  store i32 8000000, i32* @SystemCoreClock, align 4, !dbg !2528, !tbaa !2488
  %26 = load i32, i32* @uwTickPrio, align 4, !dbg !2529, !tbaa !2488
  %27 = call i32 @HAL_InitTick(i32 noundef %26) #27, !dbg !2531
  %28 = icmp eq i32 %27, 0, !dbg !2532
  br i1 %28, label %29, label %58, !dbg !2533

29:                                               ; preds = %25
  %30 = call i32 @HAL_GetTick() #27, !dbg !2534
  call void @llvm.dbg.value(metadata i32 %30, metadata !2499, metadata !DIExpression()), !dbg !2501
  %31 = load volatile i32, i32* inttoptr (i32 1073876992 to i32*), align 4096, !dbg !2535, !tbaa !2441
  %32 = and i32 %31, -16777217, !dbg !2535
  store volatile i32 %32, i32* inttoptr (i32 1073876992 to i32*), align 4096, !dbg !2535, !tbaa !2441
  br label %33, !dbg !2536

33:                                               ; preds = %37, %29
  %34 = load volatile i32, i32* inttoptr (i32 1073876992 to i32*), align 4096, !dbg !2537, !tbaa !2441
  %35 = and i32 %34, 33554432, !dbg !2537
  %36 = icmp eq i32 %35, 0, !dbg !2538
  br i1 %36, label %41, label %37, !dbg !2536

37:                                               ; preds = %33
  %38 = call i32 @HAL_GetTick() #27, !dbg !2539
  %39 = sub i32 %38, %30, !dbg !2542
  %40 = icmp ugt i32 %39, 2, !dbg !2543
  br i1 %40, label %58, label %33, !dbg !2544, !llvm.loop !2545

41:                                               ; preds = %33
  store volatile i32 0, i32* inttoptr (i32 1073876996 to i32*), align 4, !dbg !2547, !tbaa !2445
  %42 = call i32 @HAL_GetTick() #27, !dbg !2548
  call void @llvm.dbg.value(metadata i32 %42, metadata !2499, metadata !DIExpression()), !dbg !2501
  %43 = load volatile i32, i32* inttoptr (i32 1073876992 to i32*), align 4096, !dbg !2549, !tbaa !2441
  %44 = and i32 %43, -589825, !dbg !2549
  store volatile i32 %44, i32* inttoptr (i32 1073876992 to i32*), align 4096, !dbg !2549, !tbaa !2441
  br label %45, !dbg !2550

45:                                               ; preds = %49, %41
  %46 = load volatile i32, i32* inttoptr (i32 1073876992 to i32*), align 4096, !dbg !2551, !tbaa !2441
  %47 = and i32 %46, 131072, !dbg !2551
  %48 = icmp eq i32 %47, 0, !dbg !2552
  br i1 %48, label %53, label %49, !dbg !2550

49:                                               ; preds = %45
  %50 = call i32 @HAL_GetTick() #27, !dbg !2553
  %51 = sub i32 %50, %42, !dbg !2556
  %52 = icmp ugt i32 %51, 100, !dbg !2557
  br i1 %52, label %58, label %45, !dbg !2558, !llvm.loop !2559

53:                                               ; preds = %45
  %54 = load volatile i32, i32* inttoptr (i32 1073876992 to i32*), align 4096, !dbg !2561, !tbaa !2441
  %55 = and i32 %54, -262145, !dbg !2561
  store volatile i32 %55, i32* inttoptr (i32 1073876992 to i32*), align 4096, !dbg !2561, !tbaa !2441
  %56 = load volatile i32, i32* inttoptr (i32 1073877028 to i32*), align 4, !dbg !2562, !tbaa !2563
  %57 = or i32 %56, 16777216, !dbg !2562
  store volatile i32 %57, i32* inttoptr (i32 1073877028 to i32*), align 4, !dbg !2562, !tbaa !2563
  store volatile i32 0, i32* inttoptr (i32 1073877000 to i32*), align 8, !dbg !2564, !tbaa !2450
  br label %58, !dbg !2565

58:                                               ; preds = %8, %21, %37, %49, %25, %53
  %59 = phi i32 [ 0, %53 ], [ 1, %25 ], [ 3, %49 ], [ 3, %37 ], [ 3, %21 ], [ 3, %8 ], !dbg !2501
  ret i32 %59, !dbg !2566
}

; Function Attrs: noinline nounwind
define dso_local i32 @HAL_RCC_OscConfig(%struct.RCC_OscInitTypeDef* noundef readonly %0) local_unnamed_addr #8 !dbg !2567 {
  %2 = alloca i32, align 4
  call void @llvm.dbg.value(metadata %struct.RCC_OscInitTypeDef* %0, metadata !2589, metadata !DIExpression()), !dbg !2600
  %3 = icmp eq %struct.RCC_OscInitTypeDef* %0, null, !dbg !2601
  br i1 %3, label %298, label %4, !dbg !2603

4:                                                ; preds = %1
  %5 = getelementptr inbounds %struct.RCC_OscInitTypeDef, %struct.RCC_OscInitTypeDef* %0, i32 0, i32 0, !dbg !2604
  %6 = load i32, i32* %5, align 4, !dbg !2604, !tbaa !2606
  %7 = and i32 %6, 1, !dbg !2609
  %8 = icmp eq i32 %7, 0, !dbg !2610
  br i1 %8, label %70, label %9, !dbg !2611

9:                                                ; preds = %4
  %10 = load volatile i32, i32* inttoptr (i32 1073876996 to i32*), align 4, !dbg !2612, !tbaa !2445
  %11 = and i32 %10, 12, !dbg !2612
  %12 = icmp eq i32 %11, 4, !dbg !2615
  br i1 %12, label %21, label %13, !dbg !2616

13:                                               ; preds = %9
  %14 = load volatile i32, i32* inttoptr (i32 1073876996 to i32*), align 4, !dbg !2617, !tbaa !2445
  %15 = and i32 %14, 12, !dbg !2617
  %16 = icmp eq i32 %15, 8, !dbg !2618
  br i1 %16, label %17, label %29, !dbg !2619

17:                                               ; preds = %13
  %18 = load volatile i32, i32* inttoptr (i32 1073876996 to i32*), align 4, !dbg !2620, !tbaa !2445
  %19 = and i32 %18, 65536, !dbg !2620
  %20 = icmp eq i32 %19, 0, !dbg !2621
  br i1 %20, label %29, label %21, !dbg !2622

21:                                               ; preds = %17, %9
  %22 = load volatile i32, i32* inttoptr (i32 1073876992 to i32*), align 4096, !dbg !2623, !tbaa !2441
  %23 = and i32 %22, 131072, !dbg !2623
  %24 = icmp eq i32 %23, 0, !dbg !2626
  br i1 %24, label %70, label %25, !dbg !2627

25:                                               ; preds = %21
  %26 = getelementptr inbounds %struct.RCC_OscInitTypeDef, %struct.RCC_OscInitTypeDef* %0, i32 0, i32 1, !dbg !2628
  %27 = load i32, i32* %26, align 4, !dbg !2628, !tbaa !2629
  %28 = icmp eq i32 %27, 0, !dbg !2630
  br i1 %28, label %298, label %70, !dbg !2631

29:                                               ; preds = %13, %17
  %30 = getelementptr inbounds %struct.RCC_OscInitTypeDef, %struct.RCC_OscInitTypeDef* %0, i32 0, i32 1, !dbg !2632
  %31 = load i32, i32* %30, align 4, !dbg !2632, !tbaa !2629
  switch i32 %31, label %45 [
    i32 65536, label %32
    i32 0, label %35
    i32 327680, label %40
  ], !dbg !2636

32:                                               ; preds = %29
  %33 = load volatile i32, i32* inttoptr (i32 1073876992 to i32*), align 4096, !dbg !2637, !tbaa !2441
  %34 = or i32 %33, 65536, !dbg !2637
  br label %50, !dbg !2637

35:                                               ; preds = %29
  %36 = load volatile i32, i32* inttoptr (i32 1073876992 to i32*), align 4096, !dbg !2639, !tbaa !2441
  %37 = and i32 %36, -65537, !dbg !2639
  store volatile i32 %37, i32* inttoptr (i32 1073876992 to i32*), align 4096, !dbg !2639, !tbaa !2441
  %38 = load volatile i32, i32* inttoptr (i32 1073876992 to i32*), align 4096, !dbg !2639, !tbaa !2441
  %39 = and i32 %38, -262145, !dbg !2639
  br label %50, !dbg !2639

40:                                               ; preds = %29
  %41 = load volatile i32, i32* inttoptr (i32 1073876992 to i32*), align 4096, !dbg !2642, !tbaa !2441
  %42 = or i32 %41, 262144, !dbg !2642
  store volatile i32 %42, i32* inttoptr (i32 1073876992 to i32*), align 4096, !dbg !2642, !tbaa !2441
  %43 = load volatile i32, i32* inttoptr (i32 1073876992 to i32*), align 4096, !dbg !2642, !tbaa !2441
  %44 = or i32 %43, 65536, !dbg !2642
  br label %50, !dbg !2642

45:                                               ; preds = %29
  %46 = load volatile i32, i32* inttoptr (i32 1073876992 to i32*), align 4096, !dbg !2645, !tbaa !2441
  %47 = and i32 %46, -65537, !dbg !2645
  store volatile i32 %47, i32* inttoptr (i32 1073876992 to i32*), align 4096, !dbg !2645, !tbaa !2441
  %48 = load volatile i32, i32* inttoptr (i32 1073876992 to i32*), align 4096, !dbg !2645, !tbaa !2441
  %49 = and i32 %48, -262145, !dbg !2645
  br label %50

50:                                               ; preds = %35, %45, %40, %32
  %51 = phi i32 [ %39, %35 ], [ %49, %45 ], [ %44, %40 ], [ %34, %32 ]
  store volatile i32 %51, i32* inttoptr (i32 1073876992 to i32*), align 4096, !dbg !2647, !tbaa !2441
  %52 = icmp eq i32 %31, 0, !dbg !2648
  %53 = call i32 @HAL_GetTick() #27, !dbg !2650
  call void @llvm.dbg.value(metadata i32 %53, metadata !2590, metadata !DIExpression()), !dbg !2600
  call void @llvm.dbg.value(metadata i32 %53, metadata !2590, metadata !DIExpression()), !dbg !2600
  br i1 %52, label %62, label %54, !dbg !2651

54:                                               ; preds = %50, %58
  %55 = load volatile i32, i32* inttoptr (i32 1073876992 to i32*), align 4096, !dbg !2652, !tbaa !2441
  %56 = and i32 %55, 131072, !dbg !2652
  %57 = icmp eq i32 %56, 0, !dbg !2654
  br i1 %57, label %58, label %70, !dbg !2655

58:                                               ; preds = %54
  %59 = call i32 @HAL_GetTick() #27, !dbg !2656
  %60 = sub i32 %59, %53, !dbg !2659
  %61 = icmp ugt i32 %60, 100, !dbg !2660
  br i1 %61, label %298, label %54, !dbg !2661, !llvm.loop !2662

62:                                               ; preds = %50, %66
  %63 = load volatile i32, i32* inttoptr (i32 1073876992 to i32*), align 4096, !dbg !2664, !tbaa !2441
  %64 = and i32 %63, 131072, !dbg !2664
  %65 = icmp eq i32 %64, 0, !dbg !2666
  br i1 %65, label %70, label %66, !dbg !2667

66:                                               ; preds = %62
  %67 = call i32 @HAL_GetTick() #27, !dbg !2668
  %68 = sub i32 %67, %53, !dbg !2671
  %69 = icmp ugt i32 %68, 100, !dbg !2672
  br i1 %69, label %298, label %62, !dbg !2673, !llvm.loop !2674

70:                                               ; preds = %54, %62, %25, %21, %4
  %71 = load i32, i32* %5, align 4, !dbg !2676, !tbaa !2606
  %72 = and i32 %71, 2, !dbg !2678
  %73 = icmp eq i32 %72, 0, !dbg !2679
  br i1 %73, label %125, label %74, !dbg !2680

74:                                               ; preds = %70
  %75 = load volatile i32, i32* inttoptr (i32 1073876996 to i32*), align 4, !dbg !2681, !tbaa !2445
  %76 = and i32 %75, 12, !dbg !2681
  %77 = icmp eq i32 %76, 0, !dbg !2684
  br i1 %77, label %86, label %78, !dbg !2685

78:                                               ; preds = %74
  %79 = load volatile i32, i32* inttoptr (i32 1073876996 to i32*), align 4, !dbg !2686, !tbaa !2445
  %80 = and i32 %79, 12, !dbg !2686
  %81 = icmp eq i32 %80, 8, !dbg !2687
  br i1 %81, label %82, label %94, !dbg !2688

82:                                               ; preds = %78
  %83 = load volatile i32, i32* inttoptr (i32 1073876996 to i32*), align 4, !dbg !2689, !tbaa !2445
  %84 = and i32 %83, 65536, !dbg !2689
  %85 = icmp eq i32 %84, 0, !dbg !2690
  br i1 %85, label %86, label %94, !dbg !2691

86:                                               ; preds = %82, %74
  %87 = load volatile i32, i32* inttoptr (i32 1073876992 to i32*), align 4096, !dbg !2692, !tbaa !2441
  %88 = and i32 %87, 2, !dbg !2692
  %89 = icmp eq i32 %88, 0, !dbg !2695
  br i1 %89, label %118, label %90, !dbg !2696

90:                                               ; preds = %86
  %91 = getelementptr inbounds %struct.RCC_OscInitTypeDef, %struct.RCC_OscInitTypeDef* %0, i32 0, i32 4, !dbg !2697
  %92 = load i32, i32* %91, align 4, !dbg !2697, !tbaa !2698
  %93 = icmp eq i32 %92, 1, !dbg !2699
  br i1 %93, label %118, label %298, !dbg !2700

94:                                               ; preds = %82, %78
  %95 = getelementptr inbounds %struct.RCC_OscInitTypeDef, %struct.RCC_OscInitTypeDef* %0, i32 0, i32 4, !dbg !2701
  %96 = load i32, i32* %95, align 4, !dbg !2701, !tbaa !2698
  %97 = icmp eq i32 %96, 0, !dbg !2704
  br i1 %97, label %108, label %98, !dbg !2705

98:                                               ; preds = %94
  store volatile i32 1, i32* inttoptr (i32 1111621632 to i32*), align 131072, !dbg !2706, !tbaa !2488
  %99 = call i32 @HAL_GetTick() #27, !dbg !2708
  call void @llvm.dbg.value(metadata i32 %99, metadata !2590, metadata !DIExpression()), !dbg !2600
  br label %100, !dbg !2709

100:                                              ; preds = %104, %98
  %101 = load volatile i32, i32* inttoptr (i32 1073876992 to i32*), align 4096, !dbg !2710, !tbaa !2441
  %102 = and i32 %101, 2, !dbg !2710
  %103 = icmp eq i32 %102, 0, !dbg !2711
  br i1 %103, label %104, label %118, !dbg !2709

104:                                              ; preds = %100
  %105 = call i32 @HAL_GetTick() #27, !dbg !2712
  %106 = sub i32 %105, %99, !dbg !2715
  %107 = icmp ugt i32 %106, 2, !dbg !2716
  br i1 %107, label %298, label %100, !dbg !2717, !llvm.loop !2718

108:                                              ; preds = %94
  store volatile i32 0, i32* inttoptr (i32 1111621632 to i32*), align 131072, !dbg !2720, !tbaa !2488
  %109 = call i32 @HAL_GetTick() #27, !dbg !2722
  call void @llvm.dbg.value(metadata i32 %109, metadata !2590, metadata !DIExpression()), !dbg !2600
  br label %110, !dbg !2723

110:                                              ; preds = %114, %108
  %111 = load volatile i32, i32* inttoptr (i32 1073876992 to i32*), align 4096, !dbg !2724, !tbaa !2441
  %112 = and i32 %111, 2, !dbg !2724
  %113 = icmp eq i32 %112, 0, !dbg !2725
  br i1 %113, label %125, label %114, !dbg !2723

114:                                              ; preds = %110
  %115 = call i32 @HAL_GetTick() #27, !dbg !2726
  %116 = sub i32 %115, %109, !dbg !2729
  %117 = icmp ugt i32 %116, 2, !dbg !2730
  br i1 %117, label %298, label %110, !dbg !2731, !llvm.loop !2732

118:                                              ; preds = %100, %86, %90
  %119 = load volatile i32, i32* inttoptr (i32 1073876992 to i32*), align 4096, !dbg !2734, !tbaa !2441
  %120 = and i32 %119, -249, !dbg !2734
  %121 = getelementptr inbounds %struct.RCC_OscInitTypeDef, %struct.RCC_OscInitTypeDef* %0, i32 0, i32 5, !dbg !2734
  %122 = load i32, i32* %121, align 4, !dbg !2734, !tbaa !2735
  %123 = shl i32 %122, 3, !dbg !2734
  %124 = or i32 %123, %120, !dbg !2734
  store volatile i32 %124, i32* inttoptr (i32 1073876992 to i32*), align 4096, !dbg !2734, !tbaa !2441
  br label %125, !dbg !2736

125:                                              ; preds = %110, %118, %70
  %126 = load i32, i32* %5, align 4, !dbg !2736, !tbaa !2606
  %127 = and i32 %126, 8, !dbg !2738
  %128 = icmp eq i32 %127, 0, !dbg !2739
  br i1 %128, label %154, label %129, !dbg !2740

129:                                              ; preds = %125
  %130 = getelementptr inbounds %struct.RCC_OscInitTypeDef, %struct.RCC_OscInitTypeDef* %0, i32 0, i32 6, !dbg !2741
  %131 = load i32, i32* %130, align 4, !dbg !2741, !tbaa !2744
  %132 = icmp eq i32 %131, 0, !dbg !2745
  br i1 %132, label %144, label %133, !dbg !2746

133:                                              ; preds = %129
  store volatile i32 1, i32* inttoptr (i32 1111622784 to i32*), align 128, !dbg !2747, !tbaa !2488
  %134 = call i32 @HAL_GetTick() #27, !dbg !2749
  call void @llvm.dbg.value(metadata i32 %134, metadata !2590, metadata !DIExpression()), !dbg !2600
  br label %135, !dbg !2750

135:                                              ; preds = %139, %133
  %136 = load volatile i32, i32* inttoptr (i32 1073877028 to i32*), align 4, !dbg !2751, !tbaa !2563
  %137 = and i32 %136, 2, !dbg !2751
  %138 = icmp eq i32 %137, 0, !dbg !2752
  br i1 %138, label %139, label %143, !dbg !2750

139:                                              ; preds = %135
  %140 = call i32 @HAL_GetTick() #27, !dbg !2753
  %141 = sub i32 %140, %134, !dbg !2756
  %142 = icmp ugt i32 %141, 2, !dbg !2757
  br i1 %142, label %298, label %135, !dbg !2758, !llvm.loop !2759

143:                                              ; preds = %135
  call fastcc void @RCC_Delay(), !dbg !2761
  br label %154, !dbg !2762

144:                                              ; preds = %129
  store volatile i32 0, i32* inttoptr (i32 1111622784 to i32*), align 128, !dbg !2763, !tbaa !2488
  %145 = call i32 @HAL_GetTick() #27, !dbg !2765
  call void @llvm.dbg.value(metadata i32 %145, metadata !2590, metadata !DIExpression()), !dbg !2600
  br label %146, !dbg !2766

146:                                              ; preds = %150, %144
  %147 = load volatile i32, i32* inttoptr (i32 1073877028 to i32*), align 4, !dbg !2767, !tbaa !2563
  %148 = and i32 %147, 2, !dbg !2767
  %149 = icmp eq i32 %148, 0, !dbg !2768
  br i1 %149, label %154, label %150, !dbg !2766

150:                                              ; preds = %146
  %151 = call i32 @HAL_GetTick() #27, !dbg !2769
  %152 = sub i32 %151, %145, !dbg !2772
  %153 = icmp ugt i32 %152, 2, !dbg !2773
  br i1 %153, label %298, label %146, !dbg !2774, !llvm.loop !2775

154:                                              ; preds = %146, %143, %125
  %155 = load i32, i32* %5, align 4, !dbg !2777, !tbaa !2606
  %156 = and i32 %155, 4, !dbg !2778
  %157 = icmp eq i32 %156, 0, !dbg !2779
  br i1 %157, label %231, label %158, !dbg !2780

158:                                              ; preds = %154
  call void @llvm.dbg.value(metadata i32 0, metadata !2592, metadata !DIExpression()), !dbg !2781
  %159 = load volatile i32, i32* inttoptr (i32 1073877020 to i32*), align 4, !dbg !2782, !tbaa !2783
  %160 = and i32 %159, 268435456, !dbg !2782
  %161 = icmp eq i32 %160, 0, !dbg !2782
  br i1 %161, label %162, label %170, !dbg !2784

162:                                              ; preds = %158
  %163 = bitcast i32* %2 to i8*, !dbg !2785
  call void @llvm.lifetime.start.p0i8(i64 4, i8* nonnull %163), !dbg !2785
  call void @llvm.dbg.declare(metadata i32* %2, metadata !2596, metadata !DIExpression()), !dbg !2785
  %164 = load volatile i32, i32* inttoptr (i32 1073877020 to i32*), align 4, !dbg !2785, !tbaa !2783
  %165 = or i32 %164, 268435456, !dbg !2785
  store volatile i32 %165, i32* inttoptr (i32 1073877020 to i32*), align 4, !dbg !2785, !tbaa !2783
  %166 = load volatile i32, i32* inttoptr (i32 1073877020 to i32*), align 4, !dbg !2785, !tbaa !2783
  %167 = and i32 %166, 268435456, !dbg !2785
  store volatile i32 %167, i32* %2, align 4, !dbg !2785, !tbaa !2488
  %168 = load volatile i32, i32* %2, align 4, !dbg !2785, !tbaa !2488
  %169 = bitcast i32* %2 to i8*, !dbg !2786
  call void @llvm.lifetime.end.p0i8(i64 4, i8* nonnull %169), !dbg !2786
  call void @llvm.dbg.value(metadata i32 1, metadata !2592, metadata !DIExpression()), !dbg !2781
  br label %170, !dbg !2787

170:                                              ; preds = %162, %158
  call void @llvm.dbg.value(metadata i32 undef, metadata !2592, metadata !DIExpression()), !dbg !2781
  %171 = load volatile i32, i32* inttoptr (i32 1073770496 to i32*), align 4096, !dbg !2788, !tbaa !2790
  %172 = and i32 %171, 256, !dbg !2788
  %173 = icmp eq i32 %172, 0, !dbg !2788
  br i1 %173, label %174, label %186, !dbg !2792

174:                                              ; preds = %170
  %175 = load volatile i32, i32* inttoptr (i32 1073770496 to i32*), align 4096, !dbg !2793, !tbaa !2790
  %176 = or i32 %175, 256, !dbg !2793
  store volatile i32 %176, i32* inttoptr (i32 1073770496 to i32*), align 4096, !dbg !2793, !tbaa !2790
  %177 = call i32 @HAL_GetTick() #27, !dbg !2795
  call void @llvm.dbg.value(metadata i32 %177, metadata !2590, metadata !DIExpression()), !dbg !2600
  br label %178, !dbg !2796

178:                                              ; preds = %182, %174
  %179 = load volatile i32, i32* inttoptr (i32 1073770496 to i32*), align 4096, !dbg !2797, !tbaa !2790
  %180 = and i32 %179, 256, !dbg !2797
  %181 = icmp eq i32 %180, 0, !dbg !2797
  br i1 %181, label %182, label %186, !dbg !2796

182:                                              ; preds = %178
  %183 = call i32 @HAL_GetTick() #27, !dbg !2798
  %184 = sub i32 %183, %177, !dbg !2801
  %185 = icmp ugt i32 %184, 100, !dbg !2802
  br i1 %185, label %298, label %178, !dbg !2803, !llvm.loop !2804

186:                                              ; preds = %178, %170
  %187 = getelementptr inbounds %struct.RCC_OscInitTypeDef, %struct.RCC_OscInitTypeDef* %0, i32 0, i32 3, !dbg !2806
  %188 = load i32, i32* %187, align 4, !dbg !2806, !tbaa !2809
  switch i32 %188, label %202 [
    i32 1, label %189
    i32 0, label %192
    i32 5, label %197
  ], !dbg !2810

189:                                              ; preds = %186
  %190 = load volatile i32, i32* inttoptr (i32 1073877024 to i32*), align 32, !dbg !2811, !tbaa !2813
  %191 = or i32 %190, 1, !dbg !2811
  br label %207, !dbg !2811

192:                                              ; preds = %186
  %193 = load volatile i32, i32* inttoptr (i32 1073877024 to i32*), align 32, !dbg !2814, !tbaa !2813
  %194 = and i32 %193, -2, !dbg !2814
  store volatile i32 %194, i32* inttoptr (i32 1073877024 to i32*), align 32, !dbg !2814, !tbaa !2813
  %195 = load volatile i32, i32* inttoptr (i32 1073877024 to i32*), align 32, !dbg !2814, !tbaa !2813
  %196 = and i32 %195, -5, !dbg !2814
  br label %207, !dbg !2814

197:                                              ; preds = %186
  %198 = load volatile i32, i32* inttoptr (i32 1073877024 to i32*), align 32, !dbg !2817, !tbaa !2813
  %199 = or i32 %198, 4, !dbg !2817
  store volatile i32 %199, i32* inttoptr (i32 1073877024 to i32*), align 32, !dbg !2817, !tbaa !2813
  %200 = load volatile i32, i32* inttoptr (i32 1073877024 to i32*), align 32, !dbg !2817, !tbaa !2813
  %201 = or i32 %200, 1, !dbg !2817
  br label %207, !dbg !2817

202:                                              ; preds = %186
  %203 = load volatile i32, i32* inttoptr (i32 1073877024 to i32*), align 32, !dbg !2820, !tbaa !2813
  %204 = and i32 %203, -2, !dbg !2820
  store volatile i32 %204, i32* inttoptr (i32 1073877024 to i32*), align 32, !dbg !2820, !tbaa !2813
  %205 = load volatile i32, i32* inttoptr (i32 1073877024 to i32*), align 32, !dbg !2820, !tbaa !2813
  %206 = and i32 %205, -5, !dbg !2820
  br label %207

207:                                              ; preds = %192, %202, %197, %189
  %208 = phi i32 [ %196, %192 ], [ %206, %202 ], [ %201, %197 ], [ %191, %189 ]
  store volatile i32 %208, i32* inttoptr (i32 1073877024 to i32*), align 32, !dbg !2822, !tbaa !2813
  %209 = icmp eq i32 %188, 0, !dbg !2823
  %210 = call i32 @HAL_GetTick() #27, !dbg !2825
  call void @llvm.dbg.value(metadata i32 %210, metadata !2590, metadata !DIExpression()), !dbg !2600
  call void @llvm.dbg.value(metadata i32 %210, metadata !2590, metadata !DIExpression()), !dbg !2600
  br i1 %209, label %219, label %211, !dbg !2826

211:                                              ; preds = %207, %215
  %212 = load volatile i32, i32* inttoptr (i32 1073877024 to i32*), align 32, !dbg !2827, !tbaa !2813
  %213 = and i32 %212, 2, !dbg !2827
  %214 = icmp eq i32 %213, 0, !dbg !2829
  br i1 %214, label %215, label %227, !dbg !2830

215:                                              ; preds = %211
  %216 = call i32 @HAL_GetTick() #27, !dbg !2831
  %217 = sub i32 %216, %210, !dbg !2834
  %218 = icmp ugt i32 %217, 5000, !dbg !2835
  br i1 %218, label %298, label %211, !dbg !2836, !llvm.loop !2837

219:                                              ; preds = %207, %223
  %220 = load volatile i32, i32* inttoptr (i32 1073877024 to i32*), align 32, !dbg !2839, !tbaa !2813
  %221 = and i32 %220, 2, !dbg !2839
  %222 = icmp eq i32 %221, 0, !dbg !2841
  br i1 %222, label %227, label %223, !dbg !2842

223:                                              ; preds = %219
  %224 = call i32 @HAL_GetTick() #27, !dbg !2843
  %225 = sub i32 %224, %210, !dbg !2846
  %226 = icmp ugt i32 %225, 5000, !dbg !2847
  br i1 %226, label %298, label %219, !dbg !2848, !llvm.loop !2849

227:                                              ; preds = %211, %219
  br i1 %161, label %228, label %231, !dbg !2851

228:                                              ; preds = %227
  %229 = load volatile i32, i32* inttoptr (i32 1073877020 to i32*), align 4, !dbg !2852, !tbaa !2783
  %230 = and i32 %229, -268435457, !dbg !2852
  store volatile i32 %230, i32* inttoptr (i32 1073877020 to i32*), align 4, !dbg !2852, !tbaa !2783
  br label %231, !dbg !2855

231:                                              ; preds = %228, %227, %154
  %232 = getelementptr inbounds %struct.RCC_OscInitTypeDef, %struct.RCC_OscInitTypeDef* %0, i32 0, i32 7, i32 0, !dbg !2856
  %233 = load i32, i32* %232, align 4, !dbg !2856, !tbaa !2858
  %234 = icmp eq i32 %233, 0, !dbg !2859
  br i1 %234, label %297, label %235, !dbg !2860

235:                                              ; preds = %231
  %236 = load volatile i32, i32* inttoptr (i32 1073876996 to i32*), align 4, !dbg !2861, !tbaa !2445
  %237 = and i32 %236, 12, !dbg !2861
  %238 = icmp eq i32 %237, 8, !dbg !2864
  br i1 %238, label %284, label %239, !dbg !2865

239:                                              ; preds = %235
  %240 = icmp eq i32 %233, 2, !dbg !2866
  store volatile i32 0, i32* inttoptr (i32 1111621728 to i32*), align 32, !dbg !2869, !tbaa !2488
  %241 = call i32 @HAL_GetTick() #27, !dbg !2869
  call void @llvm.dbg.value(metadata i32 %241, metadata !2590, metadata !DIExpression()), !dbg !2600
  call void @llvm.dbg.value(metadata i32 %241, metadata !2590, metadata !DIExpression()), !dbg !2600
  br i1 %240, label %242, label %276, !dbg !2870

242:                                              ; preds = %239, %246
  %243 = load volatile i32, i32* inttoptr (i32 1073876992 to i32*), align 4096, !dbg !2871, !tbaa !2441
  %244 = and i32 %243, 33554432, !dbg !2871
  %245 = icmp eq i32 %244, 0, !dbg !2873
  br i1 %245, label %250, label %246, !dbg !2874

246:                                              ; preds = %242
  %247 = call i32 @HAL_GetTick() #27, !dbg !2875
  %248 = sub i32 %247, %241, !dbg !2878
  %249 = icmp ugt i32 %248, 2, !dbg !2879
  br i1 %249, label %298, label %242, !dbg !2880, !llvm.loop !2881

250:                                              ; preds = %242
  %251 = getelementptr inbounds %struct.RCC_OscInitTypeDef, %struct.RCC_OscInitTypeDef* %0, i32 0, i32 7, i32 1, !dbg !2883
  %252 = load i32, i32* %251, align 4, !dbg !2883, !tbaa !2885
  %253 = icmp eq i32 %252, 65536, !dbg !2886
  br i1 %253, label %254, label %260, !dbg !2887

254:                                              ; preds = %250
  %255 = load volatile i32, i32* inttoptr (i32 1073876996 to i32*), align 4, !dbg !2888, !tbaa !2445
  %256 = and i32 %255, -131073, !dbg !2888
  %257 = getelementptr inbounds %struct.RCC_OscInitTypeDef, %struct.RCC_OscInitTypeDef* %0, i32 0, i32 2, !dbg !2888
  %258 = load i32, i32* %257, align 4, !dbg !2888, !tbaa !2890
  %259 = or i32 %256, %258, !dbg !2888
  store volatile i32 %259, i32* inttoptr (i32 1073876996 to i32*), align 4, !dbg !2888, !tbaa !2445
  br label %260, !dbg !2891

260:                                              ; preds = %254, %250
  %261 = load volatile i32, i32* inttoptr (i32 1073876996 to i32*), align 4, !dbg !2892, !tbaa !2445
  %262 = and i32 %261, -3997697, !dbg !2892
  %263 = getelementptr inbounds %struct.RCC_OscInitTypeDef, %struct.RCC_OscInitTypeDef* %0, i32 0, i32 7, i32 2, !dbg !2892
  %264 = load i32, i32* %263, align 4, !dbg !2892, !tbaa !2893
  %265 = or i32 %264, %252, !dbg !2892
  %266 = or i32 %265, %262, !dbg !2892
  store volatile i32 %266, i32* inttoptr (i32 1073876996 to i32*), align 4, !dbg !2892, !tbaa !2445
  store volatile i32 1, i32* inttoptr (i32 1111621728 to i32*), align 32, !dbg !2894, !tbaa !2488
  %267 = call i32 @HAL_GetTick() #27, !dbg !2895
  call void @llvm.dbg.value(metadata i32 %267, metadata !2590, metadata !DIExpression()), !dbg !2600
  br label %268, !dbg !2896

268:                                              ; preds = %272, %260
  %269 = load volatile i32, i32* inttoptr (i32 1073876992 to i32*), align 4096, !dbg !2897, !tbaa !2441
  %270 = and i32 %269, 33554432, !dbg !2897
  %271 = icmp eq i32 %270, 0, !dbg !2898
  br i1 %271, label %272, label %297, !dbg !2896

272:                                              ; preds = %268
  %273 = call i32 @HAL_GetTick() #27, !dbg !2899
  %274 = sub i32 %273, %267, !dbg !2902
  %275 = icmp ugt i32 %274, 2, !dbg !2903
  br i1 %275, label %298, label %268, !dbg !2904, !llvm.loop !2905

276:                                              ; preds = %239, %280
  %277 = load volatile i32, i32* inttoptr (i32 1073876992 to i32*), align 4096, !dbg !2907, !tbaa !2441
  %278 = and i32 %277, 33554432, !dbg !2907
  %279 = icmp eq i32 %278, 0, !dbg !2909
  br i1 %279, label %297, label %280, !dbg !2910

280:                                              ; preds = %276
  %281 = call i32 @HAL_GetTick() #27, !dbg !2911
  %282 = sub i32 %281, %241, !dbg !2914
  %283 = icmp ugt i32 %282, 2, !dbg !2915
  br i1 %283, label %298, label %276, !dbg !2916, !llvm.loop !2917

284:                                              ; preds = %235
  %285 = icmp eq i32 %233, 1, !dbg !2919
  br i1 %285, label %298, label %286, !dbg !2922

286:                                              ; preds = %284
  %287 = load volatile i32, i32* inttoptr (i32 1073876996 to i32*), align 4, !dbg !2923, !tbaa !2445
  call void @llvm.dbg.value(metadata i32 %287, metadata !2591, metadata !DIExpression()), !dbg !2600
  %288 = and i32 %287, 65536, !dbg !2925
  %289 = getelementptr inbounds %struct.RCC_OscInitTypeDef, %struct.RCC_OscInitTypeDef* %0, i32 0, i32 7, i32 1, !dbg !2927
  %290 = load i32, i32* %289, align 4, !dbg !2927, !tbaa !2885
  %291 = icmp eq i32 %288, %290, !dbg !2928
  br i1 %291, label %292, label %298, !dbg !2929

292:                                              ; preds = %286
  %293 = and i32 %287, 3932160, !dbg !2930
  %294 = getelementptr inbounds %struct.RCC_OscInitTypeDef, %struct.RCC_OscInitTypeDef* %0, i32 0, i32 7, i32 2, !dbg !2931
  %295 = load i32, i32* %294, align 4, !dbg !2931, !tbaa !2893
  %296 = icmp eq i32 %293, %295, !dbg !2932
  br i1 %296, label %297, label %298, !dbg !2933

297:                                              ; preds = %276, %268, %292, %231
  br label %298, !dbg !2934

298:                                              ; preds = %58, %66, %104, %114, %139, %150, %182, %215, %223, %280, %246, %272, %286, %292, %284, %90, %25, %1, %297
  %299 = phi i32 [ 0, %297 ], [ 1, %1 ], [ 1, %25 ], [ 1, %90 ], [ 1, %284 ], [ 1, %292 ], [ 1, %286 ], [ 3, %272 ], [ 3, %246 ], [ 3, %280 ], [ 3, %223 ], [ 3, %215 ], [ 3, %182 ], [ 3, %150 ], [ 3, %139 ], [ 3, %114 ], [ 3, %104 ], [ 3, %66 ], [ 3, %58 ], !dbg !2600
  ret i32 %299, !dbg !2935
}

; Function Attrs: noinline nounwind
define internal fastcc void @RCC_Delay() unnamed_addr #8 !dbg !2936 {
  %1 = alloca i32, align 4
  call void @llvm.dbg.value(metadata i32 1, metadata !2940, metadata !DIExpression()), !dbg !2942
  %2 = bitcast i32* %1 to i8*, !dbg !2943
  call void @llvm.lifetime.start.p0i8(i64 4, i8* nonnull %2), !dbg !2943
  call void @llvm.dbg.declare(metadata i32* %1, metadata !2941, metadata !DIExpression()), !dbg !2944
  %3 = load i32, i32* @SystemCoreClock, align 4, !dbg !2945, !tbaa !2488
  %4 = udiv i32 %3, 8000, !dbg !2946
  store volatile i32 %4, i32* %1, align 4, !dbg !2944, !tbaa !2488
  br label %5, !dbg !2947

5:                                                ; preds = %5, %0
  call void asm sideeffect "nop", ""() #27, !dbg !2948, !srcloc !2950
  %6 = load volatile i32, i32* %1, align 4, !dbg !2951, !tbaa !2488
  %7 = add i32 %6, -1, !dbg !2951
  store volatile i32 %7, i32* %1, align 4, !dbg !2951, !tbaa !2488
  %8 = icmp eq i32 %6, 0, !dbg !2952
  br i1 %8, label %9, label %5, !dbg !2952, !llvm.loop !2953

9:                                                ; preds = %5
  %10 = bitcast i32* %1 to i8*, !dbg !2955
  call void @llvm.lifetime.end.p0i8(i64 4, i8* nonnull %10), !dbg !2955
  ret void, !dbg !2955
}

; Function Attrs: noinline nounwind
define dso_local i32 @HAL_RCC_ClockConfig(%struct.RCC_ClkInitTypeDef* noundef readonly %0, i32 noundef %1) local_unnamed_addr #8 !dbg !2956 {
  call void @llvm.dbg.value(metadata %struct.RCC_ClkInitTypeDef* %0, metadata !2969, metadata !DIExpression()), !dbg !2972
  call void @llvm.dbg.value(metadata i32 %1, metadata !2970, metadata !DIExpression()), !dbg !2972
  %3 = icmp eq %struct.RCC_ClkInitTypeDef* %0, null, !dbg !2973
  br i1 %3, label %113, label %4, !dbg !2975

4:                                                ; preds = %2
  %5 = load volatile i32, i32* inttoptr (i32 1073881088 to i32*), align 8192, !dbg !2976, !tbaa !2978
  %6 = and i32 %5, 7, !dbg !2976
  %7 = icmp ult i32 %6, %1, !dbg !2980
  br i1 %7, label %8, label %15, !dbg !2981

8:                                                ; preds = %4
  %9 = load volatile i32, i32* inttoptr (i32 1073881088 to i32*), align 8192, !dbg !2982, !tbaa !2978
  %10 = and i32 %9, -8, !dbg !2982
  %11 = or i32 %10, %1, !dbg !2982
  store volatile i32 %11, i32* inttoptr (i32 1073881088 to i32*), align 8192, !dbg !2982, !tbaa !2978
  %12 = load volatile i32, i32* inttoptr (i32 1073881088 to i32*), align 8192, !dbg !2984, !tbaa !2978
  %13 = and i32 %12, 7, !dbg !2984
  %14 = icmp eq i32 %13, %1, !dbg !2986
  br i1 %14, label %15, label %113, !dbg !2987

15:                                               ; preds = %8, %4
  %16 = getelementptr inbounds %struct.RCC_ClkInitTypeDef, %struct.RCC_ClkInitTypeDef* %0, i32 0, i32 0, !dbg !2988
  %17 = load i32, i32* %16, align 4, !dbg !2988, !tbaa !2990
  %18 = and i32 %17, 2, !dbg !2992
  %19 = icmp eq i32 %18, 0, !dbg !2993
  br i1 %19, label %38, label %20, !dbg !2994

20:                                               ; preds = %15
  %21 = and i32 %17, 4, !dbg !2995
  %22 = icmp eq i32 %21, 0, !dbg !2998
  br i1 %22, label %26, label %23, !dbg !2999

23:                                               ; preds = %20
  %24 = load volatile i32, i32* inttoptr (i32 1073876996 to i32*), align 4, !dbg !3000, !tbaa !2445
  %25 = or i32 %24, 1792, !dbg !3000
  store volatile i32 %25, i32* inttoptr (i32 1073876996 to i32*), align 4, !dbg !3000, !tbaa !2445
  br label %26, !dbg !3002

26:                                               ; preds = %23, %20
  %27 = and i32 %17, 8, !dbg !3003
  %28 = icmp eq i32 %27, 0, !dbg !3005
  br i1 %28, label %32, label %29, !dbg !3006

29:                                               ; preds = %26
  %30 = load volatile i32, i32* inttoptr (i32 1073876996 to i32*), align 4, !dbg !3007, !tbaa !2445
  %31 = or i32 %30, 14336, !dbg !3007
  store volatile i32 %31, i32* inttoptr (i32 1073876996 to i32*), align 4, !dbg !3007, !tbaa !2445
  br label %32, !dbg !3009

32:                                               ; preds = %29, %26
  %33 = load volatile i32, i32* inttoptr (i32 1073876996 to i32*), align 4, !dbg !3010, !tbaa !2445
  %34 = and i32 %33, -241, !dbg !3010
  %35 = getelementptr inbounds %struct.RCC_ClkInitTypeDef, %struct.RCC_ClkInitTypeDef* %0, i32 0, i32 2, !dbg !3010
  %36 = load i32, i32* %35, align 4, !dbg !3010, !tbaa !3011
  %37 = or i32 %34, %36, !dbg !3010
  store volatile i32 %37, i32* inttoptr (i32 1073876996 to i32*), align 4, !dbg !3010, !tbaa !2445
  br label %38, !dbg !3012

38:                                               ; preds = %32, %15
  %39 = and i32 %17, 1, !dbg !3013
  %40 = icmp eq i32 %39, 0, !dbg !3015
  br i1 %40, label %71, label %41, !dbg !3016

41:                                               ; preds = %38
  %42 = getelementptr inbounds %struct.RCC_ClkInitTypeDef, %struct.RCC_ClkInitTypeDef* %0, i32 0, i32 1, !dbg !3017
  %43 = load i32, i32* %42, align 4, !dbg !3017, !tbaa !3020
  switch i32 %43, label %52 [
    i32 1, label %44
    i32 2, label %48
  ], !dbg !3021

44:                                               ; preds = %41
  %45 = load volatile i32, i32* inttoptr (i32 1073876992 to i32*), align 4096, !dbg !3022, !tbaa !2441
  %46 = and i32 %45, 131072, !dbg !3022
  %47 = icmp eq i32 %46, 0, !dbg !3025
  br i1 %47, label %113, label %56, !dbg !3026

48:                                               ; preds = %41
  %49 = load volatile i32, i32* inttoptr (i32 1073876992 to i32*), align 4096, !dbg !3027, !tbaa !2441
  %50 = and i32 %49, 33554432, !dbg !3027
  %51 = icmp eq i32 %50, 0, !dbg !3031
  br i1 %51, label %113, label %56, !dbg !3032

52:                                               ; preds = %41
  %53 = load volatile i32, i32* inttoptr (i32 1073876992 to i32*), align 4096, !dbg !3033, !tbaa !2441
  %54 = and i32 %53, 2, !dbg !3033
  %55 = icmp eq i32 %54, 0, !dbg !3036
  br i1 %55, label %113, label %56, !dbg !3037

56:                                               ; preds = %48, %52, %44
  %57 = load volatile i32, i32* inttoptr (i32 1073876996 to i32*), align 4, !dbg !3038, !tbaa !2445
  %58 = and i32 %57, -4, !dbg !3038
  %59 = or i32 %58, %43, !dbg !3038
  store volatile i32 %59, i32* inttoptr (i32 1073876996 to i32*), align 4, !dbg !3038, !tbaa !2445
  %60 = call i32 @HAL_GetTick() #27, !dbg !3039
  call void @llvm.dbg.value(metadata i32 %60, metadata !2971, metadata !DIExpression()), !dbg !2972
  br label %61, !dbg !3040

61:                                               ; preds = %67, %56
  %62 = load volatile i32, i32* inttoptr (i32 1073876996 to i32*), align 4, !dbg !3041, !tbaa !2445
  %63 = and i32 %62, 12, !dbg !3041
  %64 = load i32, i32* %42, align 4, !dbg !3042, !tbaa !3020
  %65 = shl i32 %64, 2, !dbg !3043
  %66 = icmp eq i32 %63, %65, !dbg !3044
  br i1 %66, label %71, label %67, !dbg !3040

67:                                               ; preds = %61
  %68 = call i32 @HAL_GetTick() #27, !dbg !3045
  %69 = sub i32 %68, %60, !dbg !3048
  %70 = icmp ugt i32 %69, 5000, !dbg !3049
  br i1 %70, label %113, label %61, !dbg !3050, !llvm.loop !3051

71:                                               ; preds = %61, %38
  %72 = load volatile i32, i32* inttoptr (i32 1073881088 to i32*), align 8192, !dbg !3053, !tbaa !2978
  %73 = and i32 %72, 7, !dbg !3053
  %74 = icmp ugt i32 %73, %1, !dbg !3055
  br i1 %74, label %75, label %82, !dbg !3056

75:                                               ; preds = %71
  %76 = load volatile i32, i32* inttoptr (i32 1073881088 to i32*), align 8192, !dbg !3057, !tbaa !2978
  %77 = and i32 %76, -8, !dbg !3057
  %78 = or i32 %77, %1, !dbg !3057
  store volatile i32 %78, i32* inttoptr (i32 1073881088 to i32*), align 8192, !dbg !3057, !tbaa !2978
  %79 = load volatile i32, i32* inttoptr (i32 1073881088 to i32*), align 8192, !dbg !3059, !tbaa !2978
  %80 = and i32 %79, 7, !dbg !3059
  %81 = icmp eq i32 %80, %1, !dbg !3061
  br i1 %81, label %82, label %113, !dbg !3062

82:                                               ; preds = %75, %71
  %83 = load i32, i32* %16, align 4, !dbg !3063, !tbaa !2990
  %84 = and i32 %83, 4, !dbg !3065
  %85 = icmp eq i32 %84, 0, !dbg !3066
  br i1 %85, label %92, label %86, !dbg !3067

86:                                               ; preds = %82
  %87 = load volatile i32, i32* inttoptr (i32 1073876996 to i32*), align 4, !dbg !3068, !tbaa !2445
  %88 = and i32 %87, -1793, !dbg !3068
  %89 = getelementptr inbounds %struct.RCC_ClkInitTypeDef, %struct.RCC_ClkInitTypeDef* %0, i32 0, i32 3, !dbg !3068
  %90 = load i32, i32* %89, align 4, !dbg !3068, !tbaa !3070
  %91 = or i32 %88, %90, !dbg !3068
  store volatile i32 %91, i32* inttoptr (i32 1073876996 to i32*), align 4, !dbg !3068, !tbaa !2445
  br label %92, !dbg !3071

92:                                               ; preds = %86, %82
  %93 = and i32 %83, 8, !dbg !3072
  %94 = icmp eq i32 %93, 0, !dbg !3074
  br i1 %94, label %102, label %95, !dbg !3075

95:                                               ; preds = %92
  %96 = load volatile i32, i32* inttoptr (i32 1073876996 to i32*), align 4, !dbg !3076, !tbaa !2445
  %97 = and i32 %96, -14337, !dbg !3076
  %98 = getelementptr inbounds %struct.RCC_ClkInitTypeDef, %struct.RCC_ClkInitTypeDef* %0, i32 0, i32 4, !dbg !3076
  %99 = load i32, i32* %98, align 4, !dbg !3076, !tbaa !3078
  %100 = shl i32 %99, 3, !dbg !3076
  %101 = or i32 %100, %97, !dbg !3076
  store volatile i32 %101, i32* inttoptr (i32 1073876996 to i32*), align 4, !dbg !3076, !tbaa !2445
  br label %102, !dbg !3079

102:                                              ; preds = %95, %92
  %103 = call i32 @HAL_RCC_GetSysClockFreq(), !dbg !3080
  %104 = load volatile i32, i32* inttoptr (i32 1073876996 to i32*), align 4, !dbg !3081, !tbaa !2445
  %105 = lshr i32 %104, 4, !dbg !3082
  %106 = and i32 %105, 15, !dbg !3082
  %107 = getelementptr inbounds [16 x i8], [16 x i8]* @AHBPrescTable, i32 0, i32 %106, !dbg !3083
  %108 = load i8, i8* %107, align 1, !dbg !3083, !tbaa !1609
  %109 = zext i8 %108 to i32, !dbg !3083
  %110 = lshr i32 %103, %109, !dbg !3084
  store i32 %110, i32* @SystemCoreClock, align 4, !dbg !3085, !tbaa !2488
  %111 = load i32, i32* @uwTickPrio, align 4, !dbg !3086, !tbaa !2488
  %112 = call i32 @HAL_InitTick(i32 noundef %111) #27, !dbg !3087
  br label %113, !dbg !3088

113:                                              ; preds = %67, %75, %52, %48, %44, %8, %2, %102
  %114 = phi i32 [ 0, %102 ], [ 1, %2 ], [ 1, %8 ], [ 1, %44 ], [ 1, %48 ], [ 1, %52 ], [ 1, %75 ], [ 3, %67 ], !dbg !2972
  ret i32 %114, !dbg !3089
}

; Function Attrs: mustprogress nofree noinline norecurse nounwind willreturn
define dso_local i32 @HAL_RCC_GetSysClockFreq() local_unnamed_addr #14 !dbg !3090 {
  call void @llvm.dbg.declare(metadata [16 x i8]* @__const.HAL_RCC_GetSysClockFreq.aPLLMULFactorTable, metadata !3094, metadata !DIExpression()), !dbg !3102
  call void @llvm.dbg.declare(metadata [2 x i8]* @__const.HAL_RCC_GetSysClockFreq.aPredivFactorTable, metadata !3095, metadata !DIExpression()), !dbg !3103
  call void @llvm.dbg.value(metadata i32 0, metadata !3097, metadata !DIExpression()), !dbg !3104
  call void @llvm.dbg.value(metadata i32 0, metadata !3098, metadata !DIExpression()), !dbg !3104
  call void @llvm.dbg.value(metadata i32 0, metadata !3099, metadata !DIExpression()), !dbg !3104
  call void @llvm.dbg.value(metadata i32 0, metadata !3100, metadata !DIExpression()), !dbg !3104
  call void @llvm.dbg.value(metadata i32 0, metadata !3101, metadata !DIExpression()), !dbg !3104
  %1 = load volatile i32, i32* inttoptr (i32 1073876996 to i32*), align 4, !dbg !3105, !tbaa !2445
  call void @llvm.dbg.value(metadata i32 %1, metadata !3097, metadata !DIExpression()), !dbg !3104
  %2 = and i32 %1, 12, !dbg !3106
  %3 = icmp eq i32 %2, 8, !dbg !3107
  br i1 %3, label %4, label %23, !dbg !3107

4:                                                ; preds = %0
  %5 = lshr i32 %1, 18, !dbg !3108
  %6 = and i32 %5, 15, !dbg !3108
  %7 = getelementptr inbounds [16 x i8], [16 x i8]* @__const.HAL_RCC_GetSysClockFreq.aPLLMULFactorTable, i32 0, i32 %6, !dbg !3111
  %8 = load i8, i8* %7, align 1, !dbg !3111, !tbaa !1609
  %9 = zext i8 %8 to i32, !dbg !3111
  call void @llvm.dbg.value(metadata i32 %9, metadata !3100, metadata !DIExpression()), !dbg !3104
  %10 = and i32 %1, 65536, !dbg !3112
  %11 = icmp eq i32 %10, 0, !dbg !3114
  br i1 %11, label %21, label %12, !dbg !3115

12:                                               ; preds = %4
  %13 = load volatile i32, i32* inttoptr (i32 1073876996 to i32*), align 4, !dbg !3116, !tbaa !2445
  %14 = lshr i32 %13, 17, !dbg !3118
  %15 = and i32 %14, 1, !dbg !3118
  %16 = getelementptr inbounds [2 x i8], [2 x i8]* @__const.HAL_RCC_GetSysClockFreq.aPredivFactorTable, i32 0, i32 %15, !dbg !3119
  %17 = load i8, i8* %16, align 1, !dbg !3119, !tbaa !1609
  %18 = zext i8 %17 to i32, !dbg !3119
  call void @llvm.dbg.value(metadata i32 %18, metadata !3098, metadata !DIExpression()), !dbg !3104
  %19 = mul nuw nsw i32 %9, 8000000, !dbg !3120
  %20 = udiv i32 %19, %18, !dbg !3121
  call void @llvm.dbg.value(metadata i32 %20, metadata !3099, metadata !DIExpression()), !dbg !3104
  br label %23, !dbg !3122

21:                                               ; preds = %4
  %22 = mul nuw nsw i32 %9, 4000000, !dbg !3123
  call void @llvm.dbg.value(metadata i32 %22, metadata !3099, metadata !DIExpression()), !dbg !3104
  br label %23

23:                                               ; preds = %0, %12, %21
  %24 = phi i32 [ %20, %12 ], [ %22, %21 ], [ 8000000, %0 ], !dbg !3125
  call void @llvm.dbg.value(metadata i32 %24, metadata !3101, metadata !DIExpression()), !dbg !3104
  ret i32 %24, !dbg !3126
}

; Function Attrs: noinline nounwind
define dso_local void @HAL_RCC_MCOConfig(i32 noundef %0, i32 noundef %1, i32 noundef %2) local_unnamed_addr #8 !dbg !3127 {
  %4 = alloca %struct.DMA_Channel_TypeDef, align 4
  %5 = alloca i32, align 4
  call void @llvm.dbg.value(metadata i32 %0, metadata !3131, metadata !DIExpression()), !dbg !3144
  call void @llvm.dbg.value(metadata i32 %1, metadata !3132, metadata !DIExpression()), !dbg !3144
  call void @llvm.dbg.value(metadata i32 %2, metadata !3133, metadata !DIExpression()), !dbg !3144
  %6 = bitcast %struct.DMA_Channel_TypeDef* %4 to i8*, !dbg !3145
  call void @llvm.lifetime.start.p0i8(i64 16, i8* nonnull %6) #27, !dbg !3145
  call void @llvm.dbg.declare(metadata %struct.DMA_Channel_TypeDef* %4, metadata !3134, metadata !DIExpression()), !dbg !3146
  call void @llvm.memset.p0i8.i32(i8* noundef nonnull align 4 dereferenceable(16) %6, i8 0, i32 16, i1 false), !dbg !3146
  %7 = getelementptr inbounds %struct.DMA_Channel_TypeDef, %struct.DMA_Channel_TypeDef* %4, i32 0, i32 1, !dbg !3147
  store i32 2, i32* %7, align 4, !dbg !3148, !tbaa !3149
  %8 = getelementptr inbounds %struct.DMA_Channel_TypeDef, %struct.DMA_Channel_TypeDef* %4, i32 0, i32 3, !dbg !3151
  store i32 3, i32* %8, align 4, !dbg !3152, !tbaa !3153
  %9 = getelementptr inbounds %struct.DMA_Channel_TypeDef, %struct.DMA_Channel_TypeDef* %4, i32 0, i32 2, !dbg !3154
  store i32 0, i32* %9, align 4, !dbg !3155, !tbaa !3156
  %10 = getelementptr inbounds %struct.DMA_Channel_TypeDef, %struct.DMA_Channel_TypeDef* %4, i32 0, i32 0, !dbg !3157
  store i32 256, i32* %10, align 4, !dbg !3158, !tbaa !3159
  %11 = bitcast i32* %5 to i8*, !dbg !3160
  call void @llvm.lifetime.start.p0i8(i64 4, i8* nonnull %11), !dbg !3160
  call void @llvm.dbg.declare(metadata i32* %5, metadata !3142, metadata !DIExpression()), !dbg !3160
  %12 = load volatile i32, i32* inttoptr (i32 1073877016 to i32*), align 8, !dbg !3160, !tbaa !3161
  %13 = or i32 %12, 4, !dbg !3160
  store volatile i32 %13, i32* inttoptr (i32 1073877016 to i32*), align 8, !dbg !3160, !tbaa !3161
  %14 = load volatile i32, i32* inttoptr (i32 1073877016 to i32*), align 8, !dbg !3160, !tbaa !3161
  %15 = and i32 %14, 4, !dbg !3160
  store volatile i32 %15, i32* %5, align 4, !dbg !3160, !tbaa !2488
  %16 = load volatile i32, i32* %5, align 4, !dbg !3160, !tbaa !2488
  %17 = bitcast i32* %5 to i8*, !dbg !3162
  call void @llvm.lifetime.end.p0i8(i64 4, i8* nonnull %17), !dbg !3162
  call void @HAL_GPIO_Init(%struct.USART_TypeDef* noundef nonnull inttoptr (i32 1073809408 to %struct.USART_TypeDef*), %struct.DMA_Channel_TypeDef* noundef nonnull %4) #27, !dbg !3163
  %18 = load volatile i32, i32* inttoptr (i32 1073876996 to i32*), align 4, !dbg !3164, !tbaa !2445
  %19 = and i32 %18, -117440513, !dbg !3164
  %20 = or i32 %19, %1, !dbg !3164
  store volatile i32 %20, i32* inttoptr (i32 1073876996 to i32*), align 4, !dbg !3164, !tbaa !2445
  call void @llvm.lifetime.end.p0i8(i64 16, i8* nonnull %6) #27, !dbg !3165
  ret void, !dbg !3165
}

; Function Attrs: nofree noinline norecurse nounwind
define dso_local void @HAL_RCC_EnableCSS() local_unnamed_addr #13 !dbg !3166 {
  store volatile i32 1, i32* inttoptr (i32 1111621708 to i32*), align 4, !dbg !3167, !tbaa !2488
  ret void, !dbg !3168
}

; Function Attrs: nofree noinline norecurse nounwind
define dso_local void @HAL_RCC_DisableCSS() local_unnamed_addr #13 !dbg !3169 {
  store volatile i32 0, i32* inttoptr (i32 1111621708 to i32*), align 4, !dbg !3170, !tbaa !2488
  ret void, !dbg !3171
}

; Function Attrs: mustprogress nofree noinline norecurse nosync nounwind readonly willreturn
define dso_local i32 @HAL_RCC_GetHCLKFreq() local_unnamed_addr #15 !dbg !3172 {
  %1 = load i32, i32* @SystemCoreClock, align 4, !dbg !3173, !tbaa !2488
  ret i32 %1, !dbg !3174
}

; Function Attrs: mustprogress nofree noinline norecurse nounwind willreturn
define dso_local i32 @HAL_RCC_GetPCLK1Freq() local_unnamed_addr #14 !dbg !3175 {
  %1 = call i32 @HAL_RCC_GetHCLKFreq(), !dbg !3176
  %2 = load volatile i32, i32* inttoptr (i32 1073876996 to i32*), align 4, !dbg !3177, !tbaa !2445
  %3 = lshr i32 %2, 8, !dbg !3178
  %4 = and i32 %3, 7, !dbg !3178
  %5 = getelementptr inbounds [8 x i8], [8 x i8]* @APBPrescTable, i32 0, i32 %4, !dbg !3179
  %6 = load i8, i8* %5, align 1, !dbg !3179, !tbaa !1609
  %7 = zext i8 %6 to i32, !dbg !3179
  %8 = lshr i32 %1, %7, !dbg !3180
  ret i32 %8, !dbg !3181
}

; Function Attrs: mustprogress nofree noinline norecurse nounwind willreturn
define dso_local i32 @HAL_RCC_GetPCLK2Freq() local_unnamed_addr #14 !dbg !3182 {
  %1 = call i32 @HAL_RCC_GetHCLKFreq(), !dbg !3183
  %2 = load volatile i32, i32* inttoptr (i32 1073876996 to i32*), align 4, !dbg !3184, !tbaa !2445
  %3 = lshr i32 %2, 11, !dbg !3185
  %4 = and i32 %3, 7, !dbg !3185
  %5 = getelementptr inbounds [8 x i8], [8 x i8]* @APBPrescTable, i32 0, i32 %4, !dbg !3186
  %6 = load i8, i8* %5, align 1, !dbg !3186, !tbaa !1609
  %7 = zext i8 %6 to i32, !dbg !3186
  %8 = lshr i32 %1, %7, !dbg !3187
  ret i32 %8, !dbg !3188
}

; Function Attrs: mustprogress nofree noinline norecurse nounwind willreturn
define dso_local void @HAL_RCC_GetOscConfig(%struct.RCC_OscInitTypeDef* nocapture noundef writeonly %0) local_unnamed_addr #14 !dbg !3189 {
  call void @llvm.dbg.value(metadata %struct.RCC_OscInitTypeDef* %0, metadata !3193, metadata !DIExpression()), !dbg !3194
  %2 = getelementptr inbounds %struct.RCC_OscInitTypeDef, %struct.RCC_OscInitTypeDef* %0, i32 0, i32 0, !dbg !3195
  store i32 15, i32* %2, align 4, !dbg !3196, !tbaa !2606
  %3 = load volatile i32, i32* inttoptr (i32 1073876992 to i32*), align 4096, !dbg !3197, !tbaa !2441
  %4 = and i32 %3, 262144, !dbg !3199
  %5 = icmp eq i32 %4, 0, !dbg !3200
  br i1 %5, label %8, label %6, !dbg !3201

6:                                                ; preds = %1
  %7 = getelementptr inbounds %struct.RCC_OscInitTypeDef, %struct.RCC_OscInitTypeDef* %0, i32 0, i32 1, !dbg !3202
  store i32 327680, i32* %7, align 4, !dbg !3204, !tbaa !2629
  br label %15, !dbg !3205

8:                                                ; preds = %1
  %9 = load volatile i32, i32* inttoptr (i32 1073876992 to i32*), align 4096, !dbg !3206, !tbaa !2441
  %10 = and i32 %9, 65536, !dbg !3208
  %11 = icmp eq i32 %10, 0, !dbg !3209
  %12 = getelementptr inbounds %struct.RCC_OscInitTypeDef, %struct.RCC_OscInitTypeDef* %0, i32 0, i32 1, !dbg !3210
  br i1 %11, label %14, label %13, !dbg !3211

13:                                               ; preds = %8
  store i32 65536, i32* %12, align 4, !dbg !3212, !tbaa !2629
  br label %15, !dbg !3214

14:                                               ; preds = %8
  store i32 0, i32* %12, align 4, !dbg !3215, !tbaa !2629
  br label %15

15:                                               ; preds = %13, %14, %6
  %16 = load volatile i32, i32* inttoptr (i32 1073876996 to i32*), align 4, !dbg !3217, !tbaa !2445
  %17 = and i32 %16, 131072, !dbg !3217
  %18 = getelementptr inbounds %struct.RCC_OscInitTypeDef, %struct.RCC_OscInitTypeDef* %0, i32 0, i32 2, !dbg !3218
  store i32 %17, i32* %18, align 4, !dbg !3219, !tbaa !2890
  %19 = load volatile i32, i32* inttoptr (i32 1073876992 to i32*), align 4096, !dbg !3220, !tbaa !2441
  %20 = and i32 %19, 1, !dbg !3222
  %21 = getelementptr inbounds %struct.RCC_OscInitTypeDef, %struct.RCC_OscInitTypeDef* %0, i32 0, i32 4, !dbg !3223
  store i32 %20, i32* %21, align 4, !dbg !3223, !tbaa !2698
  %22 = load volatile i32, i32* inttoptr (i32 1073876992 to i32*), align 4096, !dbg !3224, !tbaa !2441
  %23 = lshr i32 %22, 3, !dbg !3225
  %24 = and i32 %23, 31, !dbg !3225
  %25 = getelementptr inbounds %struct.RCC_OscInitTypeDef, %struct.RCC_OscInitTypeDef* %0, i32 0, i32 5, !dbg !3226
  store i32 %24, i32* %25, align 4, !dbg !3227, !tbaa !2735
  %26 = load volatile i32, i32* inttoptr (i32 1073877024 to i32*), align 32, !dbg !3228, !tbaa !2813
  %27 = and i32 %26, 4, !dbg !3230
  %28 = icmp eq i32 %27, 0, !dbg !3231
  br i1 %28, label %31, label %29, !dbg !3232

29:                                               ; preds = %15
  %30 = getelementptr inbounds %struct.RCC_OscInitTypeDef, %struct.RCC_OscInitTypeDef* %0, i32 0, i32 3, !dbg !3233
  store i32 5, i32* %30, align 4, !dbg !3235, !tbaa !2809
  br label %38, !dbg !3236

31:                                               ; preds = %15
  %32 = load volatile i32, i32* inttoptr (i32 1073877024 to i32*), align 32, !dbg !3237, !tbaa !2813
  %33 = and i32 %32, 1, !dbg !3239
  %34 = icmp eq i32 %33, 0, !dbg !3240
  %35 = getelementptr inbounds %struct.RCC_OscInitTypeDef, %struct.RCC_OscInitTypeDef* %0, i32 0, i32 3, !dbg !3241
  br i1 %34, label %37, label %36, !dbg !3242

36:                                               ; preds = %31
  store i32 1, i32* %35, align 4, !dbg !3243, !tbaa !2809
  br label %38, !dbg !3245

37:                                               ; preds = %31
  store i32 0, i32* %35, align 4, !dbg !3246, !tbaa !2809
  br label %38

38:                                               ; preds = %36, %37, %29
  %39 = load volatile i32, i32* inttoptr (i32 1073877028 to i32*), align 4, !dbg !3248, !tbaa !2563
  %40 = and i32 %39, 1, !dbg !3250
  %41 = getelementptr inbounds %struct.RCC_OscInitTypeDef, %struct.RCC_OscInitTypeDef* %0, i32 0, i32 6, !dbg !3251
  store i32 %40, i32* %41, align 4, !dbg !3251, !tbaa !2744
  %42 = load volatile i32, i32* inttoptr (i32 1073876992 to i32*), align 4096, !dbg !3252, !tbaa !2441
  %43 = and i32 %42, 16777216, !dbg !3254
  %44 = icmp eq i32 %43, 0, !dbg !3255
  %45 = select i1 %44, i32 1, i32 2, !dbg !3256
  %46 = getelementptr inbounds %struct.RCC_OscInitTypeDef, %struct.RCC_OscInitTypeDef* %0, i32 0, i32 7, i32 0, !dbg !3257
  store i32 %45, i32* %46, align 4, !dbg !3257, !tbaa !2858
  %47 = load volatile i32, i32* inttoptr (i32 1073876996 to i32*), align 4, !dbg !3258, !tbaa !2445
  %48 = and i32 %47, 65536, !dbg !3259
  %49 = getelementptr inbounds %struct.RCC_OscInitTypeDef, %struct.RCC_OscInitTypeDef* %0, i32 0, i32 7, i32 1, !dbg !3260
  store i32 %48, i32* %49, align 4, !dbg !3261, !tbaa !2885
  %50 = load volatile i32, i32* inttoptr (i32 1073876996 to i32*), align 4, !dbg !3262, !tbaa !2445
  %51 = and i32 %50, 3932160, !dbg !3263
  %52 = getelementptr inbounds %struct.RCC_OscInitTypeDef, %struct.RCC_OscInitTypeDef* %0, i32 0, i32 7, i32 2, !dbg !3264
  store i32 %51, i32* %52, align 4, !dbg !3265, !tbaa !2893
  ret void, !dbg !3266
}

; Function Attrs: mustprogress nofree noinline norecurse nounwind willreturn
define dso_local void @HAL_RCC_GetClockConfig(%struct.RCC_ClkInitTypeDef* nocapture noundef writeonly %0, i32* nocapture noundef writeonly %1) local_unnamed_addr #14 !dbg !3267 {
  call void @llvm.dbg.value(metadata %struct.RCC_ClkInitTypeDef* %0, metadata !3271, metadata !DIExpression()), !dbg !3273
  call void @llvm.dbg.value(metadata i32* %1, metadata !3272, metadata !DIExpression()), !dbg !3273
  %3 = getelementptr inbounds %struct.RCC_ClkInitTypeDef, %struct.RCC_ClkInitTypeDef* %0, i32 0, i32 0, !dbg !3274
  store i32 15, i32* %3, align 4, !dbg !3275, !tbaa !2990
  %4 = load volatile i32, i32* inttoptr (i32 1073876996 to i32*), align 4, !dbg !3276, !tbaa !2445
  %5 = and i32 %4, 3, !dbg !3277
  %6 = getelementptr inbounds %struct.RCC_ClkInitTypeDef, %struct.RCC_ClkInitTypeDef* %0, i32 0, i32 1, !dbg !3278
  store i32 %5, i32* %6, align 4, !dbg !3279, !tbaa !3020
  %7 = load volatile i32, i32* inttoptr (i32 1073876996 to i32*), align 4, !dbg !3280, !tbaa !2445
  %8 = and i32 %7, 240, !dbg !3281
  %9 = getelementptr inbounds %struct.RCC_ClkInitTypeDef, %struct.RCC_ClkInitTypeDef* %0, i32 0, i32 2, !dbg !3282
  store i32 %8, i32* %9, align 4, !dbg !3283, !tbaa !3011
  %10 = load volatile i32, i32* inttoptr (i32 1073876996 to i32*), align 4, !dbg !3284, !tbaa !2445
  %11 = and i32 %10, 1792, !dbg !3285
  %12 = getelementptr inbounds %struct.RCC_ClkInitTypeDef, %struct.RCC_ClkInitTypeDef* %0, i32 0, i32 3, !dbg !3286
  store i32 %11, i32* %12, align 4, !dbg !3287, !tbaa !3070
  %13 = load volatile i32, i32* inttoptr (i32 1073876996 to i32*), align 4, !dbg !3288, !tbaa !2445
  %14 = lshr i32 %13, 3, !dbg !3289
  %15 = and i32 %14, 1792, !dbg !3289
  %16 = getelementptr inbounds %struct.RCC_ClkInitTypeDef, %struct.RCC_ClkInitTypeDef* %0, i32 0, i32 4, !dbg !3290
  store i32 %15, i32* %16, align 4, !dbg !3291, !tbaa !3078
  %17 = load volatile i32, i32* inttoptr (i32 1073881088 to i32*), align 8192, !dbg !3292, !tbaa !2978
  %18 = and i32 %17, 7, !dbg !3293
  store i32 %18, i32* %1, align 4, !dbg !3294, !tbaa !2488
  ret void, !dbg !3295
}

; Function Attrs: noinline nounwind
define dso_local void @HAL_RCC_NMI_IRQHandler() local_unnamed_addr #8 !dbg !3296 {
  %1 = load volatile i32, i32* inttoptr (i32 1073877000 to i32*), align 8, !dbg !3297, !tbaa !2450
  %2 = and i32 %1, 128, !dbg !3297
  %3 = icmp eq i32 %2, 0, !dbg !3297
  br i1 %3, label %5, label %4, !dbg !3299

4:                                                ; preds = %0
  call void @HAL_RCC_CSSCallback(), !dbg !3300
  store volatile i8 -128, i8* inttoptr (i32 1073877002 to i8*), align 2, !dbg !3302, !tbaa !1609
  br label %5, !dbg !3303

5:                                                ; preds = %4, %0
  ret void, !dbg !3304
}

; Function Attrs: noinline nounwind
define weak dso_local void @HAL_RCC_CSSCallback() local_unnamed_addr #8 !dbg !3305 {
  ret void, !dbg !3306
}

; Function Attrs: noinline nounwind
define dso_local i32 @HAL_Init() local_unnamed_addr #8 !dbg !3307 {
  %1 = load volatile i32, i32* inttoptr (i32 1073881088 to i32*), align 8192, !dbg !3308, !tbaa !2978
  %2 = or i32 %1, 16, !dbg !3308
  store volatile i32 %2, i32* inttoptr (i32 1073881088 to i32*), align 8192, !dbg !3308, !tbaa !2978
  call void @HAL_NVIC_SetPriorityGrouping(i32 noundef 3) #27, !dbg !3309
  %3 = call i32 @HAL_InitTick(i32 noundef 0), !dbg !3310
  call void @HAL_MspInit(), !dbg !3311
  ret i32 0, !dbg !3312
}

; Function Attrs: noinline nounwind
define weak dso_local i32 @HAL_InitTick(i32 noundef %0) local_unnamed_addr #8 !dbg !3313 {
  call void @llvm.dbg.value(metadata i32 %0, metadata !3317, metadata !DIExpression()), !dbg !3318
  %2 = load i32, i32* @SystemCoreClock, align 4, !dbg !3319, !tbaa !2488
  %3 = load i32, i32* @uwTickFreq, align 4, !dbg !3321, !tbaa !1609
  %4 = udiv i32 1000, %3, !dbg !3322
  %5 = udiv i32 %2, %4, !dbg !3323
  %6 = call i32 @HAL_SYSTICK_Config(i32 noundef %5) #27, !dbg !3324
  %7 = icmp eq i32 %6, 0, !dbg !3325
  %8 = icmp ult i32 %0, 16
  %9 = and i1 %8, %7, !dbg !3326
  br i1 %9, label %10, label %11, !dbg !3326

10:                                               ; preds = %1
  call void @HAL_NVIC_SetPriority(i32 noundef -1, i32 noundef %0, i32 noundef 0) #27, !dbg !3327
  store i32 %0, i32* @uwTickPrio, align 4, !dbg !3330, !tbaa !2488
  br label %11, !dbg !3331

11:                                               ; preds = %1, %10
  %12 = phi i32 [ 0, %10 ], [ 1, %1 ], !dbg !3318
  ret i32 %12, !dbg !3332
}

; Function Attrs: noinline nounwind
define weak dso_local void @HAL_MspInit() local_unnamed_addr #8 !dbg !3333 {
  ret void, !dbg !3334
}

; Function Attrs: noinline nounwind
define dso_local i32 @HAL_DeInit() local_unnamed_addr #8 !dbg !3335 {
  store volatile i32 -1, i32* inttoptr (i32 1073877004 to i32*), align 4, !dbg !3336, !tbaa !3337
  store volatile i32 0, i32* inttoptr (i32 1073877008 to i32*), align 16, !dbg !3338, !tbaa !3339
  store volatile i32 -1, i32* inttoptr (i32 1073877004 to i32*), align 4, !dbg !3340, !tbaa !3337
  store volatile i32 0, i32* inttoptr (i32 1073877004 to i32*), align 4, !dbg !3341, !tbaa !3337
  call void @HAL_MspDeInit(), !dbg !3342
  ret i32 0, !dbg !3343
}

; Function Attrs: noinline nounwind
define weak dso_local void @HAL_MspDeInit() local_unnamed_addr #8 !dbg !3344 {
  ret void, !dbg !3345
}

; Function Attrs: noinline nounwind
define weak dso_local void @HAL_IncTick() local_unnamed_addr #8 !dbg !3346 {
  %1 = load i32, i32* @uwTickFreq, align 4, !dbg !3347, !tbaa !1609
  %2 = load volatile i32, i32* @uwTick, align 4, !dbg !3348, !tbaa !2488
  %3 = add i32 %2, %1, !dbg !3348
  store volatile i32 %3, i32* @uwTick, align 4, !dbg !3348, !tbaa !2488
  ret void, !dbg !3349
}

; Function Attrs: noinline nounwind
define weak dso_local i32 @HAL_GetTick() local_unnamed_addr #8 !dbg !3350 {
  %1 = load volatile i32, i32* @uwTick, align 4, !dbg !3351, !tbaa !2488
  ret i32 %1, !dbg !3352
}

; Function Attrs: mustprogress nofree noinline norecurse nosync nounwind readonly willreturn
define dso_local i32 @HAL_GetTickPrio() local_unnamed_addr #15 !dbg !3353 {
  %1 = load i32, i32* @uwTickPrio, align 4, !dbg !3354, !tbaa !2488
  ret i32 %1, !dbg !3355
}

; Function Attrs: noinline nounwind
define dso_local i32 @HAL_SetTickFreq(i32 noundef %0) local_unnamed_addr #8 !dbg !3356 {
  call void @llvm.dbg.value(metadata i32 %0, metadata !3360, metadata !DIExpression()), !dbg !3362
  call void @llvm.dbg.value(metadata i32 0, metadata !3361, metadata !DIExpression()), !dbg !3362
  %2 = load i32, i32* @uwTickFreq, align 4, !dbg !3363, !tbaa !1609
  %3 = icmp eq i32 %2, %0, !dbg !3365
  br i1 %3, label %9, label %4, !dbg !3366

4:                                                ; preds = %1
  %5 = load i32, i32* @uwTickPrio, align 4, !dbg !3367, !tbaa !2488
  %6 = call i32 @HAL_InitTick(i32 noundef %5), !dbg !3369
  call void @llvm.dbg.value(metadata i32 %6, metadata !3361, metadata !DIExpression()), !dbg !3362
  %7 = icmp eq i32 %6, 0, !dbg !3370
  br i1 %7, label %8, label %9, !dbg !3372

8:                                                ; preds = %4
  store i32 %0, i32* @uwTickFreq, align 4, !dbg !3373, !tbaa !1609
  br label %9, !dbg !3375

9:                                                ; preds = %4, %8, %1
  %10 = phi i32 [ 0, %8 ], [ %6, %4 ], [ 0, %1 ], !dbg !3362
  call void @llvm.dbg.value(metadata i32 %10, metadata !3361, metadata !DIExpression()), !dbg !3362
  ret i32 %10, !dbg !3376
}

; Function Attrs: mustprogress nofree noinline norecurse nosync nounwind readonly willreturn
define dso_local i32 @HAL_GetTickFreq() local_unnamed_addr #15 !dbg !3377 {
  %1 = load i32, i32* @uwTickFreq, align 4, !dbg !3380, !tbaa !1609
  ret i32 %1, !dbg !3381
}

; Function Attrs: noinline nounwind
define weak dso_local void @HAL_Delay(i32 noundef %0) local_unnamed_addr #8 !dbg !3382 {
  call void @llvm.dbg.value(metadata i32 %0, metadata !3384, metadata !DIExpression()), !dbg !3387
  %2 = call i32 @HAL_GetTick(), !dbg !3388
  call void @llvm.dbg.value(metadata i32 %2, metadata !3385, metadata !DIExpression()), !dbg !3387
  call void @llvm.dbg.value(metadata i32 %0, metadata !3386, metadata !DIExpression()), !dbg !3387
  %3 = icmp eq i32 %0, -1, !dbg !3389
  %4 = load i32, i32* @uwTickFreq, align 4, !dbg !3391
  %5 = add i32 %4, %0, !dbg !3391
  %6 = select i1 %3, i32 -1, i32 %5, !dbg !3391
  call void @llvm.dbg.value(metadata i32 %6, metadata !3386, metadata !DIExpression()), !dbg !3387
  br label %7, !dbg !3392

7:                                                ; preds = %7, %1
  %8 = call i32 @HAL_GetTick(), !dbg !3393
  %9 = sub i32 %8, %2, !dbg !3394
  %10 = icmp ult i32 %9, %6, !dbg !3395
  br i1 %10, label %7, label %11, !dbg !3392, !llvm.loop !3396

11:                                               ; preds = %7
  ret void, !dbg !3398
}

; Function Attrs: noinline nounwind
define weak dso_local void @HAL_SuspendTick() local_unnamed_addr #8 !dbg !3399 {
  %1 = load volatile i32, i32* inttoptr (i32 -536813552 to i32*), align 16, !dbg !3400, !tbaa !3159
  %2 = and i32 %1, -3, !dbg !3400
  store volatile i32 %2, i32* inttoptr (i32 -536813552 to i32*), align 16, !dbg !3400, !tbaa !3159
  ret void, !dbg !3401
}

; Function Attrs: noinline nounwind
define weak dso_local void @HAL_ResumeTick() local_unnamed_addr #8 !dbg !3402 {
  %1 = load volatile i32, i32* inttoptr (i32 -536813552 to i32*), align 16, !dbg !3403, !tbaa !3159
  %2 = or i32 %1, 2, !dbg !3403
  store volatile i32 %2, i32* inttoptr (i32 -536813552 to i32*), align 16, !dbg !3403, !tbaa !3159
  ret void, !dbg !3404
}

; Function Attrs: mustprogress nofree noinline norecurse nosync nounwind readnone willreturn
define dso_local i32 @HAL_GetHalVersion() local_unnamed_addr #10 !dbg !3405 {
  ret i32 16843776, !dbg !3406
}

; Function Attrs: mustprogress nofree noinline norecurse nounwind willreturn
define dso_local i32 @HAL_GetREVID() local_unnamed_addr #14 !dbg !3407 {
  %1 = load volatile i32, i32* inttoptr (i32 -536600576 to i32*), align 8192, !dbg !3408, !tbaa !2790
  %2 = lshr i32 %1, 16, !dbg !3409
  ret i32 %2, !dbg !3410
}

; Function Attrs: mustprogress nofree noinline norecurse nounwind willreturn
define dso_local i32 @HAL_GetDEVID() local_unnamed_addr #14 !dbg !3411 {
  %1 = load volatile i32, i32* inttoptr (i32 -536600576 to i32*), align 8192, !dbg !3412, !tbaa !2790
  %2 = and i32 %1, 4095, !dbg !3413
  ret i32 %2, !dbg !3414
}

; Function Attrs: mustprogress nofree noinline norecurse nosync nounwind readonly willreturn
define dso_local i32 @HAL_GetUIDw0() local_unnamed_addr #15 !dbg !3415 {
  %1 = load i32, i32* inttoptr (i32 536868840 to i32*), align 8, !dbg !3416, !tbaa !2488
  ret i32 %1, !dbg !3417
}

; Function Attrs: mustprogress nofree noinline norecurse nosync nounwind readonly willreturn
define dso_local i32 @HAL_GetUIDw1() local_unnamed_addr #15 !dbg !3418 {
  %1 = load i32, i32* inttoptr (i32 536868844 to i32*), align 4, !dbg !3419, !tbaa !2488
  ret i32 %1, !dbg !3420
}

; Function Attrs: mustprogress nofree noinline norecurse nosync nounwind readonly willreturn
define dso_local i32 @HAL_GetUIDw2() local_unnamed_addr #15 !dbg !3421 {
  %1 = load i32, i32* inttoptr (i32 536868848 to i32*), align 16, !dbg !3422, !tbaa !2488
  ret i32 %1, !dbg !3423
}

; Function Attrs: nofree noinline norecurse nounwind
define dso_local void @HAL_DBGMCU_EnableDBGSleepMode() local_unnamed_addr #13 !dbg !3424 {
  %1 = load volatile i32, i32* inttoptr (i32 -536600572 to i32*), align 4, !dbg !3425, !tbaa !3426
  %2 = or i32 %1, 1, !dbg !3425
  store volatile i32 %2, i32* inttoptr (i32 -536600572 to i32*), align 4, !dbg !3425, !tbaa !3426
  ret void, !dbg !3427
}

; Function Attrs: nofree noinline norecurse nounwind
define dso_local void @HAL_DBGMCU_DisableDBGSleepMode() local_unnamed_addr #13 !dbg !3428 {
  %1 = load volatile i32, i32* inttoptr (i32 -536600572 to i32*), align 4, !dbg !3429, !tbaa !3426
  %2 = and i32 %1, -2, !dbg !3429
  store volatile i32 %2, i32* inttoptr (i32 -536600572 to i32*), align 4, !dbg !3429, !tbaa !3426
  ret void, !dbg !3430
}

; Function Attrs: nofree noinline norecurse nounwind
define dso_local void @HAL_DBGMCU_EnableDBGStopMode() local_unnamed_addr #13 !dbg !3431 {
  %1 = load volatile i32, i32* inttoptr (i32 -536600572 to i32*), align 4, !dbg !3432, !tbaa !3426
  %2 = or i32 %1, 2, !dbg !3432
  store volatile i32 %2, i32* inttoptr (i32 -536600572 to i32*), align 4, !dbg !3432, !tbaa !3426
  ret void, !dbg !3433
}

; Function Attrs: nofree noinline norecurse nounwind
define dso_local void @HAL_DBGMCU_DisableDBGStopMode() local_unnamed_addr #13 !dbg !3434 {
  %1 = load volatile i32, i32* inttoptr (i32 -536600572 to i32*), align 4, !dbg !3435, !tbaa !3426
  %2 = and i32 %1, -3, !dbg !3435
  store volatile i32 %2, i32* inttoptr (i32 -536600572 to i32*), align 4, !dbg !3435, !tbaa !3426
  ret void, !dbg !3436
}

; Function Attrs: nofree noinline norecurse nounwind
define dso_local void @HAL_DBGMCU_EnableDBGStandbyMode() local_unnamed_addr #13 !dbg !3437 {
  %1 = load volatile i32, i32* inttoptr (i32 -536600572 to i32*), align 4, !dbg !3438, !tbaa !3426
  %2 = or i32 %1, 4, !dbg !3438
  store volatile i32 %2, i32* inttoptr (i32 -536600572 to i32*), align 4, !dbg !3438, !tbaa !3426
  ret void, !dbg !3439
}

; Function Attrs: nofree noinline norecurse nounwind
define dso_local void @HAL_DBGMCU_DisableDBGStandbyMode() local_unnamed_addr #13 !dbg !3440 {
  %1 = load volatile i32, i32* inttoptr (i32 -536600572 to i32*), align 4, !dbg !3441, !tbaa !3426
  %2 = and i32 %1, -5, !dbg !3441
  store volatile i32 %2, i32* inttoptr (i32 -536600572 to i32*), align 4, !dbg !3441, !tbaa !3426
  ret void, !dbg !3442
}

; Function Attrs: mustprogress nofree noinline norecurse nosync nounwind willreturn writeonly
define dso_local nonnull i32* @pxPortInitialiseStack(i32* noundef writeonly %0, void (i8*)* noundef %1, i8* noundef %2) local_unnamed_addr #5 !dbg !3443 {
  call void @llvm.dbg.value(metadata i32* %0, metadata !3450, metadata !DIExpression()), !dbg !3453
  call void @llvm.dbg.value(metadata void (i8*)* %1, metadata !3451, metadata !DIExpression()), !dbg !3453
  call void @llvm.dbg.value(metadata i8* %2, metadata !3452, metadata !DIExpression()), !dbg !3453
  %4 = getelementptr inbounds i32, i32* %0, i32 -1, !dbg !3454
  call void @llvm.dbg.value(metadata i32* %4, metadata !3450, metadata !DIExpression()), !dbg !3453
  store i32 16777216, i32* %4, align 4, !dbg !3455, !tbaa !2488
  %5 = getelementptr inbounds i32, i32* %0, i32 -2, !dbg !3456
  call void @llvm.dbg.value(metadata i32* %5, metadata !3450, metadata !DIExpression()), !dbg !3453
  %6 = ptrtoint void (i8*)* %1 to i32, !dbg !3457
  %7 = and i32 %6, -2, !dbg !3458
  store i32 %7, i32* %5, align 4, !dbg !3459, !tbaa !2488
  %8 = getelementptr inbounds i32, i32* %0, i32 -3, !dbg !3460
  call void @llvm.dbg.value(metadata i32* %8, metadata !3450, metadata !DIExpression()), !dbg !3453
  store i32 ptrtoint (void ()* @prvTaskExitError to i32), i32* %8, align 4, !dbg !3461, !tbaa !2488
  %9 = getelementptr inbounds i32, i32* %0, i32 -8, !dbg !3462
  call void @llvm.dbg.value(metadata i32* %9, metadata !3450, metadata !DIExpression()), !dbg !3453
  %10 = ptrtoint i8* %2 to i32, !dbg !3463
  store i32 %10, i32* %9, align 4, !dbg !3464, !tbaa !2488
  %11 = getelementptr inbounds i32, i32* %0, i32 -16, !dbg !3465
  call void @llvm.dbg.value(metadata i32* %11, metadata !3450, metadata !DIExpression()), !dbg !3453
  ret i32* %11, !dbg !3466
}

; Function Attrs: noinline nounwind
define internal void @prvTaskExitError() #8 !dbg !3467 {
  %1 = alloca i32, align 4
  %2 = bitcast i32* %1 to i8*, !dbg !3470
  call void @llvm.lifetime.start.p0i8(i64 4, i8* nonnull %2), !dbg !3470
  call void @llvm.dbg.declare(metadata i32* %1, metadata !3469, metadata !DIExpression()), !dbg !3471
  store volatile i32 0, i32* %1, align 4, !dbg !3471, !tbaa !2488
  %3 = load i32, i32* @uxCriticalNesting, align 4, !dbg !3472, !tbaa !3474
  %4 = icmp eq i32 %3, -1, !dbg !3472
  %5 = call i32 asm sideeffect "\09mov $0, $1\09\09\09\09\09\09\09\09\09\09\09\09\0A\09msr basepri, $0\09\09\09\09\09\09\09\09\09\09\09\0A\09isb\09\09\09\09\09\09\09\09\09\09\09\09\09\09\0A\09dsb\09\09\09\09\09\09\09\09\09\09\09\09\09\09\0A", "=r,i,~{memory}"(i32 80) #27, !dbg !3476
  br i1 %4, label %7, label %6, !dbg !3477

6:                                                ; preds = %0, %6
  br label %6, !dbg !3478, !llvm.loop !3482

7:                                                ; preds = %0, %7
  %8 = load volatile i32, i32* %1, align 4, !dbg !3484, !tbaa !2488
  %9 = icmp eq i32 %8, 0, !dbg !3485
  br i1 %9, label %7, label %10, !dbg !3486, !llvm.loop !3487

10:                                               ; preds = %7
  %11 = bitcast i32* %1 to i8*, !dbg !3489
  call void @llvm.lifetime.end.p0i8(i64 4, i8* nonnull %11), !dbg !3489
  ret void, !dbg !3489
}

; Function Attrs: naked noinline nounwind
define dso_local void @SVC_Handler() #16 !dbg !3490 {
  call void asm sideeffect "\09ldr\09r3, pxCurrentTCBConst2\09\09\0A\09ldr r1, [r3]\09\09\09\09\09\0A\09ldr r0, [r1]\09\09\09\09\09\0A\09ldmia r0!, {r4-r11}\09\09\09\09\0A\09msr psp, r0\09\09\09\09\09\09\0A\09isb\09\09\09\09\09\09\09\09\0A\09mov r0, #0 \09\09\09\09\09\09\0A\09msr\09basepri, r0\09\09\09\09\09\0A\09orr r14, #0xd\09\09\09\09\09\0A\09bx r14\09\09\09\09\09\09\09\0A\09\09\09\09\09\09\09\09\09\0A\09.align 4\09\09\09\09\09\09\0ApxCurrentTCBConst2: .word pxCurrentTCB\09\09\09\09\0A", ""() #27, !dbg !3491, !srcloc !3492
  unreachable, !dbg !3493
}

; Function Attrs: noinline nounwind
define dso_local i32 @xPortStartScheduler() local_unnamed_addr #8 !dbg !3494 {
  %1 = alloca i32, align 4
  %2 = alloca i8, align 1
  %3 = bitcast i32* %1 to i8*, !dbg !3503
  call void @llvm.lifetime.start.p0i8(i64 4, i8* nonnull %3), !dbg !3503
  call void @llvm.dbg.declare(metadata i32* %1, metadata !3498, metadata !DIExpression()), !dbg !3504
  call void @llvm.dbg.value(metadata i8* inttoptr (i32 -536812544 to i8*), metadata !3500, metadata !DIExpression()), !dbg !3505
  call void @llvm.lifetime.start.p0i8(i64 1, i8* nonnull %2), !dbg !3506
  call void @llvm.dbg.declare(metadata i8* %2, metadata !3502, metadata !DIExpression()), !dbg !3507
  %4 = load volatile i8, i8* inttoptr (i32 -536812544 to i8*), align 1024, !dbg !3508, !tbaa !1609
  %5 = zext i8 %4 to i32, !dbg !3508
  store volatile i32 %5, i32* %1, align 4, !dbg !3509, !tbaa !2488
  store volatile i8 -1, i8* inttoptr (i32 -536812544 to i8*), align 1024, !dbg !3510, !tbaa !1609
  %6 = load volatile i8, i8* inttoptr (i32 -536812544 to i8*), align 1024, !dbg !3511, !tbaa !1609
  store volatile i8 %6, i8* %2, align 1, !dbg !3512, !tbaa !1609
  %7 = load volatile i8, i8* %2, align 1, !dbg !3513, !tbaa !1609
  %8 = and i8 %7, 80, !dbg !3514
  store i8 %8, i8* @ucMaxSysCallPriority, align 1, !dbg !3515, !tbaa !1609
  store i32 7, i32* @ulMaxPRIGROUPValue, align 4, !dbg !3516, !tbaa !2488
  %9 = load volatile i8, i8* %2, align 1, !dbg !3517, !tbaa !1609
  %10 = icmp slt i8 %9, 0, !dbg !3518
  br i1 %10, label %11, label %18, !dbg !3519

11:                                               ; preds = %0, %11
  %12 = load i32, i32* @ulMaxPRIGROUPValue, align 4, !dbg !3520, !tbaa !2488
  %13 = add i32 %12, -1, !dbg !3520
  store i32 %13, i32* @ulMaxPRIGROUPValue, align 4, !dbg !3520, !tbaa !2488
  %14 = load volatile i8, i8* %2, align 1, !dbg !3522, !tbaa !1609
  %15 = shl i8 %14, 1, !dbg !3522
  store volatile i8 %15, i8* %2, align 1, !dbg !3522, !tbaa !1609
  %16 = load volatile i8, i8* %2, align 1, !dbg !3517, !tbaa !1609
  %17 = icmp slt i8 %16, 0, !dbg !3518
  br i1 %17, label %11, label %18, !dbg !3519, !llvm.loop !3523

18:                                               ; preds = %11, %0
  %19 = load i32, i32* @ulMaxPRIGROUPValue, align 4, !dbg !3525, !tbaa !2488
  %20 = icmp eq i32 %19, 3, !dbg !3525
  br i1 %20, label %24, label %21, !dbg !3528

21:                                               ; preds = %18
  %22 = call i32 asm sideeffect "\09mov $0, $1\09\09\09\09\09\09\09\09\09\09\09\09\0A\09msr basepri, $0\09\09\09\09\09\09\09\09\09\09\09\0A\09isb\09\09\09\09\09\09\09\09\09\09\09\09\09\09\0A\09dsb\09\09\09\09\09\09\09\09\09\09\09\09\09\09\0A", "=r,i,~{memory}"(i32 80) #27, !dbg !3529, !srcloc !3535
  call void @llvm.dbg.value(metadata i32 %22, metadata !3532, metadata !DIExpression()) #27, !dbg !3536
  br label %23, !dbg !3537

23:                                               ; preds = %23, %21
  br label %23, !dbg !3538, !llvm.loop !3541

24:                                               ; preds = %18
  %25 = shl i32 %19, 8, !dbg !3543
  %26 = and i32 %25, 1792, !dbg !3544
  store i32 %26, i32* @ulMaxPRIGROUPValue, align 4, !dbg !3544, !tbaa !2488
  %27 = load volatile i32, i32* %1, align 4, !dbg !3545, !tbaa !2488
  %28 = trunc i32 %27 to i8, !dbg !3545
  store volatile i8 %28, i8* inttoptr (i32 -536812544 to i8*), align 1024, !dbg !3546, !tbaa !1609
  call void @llvm.lifetime.end.p0i8(i64 1, i8* nonnull %2), !dbg !3547
  %29 = bitcast i32* %1 to i8*, !dbg !3547
  call void @llvm.lifetime.end.p0i8(i64 4, i8* nonnull %29), !dbg !3547
  %30 = load volatile i32, i32* inttoptr (i32 -536810208 to i32*), align 32, !dbg !3548, !tbaa !2488
  %31 = or i32 %30, 15728640, !dbg !3548
  store volatile i32 %31, i32* inttoptr (i32 -536810208 to i32*), align 32, !dbg !3548, !tbaa !2488
  %32 = load volatile i32, i32* inttoptr (i32 -536810208 to i32*), align 32, !dbg !3549, !tbaa !2488
  %33 = or i32 %32, -268435456, !dbg !3549
  store volatile i32 %33, i32* inttoptr (i32 -536810208 to i32*), align 32, !dbg !3549, !tbaa !2488
  call void @vPortSetupTimerInterrupt(), !dbg !3550
  store i32 0, i32* @uxCriticalNesting, align 4, !dbg !3551, !tbaa !3474
  call void @prvPortStartFirstTask(), !dbg !3552
  call void @vTaskSwitchContext() #27, !dbg !3553
  call void @prvTaskExitError(), !dbg !3554
  ret i32 0, !dbg !3555
}

; Function Attrs: noinline nounwind
define weak dso_local void @vPortSetupTimerInterrupt() local_unnamed_addr #8 !dbg !3556 {
  store volatile i32 0, i32* inttoptr (i32 -536813552 to i32*), align 16, !dbg !3557, !tbaa !2488
  store volatile i32 0, i32* inttoptr (i32 -536813544 to i32*), align 8, !dbg !3558, !tbaa !2488
  %1 = load i32, i32* @SystemCoreClock, align 4, !dbg !3559, !tbaa !2488
  %2 = udiv i32 %1, 1000, !dbg !3560
  %3 = add nsw i32 %2, -1, !dbg !3561
  store volatile i32 %3, i32* inttoptr (i32 -536813548 to i32*), align 4, !dbg !3562, !tbaa !2488
  store volatile i32 7, i32* inttoptr (i32 -536813552 to i32*), align 16, !dbg !3563, !tbaa !2488
  ret void, !dbg !3564
}

; Function Attrs: naked noinline nounwind
define internal void @prvPortStartFirstTask() #16 !dbg !3565 {
  call void asm sideeffect " ldr r0, =0xE000ED08 \09\0A ldr r0, [r0] \09\09\09\0A ldr r0, [r0] \09\09\09\0A msr msp, r0\09\09\09\0A cpsie i\09\09\09\09\0A cpsie f\09\09\09\09\0A dsb\09\09\09\09\09\0A isb\09\09\09\09\09\0A svc 0\09\09\09\09\09\0A nop\09\09\09\09\09\0A", ""() #27, !dbg !3566, !srcloc !3567
  unreachable, !dbg !3568
}

; Function Attrs: noinline nounwind
define dso_local void @vPortEndScheduler() local_unnamed_addr #8 !dbg !3569 {
  %1 = load i32, i32* @uxCriticalNesting, align 4, !dbg !3570, !tbaa !3474
  %2 = icmp eq i32 %1, 1000, !dbg !3570
  br i1 %2, label %6, label %3, !dbg !3572

3:                                                ; preds = %0
  %4 = call i32 asm sideeffect "\09mov $0, $1\09\09\09\09\09\09\09\09\09\09\09\09\0A\09msr basepri, $0\09\09\09\09\09\09\09\09\09\09\09\0A\09isb\09\09\09\09\09\09\09\09\09\09\09\09\09\09\0A\09dsb\09\09\09\09\09\09\09\09\09\09\09\09\09\09\0A", "=r,i,~{memory}"(i32 80) #27, !dbg !3573, !srcloc !3535
  call void @llvm.dbg.value(metadata i32 %4, metadata !3532, metadata !DIExpression()) #27, !dbg !3576
  br label %5, !dbg !3577

5:                                                ; preds = %5, %3
  br label %5, !dbg !3578, !llvm.loop !3581

6:                                                ; preds = %0
  ret void, !dbg !3583
}

; Function Attrs: noinline nounwind
define dso_local void @vPortEnterCritical() local_unnamed_addr #8 !dbg !3584 {
  %1 = call i32 asm sideeffect "\09mov $0, $1\09\09\09\09\09\09\09\09\09\09\09\09\0A\09msr basepri, $0\09\09\09\09\09\09\09\09\09\09\09\0A\09isb\09\09\09\09\09\09\09\09\09\09\09\09\09\09\0A\09dsb\09\09\09\09\09\09\09\09\09\09\09\09\09\09\0A", "=r,i,~{memory}"(i32 80) #27, !dbg !3585, !srcloc !3535
  call void @llvm.dbg.value(metadata i32 %1, metadata !3532, metadata !DIExpression()) #27, !dbg !3587
  %2 = load i32, i32* @uxCriticalNesting, align 4, !dbg !3588, !tbaa !3474
  %3 = add i32 %2, 1, !dbg !3588
  store i32 %3, i32* @uxCriticalNesting, align 4, !dbg !3588, !tbaa !3474
  %4 = icmp eq i32 %2, 0, !dbg !3589
  br i1 %4, label %5, label %12, !dbg !3591

5:                                                ; preds = %0
  %6 = load volatile i32, i32* inttoptr (i32 -536810236 to i32*), align 4, !dbg !3592, !tbaa !2488
  %7 = and i32 %6, 255, !dbg !3592
  %8 = icmp eq i32 %7, 0, !dbg !3592
  br i1 %8, label %12, label %9, !dbg !3595

9:                                                ; preds = %5
  %10 = call i32 asm sideeffect "\09mov $0, $1\09\09\09\09\09\09\09\09\09\09\09\09\0A\09msr basepri, $0\09\09\09\09\09\09\09\09\09\09\09\0A\09isb\09\09\09\09\09\09\09\09\09\09\09\09\09\09\0A\09dsb\09\09\09\09\09\09\09\09\09\09\09\09\09\09\0A", "=r,i,~{memory}"(i32 80) #27, !dbg !3596, !srcloc !3535
  call void @llvm.dbg.value(metadata i32 %10, metadata !3532, metadata !DIExpression()) #27, !dbg !3599
  br label %11, !dbg !3600

11:                                               ; preds = %11, %9
  br label %11, !dbg !3601, !llvm.loop !3604

12:                                               ; preds = %5, %0
  ret void, !dbg !3606
}

; Function Attrs: noinline nounwind
define dso_local void @vPortExitCritical() local_unnamed_addr #8 !dbg !3607 {
  %1 = load i32, i32* @uxCriticalNesting, align 4, !dbg !3608, !tbaa !3474
  %2 = icmp eq i32 %1, 0, !dbg !3608
  br i1 %2, label %3, label %6, !dbg !3610

3:                                                ; preds = %0
  %4 = call i32 asm sideeffect "\09mov $0, $1\09\09\09\09\09\09\09\09\09\09\09\09\0A\09msr basepri, $0\09\09\09\09\09\09\09\09\09\09\09\0A\09isb\09\09\09\09\09\09\09\09\09\09\09\09\09\09\0A\09dsb\09\09\09\09\09\09\09\09\09\09\09\09\09\09\0A", "=r,i,~{memory}"(i32 80) #27, !dbg !3611, !srcloc !3535
  call void @llvm.dbg.value(metadata i32 %4, metadata !3532, metadata !DIExpression()) #27, !dbg !3614
  br label %5, !dbg !3615

5:                                                ; preds = %5, %3
  br label %5, !dbg !3616, !llvm.loop !3619

6:                                                ; preds = %0
  %7 = add i32 %1, -1, !dbg !3621
  store i32 %7, i32* @uxCriticalNesting, align 4, !dbg !3621, !tbaa !3474
  %8 = icmp eq i32 %7, 0, !dbg !3622
  br i1 %8, label %9, label %10, !dbg !3624

9:                                                ; preds = %6
  call void @llvm.dbg.value(metadata i32 0, metadata !3625, metadata !DIExpression()) #27, !dbg !3628
  call void asm sideeffect "\09msr basepri, $0\09", "r,~{memory}"(i32 0) #27, !dbg !3631, !srcloc !3632
  br label %10, !dbg !3633

10:                                               ; preds = %9, %6
  ret void, !dbg !3634
}

; Function Attrs: naked noinline nounwind
define dso_local void @PendSV_Handler() #16 !dbg !3635 {
  call void asm sideeffect "\09mrs r0, psp\09\09\09\09\09\09\09\0A\09isb\09\09\09\09\09\09\09\09\09\0A\09\09\09\09\09\09\09\09\09\09\0A\09ldr\09r3, pxCurrentTCBConst\09\09\09\0A\09ldr\09r2, [r3]\09\09\09\09\09\09\0A\09\09\09\09\09\09\09\09\09\09\0A\09stmdb r0!, {r4-r11}\09\09\09\09\09\0A\09str r0, [r2]\09\09\09\09\09\09\0A\09\09\09\09\09\09\09\09\09\09\0A\09stmdb sp!, {r3, r14}\09\09\09\09\0A\09mov r0, $0\09\09\09\09\09\09\09\0A\09msr basepri, r0\09\09\09\09\09\09\0A\09bl vTaskSwitchContext\09\09\09\09\0A\09mov r0, #0\09\09\09\09\09\09\09\0A\09msr basepri, r0\09\09\09\09\09\09\0A\09ldmia sp!, {r3, r14}\09\09\09\09\0A\09\09\09\09\09\09\09\09\09\09\0A\09ldr r1, [r3]\09\09\09\09\09\09\0A\09ldr r0, [r1]\09\09\09\09\09\09\0A\09ldmia r0!, {r4-r11}\09\09\09\09\09\0A\09msr psp, r0\09\09\09\09\09\09\09\0A\09isb\09\09\09\09\09\09\09\09\09\0A\09bx r14\09\09\09\09\09\09\09\09\0A\09\09\09\09\09\09\09\09\09\09\0A\09.align 4\09\09\09\09\09\09\09\0ApxCurrentTCBConst: .word pxCurrentTCB\09\0A", "i"(i32 80) #27, !dbg !3636, !srcloc !3637
  unreachable, !dbg !3638
}

; Function Attrs: noinline nounwind
define dso_local void @xPortSysTickHandler() local_unnamed_addr #8 !dbg !3639 {
  %1 = call i32 asm sideeffect "\09mov $0, $1\09\09\09\09\09\09\09\09\09\09\09\09\0A\09msr basepri, $0\09\09\09\09\09\09\09\09\09\09\09\0A\09isb\09\09\09\09\09\09\09\09\09\09\09\09\09\09\0A\09dsb\09\09\09\09\09\09\09\09\09\09\09\09\09\09\0A", "=r,i,~{memory}"(i32 80) #27, !dbg !3640, !srcloc !3535
  call void @llvm.dbg.value(metadata i32 %1, metadata !3532, metadata !DIExpression()) #27, !dbg !3642
  %2 = call i32 @xTaskIncrementTick() #27, !dbg !3643
  %3 = icmp eq i32 %2, 0, !dbg !3646
  br i1 %3, label %5, label %4, !dbg !3647

4:                                                ; preds = %0
  store volatile i32 268435456, i32* inttoptr (i32 -536810236 to i32*), align 4, !dbg !3648, !tbaa !2488
  br label %5, !dbg !3650

5:                                                ; preds = %4, %0
  call void @llvm.dbg.value(metadata i32 0, metadata !3625, metadata !DIExpression()) #27, !dbg !3651
  call void asm sideeffect "\09msr basepri, $0\09", "r,~{memory}"(i32 0) #27, !dbg !3653, !srcloc !3632
  ret void, !dbg !3654
}

; Function Attrs: noinline nounwind
define dso_local void @vPortValidateInterruptPriority() local_unnamed_addr #8 !dbg !3655 {
  %1 = call i32 asm sideeffect "mrs $0, ipsr", "=r,~{memory}"() #27, !dbg !3659, !srcloc !3660
  call void @llvm.dbg.value(metadata i32 %1, metadata !3657, metadata !DIExpression()), !dbg !3661
  %2 = icmp ugt i32 %1, 15, !dbg !3662
  br i1 %2, label %3, label %11, !dbg !3664

3:                                                ; preds = %0
  %4 = getelementptr inbounds i8, i8* inttoptr (i32 -536812560 to i8*), i32 %1, !dbg !3665
  %5 = load volatile i8, i8* %4, align 1, !dbg !3665, !tbaa !1609
  call void @llvm.dbg.value(metadata i8 %5, metadata !3658, metadata !DIExpression()), !dbg !3661
  %6 = load i8, i8* @ucMaxSysCallPriority, align 1, !dbg !3667, !tbaa !1609
  %7 = icmp ult i8 %5, %6, !dbg !3667
  br i1 %7, label %8, label %11, !dbg !3669

8:                                                ; preds = %3
  %9 = call i32 asm sideeffect "\09mov $0, $1\09\09\09\09\09\09\09\09\09\09\09\09\0A\09msr basepri, $0\09\09\09\09\09\09\09\09\09\09\09\0A\09isb\09\09\09\09\09\09\09\09\09\09\09\09\09\09\0A\09dsb\09\09\09\09\09\09\09\09\09\09\09\09\09\09\0A", "=r,i,~{memory}"(i32 80) #27, !dbg !3670, !srcloc !3535
  call void @llvm.dbg.value(metadata i32 %9, metadata !3532, metadata !DIExpression()) #27, !dbg !3673
  br label %10, !dbg !3674

10:                                               ; preds = %10, %8
  br label %10, !dbg !3675, !llvm.loop !3678

11:                                               ; preds = %3, %0
  %12 = load volatile i32, i32* inttoptr (i32 -536810228 to i32*), align 4, !dbg !3680, !tbaa !2488
  %13 = and i32 %12, 1792, !dbg !3680
  %14 = load i32, i32* @ulMaxPRIGROUPValue, align 4, !dbg !3680, !tbaa !2488
  %15 = icmp ugt i32 %13, %14, !dbg !3680
  br i1 %15, label %16, label %19, !dbg !3682

16:                                               ; preds = %11
  %17 = call i32 asm sideeffect "\09mov $0, $1\09\09\09\09\09\09\09\09\09\09\09\09\0A\09msr basepri, $0\09\09\09\09\09\09\09\09\09\09\09\0A\09isb\09\09\09\09\09\09\09\09\09\09\09\09\09\09\0A\09dsb\09\09\09\09\09\09\09\09\09\09\09\09\09\09\0A", "=r,i,~{memory}"(i32 80) #27, !dbg !3683, !srcloc !3535
  call void @llvm.dbg.value(metadata i32 %17, metadata !3532, metadata !DIExpression()) #27, !dbg !3686
  br label %18, !dbg !3687

18:                                               ; preds = %18, %16
  br label %18, !dbg !3688, !llvm.loop !3691

19:                                               ; preds = %11
  ret void, !dbg !3693
}

; Function Attrs: noinline nounwind
define dso_local i8* @xTaskCreateStatic(void (i8*)* noundef %0, i8* nocapture noundef readonly %1, i32 noundef %2, i8* noundef %3, i32 noundef %4, i32* noundef %5, %struct.xSTATIC_TCB* noundef %6) local_unnamed_addr #8 !dbg !3694 {
  %8 = alloca i8*, align 4
  %9 = alloca i32, align 4
  call void @llvm.dbg.value(metadata void (i8*)* %0, metadata !3720, metadata !DIExpression()), !dbg !3736
  call void @llvm.dbg.value(metadata i8* %1, metadata !3721, metadata !DIExpression()), !dbg !3736
  call void @llvm.dbg.value(metadata i32 %2, metadata !3722, metadata !DIExpression()), !dbg !3736
  call void @llvm.dbg.value(metadata i8* %3, metadata !3723, metadata !DIExpression()), !dbg !3736
  call void @llvm.dbg.value(metadata i32 %4, metadata !3724, metadata !DIExpression()), !dbg !3736
  call void @llvm.dbg.value(metadata i32* %5, metadata !3725, metadata !DIExpression()), !dbg !3736
  call void @llvm.dbg.value(metadata %struct.xSTATIC_TCB* %6, metadata !3726, metadata !DIExpression()), !dbg !3736
  %10 = bitcast i8** %8 to i8*, !dbg !3737
  call void @llvm.lifetime.start.p0i8(i64 4, i8* nonnull %10) #27, !dbg !3737
  %11 = icmp eq i32* %5, null, !dbg !3738
  br i1 %11, label %12, label %15, !dbg !3740

12:                                               ; preds = %7
  %13 = call i32 asm sideeffect "\09mov $0, $1\09\09\09\09\09\09\09\09\09\09\09\09\0A\09msr basepri, $0\09\09\09\09\09\09\09\09\09\09\09\0A\09isb\09\09\09\09\09\09\09\09\09\09\09\09\09\09\0A\09dsb\09\09\09\09\09\09\09\09\09\09\09\09\09\09\0A", "=r,i,~{memory}"(i32 80) #27, !dbg !3741, !srcloc !3747
  call void @llvm.dbg.value(metadata i32 %13, metadata !3744, metadata !DIExpression()) #27, !dbg !3748
  br label %14, !dbg !3749

14:                                               ; preds = %14, %12
  br label %14, !dbg !3750, !llvm.loop !3753

15:                                               ; preds = %7
  %16 = icmp eq %struct.xSTATIC_TCB* %6, null, !dbg !3755
  br i1 %16, label %17, label %20, !dbg !3757

17:                                               ; preds = %15
  %18 = call i32 asm sideeffect "\09mov $0, $1\09\09\09\09\09\09\09\09\09\09\09\09\0A\09msr basepri, $0\09\09\09\09\09\09\09\09\09\09\09\0A\09isb\09\09\09\09\09\09\09\09\09\09\09\09\09\09\0A\09dsb\09\09\09\09\09\09\09\09\09\09\09\09\09\09\0A", "=r,i,~{memory}"(i32 80) #27, !dbg !3758, !srcloc !3747
  call void @llvm.dbg.value(metadata i32 %18, metadata !3744, metadata !DIExpression()) #27, !dbg !3761
  br label %19, !dbg !3762

19:                                               ; preds = %19, %17
  br label %19, !dbg !3763, !llvm.loop !3766

20:                                               ; preds = %15
  %21 = bitcast i32* %9 to i8*, !dbg !3768
  call void @llvm.lifetime.start.p0i8(i64 4, i8* nonnull %21), !dbg !3768
  call void @llvm.dbg.declare(metadata i32* %9, metadata !3729, metadata !DIExpression()), !dbg !3769
  store volatile i32 76, i32* %9, align 4, !dbg !3769, !tbaa !2488
  %22 = load volatile i32, i32* %9, align 4, !dbg !3770, !tbaa !2488
  %23 = icmp eq i32 %22, 76, !dbg !3770
  br i1 %23, label %27, label %24, !dbg !3772

24:                                               ; preds = %20
  %25 = call i32 asm sideeffect "\09mov $0, $1\09\09\09\09\09\09\09\09\09\09\09\09\0A\09msr basepri, $0\09\09\09\09\09\09\09\09\09\09\09\0A\09isb\09\09\09\09\09\09\09\09\09\09\09\09\09\09\0A\09dsb\09\09\09\09\09\09\09\09\09\09\09\09\09\09\0A", "=r,i,~{memory}"(i32 80) #27, !dbg !3773, !srcloc !3747
