; ModuleID = './examples/ntp.elf.bc'
source_filename = "llvm-link"
target datalayout = "e-m:e-p:32:32-Fi8-i64:64-v128:64:128-a:0:32-n32-S64"
target triple = "thumbv7m-none-unknown-eabi"

%"class.Cicada::Stm32Uart" = type { %"class.Cicada::BufferedSerial", i8, %struct.__UART_HandleTypeDef, %struct.USART_TypeDef*, i16, i16, i32 }
%"class.Cicada::BufferedSerial" = type { %"class.Cicada::IBufferedSerial", %"class.Cicada::LineCircularBuffer", %"class.Cicada::LineCircularBuffer" }
%"class.Cicada::IBufferedSerial" = type { %"class.Cicada::ICommDevice", %"class.Cicada::ICommDevice" }
%"class.Cicada::ICommDevice" = type { i32 (...)** }
%"class.Cicada::LineCircularBuffer" = type { %"class.Cicada::CircularBuffer.base", i16, [2 x i8] }
%"class.Cicada::CircularBuffer.base" = type <{ i32 (...)**, [4 x i8], i64, i64, i64, i64, i8* }>
%struct.__UART_HandleTypeDef = type { %struct.USART_TypeDef*, %struct.USART_TypeDef, i8*, i16, i16, i8*, i16, i16, %struct.__DMA_HandleTypeDef*, %struct.__DMA_HandleTypeDef*, i32, i32, i32, i32 }
%struct.USART_TypeDef = type { i32, i32, i32, i32, i32, i32, i32 }
%struct.__DMA_HandleTypeDef = type { %struct.DMA_Channel_TypeDef*, %struct.USART_TypeDef, i32, i32, i8*, void (%struct.__DMA_HandleTypeDef*)*, void (%struct.__DMA_HandleTypeDef*)*, void (%struct.__DMA_HandleTypeDef*)*, void (%struct.__DMA_HandleTypeDef*)*, i32, %struct.DMA_TypeDef*, i32 }
%struct.DMA_Channel_TypeDef = type { i32, i32, i32, i32 }
%struct.DMA_TypeDef = type { i32, i32 }
%"class.Cicada::Sim7x00CommDevice" = type <{ %"class.Cicada::SimCommDevice", i8*, [4 x i8] }>
%"class.Cicada::SimCommDevice" = type { %"class.Cicada::ATCommDevice", i8*, [16 x i8], [24 x i8], i8, i16 }
%"class.Cicada::ATCommDevice" = type { %"class.Cicada::IPCommDevice.base", %"class.Cicada::IBufferedSerial"*, [61 x i8], i8, i8, i8, i64, i64, i64 }
%"class.Cicada::IPCommDevice.base" = type { %"class.Cicada::IIPCommDevice", %"class.Cicada::Task", %"class.Cicada::CircularBuffer.0", %"class.Cicada::CircularBuffer.0", i32, i8*, i16, i8, i32, i8* }
%"class.Cicada::IIPCommDevice" = type { %"class.Cicada::IStatefulDevice" }
%"class.Cicada::IStatefulDevice" = type { %"class.Cicada::ICommDevice" }
%"class.Cicada::Task" = type { i32 (...)**, i16, i32, i8, i32 }
%"class.Cicada::CircularBuffer.0" = type <{ i32 (...)**, [4 x i8], i64, i64, i64, i64, i8*, [4 x i8] }>
%"class.Cicada::Scheduler" = type { i32 ()*, %"class.Cicada::Task"**, %"class.Cicada::Task"** }
%class.NTPTask = type { %"class.Cicada::Task", %"class.Cicada::SimCommDevice"*, [12 x i32] }
%"class.Cicada::IPCommDevice" = type { %"class.Cicada::IIPCommDevice", %"class.Cicada::Task", %"class.Cicada::CircularBuffer.0", %"class.Cicada::CircularBuffer.0", i32, i8*, i16, i8, i32, i8*, [4 x i8] }
%struct.RCC_OscInitTypeDef = type { i32, i32, i32, i32, i32, i32, i32, %struct.RCC_PLLInitTypeDef }
%struct.RCC_PLLInitTypeDef = type { i32, i32, i32 }
%struct.RCC_ClkInitTypeDef = type { i32, i32, i32, i32, i32 }
%struct.__va_list = type { i8* }
%struct.out_fct_wrap_type = type { void (i8, i8*)*, i8* }

$_ZN7NTPTaskC2ERN6Cicada13SimCommDeviceE = comdat any

$_ZN6Cicada4TaskD2Ev = comdat any

$_ZN6Cicada12IPCommDeviceD2Ev = comdat any

$_ZN6Cicada14CircularBufferIhED2Ev = comdat any

$_ZN6Cicada11ICommDeviceD2Ev = comdat any

$_ZN6Cicada4TaskC2Et = comdat any

$_ZN7NTPTaskD0Ev = comdat any

$_ZN7NTPTask3runEv = comdat any

$_ZN6Cicada4Task8setDelayEt = comdat any

$_ZN6Cicada4TaskD0Ev = comdat any

$_ZN6Cicada12ATCommDeviceD0Ev = comdat any

$_ZThn4_N6Cicada12ATCommDeviceD1Ev = comdat any

$_ZThn4_N6Cicada12ATCommDeviceD0Ev = comdat any

$_ZNK6Cicada14CircularBufferIhE14bytesAvailableEv = comdat any

$_ZN6Cicada14CircularBufferIhE4pullEv = comdat any

$_ZN6Cicada14CircularBufferIhE20incrementOrResetHeadERy = comdat any

$_ZN6Cicada14CircularBufferIhE4pushEh = comdat any

$_ZN6Cicada12IPCommDeviceD0Ev = comdat any

$_ZThn4_N6Cicada12IPCommDeviceD1Ev = comdat any

$_ZThn4_N6Cicada12IPCommDeviceD0Ev = comdat any

$_ZN6Cicada14CircularBufferIhE4pushEPKhy = comdat any

$_ZN6Cicada14CircularBufferIhE4pullEPhy = comdat any

$_ZNK6Cicada14CircularBufferIhE14spaceAvailableEv = comdat any

$_ZN6Cicada13IIPCommDeviceC2Ev = comdat any

$_ZN6Cicada14CircularBufferIhEC2EPhy = comdat any

$_ZN6Cicada14CircularBufferIhED0Ev = comdat any

$_ZN6Cicada14CircularBufferIhE4readEv = comdat any

$_ZN6Cicada14CircularBufferIhE5flushEv = comdat any

$_ZNK6Cicada14CircularBufferIhE7isEmptyEv = comdat any

$_ZNK6Cicada14CircularBufferIhE6isFullEv = comdat any

$_ZNK6Cicada14CircularBufferIhE4sizeEv = comdat any

$_ZN6Cicada15IStatefulDeviceC2Ev = comdat any

$_ZN6Cicada13IIPCommDeviceD0Ev = comdat any

$_ZN6Cicada11ICommDeviceC2Ev = comdat any

$_ZN6Cicada15IStatefulDeviceD0Ev = comdat any

$_ZN6Cicada11ICommDeviceD0Ev = comdat any

$_ZN6Cicada13SimCommDeviceD0Ev = comdat any

$_ZThn4_N6Cicada13SimCommDeviceD1Ev = comdat any

$_ZThn4_N6Cicada13SimCommDeviceD0Ev = comdat any

$_ZN6Cicada17Sim7x00CommDeviceD0Ev = comdat any

$_ZThn4_N6Cicada17Sim7x00CommDeviceD1Ev = comdat any

$_ZThn4_N6Cicada17Sim7x00CommDeviceD0Ev = comdat any

$_ZNK6Cicada4Task5delayEv = comdat any

$_ZN6Cicada4Task7lastRunEv = comdat any

$_ZN6Cicada4Task10setLastRunEj = comdat any

$_ZNK6Cicada14CircularBufferIcE14bytesAvailableEv = comdat any

$_ZN6Cicada14BufferedSerialD2Ev = comdat any

$_ZN6Cicada14CircularBufferIcED2Ev = comdat any

$_ZN6Cicada15IBufferedSerialD2Ev = comdat any

$_ZN6Cicada7ISerialD2Ev = comdat any

$_ZN6Cicada14BufferedSerialD0Ev = comdat any

$_ZThn4_N6Cicada14BufferedSerialD1Ev = comdat any

$_ZThn4_N6Cicada14BufferedSerialD0Ev = comdat any

$_ZNK6Cicada14CircularBufferIcE4sizeEv = comdat any

$_ZN6Cicada18LineCircularBuffer5flushEv = comdat any

$_ZN6Cicada14CircularBufferIcE5flushEv = comdat any

$_ZNK6Cicada18LineCircularBuffer16numBufferedLinesEv = comdat any

$_ZN6Cicada18LineCircularBuffer4pushEc = comdat any

$_ZN6Cicada14CircularBufferIcE4pushEc = comdat any

$_ZN6Cicada14CircularBufferIcE20incrementOrResetHeadERy = comdat any

$_ZN6Cicada18LineCircularBuffer4pullEv = comdat any

$_ZN6Cicada14CircularBufferIcE4pullEv = comdat any

$_ZNK6Cicada14CircularBufferIcE14spaceAvailableEv = comdat any

$_ZN6Cicada15IBufferedSerialC2Ev = comdat any

$_ZN6Cicada18LineCircularBufferC2EPcy = comdat any

$_ZN6Cicada14CircularBufferIcEC2EPcy = comdat any

$_ZN6Cicada18LineCircularBufferD0Ev = comdat any

$_ZN6Cicada18LineCircularBuffer4pushEPKcy = comdat any

$_ZN6Cicada18LineCircularBuffer4pullEPcy = comdat any

$_ZN6Cicada14CircularBufferIcE4readEv = comdat any

$_ZNK6Cicada14CircularBufferIcE7isEmptyEv = comdat any

$_ZNK6Cicada14CircularBufferIcE6isFullEv = comdat any

$_ZN6Cicada14CircularBufferIcED0Ev = comdat any

$_ZN6Cicada14CircularBufferIcE4pushEPKcy = comdat any

$_ZN6Cicada14CircularBufferIcE4pullEPcy = comdat any

$_ZN6Cicada7ISerialC2Ev = comdat any

$_ZN6Cicada15IBufferedSerialD0Ev = comdat any

$_ZThn4_N6Cicada15IBufferedSerialD1Ev = comdat any

$_ZThn4_N6Cicada15IBufferedSerialD0Ev = comdat any

$_ZN6Cicada7ISerialD0Ev = comdat any

$_ZTV7NTPTask = comdat any

$_ZTS7NTPTask = comdat any

$_ZTI7NTPTask = comdat any

$_ZZN7NTPTask3runEvE10entrypoint = comdat any

$_ZTSN6Cicada13IIPCommDeviceE = comdat any

$_ZTSN6Cicada15IStatefulDeviceE = comdat any

$_ZTIN6Cicada15IStatefulDeviceE = comdat any

$_ZTIN6Cicada13IIPCommDeviceE = comdat any

$_ZTSN6Cicada4TaskE = comdat any

$_ZTIN6Cicada4TaskE = comdat any

$_ZTVN6Cicada13IIPCommDeviceE = comdat any

$_ZTVN6Cicada15IStatefulDeviceE = comdat any

$_ZTVN6Cicada4TaskE = comdat any

$_ZTVN6Cicada14CircularBufferIhEE = comdat any

$_ZTSN6Cicada14CircularBufferIhEE = comdat any

$_ZTIN6Cicada14CircularBufferIhEE = comdat any

$_ZTSN6Cicada15IBufferedSerialE = comdat any

$_ZTSN6Cicada11ICommDeviceE = comdat any

$_ZTIN6Cicada11ICommDeviceE = comdat any

$_ZTSN6Cicada7ISerialE = comdat any

$_ZTIN6Cicada7ISerialE = comdat any

$_ZTIN6Cicada15IBufferedSerialE = comdat any

$_ZTVN6Cicada15IBufferedSerialE = comdat any

$_ZTVN6Cicada11ICommDeviceE = comdat any

$_ZTVN6Cicada7ISerialE = comdat any

$_ZTVN6Cicada18LineCircularBufferE = comdat any

$_ZTSN6Cicada18LineCircularBufferE = comdat any

$_ZTSN6Cicada14CircularBufferIcEE = comdat any

$_ZTIN6Cicada14CircularBufferIcEE = comdat any

$_ZTIN6Cicada18LineCircularBufferE = comdat any

$_ZTVN6Cicada14CircularBufferIcEE = comdat any

@_ZZ17USART1_IRQHandlerE8instance = internal unnamed_addr global %"class.Cicada::Stm32Uart"* null, align 4, !dbg !0
@_ZGVZ17USART1_IRQHandlerE8instance = internal global i32 0, align 4
@_ZZ17USART2_IRQHandlerE8instance = internal unnamed_addr global %"class.Cicada::Stm32Uart"* null, align 4, !dbg !170
@_ZGVZ17USART2_IRQHandlerE8instance = internal global i32 0, align 4
@_ZZ8_putcharE6serial = internal unnamed_addr global %"class.Cicada::Stm32Uart"* null, align 4, !dbg !177
@_ZTV7NTPTask = linkonce_odr dso_local unnamed_addr constant { [5 x i8*] } { [5 x i8*] [i8* null, i8* bitcast ({ i8*, i8*, i8* }* @_ZTI7NTPTask to i8*), i8* bitcast (%"class.Cicada::Task"* (%"class.Cicada::Task"*)* @_ZN6Cicada4TaskD2Ev to i8*), i8* bitcast (void (%class.NTPTask*)* @_ZN7NTPTaskD0Ev to i8*), i8* bitcast (void (%class.NTPTask*)* @_ZN7NTPTask3runEv to i8*)] }, comdat, align 4
@_ZTS7NTPTask = linkonce_odr dso_local constant [9 x i8] c"7NTPTask\00", comdat, align 1
@_ZTI7NTPTask = linkonce_odr dso_local constant { i8*, i8*, i8* } { i8* bitcast (i8** getelementptr inbounds (i8*, i8** @_ZTVN10__cxxabiv120__si_class_type_infoE, i32 2) to i8*), i8* getelementptr inbounds ([9 x i8], [9 x i8]* @_ZTS7NTPTask, i32 0, i32 0), i8* bitcast ({ i8*, i8* }* @_ZTIN6Cicada4TaskE to i8*) }, comdat, align 4
@_ZZN7NTPTask3runEvE10entrypoint = linkonce_odr dso_local local_unnamed_addr global i8 0, comdat, align 1, !dbg !184
@.str = private unnamed_addr constant [9 x i8] c"internet\00", align 1
@.str.1 = private unnamed_addr constant [13 x i8] c"pool.ntp.org\00", align 1
@.str.2 = private unnamed_addr constant [21 x i8] c"*** Connected! ***\0D\0A\00", align 1
@.str.3 = private unnamed_addr constant [31 x i8] c"Seconds since the Epoche: %u\0D\0A\00", align 1
@.str.4 = private unnamed_addr constant [23 x i8] c"*** Disconnected ***\0D\0A\00", align 1
@_ftoa.pow10 = internal unnamed_addr constant [10 x double] [double 1.000000e+00, double 1.000000e+01, double 1.000000e+02, double 1.000000e+03, double 1.000000e+04, double 1.000000e+05, double 1.000000e+06, double 1.000000e+07, double 1.000000e+08, double 1.000000e+09], align 8, !dbg !487
@AHBPrescTable = dso_local local_unnamed_addr constant [16 x i8] c"\00\00\00\00\00\00\00\00\01\02\03\04\06\07\08\09", align 1, !dbg !545
@__const.HAL_RCC_GetSysClockFreq.aPLLMULFactorTable = private unnamed_addr constant [16 x i8] c"\02\03\04\05\06\07\08\09\0A\0B\0C\0D\0E\0F\10\10", align 1
@__const.HAL_RCC_GetSysClockFreq.aPredivFactorTable = private unnamed_addr constant [2 x i8] c"\01\02", align 1
@APBPrescTable = dso_local local_unnamed_addr constant [8 x i8] c"\00\00\00\00\01\02\03\04", align 1, !dbg !612
@uwTickPrio = dso_local local_unnamed_addr global i32 16, align 4, !dbg !620
@uwTickFreq = dso_local local_unnamed_addr global i32 1, align 4, !dbg !736
@SystemCoreClock = dso_local local_unnamed_addr global i32 16000000, align 4, !dbg !610
@uwTick = dso_local global i32 0, align 4, !dbg !739
@.str.27 = private unnamed_addr constant [3 x i8] c"OK\00", align 1
@.str.1.28 = private unnamed_addr constant [3 x i8] c"\0D\0A\00", align 1
@.str.2.29 = private unnamed_addr constant [4 x i8] c"\22\0D\0A\00", align 1
@_ZTVN6Cicada12ATCommDeviceE = dso_local unnamed_addr constant { [17 x i8*], [5 x i8*] } { [17 x i8*] [i8* null, i8* bitcast ({ i8*, i8*, i8* }* @_ZTIN6Cicada12ATCommDeviceE to i8*), i8* bitcast (%"class.Cicada::IPCommDevice"* (%"class.Cicada::IPCommDevice"*)* @_ZN6Cicada12IPCommDeviceD2Ev to i8*), i8* bitcast (void (%"class.Cicada::ATCommDevice"*)* @_ZN6Cicada12ATCommDeviceD0Ev to i8*), i8* bitcast (i64 (%"class.Cicada::IPCommDevice"*)* @_ZNK6Cicada12IPCommDevice14bytesAvailableEv to i8*), i8* bitcast (i64 (%"class.Cicada::IPCommDevice"*)* @_ZNK6Cicada12IPCommDevice14spaceAvailableEv to i8*), i8* bitcast (i1 (%"class.Cicada::IPCommDevice"*)* @_ZNK6Cicada12IPCommDevice20writeBufferProcessedEv to i8*), i8* bitcast (i64 (%"class.Cicada::IPCommDevice"*, i8*, i64)* @_ZN6Cicada12IPCommDevice4readEPhy to i8*), i8* bitcast (i64 (%"class.Cicada::IPCommDevice"*, i8*, i64)* @_ZN6Cicada12IPCommDevice5writeEPKhy to i8*), i8* bitcast (i1 (%"class.Cicada::IPCommDevice"*)* @_ZN6Cicada12IPCommDevice7connectEv to i8*), i8* bitcast (void (%"class.Cicada::IPCommDevice"*)* @_ZN6Cicada12IPCommDevice10disconnectEv to i8*), i8* bitcast (i1 (%"class.Cicada::IPCommDevice"*)* @_ZN6Cicada12IPCommDevice11isConnectedEv to i8*), i8* bitcast (i1 (%"class.Cicada::IPCommDevice"*)* @_ZN6Cicada12IPCommDevice6isIdleEv to i8*), i8* bitcast (void ()* @__cxa_pure_virtual to i8*), i8* bitcast (void (%"class.Cicada::IPCommDevice"*, i8*, i16, i32)* @_ZN6Cicada12IPCommDevice11setHostPortEPKctNS_13IIPCommDevice14ConnectionTypeE to i8*), i8* bitcast (i64 (%"class.Cicada::ATCommDevice"*, i8*)* @_ZN6Cicada12ATCommDevice11serialWriteEPc to i8*), i8* bitcast (i64 (%"class.Cicada::ATCommDevice"*, i8*, i64)* @_ZN6Cicada12ATCommDevice10serialReadEPcy to i8*)], [5 x i8*] [i8* inttoptr (i32 -4 to i8*), i8* bitcast ({ i8*, i8*, i8* }* @_ZTIN6Cicada12ATCommDeviceE to i8*), i8* bitcast (%"class.Cicada::ATCommDevice"* (%"class.Cicada::ATCommDevice"*)* @_ZThn4_N6Cicada12ATCommDeviceD1Ev to i8*), i8* bitcast (void (%"class.Cicada::ATCommDevice"*)* @_ZThn4_N6Cicada12ATCommDeviceD0Ev to i8*), i8* bitcast (void ()* @__cxa_pure_virtual to i8*)] }, align 4
@.str.3.30 = private unnamed_addr constant [12 x i8] c"AT+CIPSEND=\00", align 1
@.str.4.31 = private unnamed_addr constant [3 x i8] c"0,\00", align 1
@.str.5 = private unnamed_addr constant [3 x i8] c"%u\00", align 1
@.str.6 = private unnamed_addr constant [2 x i8] c">\00", align 1
@_ZTSN6Cicada12ATCommDeviceE = dso_local constant [24 x i8] c"N6Cicada12ATCommDeviceE\00", align 1
@_ZTVN6Cicada12IPCommDeviceE = dso_local unnamed_addr constant { [15 x i8*], [5 x i8*] } { [15 x i8*] [i8* null, i8* bitcast ({ i8*, i8*, i32, i32, i8*, i32, i8*, i32 }* @_ZTIN6Cicada12IPCommDeviceE to i8*), i8* bitcast (%"class.Cicada::IPCommDevice"* (%"class.Cicada::IPCommDevice"*)* @_ZN6Cicada12IPCommDeviceD2Ev to i8*), i8* bitcast (void (%"class.Cicada::IPCommDevice"*)* @_ZN6Cicada12IPCommDeviceD0Ev to i8*), i8* bitcast (i64 (%"class.Cicada::IPCommDevice"*)* @_ZNK6Cicada12IPCommDevice14bytesAvailableEv to i8*), i8* bitcast (i64 (%"class.Cicada::IPCommDevice"*)* @_ZNK6Cicada12IPCommDevice14spaceAvailableEv to i8*), i8* bitcast (i1 (%"class.Cicada::IPCommDevice"*)* @_ZNK6Cicada12IPCommDevice20writeBufferProcessedEv to i8*), i8* bitcast (i64 (%"class.Cicada::IPCommDevice"*, i8*, i64)* @_ZN6Cicada12IPCommDevice4readEPhy to i8*), i8* bitcast (i64 (%"class.Cicada::IPCommDevice"*, i8*, i64)* @_ZN6Cicada12IPCommDevice5writeEPKhy to i8*), i8* bitcast (i1 (%"class.Cicada::IPCommDevice"*)* @_ZN6Cicada12IPCommDevice7connectEv to i8*), i8* bitcast (void (%"class.Cicada::IPCommDevice"*)* @_ZN6Cicada12IPCommDevice10disconnectEv to i8*), i8* bitcast (i1 (%"class.Cicada::IPCommDevice"*)* @_ZN6Cicada12IPCommDevice11isConnectedEv to i8*), i8* bitcast (i1 (%"class.Cicada::IPCommDevice"*)* @_ZN6Cicada12IPCommDevice6isIdleEv to i8*), i8* bitcast (void ()* @__cxa_pure_virtual to i8*), i8* bitcast (void (%"class.Cicada::IPCommDevice"*, i8*, i16, i32)* @_ZN6Cicada12IPCommDevice11setHostPortEPKctNS_13IIPCommDevice14ConnectionTypeE to i8*)], [5 x i8*] [i8* inttoptr (i32 -4 to i8*), i8* bitcast ({ i8*, i8*, i32, i32, i8*, i32, i8*, i32 }* @_ZTIN6Cicada12IPCommDeviceE to i8*), i8* bitcast (%"class.Cicada::IPCommDevice"* (%"class.Cicada::IPCommDevice"*)* @_ZThn4_N6Cicada12IPCommDeviceD1Ev to i8*), i8* bitcast (void (%"class.Cicada::IPCommDevice"*)* @_ZThn4_N6Cicada12IPCommDeviceD0Ev to i8*), i8* bitcast (void ()* @__cxa_pure_virtual to i8*)] }, align 4
@_ZTSN6Cicada12IPCommDeviceE = dso_local constant [24 x i8] c"N6Cicada12IPCommDeviceE\00", align 1
@_ZTSN6Cicada13IIPCommDeviceE = linkonce_odr dso_local constant [25 x i8] c"N6Cicada13IIPCommDeviceE\00", comdat, align 1
@_ZTSN6Cicada15IStatefulDeviceE = linkonce_odr dso_local constant [27 x i8] c"N6Cicada15IStatefulDeviceE\00", comdat, align 1
@_ZTIN6Cicada15IStatefulDeviceE = linkonce_odr dso_local constant { i8*, i8*, i8* } { i8* bitcast (i8** getelementptr inbounds (i8*, i8** @_ZTVN10__cxxabiv120__si_class_type_infoE, i32 2) to i8*), i8* getelementptr inbounds ([27 x i8], [27 x i8]* @_ZTSN6Cicada15IStatefulDeviceE, i32 0, i32 0), i8* bitcast ({ i8*, i8* }* @_ZTIN6Cicada11ICommDeviceE to i8*) }, comdat, align 4
@_ZTIN6Cicada13IIPCommDeviceE = linkonce_odr dso_local constant { i8*, i8*, i8* } { i8* bitcast (i8** getelementptr inbounds (i8*, i8** @_ZTVN10__cxxabiv120__si_class_type_infoE, i32 2) to i8*), i8* getelementptr inbounds ([25 x i8], [25 x i8]* @_ZTSN6Cicada13IIPCommDeviceE, i32 0, i32 0), i8* bitcast ({ i8*, i8*, i8* }* @_ZTIN6Cicada15IStatefulDeviceE to i8*) }, comdat, align 4
@_ZTSN6Cicada4TaskE = linkonce_odr dso_local constant [15 x i8] c"N6Cicada4TaskE\00", comdat, align 1
@_ZTIN6Cicada4TaskE = linkonce_odr dso_local constant { i8*, i8* } { i8* bitcast (i8** getelementptr inbounds (i8*, i8** @_ZTVN10__cxxabiv117__class_type_infoE, i32 2) to i8*), i8* getelementptr inbounds ([15 x i8], [15 x i8]* @_ZTSN6Cicada4TaskE, i32 0, i32 0) }, comdat, align 4
@_ZTIN6Cicada12IPCommDeviceE = dso_local constant { i8*, i8*, i32, i32, i8*, i32, i8*, i32 } { i8* bitcast (i8** getelementptr inbounds (i8*, i8** @_ZTVN10__cxxabiv121__vmi_class_type_infoE, i32 2) to i8*), i8* getelementptr inbounds ([24 x i8], [24 x i8]* @_ZTSN6Cicada12IPCommDeviceE, i32 0, i32 0), i32 0, i32 2, i8* bitcast ({ i8*, i8*, i8* }* @_ZTIN6Cicada13IIPCommDeviceE to i8*), i32 2, i8* bitcast ({ i8*, i8* }* @_ZTIN6Cicada4TaskE to i8*), i32 1026 }, align 4
@_ZTVN6Cicada13IIPCommDeviceE = linkonce_odr dso_local unnamed_addr constant { [15 x i8*] } { [15 x i8*] [i8* null, i8* bitcast ({ i8*, i8*, i8* }* @_ZTIN6Cicada13IIPCommDeviceE to i8*), i8* bitcast (%"class.Cicada::ICommDevice"* (%"class.Cicada::ICommDevice"*)* @_ZN6Cicada11ICommDeviceD2Ev to i8*), i8* bitcast (void (%"class.Cicada::IIPCommDevice"*)* @_ZN6Cicada13IIPCommDeviceD0Ev to i8*), i8* bitcast (void ()* @__cxa_pure_virtual to i8*), i8* bitcast (void ()* @__cxa_pure_virtual to i8*), i8* bitcast (void ()* @__cxa_pure_virtual to i8*), i8* bitcast (void ()* @__cxa_pure_virtual to i8*), i8* bitcast (void ()* @__cxa_pure_virtual to i8*), i8* bitcast (void ()* @__cxa_pure_virtual to i8*), i8* bitcast (void ()* @__cxa_pure_virtual to i8*), i8* bitcast (void ()* @__cxa_pure_virtual to i8*), i8* bitcast (void ()* @__cxa_pure_virtual to i8*), i8* bitcast (void ()* @__cxa_pure_virtual to i8*), i8* bitcast (void ()* @__cxa_pure_virtual to i8*)] }, comdat, align 4
@_ZTVN6Cicada15IStatefulDeviceE = linkonce_odr dso_local unnamed_addr constant { [14 x i8*] } { [14 x i8*] [i8* null, i8* bitcast ({ i8*, i8*, i8* }* @_ZTIN6Cicada15IStatefulDeviceE to i8*), i8* bitcast (%"class.Cicada::ICommDevice"* (%"class.Cicada::ICommDevice"*)* @_ZN6Cicada11ICommDeviceD2Ev to i8*), i8* bitcast (void (%"class.Cicada::IStatefulDevice"*)* @_ZN6Cicada15IStatefulDeviceD0Ev to i8*), i8* bitcast (void ()* @__cxa_pure_virtual to i8*), i8* bitcast (void ()* @__cxa_pure_virtual to i8*), i8* bitcast (void ()* @__cxa_pure_virtual to i8*), i8* bitcast (void ()* @__cxa_pure_virtual to i8*), i8* bitcast (void ()* @__cxa_pure_virtual to i8*), i8* bitcast (void ()* @__cxa_pure_virtual to i8*), i8* bitcast (void ()* @__cxa_pure_virtual to i8*), i8* bitcast (void ()* @__cxa_pure_virtual to i8*), i8* bitcast (void ()* @__cxa_pure_virtual to i8*), i8* bitcast (void ()* @__cxa_pure_virtual to i8*)] }, comdat, align 4
@_ZTVN6Cicada4TaskE = linkonce_odr dso_local unnamed_addr constant { [5 x i8*] } { [5 x i8*] [i8* null, i8* bitcast ({ i8*, i8* }* @_ZTIN6Cicada4TaskE to i8*), i8* bitcast (%"class.Cicada::Task"* (%"class.Cicada::Task"*)* @_ZN6Cicada4TaskD2Ev to i8*), i8* bitcast (void (%"class.Cicada::Task"*)* @_ZN6Cicada4TaskD0Ev to i8*), i8* bitcast (void ()* @__cxa_pure_virtual to i8*)] }, comdat, align 4
@_ZTVN6Cicada14CircularBufferIhEE = linkonce_odr dso_local unnamed_addr constant { [15 x i8*] } { [15 x i8*] [i8* null, i8* bitcast ({ i8*, i8* }* @_ZTIN6Cicada14CircularBufferIhEE to i8*), i8* bitcast (%"class.Cicada::CircularBuffer.0"* (%"class.Cicada::CircularBuffer.0"*)* @_ZN6Cicada14CircularBufferIhED2Ev to i8*), i8* bitcast (void (%"class.Cicada::CircularBuffer.0"*)* @_ZN6Cicada14CircularBufferIhED0Ev to i8*), i8* bitcast (i64 (%"class.Cicada::CircularBuffer.0"*, i8*, i64)* @_ZN6Cicada14CircularBufferIhE4pushEPKhy to i8*), i8* bitcast (void (%"class.Cicada::CircularBuffer.0"*, i8)* @_ZN6Cicada14CircularBufferIhE4pushEh to i8*), i8* bitcast (i64 (%"class.Cicada::CircularBuffer.0"*, i8*, i64)* @_ZN6Cicada14CircularBufferIhE4pullEPhy to i8*), i8* bitcast (i8 (%"class.Cicada::CircularBuffer.0"*)* @_ZN6Cicada14CircularBufferIhE4pullEv to i8*), i8* bitcast (i8 (%"class.Cicada::CircularBuffer.0"*)* @_ZN6Cicada14CircularBufferIhE4readEv to i8*), i8* bitcast (void (%"class.Cicada::CircularBuffer.0"*)* @_ZN6Cicada14CircularBufferIhE5flushEv to i8*), i8* bitcast (i1 (%"class.Cicada::CircularBuffer.0"*)* @_ZNK6Cicada14CircularBufferIhE7isEmptyEv to i8*), i8* bitcast (i1 (%"class.Cicada::CircularBuffer.0"*)* @_ZNK6Cicada14CircularBufferIhE6isFullEv to i8*), i8* bitcast (i64 (%"class.Cicada::CircularBuffer.0"*)* @_ZNK6Cicada14CircularBufferIhE14bytesAvailableEv to i8*), i8* bitcast (i64 (%"class.Cicada::CircularBuffer.0"*)* @_ZNK6Cicada14CircularBufferIhE14spaceAvailableEv to i8*), i8* bitcast (i64 (%"class.Cicada::CircularBuffer.0"*)* @_ZNK6Cicada14CircularBufferIhE4sizeEv to i8*)] }, comdat, align 4
@_ZTSN6Cicada14CircularBufferIhEE = linkonce_odr dso_local constant [29 x i8] c"N6Cicada14CircularBufferIhEE\00", comdat, align 1
@_ZTIN6Cicada14CircularBufferIhEE = linkonce_odr dso_local constant { i8*, i8* } { i8* bitcast (i8** getelementptr inbounds (i8*, i8** @_ZTVN10__cxxabiv117__class_type_infoE, i32 2) to i8*), i8* getelementptr inbounds ([29 x i8], [29 x i8]* @_ZTSN6Cicada14CircularBufferIhEE, i32 0, i32 0) }, comdat, align 4
@_ZTVN6Cicada13SimCommDeviceE = dso_local unnamed_addr constant { [20 x i8*], [5 x i8*] } { [20 x i8*] [i8* null, i8* bitcast ({ i8*, i8*, i8* }* @_ZTIN6Cicada13SimCommDeviceE to i8*), i8* bitcast (%"class.Cicada::IPCommDevice"* (%"class.Cicada::IPCommDevice"*)* @_ZN6Cicada12IPCommDeviceD2Ev to i8*), i8* bitcast (void (%"class.Cicada::SimCommDevice"*)* @_ZN6Cicada13SimCommDeviceD0Ev to i8*), i8* bitcast (i64 (%"class.Cicada::IPCommDevice"*)* @_ZNK6Cicada12IPCommDevice14bytesAvailableEv to i8*), i8* bitcast (i64 (%"class.Cicada::IPCommDevice"*)* @_ZNK6Cicada12IPCommDevice14spaceAvailableEv to i8*), i8* bitcast (i1 (%"class.Cicada::IPCommDevice"*)* @_ZNK6Cicada12IPCommDevice20writeBufferProcessedEv to i8*), i8* bitcast (i64 (%"class.Cicada::IPCommDevice"*, i8*, i64)* @_ZN6Cicada12IPCommDevice4readEPhy to i8*), i8* bitcast (i64 (%"class.Cicada::IPCommDevice"*, i8*, i64)* @_ZN6Cicada12IPCommDevice5writeEPKhy to i8*), i8* bitcast (i1 (%"class.Cicada::SimCommDevice"*)* @_ZN6Cicada13SimCommDevice7connectEv to i8*), i8* bitcast (void (%"class.Cicada::IPCommDevice"*)* @_ZN6Cicada12IPCommDevice10disconnectEv to i8*), i8* bitcast (i1 (%"class.Cicada::IPCommDevice"*)* @_ZN6Cicada12IPCommDevice11isConnectedEv to i8*), i8* bitcast (i1 (%"class.Cicada::IPCommDevice"*)* @_ZN6Cicada12IPCommDevice6isIdleEv to i8*), i8* bitcast (void (%"class.Cicada::SimCommDevice"*)* @_ZN6Cicada13SimCommDevice11resetStatesEv to i8*), i8* bitcast (void (%"class.Cicada::IPCommDevice"*, i8*, i16, i32)* @_ZN6Cicada12IPCommDevice11setHostPortEPKctNS_13IIPCommDevice14ConnectionTypeE to i8*), i8* bitcast (i64 (%"class.Cicada::ATCommDevice"*, i8*)* @_ZN6Cicada12ATCommDevice11serialWriteEPc to i8*), i8* bitcast (i64 (%"class.Cicada::ATCommDevice"*, i8*, i64)* @_ZN6Cicada12ATCommDevice10serialReadEPcy to i8*), i8* bitcast (void (%"class.Cicada::SimCommDevice"*, i8*)* @_ZN6Cicada13SimCommDevice6setApnEPKc to i8*), i8* bitcast (i1 (%"class.Cicada::SimCommDevice"*)* @_ZN6Cicada13SimCommDevice10serialLockEv to i8*), i8* bitcast (void (%"class.Cicada::SimCommDevice"*)* @_ZN6Cicada13SimCommDevice12serialUnlockEv to i8*)], [5 x i8*] [i8* inttoptr (i32 -4 to i8*), i8* bitcast ({ i8*, i8*, i8* }* @_ZTIN6Cicada13SimCommDeviceE to i8*), i8* bitcast (%"class.Cicada::SimCommDevice"* (%"class.Cicada::SimCommDevice"*)* @_ZThn4_N6Cicada13SimCommDeviceD1Ev to i8*), i8* bitcast (void (%"class.Cicada::SimCommDevice"*)* @_ZThn4_N6Cicada13SimCommDeviceD0Ev to i8*), i8* bitcast (void ()* @__cxa_pure_virtual to i8*)] }, align 4
@.str.58 = private unnamed_addr constant [12 x i8] c"+CDNSGIP: 1\00", align 1
@.str.1.59 = private unnamed_addr constant [12 x i8] c"+CDNSGIP: 0\00", align 1
@.str.2.60 = private unnamed_addr constant [16 x i8] c"+CIPRXGET: 4,0,\00", align 1
@.str.3.61 = private unnamed_addr constant [3 x i8] c"%d\00", align 1
@.str.4.62 = private unnamed_addr constant [16 x i8] c"+CIPRXGET: 2,0,\00", align 1
@.str.5.63 = private unnamed_addr constant [7 x i8] c"+CSQ: \00", align 1
@.str.6.64 = private unnamed_addr constant [3 x i8] c"%u\00", align 1
@.str.7 = private unnamed_addr constant [3 x i8] c"AT\00", align 1
@.str.8 = private unnamed_addr constant [9 x i8] c"+ICCID: \00", align 1
@.str.9 = private unnamed_addr constant [13 x i8] c"AT+CDNSGIP=\22\00", align 1
@__const._ZN6Cicada13SimCommDevice13sendCiprxget2Ev.str = private unnamed_addr constant [17 x i8] c"AT+CIPRXGET=2,0,\00", align 1
@.str.10 = private unnamed_addr constant [15 x i8] c"+CIPRXGET: 1,0\00", align 1
@.str.11 = private unnamed_addr constant [8 x i8] c"AT+CGMI\00", align 1
@.str.12 = private unnamed_addr constant [8 x i8] c"AT+CGMM\00", align 1
@.str.13 = private unnamed_addr constant [8 x i8] c"AT+CGSN\00", align 1
@.str.14 = private unnamed_addr constant [8 x i8] c"AT+CIMI\00", align 1
@_ZTSN6Cicada13SimCommDeviceE = dso_local constant [25 x i8] c"N6Cicada13SimCommDeviceE\00", align 1
@_ZTIN6Cicada12ATCommDeviceE = dso_local constant { i8*, i8*, i8* } { i8* bitcast (i8** getelementptr inbounds (i8*, i8** @_ZTVN10__cxxabiv120__si_class_type_infoE, i32 2) to i8*), i8* getelementptr inbounds ([24 x i8], [24 x i8]* @_ZTSN6Cicada12ATCommDeviceE, i32 0, i32 0), i8* bitcast ({ i8*, i8*, i32, i32, i8*, i32, i8*, i32 }* @_ZTIN6Cicada12IPCommDeviceE to i8*) }, align 4
@_ZTVN6Cicada17Sim7x00CommDeviceE = dso_local unnamed_addr constant { [21 x i8*], [5 x i8*] } { [21 x i8*] [i8* null, i8* bitcast ({ i8*, i8*, i8* }* @_ZTIN6Cicada17Sim7x00CommDeviceE to i8*), i8* bitcast (%"class.Cicada::IPCommDevice"* (%"class.Cicada::IPCommDevice"*)* @_ZN6Cicada12IPCommDeviceD2Ev to i8*), i8* bitcast (void (%"class.Cicada::Sim7x00CommDevice"*)* @_ZN6Cicada17Sim7x00CommDeviceD0Ev to i8*), i8* bitcast (i64 (%"class.Cicada::IPCommDevice"*)* @_ZNK6Cicada12IPCommDevice14bytesAvailableEv to i8*), i8* bitcast (i64 (%"class.Cicada::IPCommDevice"*)* @_ZNK6Cicada12IPCommDevice14spaceAvailableEv to i8*), i8* bitcast (i1 (%"class.Cicada::IPCommDevice"*)* @_ZNK6Cicada12IPCommDevice20writeBufferProcessedEv to i8*), i8* bitcast (i64 (%"class.Cicada::IPCommDevice"*, i8*, i64)* @_ZN6Cicada12IPCommDevice4readEPhy to i8*), i8* bitcast (i64 (%"class.Cicada::IPCommDevice"*, i8*, i64)* @_ZN6Cicada12IPCommDevice5writeEPKhy to i8*), i8* bitcast (i1 (%"class.Cicada::SimCommDevice"*)* @_ZN6Cicada13SimCommDevice7connectEv to i8*), i8* bitcast (void (%"class.Cicada::IPCommDevice"*)* @_ZN6Cicada12IPCommDevice10disconnectEv to i8*), i8* bitcast (i1 (%"class.Cicada::IPCommDevice"*)* @_ZN6Cicada12IPCommDevice11isConnectedEv to i8*), i8* bitcast (i1 (%"class.Cicada::IPCommDevice"*)* @_ZN6Cicada12IPCommDevice6isIdleEv to i8*), i8* bitcast (void (%"class.Cicada::SimCommDevice"*)* @_ZN6Cicada13SimCommDevice11resetStatesEv to i8*), i8* bitcast (void (%"class.Cicada::IPCommDevice"*, i8*, i16, i32)* @_ZN6Cicada12IPCommDevice11setHostPortEPKctNS_13IIPCommDevice14ConnectionTypeE to i8*), i8* bitcast (i64 (%"class.Cicada::ATCommDevice"*, i8*)* @_ZN6Cicada12ATCommDevice11serialWriteEPc to i8*), i8* bitcast (i64 (%"class.Cicada::ATCommDevice"*, i8*, i64)* @_ZN6Cicada12ATCommDevice10serialReadEPcy to i8*), i8* bitcast (void (%"class.Cicada::SimCommDevice"*, i8*)* @_ZN6Cicada13SimCommDevice6setApnEPKc to i8*), i8* bitcast (i1 (%"class.Cicada::SimCommDevice"*)* @_ZN6Cicada13SimCommDevice10serialLockEv to i8*), i8* bitcast (void (%"class.Cicada::SimCommDevice"*)* @_ZN6Cicada13SimCommDevice12serialUnlockEv to i8*), i8* bitcast (void (%"class.Cicada::Sim7x00CommDevice"*)* @_ZN6Cicada17Sim7x00CommDevice3runEv to i8*)], [5 x i8*] [i8* inttoptr (i32 -4 to i8*), i8* bitcast ({ i8*, i8*, i8* }* @_ZTIN6Cicada17Sim7x00CommDeviceE to i8*), i8* bitcast (%"class.Cicada::Sim7x00CommDevice"* (%"class.Cicada::Sim7x00CommDevice"*)* @_ZThn4_N6Cicada17Sim7x00CommDeviceD1Ev to i8*), i8* bitcast (void (%"class.Cicada::Sim7x00CommDevice"*)* @_ZThn4_N6Cicada17Sim7x00CommDeviceD0Ev to i8*), i8* bitcast (void (%"class.Cicada::Sim7x00CommDevice"*)* @_ZThn4_N6Cicada17Sim7x00CommDevice3runEv to i8*)] }, align 4
@.str.78 = private unnamed_addr constant [10 x i8] c"AT+CICCID\00", align 1
@__const._ZN6Cicada17Sim7x00CommDevice3runEv.str = private unnamed_addr constant [10 x i8] c"AT+CRESET\00", align 1
@_ZN6Cicada12ATCommDevice11_lineEndStrE = dso_local local_unnamed_addr global i8* getelementptr inbounds ([3 x i8], [3 x i8]* @.str.1.28, i32 0, i32 0), align 4, !dbg !741
@.str.1.65 = private unnamed_addr constant [4 x i8] c"RDY\00", align 1
@.str.2.66 = private unnamed_addr constant [6 x i8] c"ERROR\00", align 1
@.str.3.67 = private unnamed_addr constant [12 x i8] c"+NETOPEN: 1\00", align 1
@.str.4.68 = private unnamed_addr constant [13 x i8] c"+CIPOPEN: 0,\00", align 1
@.str.5.69 = private unnamed_addr constant [13 x i8] c"+IPCLOSE: 0,\00", align 1
@_ZN6Cicada12ATCommDevice6_okStrE = dso_local local_unnamed_addr global i8* getelementptr inbounds ([3 x i8], [3 x i8]* @.str.27, i32 0, i32 0), align 4, !dbg !866
@.str.6.70 = private unnamed_addr constant [7 x i8] c"AT+CSQ\00", align 1
@.str.7.71 = private unnamed_addr constant [5 x i8] c"ATE0\00", align 1
@__const._ZN6Cicada17Sim7x00CommDevice3runEv.str.8 = private unnamed_addr constant [23 x i8] c"AT+CGSOCKCONT=1,\22IP\22,\22\00", align 1
@_ZN6Cicada12ATCommDevice12_quoteEndStrE = dso_local local_unnamed_addr global i8* getelementptr inbounds ([4 x i8], [4 x i8]* @.str.2.29, i32 0, i32 0), align 4, !dbg !868
@.str.9.72 = private unnamed_addr constant [16 x i8] c"AT+CSOCKSETPN=1\00", align 1
@.str.10.73 = private unnamed_addr constant [13 x i8] c"AT+CIPMODE=0\00", align 1
@.str.11.74 = private unnamed_addr constant [12 x i8] c"+NETOPEN: 0\00", align 1
@.str.12.75 = private unnamed_addr constant [11 x i8] c"AT+NETOPEN\00", align 1
@.str.13.76 = private unnamed_addr constant [14 x i8] c"AT+CIPRXGET=1\00", align 1
@.str.14.77 = private unnamed_addr constant [3 x i8] c"%u\00", align 1
@.str.15 = private unnamed_addr constant [11 x i8] c"AT+CIPOPEN\00", align 1
@.str.16 = private unnamed_addr constant [12 x i8] c"=0,\22UDP\22,,,\00", align 1
@.str.17 = private unnamed_addr constant [11 x i8] c"=0,\22TCP\22,\22\00", align 1
@.str.18 = private unnamed_addr constant [3 x i8] c"\22,\00", align 1
@.str.19 = private unnamed_addr constant [14 x i8] c"+CIPOPEN: 0,0\00", align 1
@.str.20 = private unnamed_addr constant [3 x i8] c",\22\00", align 1
@.str.21 = private unnamed_addr constant [16 x i8] c"AT+CIPRXGET=4,0\00", align 1
@.str.22 = private unnamed_addr constant [13 x i8] c"+NETCLOSE: 0\00", align 1
@.str.23 = private unnamed_addr constant [12 x i8] c"AT+NETCLOSE\00", align 1
@_ZTSN6Cicada17Sim7x00CommDeviceE = dso_local constant [29 x i8] c"N6Cicada17Sim7x00CommDeviceE\00", align 1
@_ZTIN6Cicada13SimCommDeviceE = dso_local constant { i8*, i8*, i8* } { i8* bitcast (i8** getelementptr inbounds (i8*, i8** @_ZTVN10__cxxabiv120__si_class_type_infoE, i32 2) to i8*), i8* getelementptr inbounds ([25 x i8], [25 x i8]* @_ZTSN6Cicada13SimCommDeviceE, i32 0, i32 0), i8* bitcast ({ i8*, i8*, i8* }* @_ZTIN6Cicada12ATCommDeviceE to i8*) }, align 4
@_ZTIN6Cicada17Sim7x00CommDeviceE = dso_local constant { i8*, i8*, i8* } { i8* bitcast (i8** getelementptr inbounds (i8*, i8** @_ZTVN10__cxxabiv120__si_class_type_infoE, i32 2) to i8*), i8* getelementptr inbounds ([29 x i8], [29 x i8]* @_ZTSN6Cicada17Sim7x00CommDeviceE, i32 0, i32 0), i8* bitcast ({ i8*, i8*, i8* }* @_ZTIN6Cicada13SimCommDeviceE to i8*) }, align 4
@_ZN6Cicada9Stm32Uart8instanceE = dso_local local_unnamed_addr global [4 x %"class.Cicada::Stm32Uart"*] zeroinitializer, align 4, !dbg !1226
@_ZTVN6Cicada9Stm32UartE = dso_local unnamed_addr constant { [26 x i8*], [12 x i8*] } { [26 x i8*] [i8* null, i8* bitcast ({ i8*, i8*, i8* }* @_ZTIN6Cicada9Stm32UartE to i8*), i8* bitcast (%"class.Cicada::Stm32Uart"* (%"class.Cicada::Stm32Uart"*)* @_ZN6Cicada9Stm32UartD2Ev to i8*), i8* bitcast (void (%"class.Cicada::Stm32Uart"*)* @_ZN6Cicada9Stm32UartD0Ev to i8*), i8* bitcast (i64 (%"class.Cicada::BufferedSerial"*)* @_ZNK6Cicada14BufferedSerial14bytesAvailableEv to i8*), i8* bitcast (i64 (%"class.Cicada::BufferedSerial"*)* @_ZNK6Cicada14BufferedSerial14spaceAvailableEv to i8*), i8* bitcast (i1 (%"class.Cicada::Stm32Uart"*)* @_ZNK6Cicada9Stm32Uart20writeBufferProcessedEv to i8*), i8* bitcast (i64 (%"class.Cicada::BufferedSerial"*, i8*, i64)* @_ZN6Cicada14BufferedSerial4readEPhy to i8*), i8* bitcast (i64 (%"class.Cicada::BufferedSerial"*, i8*, i64)* @_ZN6Cicada14BufferedSerial5writeEPKhy to i8*), i8* bitcast (i8 (%"class.Cicada::BufferedSerial"*)* @_ZN6Cicada14BufferedSerial4readEv to i8*), i8* bitcast (i64 (%"class.Cicada::BufferedSerial"*, i8*)* @_ZN6Cicada14BufferedSerial5writeEPKh to i8*), i8* bitcast (void (%"class.Cicada::BufferedSerial"*, i8)* @_ZN6Cicada14BufferedSerial5writeEh to i8*), i8* bitcast (i1 (%"class.Cicada::BufferedSerial"*)* @_ZNK6Cicada14BufferedSerial11canReadLineEv to i8*), i8* bitcast (i64 (%"class.Cicada::BufferedSerial"*, i8*, i64)* @_ZN6Cicada14BufferedSerial8readLineEPhy to i8*), i8* bitcast (void (%"class.Cicada::BufferedSerial"*)* @_ZN6Cicada14BufferedSerial19flushReceiveBuffersEv to i8*), i8* bitcast (i64 (%"class.Cicada::BufferedSerial"*)* @_ZN6Cicada14BufferedSerial14readBufferSizeEv to i8*), i8* bitcast (i64 (%"class.Cicada::BufferedSerial"*)* @_ZN6Cicada14BufferedSerial15writeBufferSizeEv to i8*), i8* bitcast (i1 (%"class.Cicada::Stm32Uart"*)* @_ZN6Cicada9Stm32Uart4openEv to i8*), i8* bitcast (i1 (%"class.Cicada::Stm32Uart"*, i8)* @_ZN6Cicada9Stm32Uart4openEh to i8*), i8* bitcast (i1 (%"class.Cicada::Stm32Uart"*)* @_ZN6Cicada9Stm32Uart6isOpenEv to i8*), i8* bitcast (i1 (%"class.Cicada::Stm32Uart"*, i32, i8)* @_ZN6Cicada9Stm32Uart15setSerialConfigEjh to i8*), i8* bitcast (void (%"class.Cicada::Stm32Uart"*)* @_ZN6Cicada9Stm32Uart5closeEv to i8*), i8* bitcast (i8* (%"class.Cicada::Stm32Uart"*)* @_ZNK6Cicada9Stm32Uart8portNameEv to i8*), i8* bitcast (i1 (%"class.Cicada::Stm32Uart"*, i8*)* @_ZN6Cicada9Stm32Uart7rawReadERh to i8*), i8* bitcast (i1 (%"class.Cicada::Stm32Uart"*, i8)* @_ZN6Cicada9Stm32Uart8rawWriteEh to i8*), i8* bitcast (void (%"class.Cicada::Stm32Uart"*)* @_ZN6Cicada9Stm32Uart13startTransmitEv to i8*)], [12 x i8*] [i8* inttoptr (i32 -4 to i8*), i8* bitcast ({ i8*, i8*, i8* }* @_ZTIN6Cicada9Stm32UartE to i8*), i8* bitcast (%"class.Cicada::Stm32Uart"* (%"class.Cicada::Stm32Uart"*)* @_ZThn4_N6Cicada9Stm32UartD1Ev to i8*), i8* bitcast (void (%"class.Cicada::Stm32Uart"*)* @_ZThn4_N6Cicada9Stm32UartD0Ev to i8*), i8* bitcast (i1 (%"class.Cicada::Stm32Uart"*)* @_ZThn4_N6Cicada9Stm32Uart4openEv to i8*), i8* bitcast (i1 (%"class.Cicada::Stm32Uart"*)* @_ZThn4_N6Cicada9Stm32Uart6isOpenEv to i8*), i8* bitcast (i1 (%"class.Cicada::Stm32Uart"*, i32, i8)* @_ZThn4_N6Cicada9Stm32Uart15setSerialConfigEjh to i8*), i8* bitcast (void (%"class.Cicada::Stm32Uart"*)* @_ZThn4_N6Cicada9Stm32Uart5closeEv to i8*), i8* bitcast (i8* (%"class.Cicada::Stm32Uart"*)* @_ZThn4_NK6Cicada9Stm32Uart8portNameEv to i8*), i8* bitcast (i1 (%"class.Cicada::Stm32Uart"*, i8*)* @_ZThn4_N6Cicada9Stm32Uart7rawReadERh to i8*), i8* bitcast (i1 (%"class.Cicada::Stm32Uart"*, i8)* @_ZThn4_N6Cicada9Stm32Uart8rawWriteEh to i8*), i8* bitcast (void (%"class.Cicada::Stm32Uart"*)* @_ZThn4_N6Cicada9Stm32Uart13startTransmitEv to i8*)] }, align 4
@_ZTSN6Cicada9Stm32UartE = dso_local constant [20 x i8] c"N6Cicada9Stm32UartE\00", align 1
@_ZTIN6Cicada9Stm32UartE = dso_local constant { i8*, i8*, i8* } { i8* bitcast (i8** getelementptr inbounds (i8*, i8** @_ZTVN10__cxxabiv120__si_class_type_infoE, i32 2) to i8*), i8* getelementptr inbounds ([20 x i8], [20 x i8]* @_ZTSN6Cicada9Stm32UartE, i32 0, i32 0), i8* bitcast ({ i8*, i8*, i8* }* @_ZTIN6Cicada14BufferedSerialE to i8*) }, align 4
@_ZTVN6Cicada14BufferedSerialE = dso_local unnamed_addr constant { [17 x i8*], [12 x i8*] } { [17 x i8*] [i8* null, i8* bitcast ({ i8*, i8*, i8* }* @_ZTIN6Cicada14BufferedSerialE to i8*), i8* bitcast (%"class.Cicada::BufferedSerial"* (%"class.Cicada::BufferedSerial"*)* @_ZN6Cicada14BufferedSerialD2Ev to i8*), i8* bitcast (void (%"class.Cicada::BufferedSerial"*)* @_ZN6Cicada14BufferedSerialD0Ev to i8*), i8* bitcast (i64 (%"class.Cicada::BufferedSerial"*)* @_ZNK6Cicada14BufferedSerial14bytesAvailableEv to i8*), i8* bitcast (i64 (%"class.Cicada::BufferedSerial"*)* @_ZNK6Cicada14BufferedSerial14spaceAvailableEv to i8*), i8* bitcast (void ()* @__cxa_pure_virtual to i8*), i8* bitcast (i64 (%"class.Cicada::BufferedSerial"*, i8*, i64)* @_ZN6Cicada14BufferedSerial4readEPhy to i8*), i8* bitcast (i64 (%"class.Cicada::BufferedSerial"*, i8*, i64)* @_ZN6Cicada14BufferedSerial5writeEPKhy to i8*), i8* bitcast (i8 (%"class.Cicada::BufferedSerial"*)* @_ZN6Cicada14BufferedSerial4readEv to i8*), i8* bitcast (i64 (%"class.Cicada::BufferedSerial"*, i8*)* @_ZN6Cicada14BufferedSerial5writeEPKh to i8*), i8* bitcast (void (%"class.Cicada::BufferedSerial"*, i8)* @_ZN6Cicada14BufferedSerial5writeEh to i8*), i8* bitcast (i1 (%"class.Cicada::BufferedSerial"*)* @_ZNK6Cicada14BufferedSerial11canReadLineEv to i8*), i8* bitcast (i64 (%"class.Cicada::BufferedSerial"*, i8*, i64)* @_ZN6Cicada14BufferedSerial8readLineEPhy to i8*), i8* bitcast (void (%"class.Cicada::BufferedSerial"*)* @_ZN6Cicada14BufferedSerial19flushReceiveBuffersEv to i8*), i8* bitcast (i64 (%"class.Cicada::BufferedSerial"*)* @_ZN6Cicada14BufferedSerial14readBufferSizeEv to i8*), i8* bitcast (i64 (%"class.Cicada::BufferedSerial"*)* @_ZN6Cicada14BufferedSerial15writeBufferSizeEv to i8*)], [12 x i8*] [i8* inttoptr (i32 -4 to i8*), i8* bitcast ({ i8*, i8*, i8* }* @_ZTIN6Cicada14BufferedSerialE to i8*), i8* bitcast (%"class.Cicada::BufferedSerial"* (%"class.Cicada::BufferedSerial"*)* @_ZThn4_N6Cicada14BufferedSerialD1Ev to i8*), i8* bitcast (void (%"class.Cicada::BufferedSerial"*)* @_ZThn4_N6Cicada14BufferedSerialD0Ev to i8*), i8* bitcast (void ()* @__cxa_pure_virtual to i8*), i8* bitcast (void ()* @__cxa_pure_virtual to i8*), i8* bitcast (void ()* @__cxa_pure_virtual to i8*), i8* bitcast (void ()* @__cxa_pure_virtual to i8*), i8* bitcast (void ()* @__cxa_pure_virtual to i8*), i8* bitcast (void ()* @__cxa_pure_virtual to i8*), i8* bitcast (void ()* @__cxa_pure_virtual to i8*), i8* bitcast (void ()* @__cxa_pure_virtual to i8*)] }, align 4
@_ZTVN10__cxxabiv120__si_class_type_infoE = external dso_local global i8*
@_ZTSN6Cicada14BufferedSerialE = dso_local constant [26 x i8] c"N6Cicada14BufferedSerialE\00", align 1
@_ZTVN10__cxxabiv121__vmi_class_type_infoE = external dso_local global i8*
@_ZTSN6Cicada15IBufferedSerialE = linkonce_odr dso_local constant [27 x i8] c"N6Cicada15IBufferedSerialE\00", comdat, align 1
@_ZTVN10__cxxabiv117__class_type_infoE = external dso_local global i8*
@_ZTSN6Cicada11ICommDeviceE = linkonce_odr dso_local constant [23 x i8] c"N6Cicada11ICommDeviceE\00", comdat, align 1
@_ZTIN6Cicada11ICommDeviceE = linkonce_odr dso_local constant { i8*, i8* } { i8* bitcast (i8** getelementptr inbounds (i8*, i8** @_ZTVN10__cxxabiv117__class_type_infoE, i32 2) to i8*), i8* getelementptr inbounds ([23 x i8], [23 x i8]* @_ZTSN6Cicada11ICommDeviceE, i32 0, i32 0) }, comdat, align 4
@_ZTSN6Cicada7ISerialE = linkonce_odr dso_local constant [18 x i8] c"N6Cicada7ISerialE\00", comdat, align 1
@_ZTIN6Cicada7ISerialE = linkonce_odr dso_local constant { i8*, i8* } { i8* bitcast (i8** getelementptr inbounds (i8*, i8** @_ZTVN10__cxxabiv117__class_type_infoE, i32 2) to i8*), i8* getelementptr inbounds ([18 x i8], [18 x i8]* @_ZTSN6Cicada7ISerialE, i32 0, i32 0) }, comdat, align 4
@_ZTIN6Cicada15IBufferedSerialE = linkonce_odr dso_local constant { i8*, i8*, i32, i32, i8*, i32, i8*, i32 } { i8* bitcast (i8** getelementptr inbounds (i8*, i8** @_ZTVN10__cxxabiv121__vmi_class_type_infoE, i32 2) to i8*), i8* getelementptr inbounds ([27 x i8], [27 x i8]* @_ZTSN6Cicada15IBufferedSerialE, i32 0, i32 0), i32 0, i32 2, i8* bitcast ({ i8*, i8* }* @_ZTIN6Cicada11ICommDeviceE to i8*), i32 2, i8* bitcast ({ i8*, i8* }* @_ZTIN6Cicada7ISerialE to i8*), i32 1026 }, comdat, align 4
@_ZTIN6Cicada14BufferedSerialE = dso_local constant { i8*, i8*, i8* } { i8* bitcast (i8** getelementptr inbounds (i8*, i8** @_ZTVN10__cxxabiv120__si_class_type_infoE, i32 2) to i8*), i8* getelementptr inbounds ([26 x i8], [26 x i8]* @_ZTSN6Cicada14BufferedSerialE, i32 0, i32 0), i8* bitcast ({ i8*, i8*, i32, i32, i8*, i32, i8*, i32 }* @_ZTIN6Cicada15IBufferedSerialE to i8*) }, align 4
@_ZTVN6Cicada15IBufferedSerialE = linkonce_odr dso_local unnamed_addr constant { [17 x i8*], [12 x i8*] } { [17 x i8*] [i8* null, i8* bitcast ({ i8*, i8*, i32, i32, i8*, i32, i8*, i32 }* @_ZTIN6Cicada15IBufferedSerialE to i8*), i8* bitcast (%"class.Cicada::IBufferedSerial"* (%"class.Cicada::IBufferedSerial"*)* @_ZN6Cicada15IBufferedSerialD2Ev to i8*), i8* bitcast (void (%"class.Cicada::IBufferedSerial"*)* @_ZN6Cicada15IBufferedSerialD0Ev to i8*), i8* bitcast (void ()* @__cxa_pure_virtual to i8*), i8* bitcast (void ()* @__cxa_pure_virtual to i8*), i8* bitcast (void ()* @__cxa_pure_virtual to i8*), i8* bitcast (void ()* @__cxa_pure_virtual to i8*), i8* bitcast (void ()* @__cxa_pure_virtual to i8*), i8* bitcast (void ()* @__cxa_pure_virtual to i8*), i8* bitcast (void ()* @__cxa_pure_virtual to i8*), i8* bitcast (void ()* @__cxa_pure_virtual to i8*), i8* bitcast (void ()* @__cxa_pure_virtual to i8*), i8* bitcast (void ()* @__cxa_pure_virtual to i8*), i8* bitcast (void ()* @__cxa_pure_virtual to i8*), i8* bitcast (void ()* @__cxa_pure_virtual to i8*), i8* bitcast (void ()* @__cxa_pure_virtual to i8*)], [12 x i8*] [i8* inttoptr (i32 -4 to i8*), i8* bitcast ({ i8*, i8*, i32, i32, i8*, i32, i8*, i32 }* @_ZTIN6Cicada15IBufferedSerialE to i8*), i8* bitcast (%"class.Cicada::IBufferedSerial"* (%"class.Cicada::IBufferedSerial"*)* @_ZThn4_N6Cicada15IBufferedSerialD1Ev to i8*), i8* bitcast (void (%"class.Cicada::IBufferedSerial"*)* @_ZThn4_N6Cicada15IBufferedSerialD0Ev to i8*), i8* bitcast (void ()* @__cxa_pure_virtual to i8*), i8* bitcast (void ()* @__cxa_pure_virtual to i8*), i8* bitcast (void ()* @__cxa_pure_virtual to i8*), i8* bitcast (void ()* @__cxa_pure_virtual to i8*), i8* bitcast (void ()* @__cxa_pure_virtual to i8*), i8* bitcast (void ()* @__cxa_pure_virtual to i8*), i8* bitcast (void ()* @__cxa_pure_virtual to i8*), i8* bitcast (void ()* @__cxa_pure_virtual to i8*)] }, comdat, align 4
@_ZTVN6Cicada11ICommDeviceE = linkonce_odr dso_local unnamed_addr constant { [9 x i8*] } { [9 x i8*] [i8* null, i8* bitcast ({ i8*, i8* }* @_ZTIN6Cicada11ICommDeviceE to i8*), i8* bitcast (%"class.Cicada::ICommDevice"* (%"class.Cicada::ICommDevice"*)* @_ZN6Cicada11ICommDeviceD2Ev to i8*), i8* bitcast (void (%"class.Cicada::ICommDevice"*)* @_ZN6Cicada11ICommDeviceD0Ev to i8*), i8* bitcast (void ()* @__cxa_pure_virtual to i8*), i8* bitcast (void ()* @__cxa_pure_virtual to i8*), i8* bitcast (void ()* @__cxa_pure_virtual to i8*), i8* bitcast (void ()* @__cxa_pure_virtual to i8*), i8* bitcast (void ()* @__cxa_pure_virtual to i8*)] }, comdat, align 4
@_ZTVN6Cicada7ISerialE = linkonce_odr dso_local unnamed_addr constant { [12 x i8*] } { [12 x i8*] [i8* null, i8* bitcast ({ i8*, i8* }* @_ZTIN6Cicada7ISerialE to i8*), i8* bitcast (%"class.Cicada::ICommDevice"* (%"class.Cicada::ICommDevice"*)* @_ZN6Cicada7ISerialD2Ev to i8*), i8* bitcast (void (%"class.Cicada::ICommDevice"*)* @_ZN6Cicada7ISerialD0Ev to i8*), i8* bitcast (void ()* @__cxa_pure_virtual to i8*), i8* bitcast (void ()* @__cxa_pure_virtual to i8*), i8* bitcast (void ()* @__cxa_pure_virtual to i8*), i8* bitcast (void ()* @__cxa_pure_virtual to i8*), i8* bitcast (void ()* @__cxa_pure_virtual to i8*), i8* bitcast (void ()* @__cxa_pure_virtual to i8*), i8* bitcast (void ()* @__cxa_pure_virtual to i8*), i8* bitcast (void ()* @__cxa_pure_virtual to i8*)] }, comdat, align 4
@_ZTVN6Cicada18LineCircularBufferE = linkonce_odr dso_local unnamed_addr constant { [15 x i8*] } { [15 x i8*] [i8* null, i8* bitcast ({ i8*, i8*, i8* }* @_ZTIN6Cicada18LineCircularBufferE to i8*), i8* bitcast (%"class.Cicada::CircularBuffer.0"* (%"class.Cicada::CircularBuffer.0"*)* @_ZN6Cicada14CircularBufferIcED2Ev to i8*), i8* bitcast (void (%"class.Cicada::LineCircularBuffer"*)* @_ZN6Cicada18LineCircularBufferD0Ev to i8*), i8* bitcast (i64 (%"class.Cicada::LineCircularBuffer"*, i8*, i64)* @_ZN6Cicada18LineCircularBuffer4pushEPKcy to i8*), i8* bitcast (void (%"class.Cicada::LineCircularBuffer"*, i8)* @_ZN6Cicada18LineCircularBuffer4pushEc to i8*), i8* bitcast (i64 (%"class.Cicada::LineCircularBuffer"*, i8*, i64)* @_ZN6Cicada18LineCircularBuffer4pullEPcy to i8*), i8* bitcast (i8 (%"class.Cicada::LineCircularBuffer"*)* @_ZN6Cicada18LineCircularBuffer4pullEv to i8*), i8* bitcast (i8 (%"class.Cicada::CircularBuffer.0"*)* @_ZN6Cicada14CircularBufferIcE4readEv to i8*), i8* bitcast (void (%"class.Cicada::LineCircularBuffer"*)* @_ZN6Cicada18LineCircularBuffer5flushEv to i8*), i8* bitcast (i1 (%"class.Cicada::CircularBuffer.0"*)* @_ZNK6Cicada14CircularBufferIcE7isEmptyEv to i8*), i8* bitcast (i1 (%"class.Cicada::CircularBuffer.0"*)* @_ZNK6Cicada14CircularBufferIcE6isFullEv to i8*), i8* bitcast (i64 (%"class.Cicada::CircularBuffer.0"*)* @_ZNK6Cicada14CircularBufferIcE14bytesAvailableEv to i8*), i8* bitcast (i64 (%"class.Cicada::CircularBuffer.0"*)* @_ZNK6Cicada14CircularBufferIcE14spaceAvailableEv to i8*), i8* bitcast (i64 (%"class.Cicada::CircularBuffer.0"*)* @_ZNK6Cicada14CircularBufferIcE4sizeEv to i8*)] }, comdat, align 4
@_ZTSN6Cicada18LineCircularBufferE = linkonce_odr dso_local constant [30 x i8] c"N6Cicada18LineCircularBufferE\00", comdat, align 1
@_ZTSN6Cicada14CircularBufferIcEE = linkonce_odr dso_local constant [29 x i8] c"N6Cicada14CircularBufferIcEE\00", comdat, align 1
@_ZTIN6Cicada14CircularBufferIcEE = linkonce_odr dso_local constant { i8*, i8* } { i8* bitcast (i8** getelementptr inbounds (i8*, i8** @_ZTVN10__cxxabiv117__class_type_infoE, i32 2) to i8*), i8* getelementptr inbounds ([29 x i8], [29 x i8]* @_ZTSN6Cicada14CircularBufferIcEE, i32 0, i32 0) }, comdat, align 4
@_ZTIN6Cicada18LineCircularBufferE = linkonce_odr dso_local constant { i8*, i8*, i8* } { i8* bitcast (i8** getelementptr inbounds (i8*, i8** @_ZTVN10__cxxabiv120__si_class_type_infoE, i32 2) to i8*), i8* getelementptr inbounds ([30 x i8], [30 x i8]* @_ZTSN6Cicada18LineCircularBufferE, i32 0, i32 0), i8* bitcast ({ i8*, i8* }* @_ZTIN6Cicada14CircularBufferIcEE to i8*) }, comdat, align 4
@_ZTVN6Cicada14CircularBufferIcEE = linkonce_odr dso_local unnamed_addr constant { [15 x i8*] } { [15 x i8*] [i8* null, i8* bitcast ({ i8*, i8* }* @_ZTIN6Cicada14CircularBufferIcEE to i8*), i8* bitcast (%"class.Cicada::CircularBuffer.0"* (%"class.Cicada::CircularBuffer.0"*)* @_ZN6Cicada14CircularBufferIcED2Ev to i8*), i8* bitcast (void (%"class.Cicada::CircularBuffer.0"*)* @_ZN6Cicada14CircularBufferIcED0Ev to i8*), i8* bitcast (i64 (%"class.Cicada::CircularBuffer.0"*, i8*, i64)* @_ZN6Cicada14CircularBufferIcE4pushEPKcy to i8*), i8* bitcast (void (%"class.Cicada::CircularBuffer.0"*, i8)* @_ZN6Cicada14CircularBufferIcE4pushEc to i8*), i8* bitcast (i64 (%"class.Cicada::CircularBuffer.0"*, i8*, i64)* @_ZN6Cicada14CircularBufferIcE4pullEPcy to i8*), i8* bitcast (i8 (%"class.Cicada::CircularBuffer.0"*)* @_ZN6Cicada14CircularBufferIcE4pullEv to i8*), i8* bitcast (i8 (%"class.Cicada::CircularBuffer.0"*)* @_ZN6Cicada14CircularBufferIcE4readEv to i8*), i8* bitcast (void (%"class.Cicada::CircularBuffer.0"*)* @_ZN6Cicada14CircularBufferIcE5flushEv to i8*), i8* bitcast (i1 (%"class.Cicada::CircularBuffer.0"*)* @_ZNK6Cicada14CircularBufferIcE7isEmptyEv to i8*), i8* bitcast (i1 (%"class.Cicada::CircularBuffer.0"*)* @_ZNK6Cicada14CircularBufferIcE6isFullEv to i8*), i8* bitcast (i64 (%"class.Cicada::CircularBuffer.0"*)* @_ZNK6Cicada14CircularBufferIcE14bytesAvailableEv to i8*), i8* bitcast (i64 (%"class.Cicada::CircularBuffer.0"*)* @_ZNK6Cicada14CircularBufferIcE14spaceAvailableEv to i8*), i8* bitcast (i64 (%"class.Cicada::CircularBuffer.0"*)* @_ZNK6Cicada14CircularBufferIcE4sizeEv to i8*)] }, comdat, align 4

@_ZN6Cicada17Sim7x00CommDeviceC1ERNS_15IBufferedSerialEPhS3_y = dso_local unnamed_addr alias %"class.Cicada::Sim7x00CommDevice"* (%"class.Cicada::Sim7x00CommDevice"*, %"class.Cicada::IBufferedSerial"*, i8*, i8*, i64), %"class.Cicada::Sim7x00CommDevice"* (%"class.Cicada::Sim7x00CommDevice"*, %"class.Cicada::IBufferedSerial"*, i8*, i8*, i64)* @_ZN6Cicada17Sim7x00CommDeviceC2ERNS_15IBufferedSerialEPhS3_y
@_ZN6Cicada17Sim7x00CommDeviceC1ERNS_15IBufferedSerialEPhS3_yy = dso_local unnamed_addr alias %"class.Cicada::Sim7x00CommDevice"* (%"class.Cicada::Sim7x00CommDevice"*, %"class.Cicada::IBufferedSerial"*, i8*, i8*, i64, i64), %"class.Cicada::Sim7x00CommDevice"* (%"class.Cicada::Sim7x00CommDevice"*, %"class.Cicada::IBufferedSerial"*, i8*, i8*, i64, i64)* @_ZN6Cicada17Sim7x00CommDeviceC2ERNS_15IBufferedSerialEPhS3_yy
@_ZN6Cicada9SchedulerC1EPFjvEPPNS_4TaskE = dso_local unnamed_addr alias %"class.Cicada::Scheduler"* (%"class.Cicada::Scheduler"*, i32 ()*, %"class.Cicada::Task"**), %"class.Cicada::Scheduler"* (%"class.Cicada::Scheduler"*, i32 ()*, %"class.Cicada::Task"**)* @_ZN6Cicada9SchedulerC2EPFjvEPPNS_4TaskE
@_ZN6Cicada9Stm32UartC1EPcS1_yyP13USART_TypeDefP12GPIO_TypeDeftt = dso_local unnamed_addr alias %"class.Cicada::Stm32Uart"* (%"class.Cicada::Stm32Uart"*, i8*, i8*, i64, i64, %struct.USART_TypeDef*, %struct.USART_TypeDef*, i16, i16), %"class.Cicada::Stm32Uart"* (%"class.Cicada::Stm32Uart"*, i8*, i8*, i64, i64, %struct.USART_TypeDef*, %struct.USART_TypeDef*, i16, i16)* @_ZN6Cicada9Stm32UartC2EPcS1_yyP13USART_TypeDefP12GPIO_TypeDeftt
@_ZN6Cicada9Stm32UartC1EPcS1_yP13USART_TypeDefP12GPIO_TypeDeftt = dso_local unnamed_addr alias %"class.Cicada::Stm32Uart"* (%"class.Cicada::Stm32Uart"*, i8*, i8*, i64, %struct.USART_TypeDef*, %struct.USART_TypeDef*, i16, i16), %"class.Cicada::Stm32Uart"* (%"class.Cicada::Stm32Uart"*, i8*, i8*, i64, %struct.USART_TypeDef*, %struct.USART_TypeDef*, i16, i16)* @_ZN6Cicada9Stm32UartC2EPcS1_yP13USART_TypeDefP12GPIO_TypeDeftt
@_ZN6Cicada9Stm32UartD1Ev = dso_local unnamed_addr alias %"class.Cicada::Stm32Uart"* (%"class.Cicada::Stm32Uart"*), %"class.Cicada::Stm32Uart"* (%"class.Cicada::Stm32Uart"*)* @_ZN6Cicada9Stm32UartD2Ev

; Function Attrs: mustprogress nofree noinline nosync nounwind readnone willreturn
define dso_local noundef i32 @_Z8byteSwapj(i32 noundef %0) local_unnamed_addr #0 !dbg !2164 {
  call void @llvm.dbg.value(metadata i32 %0, metadata !2168, metadata !DIExpression()), !dbg !2170
  call void @llvm.dbg.value(metadata i32 %0, metadata !2169, metadata !DIExpression(DW_OP_constu, 24, DW_OP_shl, DW_OP_stack_value)), !dbg !2170
  call void @llvm.dbg.value(metadata i32 undef, metadata !2169, metadata !DIExpression()), !dbg !2170
  call void @llvm.dbg.value(metadata i32 undef, metadata !2169, metadata !DIExpression()), !dbg !2170
  %2 = call i32 @llvm.bswap.i32(i32 %0), !dbg !2171
  call void @llvm.dbg.value(metadata i32 %2, metadata !2169, metadata !DIExpression()), !dbg !2170
  ret i32 %2, !dbg !2172
}

; Function Attrs: nofree nosync nounwind readnone speculatable willreturn
declare void @llvm.dbg.value(metadata, metadata, metadata) #1

; Function Attrs: nofree nosync nounwind readnone speculatable willreturn
declare i32 @llvm.bswap.i32(i32) #1

; Function Attrs: mustprogress noinline norecurse nounwind
define dso_local noundef i32 @main(i32 noundef %0, i8** nocapture noundef readnone %1) local_unnamed_addr #2 !dbg !2173 {
  %3 = alloca [1504 x i8], align 1
  %4 = alloca [1504 x i8], align 1
  %5 = alloca %"class.Cicada::Stm32Uart", align 8
  %6 = alloca [1504 x i8], align 1
  %7 = alloca [1504 x i8], align 1
  %8 = alloca %"class.Cicada::Stm32Uart", align 8
  %9 = alloca [1200 x i8], align 1
  %10 = alloca [1200 x i8], align 1
  %11 = alloca %"class.Cicada::Sim7x00CommDevice", align 8
  %12 = alloca %class.NTPTask, align 4
  %13 = alloca [3 x %"class.Cicada::Task"*], align 4
  %14 = alloca %"class.Cicada::Scheduler", align 4
  call void @llvm.dbg.value(metadata i32 %0, metadata !2177, metadata !DIExpression()), !dbg !2201
  call void @llvm.dbg.value(metadata i8** %1, metadata !2178, metadata !DIExpression()), !dbg !2201
  %15 = call i32 @HAL_Init() #33, !dbg !2202
  call fastcc void @_ZL18SystemClock_Configv(), !dbg !2203
  call void @HAL_Delay(i32 noundef 2000) #33, !dbg !2204
  call void @llvm.dbg.value(metadata i16 1504, metadata !2179, metadata !DIExpression()), !dbg !2201
  %16 = getelementptr inbounds [1504 x i8], [1504 x i8]* %3, i32 0, i32 0, !dbg !2205
  call void @llvm.lifetime.start.p0i8(i64 1504, i8* nonnull %16) #33, !dbg !2205
  call void @llvm.dbg.declare(metadata [1504 x i8]* %3, metadata !2180, metadata !DIExpression()), !dbg !2206
  %17 = getelementptr inbounds [1504 x i8], [1504 x i8]* %4, i32 0, i32 0, !dbg !2207
  call void @llvm.lifetime.start.p0i8(i64 1504, i8* nonnull %17) #33, !dbg !2207
  call void @llvm.dbg.declare(metadata [1504 x i8]* %4, metadata !2184, metadata !DIExpression()), !dbg !2208
  %18 = bitcast %"class.Cicada::Stm32Uart"* %5 to i8*, !dbg !2209
  call void @llvm.lifetime.start.p0i8(i64 192, i8* nonnull %18) #33, !dbg !2209
  call void @llvm.dbg.declare(metadata %"class.Cicada::Stm32Uart"* %5, metadata !2185, metadata !DIExpression()), !dbg !2210
  %19 = call noundef %"class.Cicada::Stm32Uart"* @_ZN6Cicada9Stm32UartC1EPcS1_yP13USART_TypeDefP12GPIO_TypeDeftt(%"class.Cicada::Stm32Uart"* noundef nonnull align 8 dereferenceable(192) %5, i8* noundef nonnull %16, i8* noundef nonnull %17, i64 noundef 1504, %struct.USART_TypeDef* noundef nonnull inttoptr (i32 1073759232 to %struct.USART_TypeDef*), %struct.USART_TypeDef* noundef nonnull inttoptr (i32 1073809408 to %struct.USART_TypeDef*), i16 noundef zeroext 4, i16 noundef zeroext 8) #33, !dbg !2210
  %20 = getelementptr inbounds [1504 x i8], [1504 x i8]* %6, i32 0, i32 0, !dbg !2211
  call void @llvm.lifetime.start.p0i8(i64 1504, i8* nonnull %20) #33, !dbg !2211
  call void @llvm.dbg.declare(metadata [1504 x i8]* %6, metadata !2186, metadata !DIExpression()), !dbg !2212
  %21 = getelementptr inbounds [1504 x i8], [1504 x i8]* %7, i32 0, i32 0, !dbg !2213
  call void @llvm.lifetime.start.p0i8(i64 1504, i8* nonnull %21) #33, !dbg !2213
  call void @llvm.dbg.declare(metadata [1504 x i8]* %7, metadata !2187, metadata !DIExpression()), !dbg !2214
  %22 = bitcast %"class.Cicada::Stm32Uart"* %8 to i8*, !dbg !2215
  call void @llvm.lifetime.start.p0i8(i64 192, i8* nonnull %22) #33, !dbg !2215
  call void @llvm.dbg.declare(metadata %"class.Cicada::Stm32Uart"* %8, metadata !2188, metadata !DIExpression()), !dbg !2216
  %23 = call noundef %"class.Cicada::Stm32Uart"* @_ZN6Cicada9Stm32UartC1EPcS1_yP13USART_TypeDefP12GPIO_TypeDeftt(%"class.Cicada::Stm32Uart"* noundef nonnull align 8 dereferenceable(192) %8, i8* noundef nonnull %20, i8* noundef nonnull %21, i64 noundef 1504, %struct.USART_TypeDef* noundef nonnull inttoptr (i32 1073821696 to %struct.USART_TypeDef*), %struct.USART_TypeDef* noundef nonnull inttoptr (i32 1073809408 to %struct.USART_TypeDef*), i16 noundef zeroext 512, i16 noundef zeroext 1024) #33, !dbg !2216
  call void @llvm.dbg.value(metadata i16 1200, metadata !2189, metadata !DIExpression()), !dbg !2201
  %24 = getelementptr inbounds [1200 x i8], [1200 x i8]* %9, i32 0, i32 0, !dbg !2217
  call void @llvm.lifetime.start.p0i8(i64 1200, i8* nonnull %24) #33, !dbg !2217
  call void @llvm.dbg.declare(metadata [1200 x i8]* %9, metadata !2190, metadata !DIExpression()), !dbg !2218
  %25 = getelementptr inbounds [1200 x i8], [1200 x i8]* %10, i32 0, i32 0, !dbg !2219
  call void @llvm.lifetime.start.p0i8(i64 1200, i8* nonnull %25) #33, !dbg !2219
  call void @llvm.dbg.declare(metadata [1200 x i8]* %10, metadata !2194, metadata !DIExpression()), !dbg !2220
  %26 = bitcast %"class.Cicada::Sim7x00CommDevice"* %11 to i8*, !dbg !2221
  call void @llvm.lifetime.start.p0i8(i64 288, i8* nonnull %26) #33, !dbg !2221
  call void @llvm.dbg.declare(metadata %"class.Cicada::Sim7x00CommDevice"* %11, metadata !2195, metadata !DIExpression()), !dbg !2222
  %27 = getelementptr inbounds %"class.Cicada::Stm32Uart", %"class.Cicada::Stm32Uart"* %8, i32 0, i32 0, i32 0, !dbg !2223
  %28 = call noundef %"class.Cicada::Sim7x00CommDevice"* @_ZN6Cicada17Sim7x00CommDeviceC1ERNS_15IBufferedSerialEPhS3_y(%"class.Cicada::Sim7x00CommDevice"* noundef nonnull align 8 dereferenceable(284) %11, %"class.Cicada::IBufferedSerial"* noundef nonnull align 4 dereferenceable(8) %27, i8* noundef nonnull %24, i8* noundef nonnull %25, i64 noundef 1200) #33, !dbg !2222
  %29 = bitcast %class.NTPTask* %12 to i8*, !dbg !2224
  call void @llvm.lifetime.start.p0i8(i64 72, i8* nonnull %29) #33, !dbg !2224
  call void @llvm.dbg.declare(metadata %class.NTPTask* %12, metadata !2197, metadata !DIExpression()), !dbg !2225
  %30 = getelementptr inbounds %"class.Cicada::Sim7x00CommDevice", %"class.Cicada::Sim7x00CommDevice"* %11, i32 0, i32 0, !dbg !2226
  %31 = call noundef %class.NTPTask* @_ZN7NTPTaskC2ERN6Cicada13SimCommDeviceE(%class.NTPTask* noundef nonnull align 4 dereferenceable(72) %12, %"class.Cicada::SimCommDevice"* noundef nonnull align 8 dereferenceable(280) %30), !dbg !2225
  %32 = bitcast [3 x %"class.Cicada::Task"*]* %13 to i8*, !dbg !2227
  call void @llvm.lifetime.start.p0i8(i64 12, i8* nonnull %32) #33, !dbg !2227
  call void @llvm.dbg.declare(metadata [3 x %"class.Cicada::Task"*]* %13, metadata !2198, metadata !DIExpression()), !dbg !2228
  %33 = getelementptr inbounds [3 x %"class.Cicada::Task"*], [3 x %"class.Cicada::Task"*]* %13, i32 0, i32 0, !dbg !2229
  %34 = getelementptr inbounds %class.NTPTask, %class.NTPTask* %12, i32 0, i32 0, !dbg !2230
  store %"class.Cicada::Task"* %34, %"class.Cicada::Task"** %33, align 4, !dbg !2229, !tbaa !2231
  %35 = getelementptr inbounds [3 x %"class.Cicada::Task"*], [3 x %"class.Cicada::Task"*]* %13, i32 0, i32 1, !dbg !2229
  %36 = getelementptr inbounds %"class.Cicada::Sim7x00CommDevice", %"class.Cicada::Sim7x00CommDevice"* %11, i32 0, i32 0, i32 0, i32 0, i32 1, !dbg !2235
  store %"class.Cicada::Task"* %36, %"class.Cicada::Task"** %35, align 4, !dbg !2229, !tbaa !2231
  %37 = getelementptr inbounds [3 x %"class.Cicada::Task"*], [3 x %"class.Cicada::Task"*]* %13, i32 0, i32 2, !dbg !2229
  store %"class.Cicada::Task"* null, %"class.Cicada::Task"** %37, align 4, !dbg !2229, !tbaa !2231
  %38 = bitcast %"class.Cicada::Scheduler"* %14 to i8*, !dbg !2236
  call void @llvm.lifetime.start.p0i8(i64 12, i8* nonnull %38) #33, !dbg !2236
  call void @llvm.dbg.declare(metadata %"class.Cicada::Scheduler"* %14, metadata !2200, metadata !DIExpression()), !dbg !2237
  %39 = call noundef %"class.Cicada::Scheduler"* @_ZN6Cicada9SchedulerC1EPFjvEPPNS_4TaskE(%"class.Cicada::Scheduler"* noundef nonnull align 4 dereferenceable(12) %14, i32 ()* noundef nonnull @_Z13eTickFunctionv, %"class.Cicada::Task"** noundef nonnull %33) #33, !dbg !2237
  %40 = call noundef zeroext i1 @_ZN6Cicada9Stm32Uart4openEv(%"class.Cicada::Stm32Uart"* noundef nonnull align 8 dereferenceable(192) %5) #33, !dbg !2238
  call void @_ZN6Cicada9Scheduler5startEv(%"class.Cicada::Scheduler"* noundef nonnull align 4 dereferenceable(12) %14) #33, !dbg !2239
  call void @llvm.lifetime.end.p0i8(i64 12, i8* nonnull %38) #33, !dbg !2240
  call void @llvm.lifetime.end.p0i8(i64 12, i8* nonnull %32) #33, !dbg !2240
  %41 = call noundef %"class.Cicada::Task"* @_ZN6Cicada4TaskD2Ev(%"class.Cicada::Task"* noundef nonnull align 4 dereferenceable(72) %34) #33, !dbg !2240
  call void @llvm.lifetime.end.p0i8(i64 72, i8* nonnull %29) #33, !dbg !2240
  %42 = bitcast %"class.Cicada::Sim7x00CommDevice"* %11 to %"class.Cicada::IPCommDevice"*, !dbg !2240
  %43 = call noundef %"class.Cicada::IPCommDevice"* @_ZN6Cicada12IPCommDeviceD2Ev(%"class.Cicada::IPCommDevice"* noundef nonnull align 8 dereferenceable(284) %42) #33, !dbg !2240
  call void @llvm.lifetime.end.p0i8(i64 288, i8* nonnull %26) #33, !dbg !2240
  call void @llvm.lifetime.end.p0i8(i64 1200, i8* nonnull %25) #33, !dbg !2240
  call void @llvm.lifetime.end.p0i8(i64 1200, i8* nonnull %24) #33, !dbg !2240
  %44 = call noundef %"class.Cicada::Stm32Uart"* @_ZN6Cicada9Stm32UartD1Ev(%"class.Cicada::Stm32Uart"* noundef nonnull align 8 dereferenceable(192) %8) #33, !dbg !2240
  call void @llvm.lifetime.end.p0i8(i64 192, i8* nonnull %22) #33, !dbg !2240
  call void @llvm.lifetime.end.p0i8(i64 1504, i8* nonnull %21) #33, !dbg !2240
  call void @llvm.lifetime.end.p0i8(i64 1504, i8* nonnull %20) #33, !dbg !2240
  %45 = call noundef %"class.Cicada::Stm32Uart"* @_ZN6Cicada9Stm32UartD1Ev(%"class.Cicada::Stm32Uart"* noundef nonnull align 8 dereferenceable(192) %5) #33, !dbg !2240
  call void @llvm.lifetime.end.p0i8(i64 192, i8* nonnull %18) #33, !dbg !2240
  call void @llvm.lifetime.end.p0i8(i64 1504, i8* nonnull %17) #33, !dbg !2240
  call void @llvm.lifetime.end.p0i8(i64 1504, i8* nonnull %16) #33, !dbg !2240
  ret i32 0, !dbg !2240
}

; Function Attrs: mustprogress noinline norecurse nounwind
define internal fastcc void @_ZL18SystemClock_Configv() unnamed_addr #2 !dbg !2241 {
  %1 = alloca %struct.RCC_OscInitTypeDef, align 4
  %2 = alloca %struct.RCC_ClkInitTypeDef, align 4
  %3 = bitcast %struct.RCC_OscInitTypeDef* %1 to i8*, !dbg !2272
  call void @llvm.lifetime.start.p0i8(i64 40, i8* nonnull %3) #33, !dbg !2272
  call void @llvm.dbg.declare(metadata %struct.RCC_OscInitTypeDef* %1, metadata !2243, metadata !DIExpression()), !dbg !2273
  call void @llvm.memset.p0i8.i32(i8* noundef nonnull align 4 dereferenceable(40) %3, i8 0, i32 40, i1 false), !dbg !2273
  %4 = bitcast %struct.RCC_ClkInitTypeDef* %2 to i8*, !dbg !2274
  call void @llvm.lifetime.start.p0i8(i64 20, i8* nonnull %4) #33, !dbg !2274
  call void @llvm.dbg.declare(metadata %struct.RCC_ClkInitTypeDef* %2, metadata !2263, metadata !DIExpression()), !dbg !2275
  call void @llvm.memset.p0i8.i32(i8* noundef nonnull align 4 dereferenceable(20) %4, i8 0, i32 20, i1 false), !dbg !2275
  %5 = getelementptr inbounds %struct.RCC_OscInitTypeDef, %struct.RCC_OscInitTypeDef* %1, i32 0, i32 0, !dbg !2276
  store i32 2, i32* %5, align 4, !dbg !2277, !tbaa !2278
  %6 = getelementptr inbounds %struct.RCC_OscInitTypeDef, %struct.RCC_OscInitTypeDef* %1, i32 0, i32 4, !dbg !2282
  store i32 1, i32* %6, align 4, !dbg !2283, !tbaa !2284
  %7 = getelementptr inbounds %struct.RCC_OscInitTypeDef, %struct.RCC_OscInitTypeDef* %1, i32 0, i32 5, !dbg !2285
  store i32 16, i32* %7, align 4, !dbg !2286, !tbaa !2287
  %8 = getelementptr inbounds %struct.RCC_OscInitTypeDef, %struct.RCC_OscInitTypeDef* %1, i32 0, i32 7, i32 0, !dbg !2288
  store i32 2, i32* %8, align 4, !dbg !2289, !tbaa !2290
  %9 = getelementptr inbounds %struct.RCC_OscInitTypeDef, %struct.RCC_OscInitTypeDef* %1, i32 0, i32 7, i32 1, !dbg !2291
  store i32 0, i32* %9, align 4, !dbg !2292, !tbaa !2293
  %10 = getelementptr inbounds %struct.RCC_OscInitTypeDef, %struct.RCC_OscInitTypeDef* %1, i32 0, i32 7, i32 2, !dbg !2294
  store i32 3670016, i32* %10, align 4, !dbg !2295, !tbaa !2296
  %11 = call i32 @HAL_RCC_OscConfig(%struct.RCC_OscInitTypeDef* noundef nonnull %1) #33, !dbg !2297
  %12 = getelementptr inbounds %struct.RCC_ClkInitTypeDef, %struct.RCC_ClkInitTypeDef* %2, i32 0, i32 0, !dbg !2298
  store i32 15, i32* %12, align 4, !dbg !2299, !tbaa !2300
  %13 = getelementptr inbounds %struct.RCC_ClkInitTypeDef, %struct.RCC_ClkInitTypeDef* %2, i32 0, i32 1, !dbg !2302
  store i32 2, i32* %13, align 4, !dbg !2303, !tbaa !2304
  %14 = getelementptr inbounds %struct.RCC_ClkInitTypeDef, %struct.RCC_ClkInitTypeDef* %2, i32 0, i32 2, !dbg !2305
  store i32 0, i32* %14, align 4, !dbg !2306, !tbaa !2307
  %15 = getelementptr inbounds %struct.RCC_ClkInitTypeDef, %struct.RCC_ClkInitTypeDef* %2, i32 0, i32 3, !dbg !2308
  store i32 1024, i32* %15, align 4, !dbg !2309, !tbaa !2310
  %16 = getelementptr inbounds %struct.RCC_ClkInitTypeDef, %struct.RCC_ClkInitTypeDef* %2, i32 0, i32 4, !dbg !2311
  store i32 0, i32* %16, align 4, !dbg !2312, !tbaa !2313
  %17 = call i32 @HAL_RCC_ClockConfig(%struct.RCC_ClkInitTypeDef* noundef nonnull %2, i32 noundef 2) #33, !dbg !2314
  call void @llvm.lifetime.end.p0i8(i64 20, i8* nonnull %4) #33, !dbg !2315
  call void @llvm.lifetime.end.p0i8(i64 40, i8* nonnull %3) #33, !dbg !2315
  ret void, !dbg !2315
}

; Function Attrs: argmemonly nofree nosync nounwind willreturn
declare void @llvm.lifetime.start.p0i8(i64 immarg, i8* nocapture) #3

; Function Attrs: nofree nosync nounwind readnone speculatable willreturn
declare void @llvm.dbg.declare(metadata, metadata, metadata) #1

; Function Attrs: noinline nounwind
define linkonce_odr dso_local noundef %class.NTPTask* @_ZN7NTPTaskC2ERN6Cicada13SimCommDeviceE(%class.NTPTask* noundef nonnull returned align 4 dereferenceable(72) %0, %"class.Cicada::SimCommDevice"* noundef nonnull align 8 dereferenceable(280) %1) unnamed_addr #4 comdat align 2 !dbg !2316 {
  call void @llvm.dbg.value(metadata %class.NTPTask* %0, metadata !2318, metadata !DIExpression()), !dbg !2320
  call void @llvm.dbg.value(metadata %"class.Cicada::SimCommDevice"* %1, metadata !2319, metadata !DIExpression()), !dbg !2320
  %3 = getelementptr inbounds %class.NTPTask, %class.NTPTask* %0, i32 0, i32 0, !dbg !2321
  %4 = call noundef %"class.Cicada::Task"* @_ZN6Cicada4TaskC2Et(%"class.Cicada::Task"* noundef nonnull align 4 dereferenceable(20) %3, i16 noundef zeroext 0), !dbg !2322
  %5 = getelementptr inbounds %class.NTPTask, %class.NTPTask* %0, i32 0, i32 0, i32 0, !dbg !2321
  store i32 (...)** bitcast (i8** getelementptr inbounds ({ [5 x i8*] }, { [5 x i8*] }* @_ZTV7NTPTask, i32 0, inrange i32 0, i32 2) to i32 (...)**), i32 (...)*** %5, align 4, !dbg !2321, !tbaa !2323
  %6 = getelementptr inbounds %class.NTPTask, %class.NTPTask* %0, i32 0, i32 1, !dbg !2325
  store %"class.Cicada::SimCommDevice"* %1, %"class.Cicada::SimCommDevice"** %6, align 4, !dbg !2325, !tbaa !2231
  ret %class.NTPTask* %0, !dbg !2326
}

; Function Attrs: argmemonly nofree nosync nounwind willreturn
declare void @llvm.lifetime.end.p0i8(i64 immarg, i8* nocapture) #3

; Function Attrs: noinline nounwind
define linkonce_odr dso_local noundef %"class.Cicada::Task"* @_ZN6Cicada4TaskD2Ev(%"class.Cicada::Task"* noundef nonnull returned align 4 dereferenceable(20) %0) unnamed_addr #4 comdat align 2 !dbg !2327 {
  call void @llvm.dbg.value(metadata %"class.Cicada::Task"* %0, metadata !2329, metadata !DIExpression()), !dbg !2330
  ret %"class.Cicada::Task"* %0, !dbg !2331
}

; Function Attrs: noinline nounwind
define linkonce_odr dso_local noundef %"class.Cicada::IPCommDevice"* @_ZN6Cicada12IPCommDeviceD2Ev(%"class.Cicada::IPCommDevice"* noundef nonnull returned align 8 dereferenceable(140) %0) unnamed_addr #4 comdat align 2 !dbg !2332 {
  call void @llvm.dbg.value(metadata %"class.Cicada::IPCommDevice"* %0, metadata !2338, metadata !DIExpression()), !dbg !2340
  %2 = getelementptr inbounds %"class.Cicada::IPCommDevice", %"class.Cicada::IPCommDevice"* %0, i32 0, i32 3, !dbg !2341
  %3 = call noundef %"class.Cicada::CircularBuffer.0"* @_ZN6Cicada14CircularBufferIhED2Ev(%"class.Cicada::CircularBuffer.0"* noundef nonnull align 8 dereferenceable(44) %2) #33, !dbg !2341
  %4 = getelementptr inbounds %"class.Cicada::IPCommDevice", %"class.Cicada::IPCommDevice"* %0, i32 0, i32 2, !dbg !2341
  %5 = call noundef %"class.Cicada::CircularBuffer.0"* @_ZN6Cicada14CircularBufferIhED2Ev(%"class.Cicada::CircularBuffer.0"* noundef nonnull align 8 dereferenceable(44) %4) #33, !dbg !2341
  %6 = getelementptr inbounds %"class.Cicada::IPCommDevice", %"class.Cicada::IPCommDevice"* %0, i32 0, i32 1, !dbg !2341
  %7 = call noundef %"class.Cicada::Task"* @_ZN6Cicada4TaskD2Ev(%"class.Cicada::Task"* noundef nonnull align 4 dereferenceable(20) %6) #33, !dbg !2341
  %8 = getelementptr inbounds %"class.Cicada::IPCommDevice", %"class.Cicada::IPCommDevice"* %0, i32 0, i32 0, i32 0, i32 0, !dbg !2341
  %9 = call noundef %"class.Cicada::ICommDevice"* @_ZN6Cicada11ICommDeviceD2Ev(%"class.Cicada::ICommDevice"* noundef nonnull align 4 dereferenceable(4) %8) #33, !dbg !2341
  ret %"class.Cicada::IPCommDevice"* %0, !dbg !2343
}

; Function Attrs: noinline nounwind
define linkonce_odr dso_local noundef %"class.Cicada::CircularBuffer.0"* @_ZN6Cicada14CircularBufferIhED2Ev(%"class.Cicada::CircularBuffer.0"* noundef nonnull returned align 8 dereferenceable(44) %0) unnamed_addr #4 comdat align 2 !dbg !2344 {
  call void @llvm.dbg.value(metadata %"class.Cicada::CircularBuffer.0"* %0, metadata !2346, metadata !DIExpression()), !dbg !2348
  ret %"class.Cicada::CircularBuffer.0"* %0, !dbg !2349
}

; Function Attrs: noinline nounwind
define linkonce_odr dso_local noundef %"class.Cicada::ICommDevice"* @_ZN6Cicada11ICommDeviceD2Ev(%"class.Cicada::ICommDevice"* noundef nonnull returned align 4 dereferenceable(4) %0) unnamed_addr #4 comdat align 2 !dbg !2350 {
  call void @llvm.dbg.value(metadata %"class.Cicada::ICommDevice"* %0, metadata !2352, metadata !DIExpression()), !dbg !2354
  ret %"class.Cicada::ICommDevice"* %0, !dbg !2355
}

; Function Attrs: noinline nounwind
define linkonce_odr dso_local noundef %"class.Cicada::Task"* @_ZN6Cicada4TaskC2Et(%"class.Cicada::Task"* noundef nonnull returned align 4 dereferenceable(20) %0, i16 noundef zeroext %1) unnamed_addr #4 comdat align 2 !dbg !2356 {
  call void @llvm.dbg.value(metadata %"class.Cicada::Task"* %0, metadata !2358, metadata !DIExpression()), !dbg !2360
  call void @llvm.dbg.value(metadata i16 %1, metadata !2359, metadata !DIExpression()), !dbg !2360
  %3 = getelementptr inbounds %"class.Cicada::Task", %"class.Cicada::Task"* %0, i32 0, i32 0, !dbg !2361
  store i32 (...)** bitcast (i8** getelementptr inbounds ({ [5 x i8*] }, { [5 x i8*] }* @_ZTVN6Cicada4TaskE, i32 0, inrange i32 0, i32 2) to i32 (...)**), i32 (...)*** %3, align 4, !dbg !2361, !tbaa !2323
  %4 = getelementptr inbounds %"class.Cicada::Task", %"class.Cicada::Task"* %0, i32 0, i32 1, !dbg !2362
  store i16 %1, i16* %4, align 4, !dbg !2362, !tbaa !2363
  %5 = getelementptr inbounds %"class.Cicada::Task", %"class.Cicada::Task"* %0, i32 0, i32 3, !dbg !2367
  store i8 0, i8* %5, align 4, !dbg !2367, !tbaa !2368
  %6 = getelementptr inbounds %"class.Cicada::Task", %"class.Cicada::Task"* %0, i32 0, i32 4, !dbg !2369
  store i32 0, i32* %6, align 4, !dbg !2369, !tbaa !2370
  ret %"class.Cicada::Task"* %0, !dbg !2371
}

; Function Attrs: noinline nounwind
define linkonce_odr dso_local void @_ZN7NTPTaskD0Ev(%class.NTPTask* noundef nonnull align 4 dereferenceable(72) %0) unnamed_addr #4 comdat align 2 !dbg !2372 {
  call void @llvm.dbg.value(metadata %class.NTPTask* %0, metadata !2375, metadata !DIExpression()), !dbg !2376
  %2 = getelementptr inbounds %class.NTPTask, %class.NTPTask* %0, i32 0, i32 0, !dbg !2377
  %3 = call noundef %"class.Cicada::Task"* @_ZN6Cicada4TaskD2Ev(%"class.Cicada::Task"* noundef nonnull align 4 dereferenceable(72) %2) #33, !dbg !2377
  %4 = bitcast %class.NTPTask* %0 to i8*, !dbg !2377
  call void @_ZdlPv(i8* noundef %4) #34, !dbg !2377
  ret void, !dbg !2377
}

; Function Attrs: mustprogress noinline nounwind
define linkonce_odr dso_local void @_ZN7NTPTask3runEv(%class.NTPTask* noundef nonnull align 4 dereferenceable(72) %0) unnamed_addr #5 comdat align 2 !dbg !186 {
  call void @llvm.dbg.value(metadata %class.NTPTask* %0, metadata !188, metadata !DIExpression()), !dbg !2378
  %2 = load i8, i8* @_ZZN7NTPTask3runEvE10entrypoint, align 1, !dbg !2379, !tbaa !2380
  switch i8 %2, label %86 [
    i8 0, label %3
    i8 1, label %25
    i8 2, label %45
    i8 3, label %75
  ], !dbg !2379

3:                                                ; preds = %1
  %4 = getelementptr inbounds %class.NTPTask, %class.NTPTask* %0, i32 0, i32 2, i32 0, !dbg !2381
  %5 = bitcast i32* %4 to i8*, !dbg !2381
  call void @llvm.memset.p0i8.i32(i8* noundef nonnull align 4 dereferenceable(48) %5, i8 0, i32 48, i1 false), !dbg !2381
  %6 = getelementptr inbounds %class.NTPTask, %class.NTPTask* %0, i32 0, i32 1, !dbg !2383
  %7 = load %"class.Cicada::SimCommDevice"*, %"class.Cicada::SimCommDevice"** %6, align 4, !dbg !2383, !tbaa !2384
  %8 = bitcast %"class.Cicada::SimCommDevice"* %7 to void (%"class.Cicada::SimCommDevice"*, i8*)***, !dbg !2386
  %9 = load void (%"class.Cicada::SimCommDevice"*, i8*)**, void (%"class.Cicada::SimCommDevice"*, i8*)*** %8, align 8, !dbg !2386, !tbaa !2323
  %10 = getelementptr inbounds void (%"class.Cicada::SimCommDevice"*, i8*)*, void (%"class.Cicada::SimCommDevice"*, i8*)** %9, i32 15, !dbg !2386
  %11 = load void (%"class.Cicada::SimCommDevice"*, i8*)*, void (%"class.Cicada::SimCommDevice"*, i8*)** %10, align 4, !dbg !2386
  call void %11(%"class.Cicada::SimCommDevice"* noundef nonnull align 8 dereferenceable(280) %7, i8* noundef getelementptr inbounds ([9 x i8], [9 x i8]* @.str, i32 0, i32 0)) #33, !dbg !2386
  %12 = bitcast %"class.Cicada::SimCommDevice"** %6 to %"class.Cicada::IPCommDevice"**, !dbg !2387
  %13 = load %"class.Cicada::IPCommDevice"*, %"class.Cicada::IPCommDevice"** %12, align 4, !dbg !2387, !tbaa !2384
  %14 = bitcast %"class.Cicada::IPCommDevice"* %13 to void (%"class.Cicada::IPCommDevice"*, i8*, i16, i32)***, !dbg !2388
  %15 = load void (%"class.Cicada::IPCommDevice"*, i8*, i16, i32)**, void (%"class.Cicada::IPCommDevice"*, i8*, i16, i32)*** %14, align 8, !dbg !2388, !tbaa !2323
  %16 = getelementptr inbounds void (%"class.Cicada::IPCommDevice"*, i8*, i16, i32)*, void (%"class.Cicada::IPCommDevice"*, i8*, i16, i32)** %15, i32 12, !dbg !2388
  %17 = load void (%"class.Cicada::IPCommDevice"*, i8*, i16, i32)*, void (%"class.Cicada::IPCommDevice"*, i8*, i16, i32)** %16, align 4, !dbg !2388
  call void %17(%"class.Cicada::IPCommDevice"* noundef nonnull align 8 dereferenceable(140) %13, i8* noundef getelementptr inbounds ([13 x i8], [13 x i8]* @.str.1, i32 0, i32 0), i16 noundef zeroext 123, i32 noundef 0) #33, !dbg !2388
  %18 = load %"class.Cicada::SimCommDevice"*, %"class.Cicada::SimCommDevice"** %6, align 4, !dbg !2389, !tbaa !2384
  %19 = bitcast %"class.Cicada::SimCommDevice"* %18 to i1 (%"class.Cicada::SimCommDevice"*)***, !dbg !2390
  %20 = load i1 (%"class.Cicada::SimCommDevice"*)**, i1 (%"class.Cicada::SimCommDevice"*)*** %19, align 8, !dbg !2390, !tbaa !2323
  %21 = getelementptr inbounds i1 (%"class.Cicada::SimCommDevice"*)*, i1 (%"class.Cicada::SimCommDevice"*)** %20, i32 7, !dbg !2390
  %22 = load i1 (%"class.Cicada::SimCommDevice"*)*, i1 (%"class.Cicada::SimCommDevice"*)** %21, align 4, !dbg !2390
  %23 = call noundef zeroext i1 %22(%"class.Cicada::SimCommDevice"* noundef nonnull align 8 dereferenceable(280) %18) #33, !dbg !2390
  %24 = getelementptr inbounds %class.NTPTask, %class.NTPTask* %0, i32 0, i32 0, !dbg !2391
  call void @_ZN6Cicada4Task8setDelayEt(%"class.Cicada::Task"* noundef nonnull align 4 dereferenceable(20) %24, i16 noundef zeroext 0), !dbg !2391
  store i8 1, i8* @_ZZN7NTPTask3runEvE10entrypoint, align 1, !dbg !2391, !tbaa !2380
  br label %25, !dbg !2391

25:                                               ; preds = %1, %3
  %26 = getelementptr inbounds %class.NTPTask, %class.NTPTask* %0, i32 0, i32 1, !dbg !2392
  %27 = bitcast %"class.Cicada::SimCommDevice"** %26 to %"class.Cicada::IPCommDevice"**, !dbg !2392
  %28 = load %"class.Cicada::IPCommDevice"*, %"class.Cicada::IPCommDevice"** %27, align 4, !dbg !2392, !tbaa !2384
  %29 = bitcast %"class.Cicada::IPCommDevice"* %28 to i1 (%"class.Cicada::IPCommDevice"*)***, !dbg !2392
  %30 = load i1 (%"class.Cicada::IPCommDevice"*)**, i1 (%"class.Cicada::IPCommDevice"*)*** %29, align 8, !dbg !2392, !tbaa !2323
  %31 = getelementptr inbounds i1 (%"class.Cicada::IPCommDevice"*)*, i1 (%"class.Cicada::IPCommDevice"*)** %30, i32 9, !dbg !2392
  %32 = load i1 (%"class.Cicada::IPCommDevice"*)*, i1 (%"class.Cicada::IPCommDevice"*)** %31, align 4, !dbg !2392
  %33 = call noundef zeroext i1 %32(%"class.Cicada::IPCommDevice"* noundef nonnull align 8 dereferenceable(140) %28) #33, !dbg !2392
  br i1 %33, label %34, label %86, !dbg !2391

34:                                               ; preds = %25
  %35 = call i32 (i8*, ...) @printf_(i8* noundef getelementptr inbounds ([21 x i8], [21 x i8]* @.str.2, i32 0, i32 0)) #33, !dbg !2394
  %36 = getelementptr inbounds %class.NTPTask, %class.NTPTask* %0, i32 0, i32 2, i32 0, !dbg !2395
  store i32 27, i32* %36, align 4, !dbg !2396, !tbaa !2397
  %37 = load %"class.Cicada::IPCommDevice"*, %"class.Cicada::IPCommDevice"** %27, align 4, !dbg !2398, !tbaa !2384
  %38 = bitcast i32* %36 to i8*, !dbg !2399
  %39 = bitcast %"class.Cicada::IPCommDevice"* %37 to i64 (%"class.Cicada::IPCommDevice"*, i8*, i64)***, !dbg !2400
  %40 = load i64 (%"class.Cicada::IPCommDevice"*, i8*, i64)**, i64 (%"class.Cicada::IPCommDevice"*, i8*, i64)*** %39, align 8, !dbg !2400, !tbaa !2323
  %41 = getelementptr inbounds i64 (%"class.Cicada::IPCommDevice"*, i8*, i64)*, i64 (%"class.Cicada::IPCommDevice"*, i8*, i64)** %40, i32 6, !dbg !2400
  %42 = load i64 (%"class.Cicada::IPCommDevice"*, i8*, i64)*, i64 (%"class.Cicada::IPCommDevice"*, i8*, i64)** %41, align 4, !dbg !2400
  %43 = call noundef i64 %42(%"class.Cicada::IPCommDevice"* noundef nonnull align 8 dereferenceable(140) %37, i8* noundef nonnull %38, i64 noundef 48) #33, !dbg !2400
  %44 = getelementptr inbounds %class.NTPTask, %class.NTPTask* %0, i32 0, i32 0, !dbg !2401
  call void @_ZN6Cicada4Task8setDelayEt(%"class.Cicada::Task"* noundef nonnull align 4 dereferenceable(20) %44, i16 noundef zeroext 0), !dbg !2401
  store i8 2, i8* @_ZZN7NTPTask3runEvE10entrypoint, align 1, !dbg !2401, !tbaa !2380
  br label %45, !dbg !2401

45:                                               ; preds = %1, %34
  %46 = getelementptr inbounds %class.NTPTask, %class.NTPTask* %0, i32 0, i32 1, !dbg !2402
  %47 = bitcast %"class.Cicada::SimCommDevice"** %46 to %"class.Cicada::IPCommDevice"**, !dbg !2402
  %48 = load %"class.Cicada::IPCommDevice"*, %"class.Cicada::IPCommDevice"** %47, align 4, !dbg !2402, !tbaa !2384
  %49 = bitcast %"class.Cicada::IPCommDevice"* %48 to i64 (%"class.Cicada::IPCommDevice"*)***, !dbg !2402
  %50 = load i64 (%"class.Cicada::IPCommDevice"*)**, i64 (%"class.Cicada::IPCommDevice"*)*** %49, align 8, !dbg !2402, !tbaa !2323
  %51 = getelementptr inbounds i64 (%"class.Cicada::IPCommDevice"*)*, i64 (%"class.Cicada::IPCommDevice"*)** %50, i32 2, !dbg !2402
  %52 = load i64 (%"class.Cicada::IPCommDevice"*)*, i64 (%"class.Cicada::IPCommDevice"*)** %51, align 4, !dbg !2402
  %53 = call noundef i64 %52(%"class.Cicada::IPCommDevice"* noundef nonnull align 8 dereferenceable(140) %48) #33, !dbg !2402
  %54 = icmp eq i64 %53, 0, !dbg !2402
  br i1 %54, label %86, label %55, !dbg !2401

55:                                               ; preds = %45
  %56 = load %"class.Cicada::IPCommDevice"*, %"class.Cicada::IPCommDevice"** %47, align 4, !dbg !2404, !tbaa !2384
  %57 = getelementptr inbounds %class.NTPTask, %class.NTPTask* %0, i32 0, i32 2, !dbg !2405
  %58 = bitcast [12 x i32]* %57 to i8*, !dbg !2406
  %59 = bitcast %"class.Cicada::IPCommDevice"* %56 to i64 (%"class.Cicada::IPCommDevice"*, i8*, i64)***, !dbg !2407
  %60 = load i64 (%"class.Cicada::IPCommDevice"*, i8*, i64)**, i64 (%"class.Cicada::IPCommDevice"*, i8*, i64)*** %59, align 8, !dbg !2407, !tbaa !2323
  %61 = getelementptr inbounds i64 (%"class.Cicada::IPCommDevice"*, i8*, i64)*, i64 (%"class.Cicada::IPCommDevice"*, i8*, i64)** %60, i32 5, !dbg !2407
  %62 = load i64 (%"class.Cicada::IPCommDevice"*, i8*, i64)*, i64 (%"class.Cicada::IPCommDevice"*, i8*, i64)** %61, align 4, !dbg !2407
  %63 = call noundef i64 %62(%"class.Cicada::IPCommDevice"* noundef nonnull align 8 dereferenceable(140) %56, i8* noundef nonnull %58, i64 noundef 48) #33, !dbg !2407
  %64 = getelementptr inbounds %class.NTPTask, %class.NTPTask* %0, i32 0, i32 2, i32 10, !dbg !2408
  %65 = load i32, i32* %64, align 4, !dbg !2408, !tbaa !2397
  %66 = call noundef i32 @_Z8byteSwapj(i32 noundef %65), !dbg !2409
  %67 = add i32 %66, 2085978496, !dbg !2410
  %68 = call i32 (i8*, ...) @printf_(i8* noundef getelementptr inbounds ([31 x i8], [31 x i8]* @.str.3, i32 0, i32 0), i32 noundef %67) #33, !dbg !2411
  %69 = load %"class.Cicada::IPCommDevice"*, %"class.Cicada::IPCommDevice"** %47, align 4, !dbg !2412, !tbaa !2384
  %70 = bitcast %"class.Cicada::IPCommDevice"* %69 to void (%"class.Cicada::IPCommDevice"*)***, !dbg !2413
  %71 = load void (%"class.Cicada::IPCommDevice"*)**, void (%"class.Cicada::IPCommDevice"*)*** %70, align 8, !dbg !2413, !tbaa !2323
  %72 = getelementptr inbounds void (%"class.Cicada::IPCommDevice"*)*, void (%"class.Cicada::IPCommDevice"*)** %71, i32 8, !dbg !2413
  %73 = load void (%"class.Cicada::IPCommDevice"*)*, void (%"class.Cicada::IPCommDevice"*)** %72, align 4, !dbg !2413
  call void %73(%"class.Cicada::IPCommDevice"* noundef nonnull align 8 dereferenceable(140) %69) #33, !dbg !2413
  %74 = getelementptr inbounds %class.NTPTask, %class.NTPTask* %0, i32 0, i32 0, !dbg !2414
  call void @_ZN6Cicada4Task8setDelayEt(%"class.Cicada::Task"* noundef nonnull align 4 dereferenceable(20) %74, i16 noundef zeroext 0), !dbg !2414
  store i8 3, i8* @_ZZN7NTPTask3runEvE10entrypoint, align 1, !dbg !2414, !tbaa !2380
  br label %75, !dbg !2414

75:                                               ; preds = %1, %55
  %76 = getelementptr inbounds %class.NTPTask, %class.NTPTask* %0, i32 0, i32 1, !dbg !2415
  %77 = bitcast %"class.Cicada::SimCommDevice"** %76 to %"class.Cicada::IPCommDevice"**, !dbg !2415
  %78 = load %"class.Cicada::IPCommDevice"*, %"class.Cicada::IPCommDevice"** %77, align 4, !dbg !2415, !tbaa !2384
  %79 = bitcast %"class.Cicada::IPCommDevice"* %78 to i1 (%"class.Cicada::IPCommDevice"*)***, !dbg !2415
  %80 = load i1 (%"class.Cicada::IPCommDevice"*)**, i1 (%"class.Cicada::IPCommDevice"*)*** %79, align 8, !dbg !2415, !tbaa !2323
  %81 = getelementptr inbounds i1 (%"class.Cicada::IPCommDevice"*)*, i1 (%"class.Cicada::IPCommDevice"*)** %80, i32 10, !dbg !2415
  %82 = load i1 (%"class.Cicada::IPCommDevice"*)*, i1 (%"class.Cicada::IPCommDevice"*)** %81, align 4, !dbg !2415
  %83 = call noundef zeroext i1 %82(%"class.Cicada::IPCommDevice"* noundef nonnull align 8 dereferenceable(140) %78) #33, !dbg !2415
  br i1 %83, label %84, label %86, !dbg !2414

84:                                               ; preds = %75
  %85 = call i32 (i8*, ...) @printf_(i8* noundef getelementptr inbounds ([23 x i8], [23 x i8]* @.str.4, i32 0, i32 0)) #33, !dbg !2417
  store i8 4, i8* @_ZZN7NTPTask3runEvE10entrypoint, align 1, !dbg !2418, !tbaa !2380
  br label %86, !dbg !2418

86:                                               ; preds = %75, %45, %25, %1, %84
  ret void, !dbg !2419
}

; Function Attrs: argmemonly nofree nounwind willreturn writeonly
declare void @llvm.memset.p0i8.i32(i8* nocapture writeonly, i8, i32, i1 immarg) #6

; Function Attrs: mustprogress noinline nounwind
define linkonce_odr dso_local void @_ZN6Cicada4Task8setDelayEt(%"class.Cicada::Task"* noundef nonnull align 4 dereferenceable(20) %0, i16 noundef zeroext %1) local_unnamed_addr #5 comdat align 2 !dbg !2420 {
  call void @llvm.dbg.value(metadata %"class.Cicada::Task"* %0, metadata !2422, metadata !DIExpression()), !dbg !2424
  call void @llvm.dbg.value(metadata i16 %1, metadata !2423, metadata !DIExpression()), !dbg !2424
  %3 = getelementptr inbounds %"class.Cicada::Task", %"class.Cicada::Task"* %0, i32 0, i32 1, !dbg !2425
  store i16 %1, i16* %3, align 4, !dbg !2426, !tbaa !2363
  ret void, !dbg !2427
}

; Function Attrs: nobuiltin nounwind
declare dso_local void @_ZdlPv(i8* noundef) local_unnamed_addr #7

; Function Attrs: noinline nounwind
define linkonce_odr dso_local void @_ZN6Cicada4TaskD0Ev(%"class.Cicada::Task"* noundef nonnull align 4 dereferenceable(20) %0) unnamed_addr #4 comdat align 2 !dbg !2428 {
  call void @llvm.dbg.value(metadata %"class.Cicada::Task"* %0, metadata !2430, metadata !DIExpression()), !dbg !2431
  call void @llvm.trap() #35, !dbg !2432
  unreachable, !dbg !2432
}

declare dso_local void @__cxa_pure_virtual() unnamed_addr

; Function Attrs: cold noreturn nounwind
declare void @llvm.trap() #8

; Function Attrs: mustprogress noinline nounwind
define dso_local void @SysTick_Handler() local_unnamed_addr #5 !dbg !2433 {
  call void @HAL_IncTick() #33, !dbg !2434
  ret void, !dbg !2435
}

; Function Attrs: mustprogress noinline nounwind
define dso_local void @USART1_IRQHandler() local_unnamed_addr #5 !dbg !2 {
  %1 = load atomic i8, i8* bitcast (i32* @_ZGVZ17USART1_IRQHandlerE8instance to i8*) acquire, align 4, !dbg !2436
  %2 = and i8 %1, 1, !dbg !2436
  %3 = icmp eq i8 %2, 0, !dbg !2436
  br i1 %3, label %4, label %9, !dbg !2436, !prof !2437

4:                                                ; preds = %0
  %5 = call i32 @__cxa_guard_acquire(i32* nonnull @_ZGVZ17USART1_IRQHandlerE8instance) #33, !dbg !2436
  %6 = icmp eq i32 %5, 0, !dbg !2436
  br i1 %6, label %9, label %7, !dbg !2436

7:                                                ; preds = %4
  %8 = call noundef %"class.Cicada::Stm32Uart"* @_ZN6Cicada9Stm32Uart11getInstanceEP13USART_TypeDef(%struct.USART_TypeDef* noundef nonnull inttoptr (i32 1073821696 to %struct.USART_TypeDef*)) #33, !dbg !2438
  store %"class.Cicada::Stm32Uart"* %8, %"class.Cicada::Stm32Uart"** @_ZZ17USART1_IRQHandlerE8instance, align 4, !dbg !2436, !tbaa !2231
  call void @__cxa_guard_release(i32* nonnull @_ZGVZ17USART1_IRQHandlerE8instance) #33, !dbg !2436
  br label %9, !dbg !2436

9:                                                ; preds = %7, %4, %0
  %10 = load %"class.Cicada::Stm32Uart"*, %"class.Cicada::Stm32Uart"** @_ZZ17USART1_IRQHandlerE8instance, align 4, !dbg !2439, !tbaa !2231
  call void @_ZN6Cicada9Stm32Uart15handleInterruptEv(%"class.Cicada::Stm32Uart"* noundef nonnull align 8 dereferenceable(192) %10) #33, !dbg !2440
  ret void, !dbg !2441
}

; Function Attrs: nofree nounwind
declare dso_local i32 @__cxa_guard_acquire(i32*) local_unnamed_addr #9

; Function Attrs: nofree nounwind
declare dso_local void @__cxa_guard_release(i32*) local_unnamed_addr #9

; Function Attrs: mustprogress noinline nounwind
define dso_local void @USART2_IRQHandler() local_unnamed_addr #5 !dbg !172 {
  %1 = load atomic i8, i8* bitcast (i32* @_ZGVZ17USART2_IRQHandlerE8instance to i8*) acquire, align 4, !dbg !2442
  %2 = and i8 %1, 1, !dbg !2442
  %3 = icmp eq i8 %2, 0, !dbg !2442
  br i1 %3, label %4, label %9, !dbg !2442, !prof !2437

4:                                                ; preds = %0
  %5 = call i32 @__cxa_guard_acquire(i32* nonnull @_ZGVZ17USART2_IRQHandlerE8instance) #33, !dbg !2442
  %6 = icmp eq i32 %5, 0, !dbg !2442
  br i1 %6, label %9, label %7, !dbg !2442

7:                                                ; preds = %4
  %8 = call noundef %"class.Cicada::Stm32Uart"* @_ZN6Cicada9Stm32Uart11getInstanceEP13USART_TypeDef(%struct.USART_TypeDef* noundef nonnull inttoptr (i32 1073759232 to %struct.USART_TypeDef*)) #33, !dbg !2443
  store %"class.Cicada::Stm32Uart"* %8, %"class.Cicada::Stm32Uart"** @_ZZ17USART2_IRQHandlerE8instance, align 4, !dbg !2442, !tbaa !2231
  call void @__cxa_guard_release(i32* nonnull @_ZGVZ17USART2_IRQHandlerE8instance) #33, !dbg !2442
  br label %9, !dbg !2442

9:                                                ; preds = %7, %4, %0
  %10 = load %"class.Cicada::Stm32Uart"*, %"class.Cicada::Stm32Uart"** @_ZZ17USART2_IRQHandlerE8instance, align 4, !dbg !2444, !tbaa !2231
  call void @_ZN6Cicada9Stm32Uart15handleInterruptEv(%"class.Cicada::Stm32Uart"* noundef nonnull align 8 dereferenceable(192) %10) #33, !dbg !2445
  ret void, !dbg !2446
}

; Function Attrs: mustprogress noinline nounwind
define dso_local void @_putchar(i8 noundef zeroext %0) local_unnamed_addr #5 !dbg !179 {
  call void @llvm.dbg.value(metadata i8 %0, metadata !183, metadata !DIExpression()), !dbg !2447
  %2 = load %"class.Cicada::Stm32Uart"*, %"class.Cicada::Stm32Uart"** @_ZZ8_putcharE6serial, align 4, !dbg !2448, !tbaa !2231
  %3 = icmp eq %"class.Cicada::Stm32Uart"* %2, null, !dbg !2448
  br i1 %3, label %4, label %6, !dbg !2450

4:                                                ; preds = %1
  %5 = call noundef %"class.Cicada::Stm32Uart"* @_ZN6Cicada9Stm32Uart11getInstanceEP13USART_TypeDef(%struct.USART_TypeDef* noundef nonnull inttoptr (i32 1073759232 to %struct.USART_TypeDef*)) #33, !dbg !2451
  store %"class.Cicada::Stm32Uart"* %5, %"class.Cicada::Stm32Uart"** @_ZZ8_putcharE6serial, align 4, !dbg !2453, !tbaa !2231
  br label %6, !dbg !2454

6:                                                ; preds = %4, %1
  %7 = load %"class.Cicada::BufferedSerial"*, %"class.Cicada::BufferedSerial"** bitcast (%"class.Cicada::Stm32Uart"** @_ZZ8_putcharE6serial to %"class.Cicada::BufferedSerial"**), align 4, !dbg !2455, !tbaa !2231
  %8 = bitcast %"class.Cicada::BufferedSerial"* %7 to void (%"class.Cicada::BufferedSerial"*, i8)***, !dbg !2456
  %9 = load void (%"class.Cicada::BufferedSerial"*, i8)**, void (%"class.Cicada::BufferedSerial"*, i8)*** %8, align 8, !dbg !2456, !tbaa !2323
  %10 = getelementptr inbounds void (%"class.Cicada::BufferedSerial"*, i8)*, void (%"class.Cicada::BufferedSerial"*, i8)** %9, i32 9, !dbg !2456
  %11 = load void (%"class.Cicada::BufferedSerial"*, i8)*, void (%"class.Cicada::BufferedSerial"*, i8)** %10, align 4, !dbg !2456
  call void %11(%"class.Cicada::BufferedSerial"* noundef nonnull align 8 dereferenceable(104) %7, i8 noundef zeroext %0) #33, !dbg !2456
  ret void, !dbg !2457
}

; Function Attrs: noinline nounwind
define dso_local i32 @printf_(i8* noundef %0, ...) local_unnamed_addr #4 !dbg !2458 {
  %2 = alloca %struct.__va_list, align 4
  %3 = alloca [1 x i8], align 1
  call void @llvm.dbg.value(metadata i8* %0, metadata !2460, metadata !DIExpression()), !dbg !2472
  %4 = bitcast %struct.__va_list* %2 to i8*, !dbg !2473
  call void @llvm.lifetime.start.p0i8(i64 4, i8* nonnull %4) #33, !dbg !2473
  call void @llvm.dbg.declare(metadata %struct.__va_list* %2, metadata !2461, metadata !DIExpression()), !dbg !2474
  call void @llvm.va_start(i8* nonnull %4), !dbg !2475
  %5 = getelementptr inbounds [1 x i8], [1 x i8]* %3, i32 0, i32 0, !dbg !2476
  call void @llvm.lifetime.start.p0i8(i64 1, i8* nonnull %5) #33, !dbg !2476
  call void @llvm.dbg.declare(metadata [1 x i8]* %3, metadata !2468, metadata !DIExpression()), !dbg !2477
  %6 = bitcast %struct.__va_list* %2 to i32*, !dbg !2478
  %7 = load i32, i32* %6, align 4, !dbg !2478
  %8 = insertvalue [1 x i32] poison, i32 %7, 0, !dbg !2478
  %9 = call fastcc i32 @_vsnprintf(void (i8, i8*, i32, i32)* noundef nonnull @_out_char, i8* noundef nonnull %5, i32 noundef -1, i8* noundef %0, [1 x i32] %8), !dbg !2478
  call void @llvm.dbg.value(metadata i32 %9, metadata !2470, metadata !DIExpression()), !dbg !2472
  call void @llvm.va_end(i8* %4), !dbg !2479
  call void @llvm.lifetime.end.p0i8(i64 1, i8* nonnull %5) #33, !dbg !2480
  call void @llvm.lifetime.end.p0i8(i64 4, i8* nonnull %4) #33, !dbg !2480
  ret i32 %9, !dbg !2481
}

; Function Attrs: nofree nosync nounwind willreturn
declare void @llvm.va_start(i8*) #10

; Function Attrs: noinline nounwind
define internal void @_out_char(i8 noundef zeroext %0, i8* nocapture noundef readnone %1, i32 noundef %2, i32 noundef %3) #4 !dbg !2482 {
  call void @llvm.dbg.value(metadata i8 %0, metadata !2484, metadata !DIExpression()), !dbg !2488
  call void @llvm.dbg.value(metadata i8* %1, metadata !2485, metadata !DIExpression()), !dbg !2488
  call void @llvm.dbg.value(metadata i32 %2, metadata !2486, metadata !DIExpression()), !dbg !2488
  call void @llvm.dbg.value(metadata i32 %3, metadata !2487, metadata !DIExpression()), !dbg !2488
  %5 = icmp eq i8 %0, 0, !dbg !2489
  br i1 %5, label %7, label %6, !dbg !2491

6:                                                ; preds = %4
  call void @_putchar(i8 noundef zeroext %0) #33, !dbg !2492
  br label %7, !dbg !2494

7:                                                ; preds = %6, %4
  ret void, !dbg !2495
}

; Function Attrs: noinline nounwind
define internal fastcc i32 @_vsnprintf(void (i8, i8*, i32, i32)* nocapture noundef readonly %0, i8* noundef %1, i32 noundef %2, i8* noundef %3, [1 x i32] %4) unnamed_addr #4 !dbg !2496 {
  %6 = alloca i8*, align 4
  %7 = extractvalue [1 x i32] %4, 0
  %8 = inttoptr i32 %7 to i8*
  call void @llvm.dbg.value(metadata i8* %8, metadata !2504, metadata !DIExpression()), !dbg !2550
  call void @llvm.dbg.value(metadata void (i8, i8*, i32, i32)* %0, metadata !2500, metadata !DIExpression()), !dbg !2550
  call void @llvm.dbg.value(metadata i8* %1, metadata !2501, metadata !DIExpression()), !dbg !2550
  call void @llvm.dbg.value(metadata i32 %2, metadata !2502, metadata !DIExpression()), !dbg !2550
  call void @llvm.dbg.value(metadata i8* %3, metadata !2503, metadata !DIExpression()), !dbg !2550
  store i8* %3, i8** %6, align 4, !tbaa !2551
  call void @llvm.dbg.value(metadata i32 0, metadata !2509, metadata !DIExpression()), !dbg !2550
  %9 = icmp eq i8* %1, null, !dbg !2555
  %10 = select i1 %9, void (i8, i8*, i32, i32)* @_out_null, void (i8, i8*, i32, i32)* %0, !dbg !2557
  call void @llvm.dbg.value(metadata void (i8, i8*, i32, i32)* %10, metadata !2500, metadata !DIExpression()), !dbg !2550
  br label %11, !dbg !2558

11:                                               ; preds = %354, %5
  %12 = phi i32 [ 0, %5 ], [ %355, %354 ]
  %13 = phi i8* [ %8, %5 ], [ %356, %354 ]
  br label %14, !dbg !2558

14:                                               ; preds = %11, %18
  %15 = phi i32 [ %19, %18 ], [ %12, %11 ], !dbg !2550
  call void @llvm.dbg.value(metadata i8* %13, metadata !2504, metadata !DIExpression()), !dbg !2550
  call void @llvm.dbg.value(metadata i32 %15, metadata !2509, metadata !DIExpression()), !dbg !2550
  %16 = load i8*, i8** %6, align 4, !dbg !2559, !tbaa !2551
  call void @llvm.dbg.value(metadata i8* %16, metadata !2503, metadata !DIExpression()), !dbg !2550
  %17 = load i8, i8* %16, align 1, !dbg !2560, !tbaa !2561
  switch i8 %17, label %18 [
    i8 0, label %357
    i8 37, label %22
  ], !dbg !2558

18:                                               ; preds = %14
  %19 = add i32 %15, 1, !dbg !2562
  call void @llvm.dbg.value(metadata i32 %19, metadata !2509, metadata !DIExpression()), !dbg !2550
  call void %10(i8 noundef zeroext %17, i8* noundef %1, i32 noundef %15, i32 noundef %2) #33, !dbg !2565, !callees !2566
  %20 = load i8*, i8** %6, align 4, !dbg !2567, !tbaa !2551
  call void @llvm.dbg.value(metadata i8* %20, metadata !2503, metadata !DIExpression()), !dbg !2550
  %21 = getelementptr inbounds i8, i8* %20, i32 1, !dbg !2567
  call void @llvm.dbg.value(metadata i8* %21, metadata !2503, metadata !DIExpression()), !dbg !2550
  store i8* %21, i8** %6, align 4, !dbg !2567, !tbaa !2551
  br label %14, !dbg !2568, !llvm.loop !2569

22:                                               ; preds = %14
  %23 = getelementptr inbounds i8, i8* %16, i32 1, !dbg !2573
  call void @llvm.dbg.value(metadata i8* %23, metadata !2503, metadata !DIExpression()), !dbg !2550
  store i8* %23, i8** %6, align 4, !dbg !2573, !tbaa !2551
  call void @llvm.dbg.value(metadata i32 0, metadata !2505, metadata !DIExpression()), !dbg !2550
  br label %24, !dbg !2575

24:                                               ; preds = %43, %22
  %25 = phi i32 [ 0, %22 ], [ %45, %43 ], !dbg !2576
  call void @llvm.dbg.value(metadata i32 %25, metadata !2505, metadata !DIExpression()), !dbg !2550
  %26 = load i8*, i8** %6, align 4, !dbg !2577, !tbaa !2551
  call void @llvm.dbg.value(metadata i8* %26, metadata !2503, metadata !DIExpression()), !dbg !2550
  %27 = load i8, i8* %26, align 1, !dbg !2579, !tbaa !2561
  switch i8 %27, label %43 [
    i8 48, label %28
    i8 45, label %31
    i8 43, label %34
    i8 32, label %37
    i8 35, label %40
  ], !dbg !2580

28:                                               ; preds = %24
  %29 = or i32 %25, 1, !dbg !2581
  call void @llvm.dbg.value(metadata i32 %29, metadata !2505, metadata !DIExpression()), !dbg !2550
  %30 = getelementptr inbounds i8, i8* %26, i32 1, !dbg !2583
  call void @llvm.dbg.value(metadata i8* %30, metadata !2503, metadata !DIExpression()), !dbg !2550
  store i8* %30, i8** %6, align 4, !dbg !2583, !tbaa !2551
  call void @llvm.dbg.value(metadata i32 1, metadata !2508, metadata !DIExpression()), !dbg !2550
  br label %43, !dbg !2584

31:                                               ; preds = %24
  %32 = or i32 %25, 2, !dbg !2585
  call void @llvm.dbg.value(metadata i32 %32, metadata !2505, metadata !DIExpression()), !dbg !2550
  %33 = getelementptr inbounds i8, i8* %26, i32 1, !dbg !2586
  call void @llvm.dbg.value(metadata i8* %33, metadata !2503, metadata !DIExpression()), !dbg !2550
  store i8* %33, i8** %6, align 4, !dbg !2586, !tbaa !2551
  call void @llvm.dbg.value(metadata i32 1, metadata !2508, metadata !DIExpression()), !dbg !2550
  br label %43, !dbg !2587

34:                                               ; preds = %24
  %35 = or i32 %25, 4, !dbg !2588
  call void @llvm.dbg.value(metadata i32 %35, metadata !2505, metadata !DIExpression()), !dbg !2550
  %36 = getelementptr inbounds i8, i8* %26, i32 1, !dbg !2589
  call void @llvm.dbg.value(metadata i8* %36, metadata !2503, metadata !DIExpression()), !dbg !2550
  store i8* %36, i8** %6, align 4, !dbg !2589, !tbaa !2551
  call void @llvm.dbg.value(metadata i32 1, metadata !2508, metadata !DIExpression()), !dbg !2550
  br label %43, !dbg !2590

37:                                               ; preds = %24
  %38 = or i32 %25, 8, !dbg !2591
  call void @llvm.dbg.value(metadata i32 %38, metadata !2505, metadata !DIExpression()), !dbg !2550
  %39 = getelementptr inbounds i8, i8* %26, i32 1, !dbg !2592
  call void @llvm.dbg.value(metadata i8* %39, metadata !2503, metadata !DIExpression()), !dbg !2550
  store i8* %39, i8** %6, align 4, !dbg !2592, !tbaa !2551
  call void @llvm.dbg.value(metadata i32 1, metadata !2508, metadata !DIExpression()), !dbg !2550
  br label %43, !dbg !2593

40:                                               ; preds = %24
  %41 = or i32 %25, 16, !dbg !2594
  call void @llvm.dbg.value(metadata i32 %41, metadata !2505, metadata !DIExpression()), !dbg !2550
  %42 = getelementptr inbounds i8, i8* %26, i32 1, !dbg !2595
  call void @llvm.dbg.value(metadata i8* %42, metadata !2503, metadata !DIExpression()), !dbg !2550
  store i8* %42, i8** %6, align 4, !dbg !2595, !tbaa !2551
  call void @llvm.dbg.value(metadata i32 1, metadata !2508, metadata !DIExpression()), !dbg !2550
  br label %43, !dbg !2596

43:                                               ; preds = %24, %28, %31, %34, %37, %40
  %44 = phi i1 [ false, %28 ], [ false, %31 ], [ false, %34 ], [ false, %37 ], [ false, %40 ], [ true, %24 ], !dbg !2597
  %45 = phi i32 [ %29, %28 ], [ %32, %31 ], [ %35, %34 ], [ %38, %37 ], [ %41, %40 ], [ %25, %24 ], !dbg !2598
  call void @llvm.dbg.value(metadata i32 %45, metadata !2505, metadata !DIExpression()), !dbg !2550
  call void @llvm.dbg.value(metadata i32 undef, metadata !2508, metadata !DIExpression()), !dbg !2550
  br i1 %44, label %46, label %24, !dbg !2599, !llvm.loop !2600

46:                                               ; preds = %43
  call void @llvm.dbg.value(metadata i32 0, metadata !2506, metadata !DIExpression()), !dbg !2550
  %47 = load i8*, i8** %6, align 4, !dbg !2602, !tbaa !2551
  call void @llvm.dbg.value(metadata i8* %47, metadata !2503, metadata !DIExpression()), !dbg !2550
  %48 = load i8, i8* %47, align 1, !dbg !2603, !tbaa !2561
  %49 = call fastcc zeroext i1 @_is_digit(i8 noundef zeroext %48), !dbg !2604
  br i1 %49, label %50, label %52, !dbg !2605

50:                                               ; preds = %46
  call void @llvm.dbg.value(metadata i8** %6, metadata !2503, metadata !DIExpression(DW_OP_deref)), !dbg !2550
  %51 = call fastcc i32 @_atoi(i8** noundef nonnull %6), !dbg !2606
  call void @llvm.dbg.value(metadata i32 %51, metadata !2506, metadata !DIExpression()), !dbg !2550
  br label %64, !dbg !2608

52:                                               ; preds = %46
  call void @llvm.dbg.value(metadata i8* %47, metadata !2503, metadata !DIExpression()), !dbg !2550
  %53 = icmp eq i8 %48, 42, !dbg !2609
  br i1 %53, label %54, label %64, !dbg !2610

54:                                               ; preds = %52
  %55 = getelementptr inbounds i8, i8* %13, i32 4, !dbg !2611
  call void @llvm.dbg.value(metadata i8* %55, metadata !2504, metadata !DIExpression()), !dbg !2550
  %56 = bitcast i8* %13 to i32*, !dbg !2611
  %57 = load i32, i32* %56, align 4, !dbg !2611
  call void @llvm.dbg.value(metadata i32 %57, metadata !2510, metadata !DIExpression()), !dbg !2612
  %58 = icmp slt i32 %57, 0, !dbg !2613
  %59 = or i32 %45, 2, !dbg !2615
  %60 = sub nsw i32 0, %57, !dbg !2615
  %61 = select i1 %58, i32 %60, i32 %57, !dbg !2615
  %62 = select i1 %58, i32 %59, i32 %45, !dbg !2615
  call void @llvm.dbg.value(metadata i32 %62, metadata !2505, metadata !DIExpression()), !dbg !2550
  call void @llvm.dbg.value(metadata i32 %61, metadata !2506, metadata !DIExpression()), !dbg !2550
  call void @llvm.dbg.value(metadata i8* %47, metadata !2503, metadata !DIExpression()), !dbg !2550
  %63 = getelementptr inbounds i8, i8* %47, i32 1, !dbg !2616
  call void @llvm.dbg.value(metadata i8* %63, metadata !2503, metadata !DIExpression()), !dbg !2550
  store i8* %63, i8** %6, align 4, !dbg !2616, !tbaa !2551
  br label %64, !dbg !2617

64:                                               ; preds = %52, %54, %50
  %65 = phi i32 [ %51, %50 ], [ %61, %54 ], [ 0, %52 ], !dbg !2598
  %66 = phi i32 [ %45, %50 ], [ %62, %54 ], [ %45, %52 ], !dbg !2598
  %67 = phi i8* [ %13, %50 ], [ %55, %54 ], [ %13, %52 ]
  call void @llvm.dbg.value(metadata i8* %67, metadata !2504, metadata !DIExpression()), !dbg !2550
  call void @llvm.dbg.value(metadata i32 %66, metadata !2505, metadata !DIExpression()), !dbg !2550
  call void @llvm.dbg.value(metadata i32 %65, metadata !2506, metadata !DIExpression()), !dbg !2550
  call void @llvm.dbg.value(metadata i32 0, metadata !2507, metadata !DIExpression()), !dbg !2550
  %68 = load i8*, i8** %6, align 4, !dbg !2618, !tbaa !2551
  call void @llvm.dbg.value(metadata i8* %68, metadata !2503, metadata !DIExpression()), !dbg !2550
  %69 = load i8, i8* %68, align 1, !dbg !2619, !tbaa !2561
  %70 = icmp eq i8 %69, 46, !dbg !2620
  br i1 %70, label %71, label %87, !dbg !2621

71:                                               ; preds = %64
  %72 = or i32 %66, 1024, !dbg !2622
  call void @llvm.dbg.value(metadata i32 %72, metadata !2505, metadata !DIExpression()), !dbg !2550
  %73 = getelementptr inbounds i8, i8* %68, i32 1, !dbg !2623
  call void @llvm.dbg.value(metadata i8* %73, metadata !2503, metadata !DIExpression()), !dbg !2550
  store i8* %73, i8** %6, align 4, !dbg !2623, !tbaa !2551
  %74 = load i8, i8* %73, align 1, !dbg !2624, !tbaa !2561
  %75 = call fastcc zeroext i1 @_is_digit(i8 noundef zeroext %74), !dbg !2625
  br i1 %75, label %76, label %78, !dbg !2626

76:                                               ; preds = %71
  call void @llvm.dbg.value(metadata i8** %6, metadata !2503, metadata !DIExpression(DW_OP_deref)), !dbg !2550
  %77 = call fastcc i32 @_atoi(i8** noundef nonnull %6), !dbg !2627
  call void @llvm.dbg.value(metadata i32 %77, metadata !2507, metadata !DIExpression()), !dbg !2550
  br label %87, !dbg !2629

78:                                               ; preds = %71
  call void @llvm.dbg.value(metadata i8* %73, metadata !2503, metadata !DIExpression()), !dbg !2550
  %79 = icmp eq i8 %74, 42, !dbg !2630
  br i1 %79, label %80, label %87, !dbg !2631

80:                                               ; preds = %78
  %81 = getelementptr inbounds i8, i8* %67, i32 4, !dbg !2632
  call void @llvm.dbg.value(metadata i8* %81, metadata !2504, metadata !DIExpression()), !dbg !2550
  %82 = bitcast i8* %67 to i32*, !dbg !2632
  %83 = load i32, i32* %82, align 4, !dbg !2632
  call void @llvm.dbg.value(metadata i32 %83, metadata !2515, metadata !DIExpression()), !dbg !2633
  %84 = icmp sgt i32 %83, 0, !dbg !2634
  %85 = select i1 %84, i32 %83, i32 0, !dbg !2635
  call void @llvm.dbg.value(metadata i32 %85, metadata !2507, metadata !DIExpression()), !dbg !2550
  %86 = getelementptr inbounds i8, i8* %68, i32 2, !dbg !2636
  call void @llvm.dbg.value(metadata i8* %86, metadata !2503, metadata !DIExpression()), !dbg !2550
  store i8* %86, i8** %6, align 4, !dbg !2636, !tbaa !2551
  br label %87, !dbg !2637

87:                                               ; preds = %76, %80, %78, %64
  %88 = phi i32 [ %77, %76 ], [ %85, %80 ], [ 0, %78 ], [ 0, %64 ], !dbg !2598
  %89 = phi i32 [ %72, %76 ], [ %72, %80 ], [ %72, %78 ], [ %66, %64 ], !dbg !2598
  %90 = phi i8* [ %67, %76 ], [ %81, %80 ], [ %67, %78 ], [ %67, %64 ]
  call void @llvm.dbg.value(metadata i8* %90, metadata !2504, metadata !DIExpression()), !dbg !2550
  call void @llvm.dbg.value(metadata i32 %89, metadata !2505, metadata !DIExpression()), !dbg !2550
  call void @llvm.dbg.value(metadata i32 %88, metadata !2507, metadata !DIExpression()), !dbg !2550
  %91 = load i8*, i8** %6, align 4, !dbg !2638, !tbaa !2551
  call void @llvm.dbg.value(metadata i8* %91, metadata !2503, metadata !DIExpression()), !dbg !2550
  %92 = load i8, i8* %91, align 1, !dbg !2639, !tbaa !2561
  %93 = zext i8 %92 to i32, !dbg !2639
  %94 = add nsw i32 %93, -104, !dbg !2640
  %95 = call i32 @llvm.fshl.i32(i32 %94, i32 %94, i32 31), !dbg !2640
  switch i32 %95, label %121 [
    i32 2, label %96
    i32 0, label %104
    i32 6, label %112
    i32 1, label %115
    i32 9, label %118
  ], !dbg !2640

96:                                               ; preds = %87
  %97 = or i32 %89, 256, !dbg !2641
  call void @llvm.dbg.value(metadata i32 %97, metadata !2505, metadata !DIExpression()), !dbg !2550
  %98 = getelementptr inbounds i8, i8* %91, i32 1, !dbg !2643
  call void @llvm.dbg.value(metadata i8* %98, metadata !2503, metadata !DIExpression()), !dbg !2550
  store i8* %98, i8** %6, align 4, !dbg !2643, !tbaa !2551
  %99 = load i8, i8* %98, align 1, !dbg !2644, !tbaa !2561
  %100 = icmp eq i8 %99, 108, !dbg !2646
  br i1 %100, label %101, label %121, !dbg !2647

101:                                              ; preds = %96
  %102 = or i32 %89, 768, !dbg !2648
  call void @llvm.dbg.value(metadata i32 %102, metadata !2505, metadata !DIExpression()), !dbg !2550
  %103 = getelementptr inbounds i8, i8* %91, i32 2, !dbg !2650
  call void @llvm.dbg.value(metadata i8* %103, metadata !2503, metadata !DIExpression()), !dbg !2550
  store i8* %103, i8** %6, align 4, !dbg !2650, !tbaa !2551
  br label %121, !dbg !2651

104:                                              ; preds = %87
  %105 = or i32 %89, 128, !dbg !2652
  call void @llvm.dbg.value(metadata i32 %105, metadata !2505, metadata !DIExpression()), !dbg !2550
  %106 = getelementptr inbounds i8, i8* %91, i32 1, !dbg !2653
  call void @llvm.dbg.value(metadata i8* %106, metadata !2503, metadata !DIExpression()), !dbg !2550
  store i8* %106, i8** %6, align 4, !dbg !2653, !tbaa !2551
  %107 = load i8, i8* %106, align 1, !dbg !2654, !tbaa !2561
  %108 = icmp eq i8 %107, 104, !dbg !2656
  br i1 %108, label %109, label %121, !dbg !2657

109:                                              ; preds = %104
  %110 = or i32 %89, 192, !dbg !2658
  call void @llvm.dbg.value(metadata i32 %110, metadata !2505, metadata !DIExpression()), !dbg !2550
  %111 = getelementptr inbounds i8, i8* %91, i32 2, !dbg !2660
  call void @llvm.dbg.value(metadata i8* %111, metadata !2503, metadata !DIExpression()), !dbg !2550
  store i8* %111, i8** %6, align 4, !dbg !2660, !tbaa !2551
  br label %121, !dbg !2661

112:                                              ; preds = %87
  %113 = or i32 %89, 256, !dbg !2662
  call void @llvm.dbg.value(metadata i32 %113, metadata !2505, metadata !DIExpression()), !dbg !2550
  %114 = getelementptr inbounds i8, i8* %91, i32 1, !dbg !2663
  call void @llvm.dbg.value(metadata i8* %114, metadata !2503, metadata !DIExpression()), !dbg !2550
  store i8* %114, i8** %6, align 4, !dbg !2663, !tbaa !2551
  br label %121, !dbg !2664

115:                                              ; preds = %87
  %116 = or i32 %89, 512, !dbg !2665
  call void @llvm.dbg.value(metadata i32 %116, metadata !2505, metadata !DIExpression()), !dbg !2550
  %117 = getelementptr inbounds i8, i8* %91, i32 1, !dbg !2666
  call void @llvm.dbg.value(metadata i8* %117, metadata !2503, metadata !DIExpression()), !dbg !2550
  store i8* %117, i8** %6, align 4, !dbg !2666, !tbaa !2551
  br label %121, !dbg !2667

118:                                              ; preds = %87
  %119 = or i32 %89, 256, !dbg !2668
  call void @llvm.dbg.value(metadata i32 %119, metadata !2505, metadata !DIExpression()), !dbg !2550
  %120 = getelementptr inbounds i8, i8* %91, i32 1, !dbg !2669
  call void @llvm.dbg.value(metadata i8* %120, metadata !2503, metadata !DIExpression()), !dbg !2550
  store i8* %120, i8** %6, align 4, !dbg !2669, !tbaa !2551
  br label %121, !dbg !2670

121:                                              ; preds = %87, %104, %109, %96, %101, %118, %115, %112
  %122 = phi i32 [ %89, %87 ], [ %119, %118 ], [ %116, %115 ], [ %113, %112 ], [ %110, %109 ], [ %105, %104 ], [ %102, %101 ], [ %97, %96 ], !dbg !2598
  call void @llvm.dbg.value(metadata i32 %122, metadata !2505, metadata !DIExpression()), !dbg !2550
  %123 = load i8*, i8** %6, align 4, !dbg !2671, !tbaa !2551
  call void @llvm.dbg.value(metadata i8* %123, metadata !2503, metadata !DIExpression()), !dbg !2550
  %124 = load i8, i8* %123, align 1, !dbg !2672, !tbaa !2561
  switch i8 %124, label %350 [
    i8 37, label %346
    i8 112, label %337
    i8 115, label %278
    i8 99, label %244
    i8 70, label %233
    i8 102, label %233
    i8 120, label %129
    i8 88, label %129
    i8 111, label %125
    i8 98, label %126
    i8 100, label %127
    i8 105, label %127
    i8 117, label %127
  ], !dbg !2673

125:                                              ; preds = %121
  call void @llvm.dbg.value(metadata i32 8, metadata !2521, metadata !DIExpression()), !dbg !2674
  br label %129, !dbg !2675

126:                                              ; preds = %121
  call void @llvm.dbg.value(metadata i32 2, metadata !2521, metadata !DIExpression()), !dbg !2674
  br label %129, !dbg !2679

127:                                              ; preds = %121, %121, %121
  call void @llvm.dbg.value(metadata i32 10, metadata !2521, metadata !DIExpression()), !dbg !2674
  %128 = and i32 %122, -17, !dbg !2682
  call void @llvm.dbg.value(metadata i32 %128, metadata !2505, metadata !DIExpression()), !dbg !2550
  br label %129

129:                                              ; preds = %121, %121, %125, %127, %126
  %130 = phi i32 [ 8, %125 ], [ 2, %126 ], [ 10, %127 ], [ 16, %121 ], [ 16, %121 ], !dbg !2684
  %131 = phi i32 [ %122, %125 ], [ %122, %126 ], [ %128, %127 ], [ %122, %121 ], [ %122, %121 ], !dbg !2598
  call void @llvm.dbg.value(metadata i32 %131, metadata !2505, metadata !DIExpression()), !dbg !2550
  call void @llvm.dbg.value(metadata i32 %130, metadata !2521, metadata !DIExpression()), !dbg !2674
  call void @llvm.dbg.value(metadata i8* %123, metadata !2503, metadata !DIExpression()), !dbg !2550
  %132 = icmp eq i8 %124, 88, !dbg !2685
  %133 = or i32 %131, 32
  %134 = select i1 %132, i32 %133, i32 %131, !dbg !2687
  call void @llvm.dbg.value(metadata i32 %134, metadata !2505, metadata !DIExpression()), !dbg !2550
  call void @llvm.dbg.value(metadata i8* %123, metadata !2503, metadata !DIExpression()), !dbg !2550
  switch i8 %124, label %135 [
    i8 105, label %137
    i8 100, label %137
  ], !dbg !2688

135:                                              ; preds = %129
  %136 = and i32 %134, -13, !dbg !2690
  call void @llvm.dbg.value(metadata i32 %136, metadata !2505, metadata !DIExpression()), !dbg !2550
  br label %137, !dbg !2692

137:                                              ; preds = %129, %129, %135
  %138 = phi i32 [ %136, %135 ], [ %134, %129 ], [ %134, %129 ], !dbg !2674
  call void @llvm.dbg.value(metadata i32 %138, metadata !2505, metadata !DIExpression()), !dbg !2550
  %139 = and i32 %138, 1024, !dbg !2693
  %140 = icmp eq i32 %139, 0, !dbg !2693
  %141 = and i32 %138, -2
  %142 = select i1 %140, i32 %138, i32 %141, !dbg !2695
  call void @llvm.dbg.value(metadata i32 %142, metadata !2505, metadata !DIExpression()), !dbg !2550
  call void @llvm.dbg.value(metadata i8* %123, metadata !2503, metadata !DIExpression()), !dbg !2550
  switch i8 %124, label %189 [
    i8 105, label %143
    i8 100, label %143
  ], !dbg !2696

143:                                              ; preds = %137, %137
  %144 = and i32 %142, 512, !dbg !2697
  %145 = icmp eq i32 %144, 0, !dbg !2697
  br i1 %145, label %158, label %146, !dbg !2698

146:                                              ; preds = %143
  %147 = ptrtoint i8* %90 to i32, !dbg !2699
  %148 = add i32 %147, 7, !dbg !2699
  %149 = and i32 %148, -8, !dbg !2699
  %150 = inttoptr i32 %149 to i8*, !dbg !2699
  %151 = getelementptr inbounds i8, i8* %150, i32 8, !dbg !2699
  call void @llvm.dbg.value(metadata i8* %151, metadata !2504, metadata !DIExpression()), !dbg !2550
  %152 = inttoptr i32 %149 to i64*, !dbg !2699
  %153 = load i64, i64* %152, align 8, !dbg !2699
  call void @llvm.dbg.value(metadata i64 %153, metadata !2524, metadata !DIExpression()), !dbg !2700
  %154 = call i64 @llvm.abs.i64(i64 %153, i1 true), !dbg !2701
  %155 = icmp slt i64 %153, 0, !dbg !2702
  %156 = zext i32 %130 to i64, !dbg !2703
  %157 = call fastcc i32 @_ntoa_long_long(void (i8, i8*, i32, i32)* noundef %10, i8* noundef %1, i32 noundef %15, i32 noundef %2, i64 noundef %154, i1 noundef zeroext %155, i64 noundef %156, i32 noundef %88, i32 noundef %65, i32 noundef %142), !dbg !2704
  call void @llvm.dbg.value(metadata i32 %157, metadata !2509, metadata !DIExpression()), !dbg !2550
  br label %228, !dbg !2705

158:                                              ; preds = %143
  %159 = and i32 %142, 256, !dbg !2706
  %160 = icmp eq i32 %159, 0, !dbg !2706
  br i1 %160, label %168, label %161, !dbg !2707

161:                                              ; preds = %158
  %162 = getelementptr inbounds i8, i8* %90, i32 4, !dbg !2708
  call void @llvm.dbg.value(metadata i8* %162, metadata !2504, metadata !DIExpression()), !dbg !2550
  %163 = bitcast i8* %90 to i32*, !dbg !2708
  %164 = load i32, i32* %163, align 4, !dbg !2708
  call void @llvm.dbg.value(metadata i32 %164, metadata !2530, metadata !DIExpression()), !dbg !2709
  %165 = call i32 @llvm.abs.i32(i32 %164, i1 true), !dbg !2710
  %166 = icmp slt i32 %164, 0, !dbg !2711
  %167 = call fastcc i32 @_ntoa_long(void (i8, i8*, i32, i32)* noundef %10, i8* noundef %1, i32 noundef %15, i32 noundef %2, i32 noundef %165, i1 noundef zeroext %166, i32 noundef %130, i32 noundef %88, i32 noundef %65, i32 noundef %142), !dbg !2712
  call void @llvm.dbg.value(metadata i32 %167, metadata !2509, metadata !DIExpression()), !dbg !2550
  br label %228, !dbg !2713

168:                                              ; preds = %158
  %169 = and i32 %142, 64, !dbg !2714
  %170 = icmp eq i32 %169, 0, !dbg !2714
  br i1 %170, label %175, label %171, !dbg !2715

171:                                              ; preds = %168
  call void @llvm.dbg.value(metadata i8* %90, metadata !2504, metadata !DIExpression(DW_OP_plus_uconst, 4, DW_OP_stack_value)), !dbg !2550
  %172 = bitcast i8* %90 to i32*, !dbg !2716
  %173 = load i32, i32* %172, align 4, !dbg !2716
  %174 = and i32 %173, 255, !dbg !2717
  br label %183, !dbg !2715

175:                                              ; preds = %168
  %176 = and i32 %142, 128, !dbg !2718
  %177 = icmp eq i32 %176, 0, !dbg !2718
  call void @llvm.dbg.value(metadata i8* %90, metadata !2504, metadata !DIExpression(DW_OP_plus_uconst, 4, DW_OP_stack_value)), !dbg !2550
  call void @llvm.dbg.value(metadata i8* %90, metadata !2504, metadata !DIExpression(DW_OP_plus_uconst, 4, DW_OP_stack_value)), !dbg !2550
  %178 = bitcast i8* %90 to i32*, !dbg !2719
  %179 = load i32, i32* %178, align 4, !dbg !2719
  br i1 %177, label %183, label %180, !dbg !2720

180:                                              ; preds = %175
  %181 = shl i32 %179, 16, !dbg !2721
  %182 = ashr exact i32 %181, 16, !dbg !2721
  br label %183, !dbg !2720

183:                                              ; preds = %175, %180, %171
  %184 = phi i32 [ %174, %171 ], [ %182, %180 ], [ %179, %175 ], !dbg !2715
  %185 = getelementptr inbounds i8, i8* %90, i32 4, !dbg !2719
  call void @llvm.dbg.value(metadata i8* %185, metadata !2504, metadata !DIExpression()), !dbg !2550
  call void @llvm.dbg.value(metadata i32 %184, metadata !2534, metadata !DIExpression()), !dbg !2719
  %186 = call i32 @llvm.abs.i32(i32 %184, i1 true), !dbg !2722
  %187 = icmp slt i32 %184, 0, !dbg !2723
  %188 = call fastcc i32 @_ntoa_long(void (i8, i8*, i32, i32)* noundef %10, i8* noundef %1, i32 noundef %15, i32 noundef %2, i32 noundef %186, i1 noundef zeroext %187, i32 noundef %130, i32 noundef %88, i32 noundef %65, i32 noundef %142), !dbg !2724
  call void @llvm.dbg.value(metadata i32 %188, metadata !2509, metadata !DIExpression()), !dbg !2550
  br label %228

189:                                              ; preds = %137
  %190 = and i32 %142, 512, !dbg !2725
  %191 = icmp eq i32 %190, 0, !dbg !2725
  br i1 %191, label %202, label %192, !dbg !2726

192:                                              ; preds = %189
  %193 = ptrtoint i8* %90 to i32, !dbg !2727
  %194 = add i32 %193, 7, !dbg !2727
  %195 = and i32 %194, -8, !dbg !2727
  %196 = inttoptr i32 %195 to i8*, !dbg !2727
  %197 = getelementptr inbounds i8, i8* %196, i32 8, !dbg !2727
  call void @llvm.dbg.value(metadata i8* %197, metadata !2504, metadata !DIExpression()), !dbg !2550
  %198 = inttoptr i32 %195 to i64*, !dbg !2727
  %199 = load i64, i64* %198, align 8, !dbg !2727
  %200 = zext i32 %130 to i64, !dbg !2729
  %201 = call fastcc i32 @_ntoa_long_long(void (i8, i8*, i32, i32)* noundef %10, i8* noundef %1, i32 noundef %15, i32 noundef %2, i64 noundef %199, i1 noundef zeroext false, i64 noundef %200, i32 noundef %88, i32 noundef %65, i32 noundef %142), !dbg !2730
  call void @llvm.dbg.value(metadata i32 %201, metadata !2509, metadata !DIExpression()), !dbg !2550
  br label %228, !dbg !2731

202:                                              ; preds = %189
  %203 = and i32 %142, 256, !dbg !2732
  %204 = icmp eq i32 %203, 0, !dbg !2732
  br i1 %204, label %210, label %205, !dbg !2733

205:                                              ; preds = %202
  %206 = getelementptr inbounds i8, i8* %90, i32 4, !dbg !2734
  call void @llvm.dbg.value(metadata i8* %206, metadata !2504, metadata !DIExpression()), !dbg !2550
  %207 = bitcast i8* %90 to i32*, !dbg !2734
  %208 = load i32, i32* %207, align 4, !dbg !2734
  %209 = call fastcc i32 @_ntoa_long(void (i8, i8*, i32, i32)* noundef %10, i8* noundef %1, i32 noundef %15, i32 noundef %2, i32 noundef %208, i1 noundef zeroext false, i32 noundef %130, i32 noundef %88, i32 noundef %65, i32 noundef %142), !dbg !2736
  call void @llvm.dbg.value(metadata i32 %209, metadata !2509, metadata !DIExpression()), !dbg !2550
  br label %228, !dbg !2737

210:                                              ; preds = %202
  %211 = and i32 %142, 64, !dbg !2738
  %212 = icmp eq i32 %211, 0, !dbg !2738
  br i1 %212, label %217, label %213, !dbg !2739

213:                                              ; preds = %210
  call void @llvm.dbg.value(metadata i8* %90, metadata !2504, metadata !DIExpression(DW_OP_plus_uconst, 4, DW_OP_stack_value)), !dbg !2550
  %214 = bitcast i8* %90 to i32*, !dbg !2740
  %215 = load i32, i32* %214, align 4, !dbg !2740
  %216 = and i32 %215, 255, !dbg !2741
  br label %224, !dbg !2739

217:                                              ; preds = %210
  %218 = and i32 %142, 128, !dbg !2742
  %219 = icmp eq i32 %218, 0, !dbg !2742
  call void @llvm.dbg.value(metadata i8* %90, metadata !2504, metadata !DIExpression(DW_OP_plus_uconst, 4, DW_OP_stack_value)), !dbg !2550
  call void @llvm.dbg.value(metadata i8* %90, metadata !2504, metadata !DIExpression(DW_OP_plus_uconst, 4, DW_OP_stack_value)), !dbg !2550
  %220 = bitcast i8* %90 to i32*, !dbg !2743
  %221 = load i32, i32* %220, align 4, !dbg !2743
  %222 = and i32 %221, 65535
  %223 = select i1 %219, i32 %221, i32 %222, !dbg !2744
  br label %224, !dbg !2744

224:                                              ; preds = %217, %213
  %225 = phi i32 [ %216, %213 ], [ %223, %217 ], !dbg !2739
  %226 = getelementptr inbounds i8, i8* %90, i32 4, !dbg !2743
  call void @llvm.dbg.value(metadata i8* %226, metadata !2504, metadata !DIExpression()), !dbg !2550
  call void @llvm.dbg.value(metadata i32 %225, metadata !2536, metadata !DIExpression()), !dbg !2743
  %227 = call fastcc i32 @_ntoa_long(void (i8, i8*, i32, i32)* noundef %10, i8* noundef %1, i32 noundef %15, i32 noundef %2, i32 noundef %225, i1 noundef zeroext false, i32 noundef %130, i32 noundef %88, i32 noundef %65, i32 noundef %142), !dbg !2745
  call void @llvm.dbg.value(metadata i32 %227, metadata !2509, metadata !DIExpression()), !dbg !2550
  br label %228

228:                                              ; preds = %192, %224, %205, %146, %183, %161
  %229 = phi i32 [ %157, %146 ], [ %167, %161 ], [ %188, %183 ], [ %201, %192 ], [ %209, %205 ], [ %227, %224 ], !dbg !2746
  %230 = phi i8* [ %151, %146 ], [ %162, %161 ], [ %185, %183 ], [ %197, %192 ], [ %206, %205 ], [ %226, %224 ], !dbg !2746
  call void @llvm.dbg.value(metadata i8* %230, metadata !2504, metadata !DIExpression()), !dbg !2550
  call void @llvm.dbg.value(metadata i32 %229, metadata !2509, metadata !DIExpression()), !dbg !2550
  %231 = load i8*, i8** %6, align 4, !dbg !2747, !tbaa !2551
  call void @llvm.dbg.value(metadata i8* %231, metadata !2503, metadata !DIExpression()), !dbg !2550
  %232 = getelementptr inbounds i8, i8* %231, i32 1, !dbg !2747
  call void @llvm.dbg.value(metadata i8* %232, metadata !2503, metadata !DIExpression()), !dbg !2550
  store i8* %232, i8** %6, align 4, !dbg !2747, !tbaa !2551
  br label %354

233:                                              ; preds = %121, %121
  %234 = ptrtoint i8* %90 to i32, !dbg !2748
  %235 = add i32 %234, 7, !dbg !2748
  %236 = and i32 %235, -8, !dbg !2748
  %237 = inttoptr i32 %236 to i8*, !dbg !2748
  %238 = getelementptr inbounds i8, i8* %237, i32 8, !dbg !2748
  call void @llvm.dbg.value(metadata i8* %238, metadata !2504, metadata !DIExpression()), !dbg !2550
  %239 = inttoptr i32 %236 to double*, !dbg !2748
  %240 = load double, double* %239, align 8, !dbg !2748
  %241 = call fastcc i32 @_ftoa(void (i8, i8*, i32, i32)* noundef %10, i8* noundef %1, i32 noundef %15, i32 noundef %2, double noundef %240, i32 noundef %88, i32 noundef %65, i32 noundef %122), !dbg !2749
  call void @llvm.dbg.value(metadata i32 %241, metadata !2509, metadata !DIExpression()), !dbg !2550
  %242 = load i8*, i8** %6, align 4, !dbg !2750, !tbaa !2551
  call void @llvm.dbg.value(metadata i8* %242, metadata !2503, metadata !DIExpression()), !dbg !2550
  %243 = getelementptr inbounds i8, i8* %242, i32 1, !dbg !2750
  call void @llvm.dbg.value(metadata i8* %243, metadata !2503, metadata !DIExpression()), !dbg !2550
  store i8* %243, i8** %6, align 4, !dbg !2750, !tbaa !2551
  br label %354, !dbg !2751

244:                                              ; preds = %121
  call void @llvm.dbg.value(metadata i32 1, metadata !2542, metadata !DIExpression()), !dbg !2752
  %245 = and i32 %122, 2, !dbg !2753
  %246 = icmp eq i32 %245, 0, !dbg !2753
  br i1 %246, label %247, label %257, !dbg !2755

247:                                              ; preds = %244
  call void @llvm.dbg.value(metadata i32 1, metadata !2542, metadata !DIExpression()), !dbg !2752
  call void @llvm.dbg.value(metadata i32 %15, metadata !2509, metadata !DIExpression()), !dbg !2550
  call void @llvm.dbg.value(metadata i32 2, metadata !2542, metadata !DIExpression()), !dbg !2752
  %248 = icmp ugt i32 %65, 1, !dbg !2756
  br i1 %248, label %249, label %257, !dbg !2758

249:                                              ; preds = %247
  %250 = add i32 %65, 1, !dbg !2758
  br label %251, !dbg !2758

251:                                              ; preds = %249, %251
  %252 = phi i32 [ %255, %251 ], [ 2, %249 ]
  %253 = phi i32 [ %254, %251 ], [ %15, %249 ]
  call void @llvm.dbg.value(metadata i32 %253, metadata !2509, metadata !DIExpression()), !dbg !2550
  %254 = add i32 %253, 1, !dbg !2759
  call void @llvm.dbg.value(metadata i32 %254, metadata !2509, metadata !DIExpression()), !dbg !2550
  call void %10(i8 noundef zeroext 32, i8* noundef %1, i32 noundef %253, i32 noundef %2) #33, !dbg !2761, !callees !2566
  call void @llvm.dbg.value(metadata i32 %252, metadata !2542, metadata !DIExpression()), !dbg !2752
  %255 = add i32 %252, 1, !dbg !2762
  call void @llvm.dbg.value(metadata i32 %255, metadata !2542, metadata !DIExpression()), !dbg !2752
  %256 = icmp eq i32 %252, %65, !dbg !2756
  br i1 %256, label %257, label %251, !dbg !2758, !llvm.loop !2763

257:                                              ; preds = %251, %247, %244
  %258 = phi i32 [ %15, %244 ], [ %15, %247 ], [ %254, %251 ], !dbg !2765
  %259 = phi i32 [ 1, %244 ], [ 2, %247 ], [ %250, %251 ], !dbg !2752
  call void @llvm.dbg.value(metadata i32 %259, metadata !2542, metadata !DIExpression()), !dbg !2752
  call void @llvm.dbg.value(metadata i32 %258, metadata !2509, metadata !DIExpression()), !dbg !2550
  %260 = getelementptr inbounds i8, i8* %90, i32 4, !dbg !2766
  call void @llvm.dbg.value(metadata i8* %260, metadata !2504, metadata !DIExpression()), !dbg !2550
  %261 = bitcast i8* %90 to i32*, !dbg !2766
  %262 = load i32, i32* %261, align 4, !dbg !2766
  %263 = trunc i32 %262 to i8, !dbg !2767
  %264 = add i32 %258, 1, !dbg !2768
  call void @llvm.dbg.value(metadata i32 %264, metadata !2509, metadata !DIExpression()), !dbg !2550
  call void %10(i8 noundef zeroext %263, i8* noundef %1, i32 noundef %258, i32 noundef %2) #33, !dbg !2769, !callees !2566
  %265 = xor i1 %246, true, !dbg !2770
  %266 = icmp ult i32 %259, %65
  %267 = select i1 %265, i1 %266, i1 false, !dbg !2770
  call void @llvm.dbg.value(metadata i32 %259, metadata !2542, metadata !DIExpression()), !dbg !2752
  call void @llvm.dbg.value(metadata i32 %264, metadata !2509, metadata !DIExpression()), !dbg !2550
  call void @llvm.dbg.value(metadata i32 %259, metadata !2542, metadata !DIExpression(DW_OP_plus_uconst, 1, DW_OP_stack_value)), !dbg !2752
  br i1 %267, label %268, label %274, !dbg !2770

268:                                              ; preds = %257, %268
  %269 = phi i32 [ %271, %268 ], [ %259, %257 ]
  %270 = phi i32 [ %272, %268 ], [ %264, %257 ]
  call void @llvm.dbg.value(metadata i32 %269, metadata !2542, metadata !DIExpression()), !dbg !2752
  call void @llvm.dbg.value(metadata i32 %270, metadata !2509, metadata !DIExpression()), !dbg !2550
  %271 = add nuw i32 %269, 1, !dbg !2771
  call void @llvm.dbg.value(metadata i32 %271, metadata !2542, metadata !DIExpression()), !dbg !2752
  %272 = add i32 %270, 1, !dbg !2774
  call void @llvm.dbg.value(metadata i32 %272, metadata !2509, metadata !DIExpression()), !dbg !2550
  call void %10(i8 noundef zeroext 32, i8* noundef %1, i32 noundef %270, i32 noundef %2) #33, !dbg !2776, !callees !2566
  call void @llvm.dbg.value(metadata i32 %271, metadata !2542, metadata !DIExpression(DW_OP_plus_uconst, 1, DW_OP_stack_value)), !dbg !2752
  %273 = icmp eq i32 %271, %65, !dbg !2777
  br i1 %273, label %274, label %268, !dbg !2778, !llvm.loop !2779

274:                                              ; preds = %268, %257
  %275 = phi i32 [ %264, %257 ], [ %272, %268 ], !dbg !2768
  call void @llvm.dbg.value(metadata i32 %275, metadata !2509, metadata !DIExpression()), !dbg !2550
  %276 = load i8*, i8** %6, align 4, !dbg !2781, !tbaa !2551
  call void @llvm.dbg.value(metadata i8* %276, metadata !2503, metadata !DIExpression()), !dbg !2550
  %277 = getelementptr inbounds i8, i8* %276, i32 1, !dbg !2781
  call void @llvm.dbg.value(metadata i8* %277, metadata !2503, metadata !DIExpression()), !dbg !2550
  store i8* %277, i8** %6, align 4, !dbg !2781, !tbaa !2551
  br label %354

278:                                              ; preds = %121
  %279 = getelementptr inbounds i8, i8* %90, i32 4, !dbg !2782
  call void @llvm.dbg.value(metadata i8* %279, metadata !2504, metadata !DIExpression()), !dbg !2550
  %280 = bitcast i8* %90 to i8**, !dbg !2782
  %281 = load i8*, i8** %280, align 4, !dbg !2782
  call void @llvm.dbg.value(metadata i8* %281, metadata !2544, metadata !DIExpression()), !dbg !2783
  %282 = icmp eq i32 %88, 0, !dbg !2784
  %283 = select i1 %282, i32 -1, i32 %88, !dbg !2784
  %284 = call fastcc i32 @_strnlen_s(i8* noundef %281, i32 noundef %283), !dbg !2785
  call void @llvm.dbg.value(metadata i32 %284, metadata !2546, metadata !DIExpression()), !dbg !2783
  %285 = and i32 %122, 1024, !dbg !2786
  %286 = icmp eq i32 %285, 0, !dbg !2786
  %287 = icmp ult i32 %284, %88, !dbg !2788
  %288 = select i1 %286, i1 true, i1 %287, !dbg !2788
  %289 = select i1 %288, i32 %284, i32 %88, !dbg !2788
  call void @llvm.dbg.value(metadata i32 %289, metadata !2546, metadata !DIExpression()), !dbg !2783
  %290 = and i32 %122, 2, !dbg !2789
  %291 = icmp eq i32 %290, 0, !dbg !2789
  br i1 %291, label %292, label %303, !dbg !2791

292:                                              ; preds = %278
  call void @llvm.dbg.value(metadata i32 %289, metadata !2546, metadata !DIExpression()), !dbg !2783
  call void @llvm.dbg.value(metadata i32 %15, metadata !2509, metadata !DIExpression()), !dbg !2550
  %293 = add i32 %289, 1, !dbg !2792
  call void @llvm.dbg.value(metadata i32 %293, metadata !2546, metadata !DIExpression()), !dbg !2783
  %294 = icmp ult i32 %289, %65, !dbg !2794
  br i1 %294, label %295, label %303, !dbg !2795

295:                                              ; preds = %292
  %296 = add i32 %65, 1, !dbg !2795
  br label %297, !dbg !2795

297:                                              ; preds = %295, %297
  %298 = phi i32 [ %301, %297 ], [ %293, %295 ]
  %299 = phi i32 [ %300, %297 ], [ %15, %295 ]
  call void @llvm.dbg.value(metadata i32 %299, metadata !2509, metadata !DIExpression()), !dbg !2550
  %300 = add i32 %299, 1, !dbg !2796
  call void @llvm.dbg.value(metadata i32 %300, metadata !2509, metadata !DIExpression()), !dbg !2550
  call void %10(i8 noundef zeroext 32, i8* noundef %1, i32 noundef %299, i32 noundef %2) #33, !dbg !2798, !callees !2566
  call void @llvm.dbg.value(metadata i32 %298, metadata !2546, metadata !DIExpression()), !dbg !2783
  %301 = add i32 %298, 1, !dbg !2792
  call void @llvm.dbg.value(metadata i32 %301, metadata !2546, metadata !DIExpression()), !dbg !2783
  %302 = icmp eq i32 %298, %65, !dbg !2794
  br i1 %302, label %303, label %297, !dbg !2795, !llvm.loop !2799

303:                                              ; preds = %297, %292, %278
  %304 = phi i32 [ %15, %278 ], [ %15, %292 ], [ %300, %297 ], !dbg !2765
  %305 = phi i32 [ %289, %278 ], [ %293, %292 ], [ %296, %297 ], !dbg !2783
  call void @llvm.dbg.value(metadata i32 %305, metadata !2546, metadata !DIExpression()), !dbg !2783
  call void @llvm.dbg.value(metadata i32 %304, metadata !2509, metadata !DIExpression()), !dbg !2550
  call void @llvm.dbg.value(metadata i8* %281, metadata !2544, metadata !DIExpression()), !dbg !2783
  call void @llvm.dbg.value(metadata i32 %88, metadata !2507, metadata !DIExpression()), !dbg !2550
  %306 = load i8, i8* %281, align 1, !dbg !2801, !tbaa !2561
  %307 = icmp eq i8 %306, 0, !dbg !2802
  br i1 %307, label %322, label %308, !dbg !2803

308:                                              ; preds = %303, %316
  %309 = phi i8 [ %320, %316 ], [ %306, %303 ]
  %310 = phi i8* [ %318, %316 ], [ %281, %303 ]
  %311 = phi i32 [ %317, %316 ], [ %88, %303 ]
  %312 = phi i32 [ %319, %316 ], [ %304, %303 ]
  call void @llvm.dbg.value(metadata i8* %310, metadata !2544, metadata !DIExpression()), !dbg !2783
  call void @llvm.dbg.value(metadata i32 %311, metadata !2507, metadata !DIExpression()), !dbg !2550
  call void @llvm.dbg.value(metadata i32 %312, metadata !2509, metadata !DIExpression()), !dbg !2550
  br i1 %286, label %316, label %313, !dbg !2804

313:                                              ; preds = %308
  %314 = add i32 %311, -1, !dbg !2805
  call void @llvm.dbg.value(metadata i32 %314, metadata !2507, metadata !DIExpression()), !dbg !2550
  %315 = icmp eq i32 %311, 0, !dbg !2804
  br i1 %315, label %322, label %316, !dbg !2806

316:                                              ; preds = %308, %313
  %317 = phi i32 [ %314, %313 ], [ %311, %308 ], !dbg !2598
  call void @llvm.dbg.value(metadata i32 %317, metadata !2507, metadata !DIExpression()), !dbg !2550
  %318 = getelementptr inbounds i8, i8* %310, i32 1, !dbg !2807
  call void @llvm.dbg.value(metadata i8* %318, metadata !2544, metadata !DIExpression()), !dbg !2783
  %319 = add i32 %312, 1, !dbg !2809
  call void @llvm.dbg.value(metadata i32 %319, metadata !2509, metadata !DIExpression()), !dbg !2550
  call void %10(i8 noundef zeroext %309, i8* noundef %1, i32 noundef %312, i32 noundef %2) #33, !dbg !2810, !callees !2566
  %320 = load i8, i8* %318, align 1, !dbg !2801, !tbaa !2561
  %321 = icmp eq i8 %320, 0, !dbg !2802
  br i1 %321, label %322, label %308, !dbg !2803, !llvm.loop !2811

322:                                              ; preds = %313, %316, %303
  %323 = phi i32 [ %304, %303 ], [ %312, %313 ], [ %319, %316 ], !dbg !2550
  %324 = xor i1 %291, true, !dbg !2813
  %325 = icmp ult i32 %305, %65
  %326 = select i1 %324, i1 %325, i1 false, !dbg !2813
  call void @llvm.dbg.value(metadata i32 %305, metadata !2546, metadata !DIExpression()), !dbg !2783
  call void @llvm.dbg.value(metadata i32 %323, metadata !2509, metadata !DIExpression()), !dbg !2550
  call void @llvm.dbg.value(metadata i32 %305, metadata !2546, metadata !DIExpression(DW_OP_plus_uconst, 1, DW_OP_stack_value)), !dbg !2783
  br i1 %326, label %327, label %333, !dbg !2813

327:                                              ; preds = %322, %327
  %328 = phi i32 [ %330, %327 ], [ %305, %322 ]
  %329 = phi i32 [ %331, %327 ], [ %323, %322 ]
  call void @llvm.dbg.value(metadata i32 %328, metadata !2546, metadata !DIExpression()), !dbg !2783
  call void @llvm.dbg.value(metadata i32 %329, metadata !2509, metadata !DIExpression()), !dbg !2550
  %330 = add nuw i32 %328, 1, !dbg !2814
  call void @llvm.dbg.value(metadata i32 %330, metadata !2546, metadata !DIExpression()), !dbg !2783
  %331 = add i32 %329, 1, !dbg !2817
  call void @llvm.dbg.value(metadata i32 %331, metadata !2509, metadata !DIExpression()), !dbg !2550
  call void %10(i8 noundef zeroext 32, i8* noundef %1, i32 noundef %329, i32 noundef %2) #33, !dbg !2819, !callees !2566
  call void @llvm.dbg.value(metadata i32 %330, metadata !2546, metadata !DIExpression(DW_OP_plus_uconst, 1, DW_OP_stack_value)), !dbg !2783
  %332 = icmp eq i32 %330, %65, !dbg !2820
  br i1 %332, label %333, label %327, !dbg !2821, !llvm.loop !2822

333:                                              ; preds = %327, %322
  %334 = phi i32 [ %323, %322 ], [ %331, %327 ], !dbg !2765
  call void @llvm.dbg.value(metadata i32 %334, metadata !2509, metadata !DIExpression()), !dbg !2550
  %335 = load i8*, i8** %6, align 4, !dbg !2824, !tbaa !2551
  call void @llvm.dbg.value(metadata i8* %335, metadata !2503, metadata !DIExpression()), !dbg !2550
  %336 = getelementptr inbounds i8, i8* %335, i32 1, !dbg !2824
  call void @llvm.dbg.value(metadata i8* %336, metadata !2503, metadata !DIExpression()), !dbg !2550
  store i8* %336, i8** %6, align 4, !dbg !2824, !tbaa !2551
  br label %354

337:                                              ; preds = %121
  call void @llvm.dbg.value(metadata i32 8, metadata !2506, metadata !DIExpression()), !dbg !2550
  %338 = or i32 %122, 33, !dbg !2825
  call void @llvm.dbg.value(metadata i32 %338, metadata !2505, metadata !DIExpression()), !dbg !2550
  call void @llvm.dbg.value(metadata i8 0, metadata !2547, metadata !DIExpression()), !dbg !2826
  %339 = getelementptr inbounds i8, i8* %90, i32 4, !dbg !2827
  call void @llvm.dbg.value(metadata i8* %339, metadata !2504, metadata !DIExpression()), !dbg !2550
  %340 = bitcast i8* %90 to i8**, !dbg !2827
  %341 = load i8*, i8** %340, align 4, !dbg !2827
  %342 = ptrtoint i8* %341 to i32, !dbg !2830
  %343 = call fastcc i32 @_ntoa_long(void (i8, i8*, i32, i32)* noundef %10, i8* noundef %1, i32 noundef %15, i32 noundef %2, i32 noundef %342, i1 noundef zeroext false, i32 noundef 16, i32 noundef %88, i32 noundef 8, i32 noundef %338), !dbg !2831
  call void @llvm.dbg.value(metadata i32 %343, metadata !2509, metadata !DIExpression()), !dbg !2550
  %344 = load i8*, i8** %6, align 4, !dbg !2832, !tbaa !2551
  call void @llvm.dbg.value(metadata i8* %344, metadata !2503, metadata !DIExpression()), !dbg !2550
  %345 = getelementptr inbounds i8, i8* %344, i32 1, !dbg !2832
  call void @llvm.dbg.value(metadata i8* %345, metadata !2503, metadata !DIExpression()), !dbg !2550
  store i8* %345, i8** %6, align 4, !dbg !2832, !tbaa !2551
  br label %354

346:                                              ; preds = %121
  %347 = add i32 %15, 1, !dbg !2833
  call void @llvm.dbg.value(metadata i32 %347, metadata !2509, metadata !DIExpression()), !dbg !2550
  call void %10(i8 noundef zeroext 37, i8* noundef %1, i32 noundef %15, i32 noundef %2) #33, !dbg !2834, !callees !2566
  %348 = load i8*, i8** %6, align 4, !dbg !2835, !tbaa !2551
  call void @llvm.dbg.value(metadata i8* %348, metadata !2503, metadata !DIExpression()), !dbg !2550
  %349 = getelementptr inbounds i8, i8* %348, i32 1, !dbg !2835
  call void @llvm.dbg.value(metadata i8* %349, metadata !2503, metadata !DIExpression()), !dbg !2550
  store i8* %349, i8** %6, align 4, !dbg !2835, !tbaa !2551
  br label %354, !dbg !2836

350:                                              ; preds = %121
  %351 = add i32 %15, 1, !dbg !2837
  call void @llvm.dbg.value(metadata i32 %351, metadata !2509, metadata !DIExpression()), !dbg !2550
  call void %10(i8 noundef zeroext %124, i8* noundef %1, i32 noundef %15, i32 noundef %2) #33, !dbg !2838, !callees !2566
  %352 = load i8*, i8** %6, align 4, !dbg !2839, !tbaa !2551
  call void @llvm.dbg.value(metadata i8* %352, metadata !2503, metadata !DIExpression()), !dbg !2550
  %353 = getelementptr inbounds i8, i8* %352, i32 1, !dbg !2839
  call void @llvm.dbg.value(metadata i8* %353, metadata !2503, metadata !DIExpression()), !dbg !2550
  store i8* %353, i8** %6, align 4, !dbg !2839, !tbaa !2551
  br label %354, !dbg !2840

354:                                              ; preds = %350, %346, %337, %333, %274, %233, %228
  %355 = phi i32 [ %351, %350 ], [ %347, %346 ], [ %343, %337 ], [ %334, %333 ], [ %275, %274 ], [ %241, %233 ], [ %229, %228 ]
  %356 = phi i8* [ %90, %350 ], [ %90, %346 ], [ %339, %337 ], [ %279, %333 ], [ %260, %274 ], [ %238, %233 ], [ %230, %228 ]
  br label %11, !dbg !2558, !llvm.loop !2569

357:                                              ; preds = %14
  %358 = icmp ult i32 %15, %2, !dbg !2841
  %359 = add i32 %2, -1, !dbg !2842
  %360 = select i1 %358, i32 %15, i32 %359, !dbg !2842
  call void %10(i8 noundef zeroext 0, i8* noundef %1, i32 noundef %360, i32 noundef %2) #33, !dbg !2843, !callees !2566
  ret i32 %15, !dbg !2844
}

; Function Attrs: nofree nosync nounwind willreturn
declare void @llvm.va_end(i8*) #10

; Function Attrs: mustprogress nofree noinline norecurse nosync nounwind readnone willreturn
define internal void @_out_null(i8 noundef zeroext %0, i8* nocapture noundef %1, i32 noundef %2, i32 noundef %3) #11 !dbg !2845 {
  call void @llvm.dbg.value(metadata i8 %0, metadata !2847, metadata !DIExpression()), !dbg !2851
  call void @llvm.dbg.value(metadata i8* %1, metadata !2848, metadata !DIExpression()), !dbg !2851
  call void @llvm.dbg.value(metadata i32 %2, metadata !2849, metadata !DIExpression()), !dbg !2851
  call void @llvm.dbg.value(metadata i32 %3, metadata !2850, metadata !DIExpression()), !dbg !2851
  ret void, !dbg !2852
}

; Function Attrs: mustprogress nofree noinline norecurse nosync nounwind willreturn writeonly
define internal void @_out_buffer(i8 noundef zeroext %0, i8* nocapture noundef writeonly %1, i32 noundef %2, i32 noundef %3) #12 !dbg !2853 {
  call void @llvm.dbg.value(metadata i8 %0, metadata !2855, metadata !DIExpression()), !dbg !2859
  call void @llvm.dbg.value(metadata i8* %1, metadata !2856, metadata !DIExpression()), !dbg !2859
  call void @llvm.dbg.value(metadata i32 %2, metadata !2857, metadata !DIExpression()), !dbg !2859
  call void @llvm.dbg.value(metadata i32 %3, metadata !2858, metadata !DIExpression()), !dbg !2859
  %5 = icmp ult i32 %2, %3, !dbg !2860
  br i1 %5, label %6, label %8, !dbg !2862

6:                                                ; preds = %4
  %7 = getelementptr inbounds i8, i8* %1, i32 %2, !dbg !2863
  store i8 %0, i8* %7, align 1, !dbg !2865, !tbaa !2561
  br label %8, !dbg !2866

8:                                                ; preds = %6, %4
  ret void, !dbg !2867
}

; Function Attrs: noinline nounwind
define internal void @_out_fct(i8 noundef zeroext %0, i8* nocapture noundef readonly %1, i32 noundef %2, i32 noundef %3) #4 !dbg !2868 {
  call void @llvm.dbg.value(metadata i8 %0, metadata !2870, metadata !DIExpression()), !dbg !2874
  call void @llvm.dbg.value(metadata i8* %1, metadata !2871, metadata !DIExpression()), !dbg !2874
  call void @llvm.dbg.value(metadata i32 %2, metadata !2872, metadata !DIExpression()), !dbg !2874
  call void @llvm.dbg.value(metadata i32 %3, metadata !2873, metadata !DIExpression()), !dbg !2874
  %5 = icmp eq i8 %0, 0, !dbg !2875
  br i1 %5, label %12, label %6, !dbg !2877

6:                                                ; preds = %4
  %7 = bitcast i8* %1 to void (i8, i8*)**, !dbg !2878
  %8 = load void (i8, i8*)*, void (i8, i8*)** %7, align 4, !dbg !2878, !tbaa !2880
  %9 = getelementptr inbounds i8, i8* %1, i32 4, !dbg !2882
  %10 = bitcast i8* %9 to i8**, !dbg !2882
  %11 = load i8*, i8** %10, align 4, !dbg !2882, !tbaa !2883
  call void %8(i8 noundef zeroext %0, i8* noundef %11) #33, !dbg !2884
  br label %12, !dbg !2885

12:                                               ; preds = %6, %4
  ret void, !dbg !2886
}

; Function Attrs: mustprogress nofree noinline norecurse nosync nounwind readnone willreturn
define internal fastcc zeroext i1 @_is_digit(i8 noundef zeroext %0) unnamed_addr #11 !dbg !2887 {
  call void @llvm.dbg.value(metadata i8 %0, metadata !2891, metadata !DIExpression()), !dbg !2892
  %2 = add i8 %0, -48, !dbg !2893
  %3 = icmp ult i8 %2, 10, !dbg !2893
  ret i1 %3, !dbg !2894
}

; Function Attrs: nofree noinline norecurse nosync nounwind
define internal fastcc i32 @_atoi(i8** nocapture noundef %0) unnamed_addr #13 !dbg !2895 {
  call void @llvm.dbg.value(metadata i8** %0, metadata !2900, metadata !DIExpression()), !dbg !2902
  call void @llvm.dbg.value(metadata i32 0, metadata !2901, metadata !DIExpression()), !dbg !2902
  %2 = load i8*, i8** %0, align 4, !dbg !2903, !tbaa !2551
  %3 = load i8, i8* %2, align 1, !dbg !2904, !tbaa !2561
  %4 = call fastcc zeroext i1 @_is_digit(i8 noundef zeroext %3), !dbg !2905
  br i1 %4, label %5, label %16, !dbg !2906

5:                                                ; preds = %1, %5
  %6 = phi i8* [ %9, %5 ], [ %2, %1 ]
  %7 = phi i32 [ %13, %5 ], [ 0, %1 ]
  call void @llvm.dbg.value(metadata i32 %7, metadata !2901, metadata !DIExpression()), !dbg !2902
  %8 = mul i32 %7, 10, !dbg !2907
  %9 = getelementptr inbounds i8, i8* %6, i32 1, !dbg !2909
  store i8* %9, i8** %0, align 4, !dbg !2909, !tbaa !2551
  %10 = load i8, i8* %6, align 1, !dbg !2910, !tbaa !2561
  %11 = zext i8 %10 to i32, !dbg !2910
  %12 = add i32 %8, -48, !dbg !2911
  %13 = add i32 %12, %11, !dbg !2912
  call void @llvm.dbg.value(metadata i32 %13, metadata !2901, metadata !DIExpression()), !dbg !2902
  %14 = load i8, i8* %9, align 1, !dbg !2904, !tbaa !2561
  %15 = call fastcc zeroext i1 @_is_digit(i8 noundef zeroext %14), !dbg !2905
  br i1 %15, label %5, label %16, !dbg !2906, !llvm.loop !2913

16:                                               ; preds = %5, %1
  %17 = phi i32 [ 0, %1 ], [ %13, %5 ], !dbg !2902
  ret i32 %17, !dbg !2915
}

; Function Attrs: nofree nosync nounwind readnone speculatable willreturn
declare i32 @llvm.fshl.i32(i32, i32, i32) #1

; Function Attrs: nofree nosync nounwind readnone speculatable willreturn
declare i64 @llvm.abs.i64(i64, i1 immarg) #1

; Function Attrs: noinline nounwind
define internal fastcc i32 @_ntoa_long_long(void (i8, i8*, i32, i32)* nocapture noundef readonly %0, i8* noundef %1, i32 noundef %2, i32 noundef %3, i64 noundef %4, i1 noundef zeroext %5, i64 noundef %6, i32 noundef %7, i32 noundef %8, i32 noundef %9) unnamed_addr #4 !dbg !2916 {
  %11 = alloca [32 x i8], align 1
  call void @llvm.dbg.value(metadata void (i8, i8*, i32, i32)* %0, metadata !2920, metadata !DIExpression()), !dbg !2936
  call void @llvm.dbg.value(metadata i8* %1, metadata !2921, metadata !DIExpression()), !dbg !2936
  call void @llvm.dbg.value(metadata i32 %2, metadata !2922, metadata !DIExpression()), !dbg !2936
  call void @llvm.dbg.value(metadata i32 %3, metadata !2923, metadata !DIExpression()), !dbg !2936
  call void @llvm.dbg.value(metadata i64 %4, metadata !2924, metadata !DIExpression()), !dbg !2936
  call void @llvm.dbg.value(metadata i1 %5, metadata !2925, metadata !DIExpression(DW_OP_LLVM_convert, 1, DW_ATE_unsigned, DW_OP_LLVM_convert, 8, DW_ATE_unsigned, DW_OP_stack_value)), !dbg !2936
  call void @llvm.dbg.value(metadata i64 %6, metadata !2926, metadata !DIExpression()), !dbg !2936
  call void @llvm.dbg.value(metadata i32 %7, metadata !2927, metadata !DIExpression()), !dbg !2936
  call void @llvm.dbg.value(metadata i32 %8, metadata !2928, metadata !DIExpression()), !dbg !2936
  call void @llvm.dbg.value(metadata i32 %9, metadata !2929, metadata !DIExpression()), !dbg !2936
  %12 = getelementptr inbounds [32 x i8], [32 x i8]* %11, i32 0, i32 0, !dbg !2937
  call void @llvm.lifetime.start.p0i8(i64 32, i8* nonnull %12) #33, !dbg !2937
  call void @llvm.dbg.declare(metadata [32 x i8]* %11, metadata !2930, metadata !DIExpression()), !dbg !2938
  call void @llvm.dbg.value(metadata i32 0, metadata !2931, metadata !DIExpression()), !dbg !2936
  %13 = icmp ne i64 %4, 0, !dbg !2939
  %14 = and i32 %9, -17
  %15 = select i1 %13, i32 %9, i32 %14, !dbg !2941
  call void @llvm.dbg.value(metadata i32 %15, metadata !2929, metadata !DIExpression()), !dbg !2936
  %16 = and i32 %15, 1024, !dbg !2942
  %17 = icmp eq i32 %16, 0, !dbg !2942
  %18 = or i1 %13, %17, !dbg !2943
  br i1 %18, label %19, label %41, !dbg !2943

19:                                               ; preds = %10
  %20 = and i32 %15, 32
  %21 = xor i32 %20, 97
  %22 = add nuw nsw i32 %21, 246
  br label %23, !dbg !2944

23:                                               ; preds = %19, %23
  %24 = phi i32 [ %36, %23 ], [ 0, %19 ], !dbg !2936
  %25 = phi i64 [ %27, %23 ], [ %4, %19 ]
  call void @llvm.dbg.value(metadata i64 %25, metadata !2924, metadata !DIExpression()), !dbg !2936
  call void @llvm.dbg.value(metadata i32 %24, metadata !2931, metadata !DIExpression()), !dbg !2936
  %26 = freeze i64 %25
  %27 = udiv i64 %26, %6, !dbg !2945
  %28 = mul i64 %27, %6
  %29 = sub i64 %26, %28
  %30 = trunc i64 %29 to i32, !dbg !2946
  %31 = and i32 %30, 254, !dbg !2947
  call void @llvm.dbg.value(metadata i32 %30, metadata !2932, metadata !DIExpression()), !dbg !2948
  %32 = icmp ult i32 %31, 10, !dbg !2949
  %33 = select i1 %32, i32 48, i32 %22, !dbg !2947
  %34 = add i32 %33, %30, !dbg !2947
  %35 = trunc i32 %34 to i8, !dbg !2947
  %36 = add nuw nsw i32 %24, 1, !dbg !2950
  call void @llvm.dbg.value(metadata i32 %36, metadata !2931, metadata !DIExpression()), !dbg !2936
  %37 = getelementptr inbounds [32 x i8], [32 x i8]* %11, i32 0, i32 %24, !dbg !2951
  store i8 %35, i8* %37, align 1, !dbg !2952, !tbaa !2561
  call void @llvm.dbg.value(metadata i64 %27, metadata !2924, metadata !DIExpression()), !dbg !2936
  %38 = icmp uge i64 %25, %6, !dbg !2953
  %39 = icmp ult i32 %24, 31, !dbg !2954
  %40 = select i1 %38, i1 %39, i1 false, !dbg !2954
  br i1 %40, label %23, label %41, !dbg !2955, !llvm.loop !2956

41:                                               ; preds = %23, %10
  %42 = phi i32 [ 0, %10 ], [ %36, %23 ], !dbg !2936
  call void @llvm.dbg.value(metadata i32 %42, metadata !2931, metadata !DIExpression()), !dbg !2936
  %43 = trunc i64 %6 to i32, !dbg !2958
  %44 = call fastcc i32 @_ntoa_format(void (i8, i8*, i32, i32)* noundef %0, i8* noundef %1, i32 noundef %2, i32 noundef %3, i8* noundef nonnull %12, i32 noundef %42, i1 noundef zeroext %5, i32 noundef %43, i32 noundef %7, i32 noundef %8, i32 noundef %15), !dbg !2959
  call void @llvm.lifetime.end.p0i8(i64 32, i8* nonnull %12) #33, !dbg !2960
  ret i32 %44, !dbg !2961
}

; Function Attrs: nofree nosync nounwind readnone speculatable willreturn
declare i32 @llvm.abs.i32(i32, i1 immarg) #1

; Function Attrs: noinline nounwind
define internal fastcc i32 @_ntoa_long(void (i8, i8*, i32, i32)* nocapture noundef readonly %0, i8* noundef %1, i32 noundef %2, i32 noundef %3, i32 noundef %4, i1 noundef zeroext %5, i32 noundef %6, i32 noundef %7, i32 noundef %8, i32 noundef %9) unnamed_addr #4 !dbg !2962 {
  %11 = alloca [32 x i8], align 1
  call void @llvm.dbg.value(metadata void (i8, i8*, i32, i32)* %0, metadata !2966, metadata !DIExpression()), !dbg !2982
  call void @llvm.dbg.value(metadata i8* %1, metadata !2967, metadata !DIExpression()), !dbg !2982
  call void @llvm.dbg.value(metadata i32 %2, metadata !2968, metadata !DIExpression()), !dbg !2982
  call void @llvm.dbg.value(metadata i32 %3, metadata !2969, metadata !DIExpression()), !dbg !2982
  call void @llvm.dbg.value(metadata i32 %4, metadata !2970, metadata !DIExpression()), !dbg !2982
  call void @llvm.dbg.value(metadata i1 %5, metadata !2971, metadata !DIExpression(DW_OP_LLVM_convert, 1, DW_ATE_unsigned, DW_OP_LLVM_convert, 8, DW_ATE_unsigned, DW_OP_stack_value)), !dbg !2982
  call void @llvm.dbg.value(metadata i32 %6, metadata !2972, metadata !DIExpression()), !dbg !2982
  call void @llvm.dbg.value(metadata i32 %7, metadata !2973, metadata !DIExpression()), !dbg !2982
  call void @llvm.dbg.value(metadata i32 %8, metadata !2974, metadata !DIExpression()), !dbg !2982
  call void @llvm.dbg.value(metadata i32 %9, metadata !2975, metadata !DIExpression()), !dbg !2982
  %12 = getelementptr inbounds [32 x i8], [32 x i8]* %11, i32 0, i32 0, !dbg !2983
  call void @llvm.lifetime.start.p0i8(i64 32, i8* nonnull %12) #33, !dbg !2983
  call void @llvm.dbg.declare(metadata [32 x i8]* %11, metadata !2976, metadata !DIExpression()), !dbg !2984
  call void @llvm.dbg.value(metadata i32 0, metadata !2977, metadata !DIExpression()), !dbg !2982
  %13 = icmp ne i32 %4, 0, !dbg !2985
  %14 = and i32 %9, -17
  %15 = select i1 %13, i32 %9, i32 %14, !dbg !2987
  call void @llvm.dbg.value(metadata i32 %15, metadata !2975, metadata !DIExpression()), !dbg !2982
  %16 = and i32 %15, 1024, !dbg !2988
  %17 = icmp eq i32 %16, 0, !dbg !2988
  %18 = or i1 %13, %17, !dbg !2989
  br i1 %18, label %19, label %40, !dbg !2989

19:                                               ; preds = %10
  %20 = and i32 %15, 32
  %21 = xor i32 %20, 97
  %22 = add nuw nsw i32 %21, 246
  br label %23, !dbg !2990

23:                                               ; preds = %19, %23
  %24 = phi i32 [ %35, %23 ], [ 0, %19 ], !dbg !2982
  %25 = phi i32 [ %27, %23 ], [ %4, %19 ]
  call void @llvm.dbg.value(metadata i32 %25, metadata !2970, metadata !DIExpression()), !dbg !2982
  call void @llvm.dbg.value(metadata i32 %24, metadata !2977, metadata !DIExpression()), !dbg !2982
  %26 = freeze i32 %25
  %27 = udiv i32 %26, %6, !dbg !2991
  %28 = mul i32 %27, %6
  %29 = sub i32 %26, %28
  %30 = and i32 %29, 254, !dbg !2992
  call void @llvm.dbg.value(metadata i32 %29, metadata !2978, metadata !DIExpression()), !dbg !2993
  %31 = icmp ult i32 %30, 10, !dbg !2994
  %32 = select i1 %31, i32 48, i32 %22, !dbg !2992
  %33 = add i32 %29, %32, !dbg !2992
  %34 = trunc i32 %33 to i8, !dbg !2992
  %35 = add nuw nsw i32 %24, 1, !dbg !2995
  call void @llvm.dbg.value(metadata i32 %35, metadata !2977, metadata !DIExpression()), !dbg !2982
  %36 = getelementptr inbounds [32 x i8], [32 x i8]* %11, i32 0, i32 %24, !dbg !2996
  store i8 %34, i8* %36, align 1, !dbg !2997, !tbaa !2561
  call void @llvm.dbg.value(metadata i32 %27, metadata !2970, metadata !DIExpression()), !dbg !2982
  %37 = icmp uge i32 %25, %6, !dbg !2998
  %38 = icmp ult i32 %24, 31, !dbg !2999
  %39 = select i1 %37, i1 %38, i1 false, !dbg !2999
  br i1 %39, label %23, label %40, !dbg !3000, !llvm.loop !3001

40:                                               ; preds = %23, %10
  %41 = phi i32 [ 0, %10 ], [ %35, %23 ], !dbg !2982
  call void @llvm.dbg.value(metadata i32 %41, metadata !2977, metadata !DIExpression()), !dbg !2982
  %42 = call fastcc i32 @_ntoa_format(void (i8, i8*, i32, i32)* noundef %0, i8* noundef %1, i32 noundef %2, i32 noundef %3, i8* noundef nonnull %12, i32 noundef %41, i1 noundef zeroext %5, i32 noundef %6, i32 noundef %7, i32 noundef %8, i32 noundef %15), !dbg !3003
  call void @llvm.lifetime.end.p0i8(i64 32, i8* nonnull %12) #33, !dbg !3004
  ret i32 %42, !dbg !3005
}

; Function Attrs: noinline nounwind
define internal fastcc i32 @_ftoa(void (i8, i8*, i32, i32)* nocapture noundef readonly %0, i8* noundef %1, i32 noundef %2, i32 noundef %3, double noundef %4, i32 noundef %5, i32 noundef %6, i32 noundef %7) unnamed_addr #4 !dbg !489 {
  %9 = alloca [32 x i8], align 1
  %10 = getelementptr inbounds [32 x i8], [32 x i8]* %9, i32 0, i32 0, !dbg !3006
  call void @llvm.dbg.value(metadata void (i8, i8*, i32, i32)* %0, metadata !510, metadata !DIExpression()), !dbg !3006
  call void @llvm.dbg.value(metadata i8* %1, metadata !511, metadata !DIExpression()), !dbg !3006
  call void @llvm.dbg.value(metadata i32 %2, metadata !512, metadata !DIExpression()), !dbg !3006
  call void @llvm.dbg.value(metadata i32 %3, metadata !513, metadata !DIExpression()), !dbg !3006
  call void @llvm.dbg.value(metadata double %4, metadata !514, metadata !DIExpression()), !dbg !3006
  call void @llvm.dbg.value(metadata i32 %5, metadata !515, metadata !DIExpression()), !dbg !3006
  call void @llvm.dbg.value(metadata i32 %6, metadata !516, metadata !DIExpression()), !dbg !3006
  call void @llvm.dbg.value(metadata i32 %7, metadata !517, metadata !DIExpression()), !dbg !3006
  call void @llvm.dbg.value(metadata i32 %2, metadata !518, metadata !DIExpression()), !dbg !3006
  %11 = getelementptr inbounds [32 x i8], [32 x i8]* %9, i32 0, i32 0, !dbg !3007
  call void @llvm.lifetime.start.p0i8(i64 32, i8* nonnull %11) #33, !dbg !3007
  call void @llvm.dbg.declare(metadata [32 x i8]* %9, metadata !520, metadata !DIExpression()), !dbg !3008
  call void @llvm.dbg.value(metadata i32 0, metadata !524, metadata !DIExpression()), !dbg !3006
  call void @llvm.dbg.value(metadata double 0.000000e+00, metadata !525, metadata !DIExpression()), !dbg !3006
  call void @llvm.dbg.value(metadata double 0x41DFFFFFFFC00000, metadata !526, metadata !DIExpression()), !dbg !3006
  %12 = fcmp uno double %4, 0.000000e+00, !dbg !3009
  br i1 %12, label %13, label %17, !dbg !3011

13:                                               ; preds = %8
  %14 = add i32 %2, 1, !dbg !3012
  call void @llvm.dbg.value(metadata i32 %14, metadata !512, metadata !DIExpression()), !dbg !3006
  call void %0(i8 noundef zeroext 110, i8* noundef %1, i32 noundef %2, i32 noundef %3) #33, !dbg !3014, !callees !2566
  %15 = add i32 %2, 2, !dbg !3015
  call void @llvm.dbg.value(metadata i32 %15, metadata !512, metadata !DIExpression()), !dbg !3006
  call void %0(i8 noundef zeroext 97, i8* noundef %1, i32 noundef %14, i32 noundef %3) #33, !dbg !3016, !callees !2566
  %16 = add i32 %2, 3, !dbg !3017
  call void @llvm.dbg.value(metadata i32 %16, metadata !512, metadata !DIExpression()), !dbg !3006
  call void %0(i8 noundef zeroext 110, i8* noundef %1, i32 noundef %15, i32 noundef %3) #33, !dbg !3018, !callees !2566
  br label %221, !dbg !3019

17:                                               ; preds = %8
  call void @llvm.dbg.value(metadata i8 0, metadata !528, metadata !DIExpression()), !dbg !3006
  %18 = fcmp olt double %4, 0.000000e+00, !dbg !3020
  %19 = fsub double 0.000000e+00, %4, !dbg !3022
  %20 = select i1 %18, double %19, double %4, !dbg !3022
  call void @llvm.dbg.value(metadata i8 poison, metadata !528, metadata !DIExpression()), !dbg !3006
  call void @llvm.dbg.value(metadata double %20, metadata !514, metadata !DIExpression()), !dbg !3006
  %21 = and i32 %7, 1024, !dbg !3023
  %22 = icmp eq i32 %21, 0, !dbg !3023
  %23 = select i1 %22, i32 6, i32 %5, !dbg !3025
  call void @llvm.dbg.value(metadata i32 %23, metadata !515, metadata !DIExpression()), !dbg !3006
  call void @llvm.dbg.value(metadata i32 0, metadata !524, metadata !DIExpression()), !dbg !3006
  %24 = icmp ugt i32 %23, 9, !dbg !3026
  br i1 %24, label %25, label %39, !dbg !3027

25:                                               ; preds = %17
  %26 = add i32 %23, -10, !dbg !3027
  %27 = call i32 @llvm.umin.i32(i32 %26, i32 31), !dbg !3027
  %28 = add nuw nsw i32 %27, 1, !dbg !3027
  call void @llvm.memset.p0i8.i32(i8* noundef nonnull align 1 %10, i8 48, i32 %28, i1 false), !dbg !3028, !tbaa !2561
  %29 = call i32 @llvm.umin.i32(i32 %26, i32 31), !dbg !3027
  %30 = add nuw nsw i32 %29, 1, !dbg !3027
  br label %31, !dbg !3027

31:                                               ; preds = %25, %31
  %32 = phi i32 [ %34, %31 ], [ 0, %25 ]
  %33 = phi i32 [ %35, %31 ], [ %23, %25 ]
  call void @llvm.dbg.value(metadata i32 %32, metadata !524, metadata !DIExpression()), !dbg !3006
  call void @llvm.dbg.value(metadata i32 %33, metadata !515, metadata !DIExpression()), !dbg !3006
  %34 = add nuw nsw i32 %32, 1, !dbg !3030
  call void @llvm.dbg.value(metadata i32 %34, metadata !524, metadata !DIExpression()), !dbg !3006
  %35 = add i32 %33, -1, !dbg !3031
  call void @llvm.dbg.value(metadata i32 %35, metadata !515, metadata !DIExpression()), !dbg !3006
  %36 = icmp eq i32 %32, %29, !dbg !3026
  br i1 %36, label %37, label %31, !dbg !3027, !llvm.loop !3032

37:                                               ; preds = %31
  %38 = icmp ult i32 %32, 31, !dbg !3034
  br label %39, !dbg !3035

39:                                               ; preds = %37, %17
  %40 = phi i32 [ %23, %17 ], [ %35, %37 ]
  %41 = phi i32 [ 0, %17 ], [ %30, %37 ], !dbg !3006
  %42 = phi i1 [ true, %17 ], [ %38, %37 ], !dbg !3034
  %43 = fptosi double %20 to i32, !dbg !3035
  call void @llvm.dbg.value(metadata i32 %43, metadata !530, metadata !DIExpression()), !dbg !3006
  %44 = sitofp i32 %43 to double, !dbg !3036
  %45 = fsub double %20, %44, !dbg !3037
  %46 = getelementptr inbounds [10 x double], [10 x double]* @_ftoa.pow10, i32 0, i32 %40, !dbg !3038
  %47 = load double, double* %46, align 8, !dbg !3038, !tbaa !3039
  %48 = fmul double %45, %47, !dbg !3041
  call void @llvm.dbg.value(metadata double %48, metadata !531, metadata !DIExpression()), !dbg !3006
  %49 = fptoui double %48 to i32, !dbg !3042
  call void @llvm.dbg.value(metadata i32 %49, metadata !532, metadata !DIExpression()), !dbg !3006
  %50 = uitofp i32 %49 to double, !dbg !3043
  %51 = fsub double %48, %50, !dbg !3044
  call void @llvm.dbg.value(metadata double %51, metadata !525, metadata !DIExpression()), !dbg !3006
  %52 = fcmp ogt double %51, 5.000000e-01, !dbg !3045
  br i1 %52, label %53, label %59, !dbg !3047

53:                                               ; preds = %39
  %54 = add i32 %49, 1, !dbg !3048
  call void @llvm.dbg.value(metadata i32 %54, metadata !532, metadata !DIExpression()), !dbg !3006
  %55 = uitofp i32 %54 to double, !dbg !3050
  %56 = fcmp ugt double %47, %55, !dbg !3052
  br i1 %56, label %68, label %57, !dbg !3053

57:                                               ; preds = %53
  call void @llvm.dbg.value(metadata i32 0, metadata !532, metadata !DIExpression()), !dbg !3006
  %58 = add nsw i32 %43, 1, !dbg !3054
  call void @llvm.dbg.value(metadata i32 %58, metadata !530, metadata !DIExpression()), !dbg !3006
  br label %68, !dbg !3056

59:                                               ; preds = %39
  %60 = fcmp olt double %51, 5.000000e-01, !dbg !3057
  br i1 %60, label %68, label %61, !dbg !3059

61:                                               ; preds = %59
  %62 = icmp eq i32 %49, 0, !dbg !3060
  %63 = and i32 %49, 1
  %64 = icmp ne i32 %63, 0
  %65 = or i1 %62, %64, !dbg !3062
  %66 = zext i1 %65 to i32, !dbg !3062
  %67 = add i32 %66, %49, !dbg !3062
  br label %68, !dbg !3062

68:                                               ; preds = %61, %59, %53, %57
  %69 = phi i32 [ %58, %57 ], [ %43, %53 ], [ %43, %59 ], [ %43, %61 ], !dbg !3006
  %70 = phi i32 [ 0, %57 ], [ %54, %53 ], [ %49, %59 ], [ %67, %61 ], !dbg !3006
  call void @llvm.dbg.value(metadata i32 %70, metadata !532, metadata !DIExpression()), !dbg !3006
  call void @llvm.dbg.value(metadata i32 %69, metadata !530, metadata !DIExpression()), !dbg !3006
  %71 = fcmp ogt double %20, 0x41DFFFFFFFC00000, !dbg !3063
  br i1 %71, label %221, label %72, !dbg !3065

72:                                               ; preds = %68
  %73 = icmp eq i32 %40, 0, !dbg !3066
  br i1 %73, label %74, label %83, !dbg !3067

74:                                               ; preds = %72
  %75 = sitofp i32 %69 to double, !dbg !3068
  %76 = fsub double %20, %75, !dbg !3070
  call void @llvm.dbg.value(metadata double %76, metadata !525, metadata !DIExpression()), !dbg !3006
  %77 = fcmp uge double %76, 5.000000e-01, !dbg !3071
  %78 = and i32 %69, 1
  %79 = icmp ne i32 %78, 0
  %80 = select i1 %77, i1 %79, i1 false, !dbg !3071
  %81 = zext i1 %80 to i32, !dbg !3071
  %82 = add nsw i32 %69, %81, !dbg !3071
  br label %123, !dbg !3071

83:                                               ; preds = %72
  call void @llvm.dbg.value(metadata i32 %40, metadata !533, metadata !DIExpression()), !dbg !3073
  br i1 %42, label %84, label %100, !dbg !3074

84:                                               ; preds = %83, %84
  %85 = phi i32 [ %95, %84 ], [ %41, %83 ], !dbg !3006
  %86 = phi i32 [ %90, %84 ], [ %70, %83 ], !dbg !3006
  %87 = phi i32 [ %88, %84 ], [ %40, %83 ], !dbg !3073
  call void @llvm.dbg.value(metadata i32 %87, metadata !533, metadata !DIExpression()), !dbg !3073
  call void @llvm.dbg.value(metadata i32 %86, metadata !532, metadata !DIExpression()), !dbg !3006
  call void @llvm.dbg.value(metadata i32 %85, metadata !524, metadata !DIExpression()), !dbg !3006
  %88 = add i32 %87, -1, !dbg !3075
  call void @llvm.dbg.value(metadata i32 %88, metadata !533, metadata !DIExpression()), !dbg !3073
  %89 = freeze i32 %86
  %90 = udiv i32 %89, 10, !dbg !3077
  %91 = mul i32 %90, 10
  %92 = sub i32 %89, %91
  %93 = trunc i32 %92 to i8, !dbg !3079
  %94 = or i8 %93, 48, !dbg !3079
  %95 = add nuw nsw i32 %85, 1, !dbg !3080
  call void @llvm.dbg.value(metadata i32 %95, metadata !524, metadata !DIExpression()), !dbg !3006
  %96 = getelementptr inbounds [32 x i8], [32 x i8]* %9, i32 0, i32 %85, !dbg !3081
  store i8 %94, i8* %96, align 1, !dbg !3082, !tbaa !2561
  call void @llvm.dbg.value(metadata i32 %90, metadata !532, metadata !DIExpression()), !dbg !3006
  %97 = icmp ugt i32 %86, 9, !dbg !3077
  %98 = icmp ult i32 %85, 31
  %99 = select i1 %97, i1 %98, i1 false, !dbg !3083
  br i1 %99, label %84, label %100, !dbg !3083, !llvm.loop !3084

100:                                              ; preds = %84, %83
  %101 = phi i32 [ %41, %83 ], [ %95, %84 ], !dbg !3006
  %102 = phi i32 [ %40, %83 ], [ %88, %84 ], !dbg !3073
  call void @llvm.dbg.value(metadata i32 %102, metadata !533, metadata !DIExpression()), !dbg !3073
  call void @llvm.dbg.value(metadata i32 %101, metadata !524, metadata !DIExpression()), !dbg !3006
  %103 = icmp ult i32 %101, 32, !dbg !3086
  %104 = xor i1 %103, true, !dbg !3087
  %105 = icmp eq i32 %102, 0
  %106 = select i1 %104, i1 true, i1 %105, !dbg !3087
  call void @llvm.dbg.value(metadata i32 %102, metadata !533, metadata !DIExpression(DW_OP_constu, 1, DW_OP_minus, DW_OP_stack_value)), !dbg !3073
  br i1 %106, label %117, label %107, !dbg !3087

107:                                              ; preds = %100, %107
  %108 = phi i32 [ %110, %107 ], [ %102, %100 ]
  %109 = phi i32 [ %111, %107 ], [ %101, %100 ]
  call void @llvm.dbg.value(metadata i32 %108, metadata !533, metadata !DIExpression()), !dbg !3073
  call void @llvm.dbg.value(metadata i32 %109, metadata !524, metadata !DIExpression()), !dbg !3006
  %110 = add i32 %108, -1, !dbg !3088
  call void @llvm.dbg.value(metadata i32 %110, metadata !533, metadata !DIExpression()), !dbg !3073
  %111 = add i32 %109, 1, !dbg !3089
  call void @llvm.dbg.value(metadata i32 %111, metadata !524, metadata !DIExpression()), !dbg !3006
  %112 = getelementptr inbounds [32 x i8], [32 x i8]* %9, i32 0, i32 %109, !dbg !3091
  store i8 48, i8* %112, align 1, !dbg !3092, !tbaa !2561
  %113 = icmp ult i32 %111, 32, !dbg !3086
  %114 = xor i1 %113, true, !dbg !3087
  %115 = icmp eq i32 %110, 0
  %116 = select i1 %114, i1 true, i1 %115, !dbg !3087
  call void @llvm.dbg.value(metadata i32 %110, metadata !533, metadata !DIExpression(DW_OP_constu, 1, DW_OP_minus, DW_OP_stack_value)), !dbg !3073
  br i1 %116, label %117, label %107, !dbg !3087, !llvm.loop !3093

117:                                              ; preds = %107, %100
  %118 = phi i32 [ %101, %100 ], [ %111, %107 ], !dbg !3073
  %119 = phi i1 [ %103, %100 ], [ %113, %107 ], !dbg !3086
  br i1 %119, label %120, label %123, !dbg !3096

120:                                              ; preds = %117
  %121 = add i32 %118, 1, !dbg !3097
  call void @llvm.dbg.value(metadata i32 %121, metadata !524, metadata !DIExpression()), !dbg !3006
  %122 = getelementptr inbounds [32 x i8], [32 x i8]* %9, i32 0, i32 %118, !dbg !3100
  store i8 46, i8* %122, align 1, !dbg !3101, !tbaa !2561
  br label %123, !dbg !3102

123:                                              ; preds = %74, %117, %120
  %124 = phi i32 [ %121, %120 ], [ %118, %117 ], [ %41, %74 ], !dbg !3006
  %125 = phi i32 [ %69, %120 ], [ %69, %117 ], [ %82, %74 ], !dbg !3006
  call void @llvm.dbg.value(metadata i32 %125, metadata !530, metadata !DIExpression()), !dbg !3006
  call void @llvm.dbg.value(metadata i32 %124, metadata !524, metadata !DIExpression()), !dbg !3006
  %126 = icmp ult i32 %124, 32, !dbg !3103
  br i1 %126, label %127, label %142, !dbg !3104

127:                                              ; preds = %123, %127
  %128 = phi i32 [ %136, %127 ], [ %124, %123 ], !dbg !3006
  %129 = phi i32 [ %131, %127 ], [ %125, %123 ], !dbg !3006
  call void @llvm.dbg.value(metadata i32 %129, metadata !530, metadata !DIExpression()), !dbg !3006
  call void @llvm.dbg.value(metadata i32 %128, metadata !524, metadata !DIExpression()), !dbg !3006
  %130 = freeze i32 %129
  %131 = sdiv i32 %130, 10, !dbg !3105
  %132 = mul i32 %131, 10
  %133 = sub i32 %130, %132
  %134 = trunc i32 %133 to i8, !dbg !3108
  %135 = add i8 %134, 48, !dbg !3108
  %136 = add nuw nsw i32 %128, 1, !dbg !3109
  call void @llvm.dbg.value(metadata i32 %136, metadata !524, metadata !DIExpression()), !dbg !3006
  %137 = getelementptr inbounds [32 x i8], [32 x i8]* %9, i32 0, i32 %128, !dbg !3110
  store i8 %135, i8* %137, align 1, !dbg !3111, !tbaa !2561
  call void @llvm.dbg.value(metadata i32 %131, metadata !530, metadata !DIExpression()), !dbg !3006
  %138 = add i32 %129, -10, !dbg !3105
  %139 = icmp ult i32 %138, -19, !dbg !3105
  %140 = icmp ult i32 %128, 31
  %141 = select i1 %139, i1 %140, i1 false, !dbg !3112
  br i1 %141, label %127, label %142, !dbg !3112, !llvm.loop !3113

142:                                              ; preds = %127, %123
  %143 = phi i32 [ %124, %123 ], [ %136, %127 ], !dbg !3006
  call void @llvm.dbg.value(metadata i32 %143, metadata !524, metadata !DIExpression()), !dbg !3006
  %144 = and i32 %7, 2, !dbg !3115
  %145 = icmp ne i32 %144, 0, !dbg !3115
  %146 = and i32 %7, 3, !dbg !3117
  %147 = icmp eq i32 %146, 1, !dbg !3117
  br i1 %147, label %148, label %171, !dbg !3117

148:                                              ; preds = %142
  %149 = icmp eq i32 %6, 0, !dbg !3118
  br i1 %149, label %156, label %150, !dbg !3121

150:                                              ; preds = %148
  %151 = and i32 %7, 12
  %152 = icmp ne i32 %151, 0
  %153 = or i1 %18, %152, !dbg !3122
  %154 = sext i1 %153 to i32, !dbg !3122
  %155 = add i32 %154, %6, !dbg !3122
  br label %156, !dbg !3122

156:                                              ; preds = %150, %148
  %157 = phi i32 [ 0, %148 ], [ %155, %150 ]
  call void @llvm.dbg.value(metadata i32 %157, metadata !516, metadata !DIExpression()), !dbg !3006
  call void @llvm.dbg.value(metadata i32 %143, metadata !524, metadata !DIExpression()), !dbg !3006
  %158 = icmp ult i32 %143, %157, !dbg !3123
  %159 = icmp ult i32 %143, 32, !dbg !3124
  %160 = and i1 %158, %159, !dbg !3124
  br i1 %160, label %161, label %171, !dbg !3125

161:                                              ; preds = %156
  %162 = getelementptr [32 x i8], [32 x i8]* %9, i32 0, i32 %143, !dbg !3125
  %163 = xor i32 %143, -1, !dbg !3125
  %164 = add i32 %157, %163, !dbg !3125
  %165 = sub i32 31, %143, !dbg !3125
  %166 = call i32 @llvm.umin.i32(i32 %164, i32 %165), !dbg !3125
  %167 = add nuw i32 %166, 1, !dbg !3125
  call void @llvm.memset.p0i8.i32(i8* align 1 %162, i8 48, i32 %167, i1 false), !dbg !3126, !tbaa !2561
  %168 = call i32 @llvm.umin.i32(i32 %164, i32 %165), !dbg !3125
  %169 = add i32 %143, %168, !dbg !3125
  call void @llvm.dbg.value(metadata i32 undef, metadata !524, metadata !DIExpression()), !dbg !3006
  call void @llvm.dbg.value(metadata i32 undef, metadata !524, metadata !DIExpression(DW_OP_plus_uconst, 1, DW_OP_stack_value)), !dbg !3006
  %170 = add i32 %169, 1, !dbg !3125
  br label %171, !dbg !3128

171:                                              ; preds = %161, %156, %142
  %172 = phi i32 [ %6, %142 ], [ %157, %156 ], [ %157, %161 ]
  %173 = phi i32 [ %143, %142 ], [ %143, %156 ], [ %170, %161 ], !dbg !3109
  call void @llvm.dbg.value(metadata i32 %173, metadata !524, metadata !DIExpression()), !dbg !3006
  call void @llvm.dbg.value(metadata i32 %172, metadata !516, metadata !DIExpression()), !dbg !3006
  %174 = icmp ult i32 %173, 32, !dbg !3128
  br i1 %174, label %175, label %186, !dbg !3130

175:                                              ; preds = %171
  br i1 %18, label %182, label %176, !dbg !3131

176:                                              ; preds = %175
  %177 = and i32 %7, 4, !dbg !3133
  %178 = icmp eq i32 %177, 0, !dbg !3133
  br i1 %178, label %179, label %182, !dbg !3136

179:                                              ; preds = %176
  %180 = and i32 %7, 8, !dbg !3137
  %181 = icmp eq i32 %180, 0, !dbg !3137
  br i1 %181, label %186, label %182, !dbg !3139

182:                                              ; preds = %179, %176, %175
  %183 = phi i8 [ 45, %175 ], [ 43, %176 ], [ 32, %179 ]
  %184 = add i32 %173, 1, !dbg !3140
  %185 = getelementptr inbounds [32 x i8], [32 x i8]* %9, i32 0, i32 %173, !dbg !3140
  store i8 %183, i8* %185, align 1, !dbg !3140, !tbaa !2561
  br label %186, !dbg !3141

186:                                              ; preds = %182, %179, %171
  %187 = phi i32 [ %173, %179 ], [ %173, %171 ], [ %184, %182 ], !dbg !3006
  call void @llvm.dbg.value(metadata i32 %187, metadata !524, metadata !DIExpression()), !dbg !3006
  %188 = and i32 %7, 3, !dbg !3141
  %189 = icmp eq i32 %188, 0, !dbg !3141
  %190 = icmp ult i32 %187, %172
  %191 = select i1 %189, i1 %190, i1 false, !dbg !3141
  call void @llvm.dbg.value(metadata i32 %187, metadata !536, metadata !DIExpression()), !dbg !3142
  call void @llvm.dbg.value(metadata i32 %2, metadata !512, metadata !DIExpression()), !dbg !3006
  br i1 %191, label %192, label %198, !dbg !3141

192:                                              ; preds = %186, %192
  %193 = phi i32 [ %196, %192 ], [ %187, %186 ]
  %194 = phi i32 [ %195, %192 ], [ %2, %186 ]
  call void @llvm.dbg.value(metadata i32 %193, metadata !536, metadata !DIExpression()), !dbg !3142
  call void @llvm.dbg.value(metadata i32 %194, metadata !512, metadata !DIExpression()), !dbg !3006
  %195 = add i32 %194, 1, !dbg !3143
  call void @llvm.dbg.value(metadata i32 %195, metadata !512, metadata !DIExpression()), !dbg !3006
  call void %0(i8 noundef zeroext 32, i8* noundef %1, i32 noundef %194, i32 noundef %3) #33, !dbg !3146, !callees !2566
  %196 = add nuw i32 %193, 1, !dbg !3147
  call void @llvm.dbg.value(metadata i32 %196, metadata !536, metadata !DIExpression()), !dbg !3142
  %197 = icmp eq i32 %196, %172, !dbg !3148
  br i1 %197, label %198, label %192, !dbg !3149, !llvm.loop !3150

198:                                              ; preds = %192, %186
  %199 = phi i32 [ %2, %186 ], [ %195, %192 ]
  call void @llvm.dbg.value(metadata i32 %199, metadata !512, metadata !DIExpression()), !dbg !3006
  call void @llvm.dbg.value(metadata i32 0, metadata !540, metadata !DIExpression()), !dbg !3152
  %200 = icmp eq i32 %187, 0, !dbg !3153
  br i1 %200, label %201, label %206, !dbg !3155

201:                                              ; preds = %206, %198
  %202 = phi i32 [ %199, %198 ], [ %213, %206 ]
  %203 = sub i32 %202, %2
  %204 = icmp ult i32 %203, %172
  %205 = select i1 %145, i1 %204, i1 false, !dbg !3156
  call void @llvm.dbg.value(metadata i32 %202, metadata !512, metadata !DIExpression()), !dbg !3006
  br i1 %205, label %216, label %221, !dbg !3156

206:                                              ; preds = %198, %206
  %207 = phi i32 [ %214, %206 ], [ 0, %198 ]
  %208 = phi i32 [ %213, %206 ], [ %199, %198 ]
  call void @llvm.dbg.value(metadata i32 %207, metadata !540, metadata !DIExpression()), !dbg !3152
  call void @llvm.dbg.value(metadata i32 %208, metadata !512, metadata !DIExpression()), !dbg !3006
  %209 = xor i32 %207, -1, !dbg !3157
  %210 = add i32 %187, %209, !dbg !3157
  %211 = getelementptr inbounds [32 x i8], [32 x i8]* %9, i32 0, i32 %210, !dbg !3159
  %212 = load i8, i8* %211, align 1, !dbg !3159, !tbaa !2561
  %213 = add i32 %208, 1, !dbg !3160
  call void @llvm.dbg.value(metadata i32 %213, metadata !512, metadata !DIExpression()), !dbg !3006
  call void %0(i8 noundef zeroext %212, i8* noundef %1, i32 noundef %208, i32 noundef %3) #33, !dbg !3161, !callees !2566
  %214 = add nuw i32 %207, 1, !dbg !3162
  call void @llvm.dbg.value(metadata i32 %214, metadata !540, metadata !DIExpression()), !dbg !3152
  %215 = icmp eq i32 %214, %187, !dbg !3153
  br i1 %215, label %201, label %206, !dbg !3155, !llvm.loop !3163

216:                                              ; preds = %201, %216
  %217 = phi i32 [ %218, %216 ], [ %202, %201 ]
  call void @llvm.dbg.value(metadata i32 %217, metadata !512, metadata !DIExpression()), !dbg !3006
  %218 = add i32 %217, 1, !dbg !3165
  call void @llvm.dbg.value(metadata i32 %218, metadata !512, metadata !DIExpression()), !dbg !3006
  call void %0(i8 noundef zeroext 32, i8* noundef %1, i32 noundef %217, i32 noundef %3) #33, !dbg !3169, !callees !2566
  %219 = sub i32 %218, %2, !dbg !3170
  %220 = icmp ult i32 %219, %172, !dbg !3171
  br i1 %220, label %216, label %221, !dbg !3172, !llvm.loop !3173

221:                                              ; preds = %216, %68, %201, %13
  %222 = phi i32 [ %16, %13 ], [ 0, %68 ], [ %202, %201 ], [ %218, %216 ], !dbg !3006
  call void @llvm.lifetime.end.p0i8(i64 32, i8* nonnull %11) #33, !dbg !3175
  ret i32 %222, !dbg !3175
}

; Function Attrs: nofree noinline norecurse nosync nounwind readonly
define internal fastcc i32 @_strnlen_s(i8* noundef %0, i32 noundef %1) unnamed_addr #14 !dbg !3176 {
  call void @llvm.dbg.value(metadata i8* %0, metadata !3180, metadata !DIExpression()), !dbg !3183
  call void @llvm.dbg.value(metadata i32 %1, metadata !3181, metadata !DIExpression()), !dbg !3183
  call void @llvm.dbg.value(metadata i8* %0, metadata !3182, metadata !DIExpression()), !dbg !3183
  %3 = load i8, i8* %0, align 1, !dbg !3184, !tbaa !2561
  %4 = icmp eq i8 %3, 0, !dbg !3184
  %5 = icmp eq i32 %1, 0, !dbg !3187
  %6 = or i1 %4, %5, !dbg !3187
  call void @llvm.dbg.value(metadata i32 %1, metadata !3181, metadata !DIExpression(DW_OP_constu, 1, DW_OP_minus, DW_OP_stack_value)), !dbg !3183
  br i1 %6, label %16, label %7, !dbg !3187

7:                                                ; preds = %2, %7
  %8 = phi i8* [ %11, %7 ], [ %0, %2 ]
  %9 = phi i32 [ %10, %7 ], [ %1, %2 ]
  call void @llvm.dbg.value(metadata i8* %8, metadata !3182, metadata !DIExpression()), !dbg !3183
  call void @llvm.dbg.value(metadata i32 %9, metadata !3181, metadata !DIExpression()), !dbg !3183
  %10 = add i32 %9, -1, !dbg !3188
  call void @llvm.dbg.value(metadata i32 %10, metadata !3181, metadata !DIExpression()), !dbg !3183
  %11 = getelementptr inbounds i8, i8* %8, i32 1, !dbg !3189
  call void @llvm.dbg.value(metadata i8* %11, metadata !3182, metadata !DIExpression()), !dbg !3183
  %12 = load i8, i8* %11, align 1, !dbg !3184, !tbaa !2561
  %13 = icmp eq i8 %12, 0, !dbg !3184
  %14 = icmp eq i32 %10, 0, !dbg !3187
  %15 = select i1 %13, i1 true, i1 %14, !dbg !3187
  call void @llvm.dbg.value(metadata i32 %10, metadata !3181, metadata !DIExpression(DW_OP_constu, 1, DW_OP_minus, DW_OP_stack_value)), !dbg !3183
  br i1 %15, label %16, label %7, !dbg !3187, !llvm.loop !3190

16:                                               ; preds = %7, %2
  %17 = phi i8* [ %0, %2 ], [ %11, %7 ], !dbg !3193
  %18 = ptrtoint i8* %17 to i32, !dbg !3194
  %19 = ptrtoint i8* %0 to i32, !dbg !3194
  %20 = sub i32 %18, %19, !dbg !3194
  ret i32 %20, !dbg !3195
}

; Function Attrs: nofree nosync nounwind readnone speculatable willreturn
declare i32 @llvm.umin.i32(i32, i32) #1

; Function Attrs: noinline nounwind
define internal fastcc i32 @_ntoa_format(void (i8, i8*, i32, i32)* nocapture noundef readonly %0, i8* noundef %1, i32 noundef %2, i32 noundef %3, i8* nocapture noundef %4, i32 noundef %5, i1 noundef zeroext %6, i32 noundef %7, i32 noundef %8, i32 noundef %9, i32 noundef %10) unnamed_addr #4 !dbg !3196 {
  call void @llvm.dbg.value(metadata void (i8, i8*, i32, i32)* %0, metadata !3200, metadata !DIExpression()), !dbg !3218
  call void @llvm.dbg.value(metadata i8* %1, metadata !3201, metadata !DIExpression()), !dbg !3218
  call void @llvm.dbg.value(metadata i32 %2, metadata !3202, metadata !DIExpression()), !dbg !3218
  call void @llvm.dbg.value(metadata i32 %3, metadata !3203, metadata !DIExpression()), !dbg !3218
  call void @llvm.dbg.value(metadata i8* %4, metadata !3204, metadata !DIExpression()), !dbg !3218
  call void @llvm.dbg.value(metadata i32 %5, metadata !3205, metadata !DIExpression()), !dbg !3218
  call void @llvm.dbg.value(metadata i1 %6, metadata !3206, metadata !DIExpression(DW_OP_LLVM_convert, 1, DW_ATE_unsigned, DW_OP_LLVM_convert, 8, DW_ATE_unsigned, DW_OP_stack_value)), !dbg !3218
  call void @llvm.dbg.value(metadata i32 %7, metadata !3207, metadata !DIExpression()), !dbg !3218
  call void @llvm.dbg.value(metadata i32 %8, metadata !3208, metadata !DIExpression()), !dbg !3218
  call void @llvm.dbg.value(metadata i32 %9, metadata !3209, metadata !DIExpression()), !dbg !3218
  call void @llvm.dbg.value(metadata i32 %10, metadata !3210, metadata !DIExpression()), !dbg !3218
  call void @llvm.dbg.value(metadata i32 %2, metadata !3211, metadata !DIExpression()), !dbg !3218
  %12 = and i32 %10, 2, !dbg !3219
  %13 = icmp eq i32 %12, 0, !dbg !3219
  br i1 %13, label %14, label %55, !dbg !3221

14:                                               ; preds = %11
  %15 = icmp eq i32 %9, 0, !dbg !3222
  br i1 %15, label %25, label %16, !dbg !3225

16:                                               ; preds = %14
  %17 = and i32 %10, 1, !dbg !3226
  %18 = icmp eq i32 %17, 0, !dbg !3226
  br i1 %18, label %25, label %19, !dbg !3227

19:                                               ; preds = %16
  %20 = and i32 %10, 12
  %21 = icmp ne i32 %20, 0
  %22 = or i1 %21, %6, !dbg !3228
  %23 = sext i1 %22 to i32, !dbg !3228
  %24 = add i32 %23, %9, !dbg !3228
  br label %25, !dbg !3228

25:                                               ; preds = %19, %16, %14
  %26 = phi i32 [ %9, %16 ], [ 0, %14 ], [ %24, %19 ]
  call void @llvm.dbg.value(metadata i32 %26, metadata !3209, metadata !DIExpression()), !dbg !3218
  call void @llvm.dbg.value(metadata i32 %5, metadata !3205, metadata !DIExpression()), !dbg !3218
  %27 = icmp ult i32 %5, %8, !dbg !3229
  %28 = icmp ult i32 %5, 32, !dbg !3230
  %29 = and i1 %27, %28, !dbg !3230
  br i1 %29, label %30, label %40, !dbg !3231

30:                                               ; preds = %25
  %31 = getelementptr i8, i8* %4, i32 %5, !dbg !3231
  %32 = xor i32 %5, -1, !dbg !3231
  %33 = add i32 %32, %8, !dbg !3231
  %34 = sub i32 31, %5, !dbg !3231
  %35 = call i32 @llvm.umin.i32(i32 %33, i32 %34), !dbg !3231
  %36 = add nuw i32 %35, 1, !dbg !3231
  call void @llvm.memset.p0i8.i32(i8* align 1 %31, i8 48, i32 %36, i1 false), !dbg !3232, !tbaa !2561
  %37 = call i32 @llvm.umin.i32(i32 %33, i32 %34), !dbg !3231
  %38 = add i32 %37, %5, !dbg !3231
  call void @llvm.dbg.value(metadata i32 undef, metadata !3205, metadata !DIExpression()), !dbg !3218
  call void @llvm.dbg.value(metadata i32 undef, metadata !3205, metadata !DIExpression(DW_OP_plus_uconst, 1, DW_OP_stack_value)), !dbg !3218
  %39 = add i32 %38, 1, !dbg !3231
  br label %40

40:                                               ; preds = %30, %25
  %41 = phi i32 [ %5, %25 ], [ %39, %30 ]
  %42 = and i32 %10, 1
  %43 = icmp eq i32 %42, 0
  call void @llvm.dbg.value(metadata i32 %41, metadata !3205, metadata !DIExpression()), !dbg !3218
  br i1 %43, label %55, label %44, !dbg !3234

44:                                               ; preds = %40
  call void @llvm.dbg.value(metadata i32 %41, metadata !3205, metadata !DIExpression()), !dbg !3218
  %45 = icmp ult i32 %41, %26, !dbg !3235
  %46 = icmp ult i32 %41, 32
  %47 = and i1 %45, %46, !dbg !3236
  br i1 %47, label %48, label %55, !dbg !3236

48:                                               ; preds = %44, %48
  %49 = phi i32 [ %50, %48 ], [ %41, %44 ]
  call void @llvm.dbg.value(metadata i32 %49, metadata !3205, metadata !DIExpression()), !dbg !3218
  %50 = add i32 %49, 1, !dbg !3237
  call void @llvm.dbg.value(metadata i32 %50, metadata !3205, metadata !DIExpression()), !dbg !3218
  %51 = getelementptr inbounds i8, i8* %4, i32 %49, !dbg !3239
  store i8 48, i8* %51, align 1, !dbg !3240, !tbaa !2561
  %52 = icmp ult i32 %50, %26, !dbg !3235
  %53 = icmp ult i32 %50, 32
  %54 = and i1 %52, %53, !dbg !3236
  br i1 %54, label %48, label %55, !dbg !3236, !llvm.loop !3241

55:                                               ; preds = %48, %44, %40, %11
  %56 = phi i32 [ %9, %11 ], [ %26, %40 ], [ %26, %44 ], [ %26, %48 ]
  %57 = phi i32 [ %5, %11 ], [ %41, %40 ], [ %41, %44 ], [ %50, %48 ]
  call void @llvm.dbg.value(metadata i32 %57, metadata !3205, metadata !DIExpression()), !dbg !3218
  call void @llvm.dbg.value(metadata i32 %56, metadata !3209, metadata !DIExpression()), !dbg !3218
  %58 = and i32 %10, 16, !dbg !3244
  %59 = icmp eq i32 %58, 0, !dbg !3244
  br i1 %59, label %101, label %60, !dbg !3246

60:                                               ; preds = %55
  %61 = and i32 %10, 1024, !dbg !3247
  %62 = icmp eq i32 %61, 0, !dbg !3247
  %63 = icmp ne i32 %57, 0
  %64 = select i1 %62, i1 %63, i1 false, !dbg !3250
  br i1 %64, label %65, label %76, !dbg !3250

65:                                               ; preds = %60
  %66 = icmp eq i32 %57, %8, !dbg !3251
  %67 = icmp eq i32 %57, %56
  %68 = or i1 %66, %67, !dbg !3252
  br i1 %68, label %69, label %76, !dbg !3252

69:                                               ; preds = %65
  %70 = add i32 %57, -1, !dbg !3253
  call void @llvm.dbg.value(metadata i32 %70, metadata !3205, metadata !DIExpression()), !dbg !3218
  %71 = icmp ne i32 %70, 0, !dbg !3255
  %72 = icmp eq i32 %7, 16
  %73 = and i1 %72, %71, !dbg !3257
  %74 = add i32 %57, -2
  %75 = select i1 %73, i32 %74, i32 %70, !dbg !3257
  br label %76, !dbg !3257

76:                                               ; preds = %69, %65, %60
  %77 = phi i32 [ %57, %60 ], [ %57, %65 ], [ %75, %69 ]
  call void @llvm.dbg.value(metadata i32 %77, metadata !3205, metadata !DIExpression()), !dbg !3218
  %78 = icmp eq i32 %7, 16, !dbg !3258
  br i1 %78, label %79, label %87, !dbg !3260

79:                                               ; preds = %76
  %80 = and i32 %10, 32, !dbg !3261
  %81 = icmp eq i32 %80, 0, !dbg !3261
  %82 = icmp ult i32 %77, 32
  %83 = select i1 %81, i1 %82, i1 false, !dbg !3262
  br i1 %83, label %91, label %84, !dbg !3262

84:                                               ; preds = %79
  %85 = icmp ne i32 %80, 0, !dbg !3263
  %86 = select i1 %85, i1 %82, i1 false, !dbg !3265
  br i1 %86, label %91, label %87, !dbg !3265

87:                                               ; preds = %76, %84
  %88 = icmp eq i32 %7, 2, !dbg !3266
  %89 = icmp ult i32 %77, 32
  %90 = select i1 %88, i1 %89, i1 false, !dbg !3268
  br i1 %90, label %91, label %95, !dbg !3268

91:                                               ; preds = %87, %84, %79
  %92 = phi i8 [ 120, %79 ], [ 88, %84 ], [ 98, %87 ]
  %93 = add i32 %77, 1, !dbg !3269
  %94 = getelementptr inbounds i8, i8* %4, i32 %77, !dbg !3269
  store i8 %92, i8* %94, align 1, !dbg !3269, !tbaa !2561
  br label %95, !dbg !3270

95:                                               ; preds = %91, %87
  %96 = phi i32 [ %77, %87 ], [ %93, %91 ], !dbg !3272
  call void @llvm.dbg.value(metadata i32 %96, metadata !3205, metadata !DIExpression()), !dbg !3218
  %97 = icmp ult i32 %96, 32, !dbg !3270
  br i1 %97, label %98, label %101, !dbg !3273

98:                                               ; preds = %95
  %99 = add i32 %96, 1, !dbg !3274
  call void @llvm.dbg.value(metadata i32 %99, metadata !3205, metadata !DIExpression()), !dbg !3218
  %100 = getelementptr inbounds i8, i8* %4, i32 %96, !dbg !3276
  store i8 48, i8* %100, align 1, !dbg !3277, !tbaa !2561
  br label %101, !dbg !3278

101:                                              ; preds = %95, %98, %55
  %102 = phi i32 [ %99, %98 ], [ %96, %95 ], [ %57, %55 ]
  call void @llvm.dbg.value(metadata i32 %102, metadata !3205, metadata !DIExpression()), !dbg !3218
  %103 = icmp ult i32 %102, 32, !dbg !3279
  br i1 %103, label %104, label %115, !dbg !3281

104:                                              ; preds = %101
  br i1 %6, label %111, label %105, !dbg !3282

105:                                              ; preds = %104
  %106 = and i32 %10, 4, !dbg !3284
  %107 = icmp eq i32 %106, 0, !dbg !3284
  br i1 %107, label %108, label %111, !dbg !3287

108:                                              ; preds = %105
  %109 = and i32 %10, 8, !dbg !3288
  %110 = icmp eq i32 %109, 0, !dbg !3288
  br i1 %110, label %115, label %111, !dbg !3290

111:                                              ; preds = %108, %105, %104
  %112 = phi i8 [ 45, %104 ], [ 43, %105 ], [ 32, %108 ]
  %113 = add i32 %102, 1, !dbg !3291
  %114 = getelementptr inbounds i8, i8* %4, i32 %102, !dbg !3291
  store i8 %112, i8* %114, align 1, !dbg !3291, !tbaa !2561
  br label %115, !dbg !3292

115:                                              ; preds = %111, %108, %101
  %116 = phi i32 [ %102, %108 ], [ %102, %101 ], [ %113, %111 ], !dbg !3218
  call void @llvm.dbg.value(metadata i32 %116, metadata !3205, metadata !DIExpression()), !dbg !3218
  %117 = and i32 %10, 3, !dbg !3292
  %118 = icmp eq i32 %117, 0, !dbg !3292
  %119 = icmp ult i32 %116, %56
  %120 = select i1 %118, i1 %119, i1 false, !dbg !3292
  call void @llvm.dbg.value(metadata i32 %116, metadata !3212, metadata !DIExpression()), !dbg !3293
  call void @llvm.dbg.value(metadata i32 %2, metadata !3202, metadata !DIExpression()), !dbg !3218
  br i1 %120, label %121, label %127, !dbg !3292

121:                                              ; preds = %115, %121
  %122 = phi i32 [ %125, %121 ], [ %116, %115 ]
  %123 = phi i32 [ %124, %121 ], [ %2, %115 ]
  call void @llvm.dbg.value(metadata i32 %122, metadata !3212, metadata !DIExpression()), !dbg !3293
  call void @llvm.dbg.value(metadata i32 %123, metadata !3202, metadata !DIExpression()), !dbg !3218
  %124 = add i32 %123, 1, !dbg !3294
  call void @llvm.dbg.value(metadata i32 %124, metadata !3202, metadata !DIExpression()), !dbg !3218
  call void %0(i8 noundef zeroext 32, i8* noundef %1, i32 noundef %123, i32 noundef %3) #33, !dbg !3297, !callees !2566
  %125 = add nuw i32 %122, 1, !dbg !3298
  call void @llvm.dbg.value(metadata i32 %125, metadata !3212, metadata !DIExpression()), !dbg !3293
  %126 = icmp eq i32 %125, %56, !dbg !3299
  br i1 %126, label %127, label %121, !dbg !3300, !llvm.loop !3301

127:                                              ; preds = %121, %115
  %128 = phi i32 [ %2, %115 ], [ %124, %121 ]
  call void @llvm.dbg.value(metadata i32 %128, metadata !3202, metadata !DIExpression()), !dbg !3218
  call void @llvm.dbg.value(metadata i32 0, metadata !3216, metadata !DIExpression()), !dbg !3303
  %129 = icmp eq i32 %116, 0, !dbg !3304
  br i1 %129, label %130, label %136, !dbg !3306

130:                                              ; preds = %136, %127
  %131 = phi i32 [ %128, %127 ], [ %143, %136 ]
  %132 = xor i1 %13, true, !dbg !3307
  %133 = sub i32 %131, %2
  %134 = icmp ult i32 %133, %56
  %135 = select i1 %132, i1 %134, i1 false, !dbg !3307
  call void @llvm.dbg.value(metadata i32 %131, metadata !3202, metadata !DIExpression()), !dbg !3218
  br i1 %135, label %146, label %151, !dbg !3307

136:                                              ; preds = %127, %136
  %137 = phi i32 [ %144, %136 ], [ 0, %127 ]
  %138 = phi i32 [ %143, %136 ], [ %128, %127 ]
  call void @llvm.dbg.value(metadata i32 %137, metadata !3216, metadata !DIExpression()), !dbg !3303
  call void @llvm.dbg.value(metadata i32 %138, metadata !3202, metadata !DIExpression()), !dbg !3218
  %139 = xor i32 %137, -1, !dbg !3308
  %140 = add i32 %116, %139, !dbg !3308
  %141 = getelementptr inbounds i8, i8* %4, i32 %140, !dbg !3310
  %142 = load i8, i8* %141, align 1, !dbg !3310, !tbaa !2561
  %143 = add i32 %138, 1, !dbg !3311
  call void @llvm.dbg.value(metadata i32 %143, metadata !3202, metadata !DIExpression()), !dbg !3218
  call void %0(i8 noundef zeroext %142, i8* noundef %1, i32 noundef %138, i32 noundef %3) #33, !dbg !3312, !callees !2566
  %144 = add nuw i32 %137, 1, !dbg !3313
  call void @llvm.dbg.value(metadata i32 %144, metadata !3216, metadata !DIExpression()), !dbg !3303
  %145 = icmp eq i32 %144, %116, !dbg !3304
  br i1 %145, label %130, label %136, !dbg !3306, !llvm.loop !3314

146:                                              ; preds = %130, %146
  %147 = phi i32 [ %148, %146 ], [ %131, %130 ]
  call void @llvm.dbg.value(metadata i32 %147, metadata !3202, metadata !DIExpression()), !dbg !3218
  %148 = add i32 %147, 1, !dbg !3316
  call void @llvm.dbg.value(metadata i32 %148, metadata !3202, metadata !DIExpression()), !dbg !3218
  call void %0(i8 noundef zeroext 32, i8* noundef %1, i32 noundef %147, i32 noundef %3) #33, !dbg !3320, !callees !2566
  %149 = sub i32 %148, %2, !dbg !3321
  %150 = icmp ult i32 %149, %56, !dbg !3322
  br i1 %150, label %146, label %151, !dbg !3323, !llvm.loop !3324

151:                                              ; preds = %146, %130
  %152 = phi i32 [ %131, %130 ], [ %148, %146 ]
  call void @llvm.dbg.value(metadata i32 %152, metadata !3202, metadata !DIExpression()), !dbg !3218
  ret i32 %152, !dbg !3326
}

; Function Attrs: noinline nounwind
define dso_local i32 @sprintf_(i8* noundef %0, i8* noundef %1, ...) local_unnamed_addr #4 !dbg !3327 {
  %3 = alloca %struct.__va_list, align 4
  call void @llvm.dbg.value(metadata i8* %0, metadata !3329, metadata !DIExpression()), !dbg !3333
  call void @llvm.dbg.value(metadata i8* %1, metadata !3330, metadata !DIExpression()), !dbg !3333
  %4 = bitcast %struct.__va_list* %3 to i8*, !dbg !3334
  call void @llvm.lifetime.start.p0i8(i64 4, i8* nonnull %4) #33, !dbg !3334
  call void @llvm.dbg.declare(metadata %struct.__va_list* %3, metadata !3331, metadata !DIExpression()), !dbg !3335
  call void @llvm.va_start(i8* nonnull %4), !dbg !3336
  %5 = bitcast %struct.__va_list* %3 to i32*, !dbg !3337
  %6 = load i32, i32* %5, align 4, !dbg !3337
  %7 = insertvalue [1 x i32] poison, i32 %6, 0, !dbg !3337
  %8 = call fastcc i32 @_vsnprintf(void (i8, i8*, i32, i32)* noundef nonnull @_out_buffer, i8* noundef %0, i32 noundef -1, i8* noundef %1, [1 x i32] %7), !dbg !3337
  call void @llvm.dbg.value(metadata i32 %8, metadata !3332, metadata !DIExpression()), !dbg !3333
  call void @llvm.va_end(i8* %4), !dbg !3338
  call void @llvm.lifetime.end.p0i8(i64 4, i8* nonnull %4) #33, !dbg !3339
  ret i32 %8, !dbg !3340
}

; Function Attrs: noinline nounwind
define dso_local i32 @snprintf_(i8* noundef %0, i32 noundef %1, i8* noundef %2, ...) local_unnamed_addr #4 !dbg !3341 {
  %4 = alloca %struct.__va_list, align 4
  call void @llvm.dbg.value(metadata i8* %0, metadata !3343, metadata !DIExpression()), !dbg !3348
  call void @llvm.dbg.value(metadata i32 %1, metadata !3344, metadata !DIExpression()), !dbg !3348
  call void @llvm.dbg.value(metadata i8* %2, metadata !3345, metadata !DIExpression()), !dbg !3348
  %5 = bitcast %struct.__va_list* %4 to i8*, !dbg !3349
  call void @llvm.lifetime.start.p0i8(i64 4, i8* nonnull %5) #33, !dbg !3349
  call void @llvm.dbg.declare(metadata %struct.__va_list* %4, metadata !3346, metadata !DIExpression()), !dbg !3350
  call void @llvm.va_start(i8* nonnull %5), !dbg !3351
  %6 = bitcast %struct.__va_list* %4 to i32*, !dbg !3352
  %7 = load i32, i32* %6, align 4, !dbg !3352
  %8 = insertvalue [1 x i32] poison, i32 %7, 0, !dbg !3352
  %9 = call fastcc i32 @_vsnprintf(void (i8, i8*, i32, i32)* noundef nonnull @_out_buffer, i8* noundef %0, i32 noundef %1, i8* noundef %2, [1 x i32] %8), !dbg !3352
  call void @llvm.dbg.value(metadata i32 %9, metadata !3347, metadata !DIExpression()), !dbg !3348
  call void @llvm.va_end(i8* %5), !dbg !3353
  call void @llvm.lifetime.end.p0i8(i64 4, i8* nonnull %5) #33, !dbg !3354
  ret i32 %9, !dbg !3355
}

; Function Attrs: noinline nounwind
define dso_local i32 @vsnprintf_(i8* noundef %0, i32 noundef %1, i8* noundef %2, [1 x i32] %3) local_unnamed_addr #4 !dbg !3356 {
  call void @llvm.dbg.value(metadata i32 undef, metadata !3363, metadata !DIExpression()), !dbg !3364
  call void @llvm.dbg.value(metadata i8* %0, metadata !3360, metadata !DIExpression()), !dbg !3364
  call void @llvm.dbg.value(metadata i32 %1, metadata !3361, metadata !DIExpression()), !dbg !3364
  call void @llvm.dbg.value(metadata i8* %2, metadata !3362, metadata !DIExpression()), !dbg !3364
  %5 = call fastcc i32 @_vsnprintf(void (i8, i8*, i32, i32)* noundef nonnull @_out_buffer, i8* noundef %0, i32 noundef %1, i8* noundef %2, [1 x i32] %3), !dbg !3365
  ret i32 %5, !dbg !3366
}

; Function Attrs: noinline nounwind
define dso_local i32 @fctprintf(void (i8, i8*)* noundef %0, i8* noundef %1, i8* noundef %2, ...) local_unnamed_addr #4 !dbg !3367 {
  %4 = alloca %struct.__va_list, align 4
  %5 = alloca %struct.out_fct_wrap_type, align 4
  call void @llvm.dbg.value(metadata void (i8, i8*)* %0, metadata !3371, metadata !DIExpression()), !dbg !3378
  call void @llvm.dbg.value(metadata i8* %1, metadata !3372, metadata !DIExpression()), !dbg !3378
  call void @llvm.dbg.value(metadata i8* %2, metadata !3373, metadata !DIExpression()), !dbg !3378
  %6 = bitcast %struct.__va_list* %4 to i8*, !dbg !3379
  call void @llvm.lifetime.start.p0i8(i64 4, i8* nonnull %6) #33, !dbg !3379
  call void @llvm.dbg.declare(metadata %struct.__va_list* %4, metadata !3374, metadata !DIExpression()), !dbg !3380
  call void @llvm.va_start(i8* nonnull %6), !dbg !3381
  %7 = bitcast %struct.out_fct_wrap_type* %5 to i8*, !dbg !3382
  call void @llvm.lifetime.start.p0i8(i64 8, i8* nonnull %7) #33, !dbg !3382
  call void @llvm.dbg.declare(metadata %struct.out_fct_wrap_type* %5, metadata !3375, metadata !DIExpression()), !dbg !3383
  %8 = getelementptr inbounds %struct.out_fct_wrap_type, %struct.out_fct_wrap_type* %5, i32 0, i32 0, !dbg !3384
  store void (i8, i8*)* %0, void (i8, i8*)** %8, align 4, !dbg !3384, !tbaa !2880
  %9 = getelementptr inbounds %struct.out_fct_wrap_type, %struct.out_fct_wrap_type* %5, i32 0, i32 1, !dbg !3384
  store i8* %1, i8** %9, align 4, !dbg !3384, !tbaa !2883
  %10 = bitcast %struct.__va_list* %4 to i32*, !dbg !3385
  %11 = load i32, i32* %10, align 4, !dbg !3385
  %12 = insertvalue [1 x i32] poison, i32 %11, 0, !dbg !3385
  %13 = call fastcc i32 @_vsnprintf(void (i8, i8*, i32, i32)* noundef nonnull @_out_fct, i8* noundef nonnull %7, i32 noundef -1, i8* noundef %2, [1 x i32] %12), !dbg !3385
  call void @llvm.dbg.value(metadata i32 %13, metadata !3377, metadata !DIExpression()), !dbg !3378
  call void @llvm.va_end(i8* %6), !dbg !3386
  call void @llvm.lifetime.end.p0i8(i64 8, i8* nonnull %7) #33, !dbg !3387
  call void @llvm.lifetime.end.p0i8(i64 4, i8* nonnull %6) #33, !dbg !3387
  ret i32 %13, !dbg !3388
}

; Function Attrs: nofree noinline norecurse nounwind
define dso_local void @SystemInit() local_unnamed_addr #15 !dbg !3389 {
  %1 = load volatile i32, i32* inttoptr (i32 1073876992 to i32*), align 4096, !dbg !3390, !tbaa !3391
  %2 = or i32 %1, 1, !dbg !3390
  store volatile i32 %2, i32* inttoptr (i32 1073876992 to i32*), align 4096, !dbg !3390, !tbaa !3391
  %3 = load volatile i32, i32* inttoptr (i32 1073876996 to i32*), align 4, !dbg !3394, !tbaa !3395
  %4 = and i32 %3, -117506048, !dbg !3394
  store volatile i32 %4, i32* inttoptr (i32 1073876996 to i32*), align 4, !dbg !3394, !tbaa !3395
  %5 = load volatile i32, i32* inttoptr (i32 1073876992 to i32*), align 4096, !dbg !3396, !tbaa !3391
  %6 = and i32 %5, -17367041, !dbg !3396
  store volatile i32 %6, i32* inttoptr (i32 1073876992 to i32*), align 4096, !dbg !3396, !tbaa !3391
  %7 = load volatile i32, i32* inttoptr (i32 1073876992 to i32*), align 4096, !dbg !3397, !tbaa !3391
  %8 = and i32 %7, -262145, !dbg !3397
  store volatile i32 %8, i32* inttoptr (i32 1073876992 to i32*), align 4096, !dbg !3397, !tbaa !3391
  %9 = load volatile i32, i32* inttoptr (i32 1073876996 to i32*), align 4, !dbg !3398, !tbaa !3395
  %10 = and i32 %9, -8323073, !dbg !3398
  store volatile i32 %10, i32* inttoptr (i32 1073876996 to i32*), align 4, !dbg !3398, !tbaa !3395
  store volatile i32 10420224, i32* inttoptr (i32 1073877000 to i32*), align 8, !dbg !3399, !tbaa !3400
  store volatile i32 134217728, i32* inttoptr (i32 -536810232 to i32*), align 8, !dbg !3401, !tbaa !3402
  ret void, !dbg !3404
}

; Function Attrs: mustprogress nofree noinline norecurse nounwind willreturn
define dso_local void @SystemCoreClockUpdate() local_unnamed_addr #16 !dbg !3405 {
  call void @llvm.dbg.value(metadata i32 0, metadata !3407, metadata !DIExpression()), !dbg !3410
  call void @llvm.dbg.value(metadata i32 0, metadata !3408, metadata !DIExpression()), !dbg !3410
  call void @llvm.dbg.value(metadata i32 0, metadata !3409, metadata !DIExpression()), !dbg !3410
  %1 = load volatile i32, i32* inttoptr (i32 1073876996 to i32*), align 4, !dbg !3411, !tbaa !3395
  %2 = and i32 %1, 12, !dbg !3412
  call void @llvm.dbg.value(metadata i32 %2, metadata !3407, metadata !DIExpression()), !dbg !3410
  %3 = icmp eq i32 %2, 8, !dbg !3413
  br i1 %3, label %4, label %22, !dbg !3413

4:                                                ; preds = %0
  %5 = load volatile i32, i32* inttoptr (i32 1073876996 to i32*), align 4, !dbg !3414, !tbaa !3395
  call void @llvm.dbg.value(metadata i32 %5, metadata !3408, metadata !DIExpression(DW_OP_constu, 3932160, DW_OP_and, DW_OP_stack_value)), !dbg !3410
  %6 = load volatile i32, i32* inttoptr (i32 1073876996 to i32*), align 4, !dbg !3416, !tbaa !3395
  %7 = and i32 %6, 65536, !dbg !3417
  call void @llvm.dbg.value(metadata i32 %7, metadata !3409, metadata !DIExpression()), !dbg !3410
  %8 = lshr i32 %5, 18, !dbg !3418
  %9 = and i32 %8, 15, !dbg !3418
  %10 = add nuw nsw i32 %9, 2, !dbg !3419
  call void @llvm.dbg.value(metadata i32 %10, metadata !3408, metadata !DIExpression()), !dbg !3410
  %11 = icmp eq i32 %7, 0, !dbg !3420
  br i1 %11, label %12, label %14, !dbg !3422

12:                                               ; preds = %4
  %13 = mul nuw nsw i32 %10, 4000000, !dbg !3423
  br label %22, !dbg !3425

14:                                               ; preds = %4
  %15 = load volatile i32, i32* inttoptr (i32 1073876996 to i32*), align 4, !dbg !3426, !tbaa !3395
  %16 = and i32 %15, 131072, !dbg !3429
  %17 = icmp eq i32 %16, 0, !dbg !3430
  br i1 %17, label %20, label %18, !dbg !3431

18:                                               ; preds = %14
  %19 = mul nuw nsw i32 %10, 4000000, !dbg !3432
  br label %22, !dbg !3434

20:                                               ; preds = %14
  %21 = mul nuw nsw i32 %10, 8000000, !dbg !3435
  br label %22

22:                                               ; preds = %0, %12, %20, %18
  %23 = phi i32 [ %13, %12 ], [ %21, %20 ], [ %19, %18 ], [ 8000000, %0 ]
  store i32 %23, i32* @SystemCoreClock, align 4, !dbg !3437, !tbaa !3438
  %24 = load volatile i32, i32* inttoptr (i32 1073876996 to i32*), align 4, !dbg !3439, !tbaa !3395
  %25 = lshr i32 %24, 4, !dbg !3440
  %26 = and i32 %25, 15, !dbg !3440
  %27 = getelementptr inbounds [16 x i8], [16 x i8]* @AHBPrescTable, i32 0, i32 %26, !dbg !3441
  %28 = load i8, i8* %27, align 1, !dbg !3441, !tbaa !2561
  %29 = zext i8 %28 to i32, !dbg !3441
  call void @llvm.dbg.value(metadata i32 %29, metadata !3407, metadata !DIExpression()), !dbg !3410
  %30 = load i32, i32* @SystemCoreClock, align 4, !dbg !3442, !tbaa !3438
  %31 = lshr i32 %30, %29, !dbg !3442
  store i32 %31, i32* @SystemCoreClock, align 4, !dbg !3442, !tbaa !3438
  ret void, !dbg !3443
}

; Function Attrs: noinline nounwind
define dso_local i32 @HAL_RCC_DeInit() local_unnamed_addr #4 !dbg !3444 {
  %1 = call i32 @HAL_GetTick() #33, !dbg !3450
  call void @llvm.dbg.value(metadata i32 %1, metadata !3449, metadata !DIExpression()), !dbg !3451
  %2 = load volatile i32, i32* inttoptr (i32 1073876992 to i32*), align 4096, !dbg !3452, !tbaa !3391
  %3 = or i32 %2, 1, !dbg !3452
  store volatile i32 %3, i32* inttoptr (i32 1073876992 to i32*), align 4096, !dbg !3452, !tbaa !3391
  br label %4, !dbg !3453

4:                                                ; preds = %8, %0
  %5 = load volatile i32, i32* inttoptr (i32 1073876992 to i32*), align 4096, !dbg !3454, !tbaa !3391
  %6 = and i32 %5, 2, !dbg !3454
  %7 = icmp eq i32 %6, 0, !dbg !3455
  br i1 %7, label %8, label %12, !dbg !3453

8:                                                ; preds = %4
  %9 = call i32 @HAL_GetTick() #33, !dbg !3456
  %10 = sub i32 %9, %1, !dbg !3459
  %11 = icmp ugt i32 %10, 2, !dbg !3460
  br i1 %11, label %58, label %4, !dbg !3461, !llvm.loop !3462

12:                                               ; preds = %4
  %13 = load volatile i32, i32* inttoptr (i32 1073876992 to i32*), align 4096, !dbg !3464, !tbaa !3391
  %14 = and i32 %13, -249, !dbg !3464
  %15 = or i32 %14, 128, !dbg !3464
  store volatile i32 %15, i32* inttoptr (i32 1073876992 to i32*), align 4096, !dbg !3464, !tbaa !3391
  %16 = call i32 @HAL_GetTick() #33, !dbg !3465
  call void @llvm.dbg.value(metadata i32 %16, metadata !3449, metadata !DIExpression()), !dbg !3451
  store volatile i32 0, i32* inttoptr (i32 1073876996 to i32*), align 4, !dbg !3466, !tbaa !3395
  br label %17, !dbg !3467

17:                                               ; preds = %21, %12
  %18 = load volatile i32, i32* inttoptr (i32 1073876996 to i32*), align 4, !dbg !3468, !tbaa !3395
  %19 = and i32 %18, 12, !dbg !3468
  %20 = icmp eq i32 %19, 0, !dbg !3469
  br i1 %20, label %25, label %21, !dbg !3467

21:                                               ; preds = %17
  %22 = call i32 @HAL_GetTick() #33, !dbg !3470
  %23 = sub i32 %22, %16, !dbg !3473
  %24 = icmp ugt i32 %23, 5000, !dbg !3474
  br i1 %24, label %58, label %17, !dbg !3475, !llvm.loop !3476

25:                                               ; preds = %17
  store i32 8000000, i32* @SystemCoreClock, align 4, !dbg !3478, !tbaa !3438
  %26 = load i32, i32* @uwTickPrio, align 4, !dbg !3479, !tbaa !3438
  %27 = call i32 @HAL_InitTick(i32 noundef %26) #33, !dbg !3481
  %28 = icmp eq i32 %27, 0, !dbg !3482
  br i1 %28, label %29, label %58, !dbg !3483

29:                                               ; preds = %25
  %30 = call i32 @HAL_GetTick() #33, !dbg !3484
  call void @llvm.dbg.value(metadata i32 %30, metadata !3449, metadata !DIExpression()), !dbg !3451
  %31 = load volatile i32, i32* inttoptr (i32 1073876992 to i32*), align 4096, !dbg !3485, !tbaa !3391
  %32 = and i32 %31, -16777217, !dbg !3485
  store volatile i32 %32, i32* inttoptr (i32 1073876992 to i32*), align 4096, !dbg !3485, !tbaa !3391
  br label %33, !dbg !3486

33:                                               ; preds = %37, %29
  %34 = load volatile i32, i32* inttoptr (i32 1073876992 to i32*), align 4096, !dbg !3487, !tbaa !3391
  %35 = and i32 %34, 33554432, !dbg !3487
  %36 = icmp eq i32 %35, 0, !dbg !3488
  br i1 %36, label %41, label %37, !dbg !3486

37:                                               ; preds = %33
  %38 = call i32 @HAL_GetTick() #33, !dbg !3489
  %39 = sub i32 %38, %30, !dbg !3492
  %40 = icmp ugt i32 %39, 2, !dbg !3493
  br i1 %40, label %58, label %33, !dbg !3494, !llvm.loop !3495

41:                                               ; preds = %33
  store volatile i32 0, i32* inttoptr (i32 1073876996 to i32*), align 4, !dbg !3497, !tbaa !3395
  %42 = call i32 @HAL_GetTick() #33, !dbg !3498
  call void @llvm.dbg.value(metadata i32 %42, metadata !3449, metadata !DIExpression()), !dbg !3451
  %43 = load volatile i32, i32* inttoptr (i32 1073876992 to i32*), align 4096, !dbg !3499, !tbaa !3391
  %44 = and i32 %43, -589825, !dbg !3499
  store volatile i32 %44, i32* inttoptr (i32 1073876992 to i32*), align 4096, !dbg !3499, !tbaa !3391
  br label %45, !dbg !3500

45:                                               ; preds = %49, %41
  %46 = load volatile i32, i32* inttoptr (i32 1073876992 to i32*), align 4096, !dbg !3501, !tbaa !3391
  %47 = and i32 %46, 131072, !dbg !3501
  %48 = icmp eq i32 %47, 0, !dbg !3502
  br i1 %48, label %53, label %49, !dbg !3500

49:                                               ; preds = %45
  %50 = call i32 @HAL_GetTick() #33, !dbg !3503
  %51 = sub i32 %50, %42, !dbg !3506
  %52 = icmp ugt i32 %51, 100, !dbg !3507
  br i1 %52, label %58, label %45, !dbg !3508, !llvm.loop !3509

53:                                               ; preds = %45
  %54 = load volatile i32, i32* inttoptr (i32 1073876992 to i32*), align 4096, !dbg !3511, !tbaa !3391
  %55 = and i32 %54, -262145, !dbg !3511
  store volatile i32 %55, i32* inttoptr (i32 1073876992 to i32*), align 4096, !dbg !3511, !tbaa !3391
  %56 = load volatile i32, i32* inttoptr (i32 1073877028 to i32*), align 4, !dbg !3512, !tbaa !3513
  %57 = or i32 %56, 16777216, !dbg !3512
  store volatile i32 %57, i32* inttoptr (i32 1073877028 to i32*), align 4, !dbg !3512, !tbaa !3513
  store volatile i32 0, i32* inttoptr (i32 1073877000 to i32*), align 8, !dbg !3514, !tbaa !3400
  br label %58, !dbg !3515

58:                                               ; preds = %8, %21, %37, %49, %25, %53
  %59 = phi i32 [ 0, %53 ], [ 1, %25 ], [ 3, %49 ], [ 3, %37 ], [ 3, %21 ], [ 3, %8 ], !dbg !3451
  ret i32 %59, !dbg !3516
}

; Function Attrs: noinline nounwind
define dso_local i32 @HAL_RCC_OscConfig(%struct.RCC_OscInitTypeDef* noundef readonly %0) local_unnamed_addr #4 !dbg !3517 {
  %2 = alloca i32, align 4
  call void @llvm.dbg.value(metadata %struct.RCC_OscInitTypeDef* %0, metadata !3539, metadata !DIExpression()), !dbg !3550
  %3 = icmp eq %struct.RCC_OscInitTypeDef* %0, null, !dbg !3551
  br i1 %3, label %298, label %4, !dbg !3553

4:                                                ; preds = %1
  %5 = getelementptr inbounds %struct.RCC_OscInitTypeDef, %struct.RCC_OscInitTypeDef* %0, i32 0, i32 0, !dbg !3554
  %6 = load i32, i32* %5, align 4, !dbg !3554, !tbaa !3556
  %7 = and i32 %6, 1, !dbg !3559
  %8 = icmp eq i32 %7, 0, !dbg !3560
  br i1 %8, label %70, label %9, !dbg !3561

9:                                                ; preds = %4
  %10 = load volatile i32, i32* inttoptr (i32 1073876996 to i32*), align 4, !dbg !3562, !tbaa !3395
  %11 = and i32 %10, 12, !dbg !3562
  %12 = icmp eq i32 %11, 4, !dbg !3565
  br i1 %12, label %21, label %13, !dbg !3566

13:                                               ; preds = %9
  %14 = load volatile i32, i32* inttoptr (i32 1073876996 to i32*), align 4, !dbg !3567, !tbaa !3395
  %15 = and i32 %14, 12, !dbg !3567
  %16 = icmp eq i32 %15, 8, !dbg !3568
  br i1 %16, label %17, label %29, !dbg !3569

17:                                               ; preds = %13
  %18 = load volatile i32, i32* inttoptr (i32 1073876996 to i32*), align 4, !dbg !3570, !tbaa !3395
  %19 = and i32 %18, 65536, !dbg !3570
  %20 = icmp eq i32 %19, 0, !dbg !3571
  br i1 %20, label %29, label %21, !dbg !3572

21:                                               ; preds = %17, %9
  %22 = load volatile i32, i32* inttoptr (i32 1073876992 to i32*), align 4096, !dbg !3573, !tbaa !3391
  %23 = and i32 %22, 131072, !dbg !3573
  %24 = icmp eq i32 %23, 0, !dbg !3576
  br i1 %24, label %70, label %25, !dbg !3577

25:                                               ; preds = %21
  %26 = getelementptr inbounds %struct.RCC_OscInitTypeDef, %struct.RCC_OscInitTypeDef* %0, i32 0, i32 1, !dbg !3578
  %27 = load i32, i32* %26, align 4, !dbg !3578, !tbaa !3579
  %28 = icmp eq i32 %27, 0, !dbg !3580
  br i1 %28, label %298, label %70, !dbg !3581

29:                                               ; preds = %13, %17
  %30 = getelementptr inbounds %struct.RCC_OscInitTypeDef, %struct.RCC_OscInitTypeDef* %0, i32 0, i32 1, !dbg !3582
  %31 = load i32, i32* %30, align 4, !dbg !3582, !tbaa !3579
  switch i32 %31, label %45 [
    i32 65536, label %32
    i32 0, label %35
    i32 327680, label %40
  ], !dbg !3586

32:                                               ; preds = %29
  %33 = load volatile i32, i32* inttoptr (i32 1073876992 to i32*), align 4096, !dbg !3587, !tbaa !3391
  %34 = or i32 %33, 65536, !dbg !3587
  br label %50, !dbg !3587

35:                                               ; preds = %29
  %36 = load volatile i32, i32* inttoptr (i32 1073876992 to i32*), align 4096, !dbg !3589, !tbaa !3391
  %37 = and i32 %36, -65537, !dbg !3589
  store volatile i32 %37, i32* inttoptr (i32 1073876992 to i32*), align 4096, !dbg !3589, !tbaa !3391
  %38 = load volatile i32, i32* inttoptr (i32 1073876992 to i32*), align 4096, !dbg !3589, !tbaa !3391
  %39 = and i32 %38, -262145, !dbg !3589
  br label %50, !dbg !3589

40:                                               ; preds = %29
  %41 = load volatile i32, i32* inttoptr (i32 1073876992 to i32*), align 4096, !dbg !3592, !tbaa !3391
  %42 = or i32 %41, 262144, !dbg !3592
  store volatile i32 %42, i32* inttoptr (i32 1073876992 to i32*), align 4096, !dbg !3592, !tbaa !3391
  %43 = load volatile i32, i32* inttoptr (i32 1073876992 to i32*), align 4096, !dbg !3592, !tbaa !3391
  %44 = or i32 %43, 65536, !dbg !3592
  br label %50, !dbg !3592

45:                                               ; preds = %29
  %46 = load volatile i32, i32* inttoptr (i32 1073876992 to i32*), align 4096, !dbg !3595, !tbaa !3391
  %47 = and i32 %46, -65537, !dbg !3595
  store volatile i32 %47, i32* inttoptr (i32 1073876992 to i32*), align 4096, !dbg !3595, !tbaa !3391
  %48 = load volatile i32, i32* inttoptr (i32 1073876992 to i32*), align 4096, !dbg !3595, !tbaa !3391
  %49 = and i32 %48, -262145, !dbg !3595
  br label %50

50:                                               ; preds = %35, %45, %40, %32
  %51 = phi i32 [ %39, %35 ], [ %49, %45 ], [ %44, %40 ], [ %34, %32 ]
  store volatile i32 %51, i32* inttoptr (i32 1073876992 to i32*), align 4096, !dbg !3597, !tbaa !3391
  %52 = icmp eq i32 %31, 0, !dbg !3598
  %53 = call i32 @HAL_GetTick() #33, !dbg !3600
  call void @llvm.dbg.value(metadata i32 %53, metadata !3540, metadata !DIExpression()), !dbg !3550
  call void @llvm.dbg.value(metadata i32 %53, metadata !3540, metadata !DIExpression()), !dbg !3550
  br i1 %52, label %62, label %54, !dbg !3601

54:                                               ; preds = %50, %58
  %55 = load volatile i32, i32* inttoptr (i32 1073876992 to i32*), align 4096, !dbg !3602, !tbaa !3391
  %56 = and i32 %55, 131072, !dbg !3602
  %57 = icmp eq i32 %56, 0, !dbg !3604
  br i1 %57, label %58, label %70, !dbg !3605

58:                                               ; preds = %54
  %59 = call i32 @HAL_GetTick() #33, !dbg !3606
  %60 = sub i32 %59, %53, !dbg !3609
  %61 = icmp ugt i32 %60, 100, !dbg !3610
  br i1 %61, label %298, label %54, !dbg !3611, !llvm.loop !3612

62:                                               ; preds = %50, %66
  %63 = load volatile i32, i32* inttoptr (i32 1073876992 to i32*), align 4096, !dbg !3614, !tbaa !3391
  %64 = and i32 %63, 131072, !dbg !3614
  %65 = icmp eq i32 %64, 0, !dbg !3616
  br i1 %65, label %70, label %66, !dbg !3617

66:                                               ; preds = %62
  %67 = call i32 @HAL_GetTick() #33, !dbg !3618
  %68 = sub i32 %67, %53, !dbg !3621
  %69 = icmp ugt i32 %68, 100, !dbg !3622
  br i1 %69, label %298, label %62, !dbg !3623, !llvm.loop !3624

70:                                               ; preds = %54, %62, %25, %21, %4
  %71 = load i32, i32* %5, align 4, !dbg !3626, !tbaa !3556
  %72 = and i32 %71, 2, !dbg !3628
  %73 = icmp eq i32 %72, 0, !dbg !3629
  br i1 %73, label %125, label %74, !dbg !3630

74:                                               ; preds = %70
  %75 = load volatile i32, i32* inttoptr (i32 1073876996 to i32*), align 4, !dbg !3631, !tbaa !3395
  %76 = and i32 %75, 12, !dbg !3631
  %77 = icmp eq i32 %76, 0, !dbg !3634
  br i1 %77, label %86, label %78, !dbg !3635

78:                                               ; preds = %74
  %79 = load volatile i32, i32* inttoptr (i32 1073876996 to i32*), align 4, !dbg !3636, !tbaa !3395
  %80 = and i32 %79, 12, !dbg !3636
  %81 = icmp eq i32 %80, 8, !dbg !3637
  br i1 %81, label %82, label %94, !dbg !3638

82:                                               ; preds = %78
  %83 = load volatile i32, i32* inttoptr (i32 1073876996 to i32*), align 4, !dbg !3639, !tbaa !3395
  %84 = and i32 %83, 65536, !dbg !3639
  %85 = icmp eq i32 %84, 0, !dbg !3640
  br i1 %85, label %86, label %94, !dbg !3641

86:                                               ; preds = %82, %74
  %87 = load volatile i32, i32* inttoptr (i32 1073876992 to i32*), align 4096, !dbg !3642, !tbaa !3391
  %88 = and i32 %87, 2, !dbg !3642
  %89 = icmp eq i32 %88, 0, !dbg !3645
  br i1 %89, label %118, label %90, !dbg !3646

90:                                               ; preds = %86
  %91 = getelementptr inbounds %struct.RCC_OscInitTypeDef, %struct.RCC_OscInitTypeDef* %0, i32 0, i32 4, !dbg !3647
  %92 = load i32, i32* %91, align 4, !dbg !3647, !tbaa !3648
  %93 = icmp eq i32 %92, 1, !dbg !3649
  br i1 %93, label %118, label %298, !dbg !3650

94:                                               ; preds = %82, %78
  %95 = getelementptr inbounds %struct.RCC_OscInitTypeDef, %struct.RCC_OscInitTypeDef* %0, i32 0, i32 4, !dbg !3651
  %96 = load i32, i32* %95, align 4, !dbg !3651, !tbaa !3648
  %97 = icmp eq i32 %96, 0, !dbg !3654
  br i1 %97, label %108, label %98, !dbg !3655

98:                                               ; preds = %94
  store volatile i32 1, i32* inttoptr (i32 1111621632 to i32*), align 131072, !dbg !3656, !tbaa !3438
  %99 = call i32 @HAL_GetTick() #33, !dbg !3658
  call void @llvm.dbg.value(metadata i32 %99, metadata !3540, metadata !DIExpression()), !dbg !3550
  br label %100, !dbg !3659

100:                                              ; preds = %104, %98
  %101 = load volatile i32, i32* inttoptr (i32 1073876992 to i32*), align 4096, !dbg !3660, !tbaa !3391
  %102 = and i32 %101, 2, !dbg !3660
  %103 = icmp eq i32 %102, 0, !dbg !3661
  br i1 %103, label %104, label %118, !dbg !3659

104:                                              ; preds = %100
  %105 = call i32 @HAL_GetTick() #33, !dbg !3662
  %106 = sub i32 %105, %99, !dbg !3665
  %107 = icmp ugt i32 %106, 2, !dbg !3666
  br i1 %107, label %298, label %100, !dbg !3667, !llvm.loop !3668

108:                                              ; preds = %94
  store volatile i32 0, i32* inttoptr (i32 1111621632 to i32*), align 131072, !dbg !3670, !tbaa !3438
  %109 = call i32 @HAL_GetTick() #33, !dbg !3672
  call void @llvm.dbg.value(metadata i32 %109, metadata !3540, metadata !DIExpression()), !dbg !3550
  br label %110, !dbg !3673

110:                                              ; preds = %114, %108
  %111 = load volatile i32, i32* inttoptr (i32 1073876992 to i32*), align 4096, !dbg !3674, !tbaa !3391
  %112 = and i32 %111, 2, !dbg !3674
  %113 = icmp eq i32 %112, 0, !dbg !3675
  br i1 %113, label %125, label %114, !dbg !3673

114:                                              ; preds = %110
  %115 = call i32 @HAL_GetTick() #33, !dbg !3676
  %116 = sub i32 %115, %109, !dbg !3679
  %117 = icmp ugt i32 %116, 2, !dbg !3680
  br i1 %117, label %298, label %110, !dbg !3681, !llvm.loop !3682

118:                                              ; preds = %100, %86, %90
  %119 = load volatile i32, i32* inttoptr (i32 1073876992 to i32*), align 4096, !dbg !3684, !tbaa !3391
  %120 = and i32 %119, -249, !dbg !3684
  %121 = getelementptr inbounds %struct.RCC_OscInitTypeDef, %struct.RCC_OscInitTypeDef* %0, i32 0, i32 5, !dbg !3684
  %122 = load i32, i32* %121, align 4, !dbg !3684, !tbaa !3685
  %123 = shl i32 %122, 3, !dbg !3684
  %124 = or i32 %123, %120, !dbg !3684
  store volatile i32 %124, i32* inttoptr (i32 1073876992 to i32*), align 4096, !dbg !3684, !tbaa !3391
  br label %125, !dbg !3686

125:                                              ; preds = %110, %118, %70
  %126 = load i32, i32* %5, align 4, !dbg !3686, !tbaa !3556
  %127 = and i32 %126, 8, !dbg !3688
  %128 = icmp eq i32 %127, 0, !dbg !3689
  br i1 %128, label %154, label %129, !dbg !3690

129:                                              ; preds = %125
  %130 = getelementptr inbounds %struct.RCC_OscInitTypeDef, %struct.RCC_OscInitTypeDef* %0, i32 0, i32 6, !dbg !3691
  %131 = load i32, i32* %130, align 4, !dbg !3691, !tbaa !3694
  %132 = icmp eq i32 %131, 0, !dbg !3695
  br i1 %132, label %144, label %133, !dbg !3696

133:                                              ; preds = %129
  store volatile i32 1, i32* inttoptr (i32 1111622784 to i32*), align 128, !dbg !3697, !tbaa !3438
  %134 = call i32 @HAL_GetTick() #33, !dbg !3699
  call void @llvm.dbg.value(metadata i32 %134, metadata !3540, metadata !DIExpression()), !dbg !3550
  br label %135, !dbg !3700

135:                                              ; preds = %139, %133
  %136 = load volatile i32, i32* inttoptr (i32 1073877028 to i32*), align 4, !dbg !3701, !tbaa !3513
  %137 = and i32 %136, 2, !dbg !3701
  %138 = icmp eq i32 %137, 0, !dbg !3702
  br i1 %138, label %139, label %143, !dbg !3700

139:                                              ; preds = %135
  %140 = call i32 @HAL_GetTick() #33, !dbg !3703
  %141 = sub i32 %140, %134, !dbg !3706
  %142 = icmp ugt i32 %141, 2, !dbg !3707
  br i1 %142, label %298, label %135, !dbg !3708, !llvm.loop !3709

143:                                              ; preds = %135
  call fastcc void @RCC_Delay(), !dbg !3711
  br label %154, !dbg !3712

144:                                              ; preds = %129
  store volatile i32 0, i32* inttoptr (i32 1111622784 to i32*), align 128, !dbg !3713, !tbaa !3438
  %145 = call i32 @HAL_GetTick() #33, !dbg !3715
  call void @llvm.dbg.value(metadata i32 %145, metadata !3540, metadata !DIExpression()), !dbg !3550
  br label %146, !dbg !3716

146:                                              ; preds = %150, %144
  %147 = load volatile i32, i32* inttoptr (i32 1073877028 to i32*), align 4, !dbg !3717, !tbaa !3513
  %148 = and i32 %147, 2, !dbg !3717
  %149 = icmp eq i32 %148, 0, !dbg !3718
  br i1 %149, label %154, label %150, !dbg !3716

150:                                              ; preds = %146
  %151 = call i32 @HAL_GetTick() #33, !dbg !3719
  %152 = sub i32 %151, %145, !dbg !3722
  %153 = icmp ugt i32 %152, 2, !dbg !3723
  br i1 %153, label %298, label %146, !dbg !3724, !llvm.loop !3725

154:                                              ; preds = %146, %143, %125
  %155 = load i32, i32* %5, align 4, !dbg !3727, !tbaa !3556
  %156 = and i32 %155, 4, !dbg !3728
  %157 = icmp eq i32 %156, 0, !dbg !3729
  br i1 %157, label %231, label %158, !dbg !3730

158:                                              ; preds = %154
  call void @llvm.dbg.value(metadata i32 0, metadata !3542, metadata !DIExpression()), !dbg !3731
  %159 = load volatile i32, i32* inttoptr (i32 1073877020 to i32*), align 4, !dbg !3732, !tbaa !3733
  %160 = and i32 %159, 268435456, !dbg !3732
  %161 = icmp eq i32 %160, 0, !dbg !3732
  br i1 %161, label %162, label %170, !dbg !3734

162:                                              ; preds = %158
  %163 = bitcast i32* %2 to i8*, !dbg !3735
  call void @llvm.lifetime.start.p0i8(i64 4, i8* nonnull %163), !dbg !3735
  call void @llvm.dbg.declare(metadata i32* %2, metadata !3546, metadata !DIExpression()), !dbg !3735
  %164 = load volatile i32, i32* inttoptr (i32 1073877020 to i32*), align 4, !dbg !3735, !tbaa !3733
  %165 = or i32 %164, 268435456, !dbg !3735
  store volatile i32 %165, i32* inttoptr (i32 1073877020 to i32*), align 4, !dbg !3735, !tbaa !3733
  %166 = load volatile i32, i32* inttoptr (i32 1073877020 to i32*), align 4, !dbg !3735, !tbaa !3733
  %167 = and i32 %166, 268435456, !dbg !3735
  store volatile i32 %167, i32* %2, align 4, !dbg !3735, !tbaa !3438
  %168 = load volatile i32, i32* %2, align 4, !dbg !3735, !tbaa !3438
  %169 = bitcast i32* %2 to i8*, !dbg !3736
  call void @llvm.lifetime.end.p0i8(i64 4, i8* nonnull %169), !dbg !3736
  call void @llvm.dbg.value(metadata i32 1, metadata !3542, metadata !DIExpression()), !dbg !3731
  br label %170, !dbg !3737

170:                                              ; preds = %162, %158
  call void @llvm.dbg.value(metadata i32 undef, metadata !3542, metadata !DIExpression()), !dbg !3731
  %171 = load volatile i32, i32* inttoptr (i32 1073770496 to i32*), align 4096, !dbg !3738, !tbaa !3740
  %172 = and i32 %171, 256, !dbg !3738
  %173 = icmp eq i32 %172, 0, !dbg !3738
  br i1 %173, label %174, label %186, !dbg !3742

174:                                              ; preds = %170
  %175 = load volatile i32, i32* inttoptr (i32 1073770496 to i32*), align 4096, !dbg !3743, !tbaa !3740
  %176 = or i32 %175, 256, !dbg !3743
  store volatile i32 %176, i32* inttoptr (i32 1073770496 to i32*), align 4096, !dbg !3743, !tbaa !3740
  %177 = call i32 @HAL_GetTick() #33, !dbg !3745
  call void @llvm.dbg.value(metadata i32 %177, metadata !3540, metadata !DIExpression()), !dbg !3550
  br label %178, !dbg !3746

178:                                              ; preds = %182, %174
  %179 = load volatile i32, i32* inttoptr (i32 1073770496 to i32*), align 4096, !dbg !3747, !tbaa !3740
  %180 = and i32 %179, 256, !dbg !3747
  %181 = icmp eq i32 %180, 0, !dbg !3747
  br i1 %181, label %182, label %186, !dbg !3746

182:                                              ; preds = %178
  %183 = call i32 @HAL_GetTick() #33, !dbg !3748
  %184 = sub i32 %183, %177, !dbg !3751
  %185 = icmp ugt i32 %184, 100, !dbg !3752
  br i1 %185, label %298, label %178, !dbg !3753, !llvm.loop !3754

186:                                              ; preds = %178, %170
  %187 = getelementptr inbounds %struct.RCC_OscInitTypeDef, %struct.RCC_OscInitTypeDef* %0, i32 0, i32 3, !dbg !3756
  %188 = load i32, i32* %187, align 4, !dbg !3756, !tbaa !3759
  switch i32 %188, label %202 [
    i32 1, label %189
    i32 0, label %192
    i32 5, label %197
  ], !dbg !3760

189:                                              ; preds = %186
  %190 = load volatile i32, i32* inttoptr (i32 1073877024 to i32*), align 32, !dbg !3761, !tbaa !3763
  %191 = or i32 %190, 1, !dbg !3761
  br label %207, !dbg !3761

192:                                              ; preds = %186
  %193 = load volatile i32, i32* inttoptr (i32 1073877024 to i32*), align 32, !dbg !3764, !tbaa !3763
  %194 = and i32 %193, -2, !dbg !3764
  store volatile i32 %194, i32* inttoptr (i32 1073877024 to i32*), align 32, !dbg !3764, !tbaa !3763
  %195 = load volatile i32, i32* inttoptr (i32 1073877024 to i32*), align 32, !dbg !3764, !tbaa !3763
  %196 = and i32 %195, -5, !dbg !3764
  br label %207, !dbg !3764

197:                                              ; preds = %186
  %198 = load volatile i32, i32* inttoptr (i32 1073877024 to i32*), align 32, !dbg !3767, !tbaa !3763
  %199 = or i32 %198, 4, !dbg !3767
  store volatile i32 %199, i32* inttoptr (i32 1073877024 to i32*), align 32, !dbg !3767, !tbaa !3763
  %200 = load volatile i32, i32* inttoptr (i32 1073877024 to i32*), align 32, !dbg !3767, !tbaa !3763
  %201 = or i32 %200, 1, !dbg !3767
  br label %207, !dbg !3767

202:                                              ; preds = %186
  %203 = load volatile i32, i32* inttoptr (i32 1073877024 to i32*), align 32, !dbg !3770, !tbaa !3763
  %204 = and i32 %203, -2, !dbg !3770
  store volatile i32 %204, i32* inttoptr (i32 1073877024 to i32*), align 32, !dbg !3770, !tbaa !3763
  %205 = load volatile i32, i32* inttoptr (i32 1073877024 to i32*), align 32, !dbg !3770, !tbaa !3763
  %206 = and i32 %205, -5, !dbg !3770
  br label %207

207:                                              ; preds = %192, %202, %197, %189
  %208 = phi i32 [ %196, %192 ], [ %206, %202 ], [ %201, %197 ], [ %191, %189 ]
  store volatile i32 %208, i32* inttoptr (i32 1073877024 to i32*), align 32, !dbg !3772, !tbaa !3763
  %209 = icmp eq i32 %188, 0, !dbg !3773
  %210 = call i32 @HAL_GetTick() #33, !dbg !3775
  call void @llvm.dbg.value(metadata i32 %210, metadata !3540, metadata !DIExpression()), !dbg !3550
  call void @llvm.dbg.value(metadata i32 %210, metadata !3540, metadata !DIExpression()), !dbg !3550
  br i1 %209, label %219, label %211, !dbg !3776

211:                                              ; preds = %207, %215
  %212 = load volatile i32, i32* inttoptr (i32 1073877024 to i32*), align 32, !dbg !3777, !tbaa !3763
  %213 = and i32 %212, 2, !dbg !3777
  %214 = icmp eq i32 %213, 0, !dbg !3779
  br i1 %214, label %215, label %227, !dbg !3780

215:                                              ; preds = %211
  %216 = call i32 @HAL_GetTick() #33, !dbg !3781
  %217 = sub i32 %216, %210, !dbg !3784
  %218 = icmp ugt i32 %217, 5000, !dbg !3785
  br i1 %218, label %298, label %211, !dbg !3786, !llvm.loop !3787

219:                                              ; preds = %207, %223
  %220 = load volatile i32, i32* inttoptr (i32 1073877024 to i32*), align 32, !dbg !3789, !tbaa !3763
  %221 = and i32 %220, 2, !dbg !3789
  %222 = icmp eq i32 %221, 0, !dbg !3791
  br i1 %222, label %227, label %223, !dbg !3792

223:                                              ; preds = %219
  %224 = call i32 @HAL_GetTick() #33, !dbg !3793
  %225 = sub i32 %224, %210, !dbg !3796
  %226 = icmp ugt i32 %225, 5000, !dbg !3797
  br i1 %226, label %298, label %219, !dbg !3798, !llvm.loop !3799

227:                                              ; preds = %211, %219
  br i1 %161, label %228, label %231, !dbg !3801

228:                                              ; preds = %227
  %229 = load volatile i32, i32* inttoptr (i32 1073877020 to i32*), align 4, !dbg !3802, !tbaa !3733
  %230 = and i32 %229, -268435457, !dbg !3802
  store volatile i32 %230, i32* inttoptr (i32 1073877020 to i32*), align 4, !dbg !3802, !tbaa !3733
  br label %231, !dbg !3805

231:                                              ; preds = %228, %227, %154
  %232 = getelementptr inbounds %struct.RCC_OscInitTypeDef, %struct.RCC_OscInitTypeDef* %0, i32 0, i32 7, i32 0, !dbg !3806
  %233 = load i32, i32* %232, align 4, !dbg !3806, !tbaa !3808
  %234 = icmp eq i32 %233, 0, !dbg !3809
  br i1 %234, label %297, label %235, !dbg !3810

235:                                              ; preds = %231
  %236 = load volatile i32, i32* inttoptr (i32 1073876996 to i32*), align 4, !dbg !3811, !tbaa !3395
  %237 = and i32 %236, 12, !dbg !3811
  %238 = icmp eq i32 %237, 8, !dbg !3814
  br i1 %238, label %284, label %239, !dbg !3815

239:                                              ; preds = %235
  %240 = icmp eq i32 %233, 2, !dbg !3816
  store volatile i32 0, i32* inttoptr (i32 1111621728 to i32*), align 32, !dbg !3819, !tbaa !3438
  %241 = call i32 @HAL_GetTick() #33, !dbg !3819
  call void @llvm.dbg.value(metadata i32 %241, metadata !3540, metadata !DIExpression()), !dbg !3550
  call void @llvm.dbg.value(metadata i32 %241, metadata !3540, metadata !DIExpression()), !dbg !3550
  br i1 %240, label %242, label %276, !dbg !3820

242:                                              ; preds = %239, %246
  %243 = load volatile i32, i32* inttoptr (i32 1073876992 to i32*), align 4096, !dbg !3821, !tbaa !3391
  %244 = and i32 %243, 33554432, !dbg !3821
  %245 = icmp eq i32 %244, 0, !dbg !3823
  br i1 %245, label %250, label %246, !dbg !3824

246:                                              ; preds = %242
  %247 = call i32 @HAL_GetTick() #33, !dbg !3825
  %248 = sub i32 %247, %241, !dbg !3828
  %249 = icmp ugt i32 %248, 2, !dbg !3829
  br i1 %249, label %298, label %242, !dbg !3830, !llvm.loop !3831

250:                                              ; preds = %242
  %251 = getelementptr inbounds %struct.RCC_OscInitTypeDef, %struct.RCC_OscInitTypeDef* %0, i32 0, i32 7, i32 1, !dbg !3833
  %252 = load i32, i32* %251, align 4, !dbg !3833, !tbaa !3835
  %253 = icmp eq i32 %252, 65536, !dbg !3836
  br i1 %253, label %254, label %260, !dbg !3837

254:                                              ; preds = %250
  %255 = load volatile i32, i32* inttoptr (i32 1073876996 to i32*), align 4, !dbg !3838, !tbaa !3395
  %256 = and i32 %255, -131073, !dbg !3838
  %257 = getelementptr inbounds %struct.RCC_OscInitTypeDef, %struct.RCC_OscInitTypeDef* %0, i32 0, i32 2, !dbg !3838
  %258 = load i32, i32* %257, align 4, !dbg !3838, !tbaa !3840
  %259 = or i32 %256, %258, !dbg !3838
  store volatile i32 %259, i32* inttoptr (i32 1073876996 to i32*), align 4, !dbg !3838, !tbaa !3395
  br label %260, !dbg !3841

260:                                              ; preds = %254, %250
  %261 = load volatile i32, i32* inttoptr (i32 1073876996 to i32*), align 4, !dbg !3842, !tbaa !3395
  %262 = and i32 %261, -3997697, !dbg !3842
  %263 = getelementptr inbounds %struct.RCC_OscInitTypeDef, %struct.RCC_OscInitTypeDef* %0, i32 0, i32 7, i32 2, !dbg !3842
  %264 = load i32, i32* %263, align 4, !dbg !3842, !tbaa !3843
  %265 = or i32 %264, %252, !dbg !3842
  %266 = or i32 %265, %262, !dbg !3842
  store volatile i32 %266, i32* inttoptr (i32 1073876996 to i32*), align 4, !dbg !3842, !tbaa !3395
  store volatile i32 1, i32* inttoptr (i32 1111621728 to i32*), align 32, !dbg !3844, !tbaa !3438
  %267 = call i32 @HAL_GetTick() #33, !dbg !3845
  call void @llvm.dbg.value(metadata i32 %267, metadata !3540, metadata !DIExpression()), !dbg !3550
  br label %268, !dbg !3846

268:                                              ; preds = %272, %260
  %269 = load volatile i32, i32* inttoptr (i32 1073876992 to i32*), align 4096, !dbg !3847, !tbaa !3391
  %270 = and i32 %269, 33554432, !dbg !3847
  %271 = icmp eq i32 %270, 0, !dbg !3848
  br i1 %271, label %272, label %297, !dbg !3846

272:                                              ; preds = %268
  %273 = call i32 @HAL_GetTick() #33, !dbg !3849
  %274 = sub i32 %273, %267, !dbg !3852
  %275 = icmp ugt i32 %274, 2, !dbg !3853
  br i1 %275, label %298, label %268, !dbg !3854, !llvm.loop !3855

276:                                              ; preds = %239, %280
  %277 = load volatile i32, i32* inttoptr (i32 1073876992 to i32*), align 4096, !dbg !3857, !tbaa !3391
  %278 = and i32 %277, 33554432, !dbg !3857
  %279 = icmp eq i32 %278, 0, !dbg !3859
  br i1 %279, label %297, label %280, !dbg !3860

280:                                              ; preds = %276
  %281 = call i32 @HAL_GetTick() #33, !dbg !3861
  %282 = sub i32 %281, %241, !dbg !3864
  %283 = icmp ugt i32 %282, 2, !dbg !3865
  br i1 %283, label %298, label %276, !dbg !3866, !llvm.loop !3867

284:                                              ; preds = %235
  %285 = icmp eq i32 %233, 1, !dbg !3869
  br i1 %285, label %298, label %286, !dbg !3872

286:                                              ; preds = %284
  %287 = load volatile i32, i32* inttoptr (i32 1073876996 to i32*), align 4, !dbg !3873, !tbaa !3395
  call void @llvm.dbg.value(metadata i32 %287, metadata !3541, metadata !DIExpression()), !dbg !3550
  %288 = and i32 %287, 65536, !dbg !3875
  %289 = getelementptr inbounds %struct.RCC_OscInitTypeDef, %struct.RCC_OscInitTypeDef* %0, i32 0, i32 7, i32 1, !dbg !3877
  %290 = load i32, i32* %289, align 4, !dbg !3877, !tbaa !3835
  %291 = icmp eq i32 %288, %290, !dbg !3878
  br i1 %291, label %292, label %298, !dbg !3879

292:                                              ; preds = %286
  %293 = and i32 %287, 3932160, !dbg !3880
  %294 = getelementptr inbounds %struct.RCC_OscInitTypeDef, %struct.RCC_OscInitTypeDef* %0, i32 0, i32 7, i32 2, !dbg !3881
  %295 = load i32, i32* %294, align 4, !dbg !3881, !tbaa !3843
  %296 = icmp eq i32 %293, %295, !dbg !3882
  br i1 %296, label %297, label %298, !dbg !3883

297:                                              ; preds = %276, %268, %292, %231
  br label %298, !dbg !3884

298:                                              ; preds = %58, %66, %104, %114, %139, %150, %182, %215, %223, %280, %246, %272, %286, %292, %284, %90, %25, %1, %297
  %299 = phi i32 [ 0, %297 ], [ 1, %1 ], [ 1, %25 ], [ 1, %90 ], [ 1, %284 ], [ 1, %292 ], [ 1, %286 ], [ 3, %272 ], [ 3, %246 ], [ 3, %280 ], [ 3, %223 ], [ 3, %215 ], [ 3, %182 ], [ 3, %150 ], [ 3, %139 ], [ 3, %114 ], [ 3, %104 ], [ 3, %66 ], [ 3, %58 ], !dbg !3550
  ret i32 %299, !dbg !3885
}

; Function Attrs: noinline nounwind
define internal fastcc void @RCC_Delay() unnamed_addr #4 !dbg !3886 {
  %1 = alloca i32, align 4
  call void @llvm.dbg.value(metadata i32 1, metadata !3890, metadata !DIExpression()), !dbg !3892
  %2 = bitcast i32* %1 to i8*, !dbg !3893
  call void @llvm.lifetime.start.p0i8(i64 4, i8* nonnull %2), !dbg !3893
  call void @llvm.dbg.declare(metadata i32* %1, metadata !3891, metadata !DIExpression()), !dbg !3894
  %3 = load i32, i32* @SystemCoreClock, align 4, !dbg !3895, !tbaa !3438
  %4 = udiv i32 %3, 8000, !dbg !3896
  store volatile i32 %4, i32* %1, align 4, !dbg !3894, !tbaa !3438
  br label %5, !dbg !3897

5:                                                ; preds = %5, %0
  call void asm sideeffect "nop", ""() #33, !dbg !3898, !srcloc !3900
  %6 = load volatile i32, i32* %1, align 4, !dbg !3901, !tbaa !3438
  %7 = add i32 %6, -1, !dbg !3901
  store volatile i32 %7, i32* %1, align 4, !dbg !3901, !tbaa !3438
  %8 = icmp eq i32 %6, 0, !dbg !3902
  br i1 %8, label %9, label %5, !dbg !3902, !llvm.loop !3903

9:                                                ; preds = %5
  %10 = bitcast i32* %1 to i8*, !dbg !3905
  call void @llvm.lifetime.end.p0i8(i64 4, i8* nonnull %10), !dbg !3905
  ret void, !dbg !3905
}

; Function Attrs: noinline nounwind
define dso_local i32 @HAL_RCC_ClockConfig(%struct.RCC_ClkInitTypeDef* noundef readonly %0, i32 noundef %1) local_unnamed_addr #4 !dbg !3906 {
  call void @llvm.dbg.value(metadata %struct.RCC_ClkInitTypeDef* %0, metadata !3919, metadata !DIExpression()), !dbg !3922
  call void @llvm.dbg.value(metadata i32 %1, metadata !3920, metadata !DIExpression()), !dbg !3922
  %3 = icmp eq %struct.RCC_ClkInitTypeDef* %0, null, !dbg !3923
  br i1 %3, label %113, label %4, !dbg !3925

4:                                                ; preds = %2
  %5 = load volatile i32, i32* inttoptr (i32 1073881088 to i32*), align 8192, !dbg !3926, !tbaa !3928
  %6 = and i32 %5, 7, !dbg !3926
  %7 = icmp ult i32 %6, %1, !dbg !3930
  br i1 %7, label %8, label %15, !dbg !3931

8:                                                ; preds = %4
  %9 = load volatile i32, i32* inttoptr (i32 1073881088 to i32*), align 8192, !dbg !3932, !tbaa !3928
  %10 = and i32 %9, -8, !dbg !3932
  %11 = or i32 %10, %1, !dbg !3932
  store volatile i32 %11, i32* inttoptr (i32 1073881088 to i32*), align 8192, !dbg !3932, !tbaa !3928
  %12 = load volatile i32, i32* inttoptr (i32 1073881088 to i32*), align 8192, !dbg !3934, !tbaa !3928
  %13 = and i32 %12, 7, !dbg !3934
  %14 = icmp eq i32 %13, %1, !dbg !3936
  br i1 %14, label %15, label %113, !dbg !3937

15:                                               ; preds = %8, %4
  %16 = getelementptr inbounds %struct.RCC_ClkInitTypeDef, %struct.RCC_ClkInitTypeDef* %0, i32 0, i32 0, !dbg !3938
  %17 = load i32, i32* %16, align 4, !dbg !3938, !tbaa !3940
  %18 = and i32 %17, 2, !dbg !3942
  %19 = icmp eq i32 %18, 0, !dbg !3943
  br i1 %19, label %38, label %20, !dbg !3944

20:                                               ; preds = %15
  %21 = and i32 %17, 4, !dbg !3945
  %22 = icmp eq i32 %21, 0, !dbg !3948
  br i1 %22, label %26, label %23, !dbg !3949

23:                                               ; preds = %20
  %24 = load volatile i32, i32* inttoptr (i32 1073876996 to i32*), align 4, !dbg !3950, !tbaa !3395
  %25 = or i32 %24, 1792, !dbg !3950
  store volatile i32 %25, i32* inttoptr (i32 1073876996 to i32*), align 4, !dbg !3950, !tbaa !3395
  br label %26, !dbg !3952

26:                                               ; preds = %23, %20
  %27 = and i32 %17, 8, !dbg !3953
  %28 = icmp eq i32 %27, 0, !dbg !3955
  br i1 %28, label %32, label %29, !dbg !3956

29:                                               ; preds = %26
  %30 = load volatile i32, i32* inttoptr (i32 1073876996 to i32*), align 4, !dbg !3957, !tbaa !3395
  %31 = or i32 %30, 14336, !dbg !3957
  store volatile i32 %31, i32* inttoptr (i32 1073876996 to i32*), align 4, !dbg !3957, !tbaa !3395
  br label %32, !dbg !3959

32:                                               ; preds = %29, %26
  %33 = load volatile i32, i32* inttoptr (i32 1073876996 to i32*), align 4, !dbg !3960, !tbaa !3395
  %34 = and i32 %33, -241, !dbg !3960
  %35 = getelementptr inbounds %struct.RCC_ClkInitTypeDef, %struct.RCC_ClkInitTypeDef* %0, i32 0, i32 2, !dbg !3960
  %36 = load i32, i32* %35, align 4, !dbg !3960, !tbaa !3961
  %37 = or i32 %34, %36, !dbg !3960
  store volatile i32 %37, i32* inttoptr (i32 1073876996 to i32*), align 4, !dbg !3960, !tbaa !3395
  br label %38, !dbg !3962

38:                                               ; preds = %32, %15
  %39 = and i32 %17, 1, !dbg !3963
  %40 = icmp eq i32 %39, 0, !dbg !3965
  br i1 %40, label %71, label %41, !dbg !3966

41:                                               ; preds = %38
  %42 = getelementptr inbounds %struct.RCC_ClkInitTypeDef, %struct.RCC_ClkInitTypeDef* %0, i32 0, i32 1, !dbg !3967
  %43 = load i32, i32* %42, align 4, !dbg !3967, !tbaa !3970
  switch i32 %43, label %52 [
    i32 1, label %44
    i32 2, label %48
  ], !dbg !3971

44:                                               ; preds = %41
  %45 = load volatile i32, i32* inttoptr (i32 1073876992 to i32*), align 4096, !dbg !3972, !tbaa !3391
  %46 = and i32 %45, 131072, !dbg !3972
  %47 = icmp eq i32 %46, 0, !dbg !3975
  br i1 %47, label %113, label %56, !dbg !3976

48:                                               ; preds = %41
  %49 = load volatile i32, i32* inttoptr (i32 1073876992 to i32*), align 4096, !dbg !3977, !tbaa !3391
  %50 = and i32 %49, 33554432, !dbg !3977
  %51 = icmp eq i32 %50, 0, !dbg !3981
  br i1 %51, label %113, label %56, !dbg !3982

52:                                               ; preds = %41
  %53 = load volatile i32, i32* inttoptr (i32 1073876992 to i32*), align 4096, !dbg !3983, !tbaa !3391
  %54 = and i32 %53, 2, !dbg !3983
  %55 = icmp eq i32 %54, 0, !dbg !3986
  br i1 %55, label %113, label %56, !dbg !3987

56:                                               ; preds = %48, %52, %44
  %57 = load volatile i32, i32* inttoptr (i32 1073876996 to i32*), align 4, !dbg !3988, !tbaa !3395
  %58 = and i32 %57, -4, !dbg !3988
  %59 = or i32 %58, %43, !dbg !3988
  store volatile i32 %59, i32* inttoptr (i32 1073876996 to i32*), align 4, !dbg !3988, !tbaa !3395
  %60 = call i32 @HAL_GetTick() #33, !dbg !3989
  call void @llvm.dbg.value(metadata i32 %60, metadata !3921, metadata !DIExpression()), !dbg !3922
  br label %61, !dbg !3990

61:                                               ; preds = %67, %56
  %62 = load volatile i32, i32* inttoptr (i32 1073876996 to i32*), align 4, !dbg !3991, !tbaa !3395
  %63 = and i32 %62, 12, !dbg !3991
  %64 = load i32, i32* %42, align 4, !dbg !3992, !tbaa !3970
  %65 = shl i32 %64, 2, !dbg !3993
  %66 = icmp eq i32 %63, %65, !dbg !3994
  br i1 %66, label %71, label %67, !dbg !3990

67:                                               ; preds = %61
  %68 = call i32 @HAL_GetTick() #33, !dbg !3995
  %69 = sub i32 %68, %60, !dbg !3998
  %70 = icmp ugt i32 %69, 5000, !dbg !3999
  br i1 %70, label %113, label %61, !dbg !4000, !llvm.loop !4001

71:                                               ; preds = %61, %38
  %72 = load volatile i32, i32* inttoptr (i32 1073881088 to i32*), align 8192, !dbg !4003, !tbaa !3928
  %73 = and i32 %72, 7, !dbg !4003
  %74 = icmp ugt i32 %73, %1, !dbg !4005
  br i1 %74, label %75, label %82, !dbg !4006

75:                                               ; preds = %71
  %76 = load volatile i32, i32* inttoptr (i32 1073881088 to i32*), align 8192, !dbg !4007, !tbaa !3928
  %77 = and i32 %76, -8, !dbg !4007
  %78 = or i32 %77, %1, !dbg !4007
  store volatile i32 %78, i32* inttoptr (i32 1073881088 to i32*), align 8192, !dbg !4007, !tbaa !3928
  %79 = load volatile i32, i32* inttoptr (i32 1073881088 to i32*), align 8192, !dbg !4009, !tbaa !3928
  %80 = and i32 %79, 7, !dbg !4009
  %81 = icmp eq i32 %80, %1, !dbg !4011
  br i1 %81, label %82, label %113, !dbg !4012

82:                                               ; preds = %75, %71
  %83 = load i32, i32* %16, align 4, !dbg !4013, !tbaa !3940
  %84 = and i32 %83, 4, !dbg !4015
  %85 = icmp eq i32 %84, 0, !dbg !4016
  br i1 %85, label %92, label %86, !dbg !4017

86:                                               ; preds = %82
  %87 = load volatile i32, i32* inttoptr (i32 1073876996 to i32*), align 4, !dbg !4018, !tbaa !3395
  %88 = and i32 %87, -1793, !dbg !4018
  %89 = getelementptr inbounds %struct.RCC_ClkInitTypeDef, %struct.RCC_ClkInitTypeDef* %0, i32 0, i32 3, !dbg !4018
  %90 = load i32, i32* %89, align 4, !dbg !4018, !tbaa !4020
  %91 = or i32 %88, %90, !dbg !4018
  store volatile i32 %91, i32* inttoptr (i32 1073876996 to i32*), align 4, !dbg !4018, !tbaa !3395
  br label %92, !dbg !4021

92:                                               ; preds = %86, %82
  %93 = and i32 %83, 8, !dbg !4022
  %94 = icmp eq i32 %93, 0, !dbg !4024
  br i1 %94, label %102, label %95, !dbg !4025

95:                                               ; preds = %92
  %96 = load volatile i32, i32* inttoptr (i32 1073876996 to i32*), align 4, !dbg !4026, !tbaa !3395
  %97 = and i32 %96, -14337, !dbg !4026
  %98 = getelementptr inbounds %struct.RCC_ClkInitTypeDef, %struct.RCC_ClkInitTypeDef* %0, i32 0, i32 4, !dbg !4026
  %99 = load i32, i32* %98, align 4, !dbg !4026, !tbaa !4028
  %100 = shl i32 %99, 3, !dbg !4026
  %101 = or i32 %100, %97, !dbg !4026
  store volatile i32 %101, i32* inttoptr (i32 1073876996 to i32*), align 4, !dbg !4026, !tbaa !3395
  br label %102, !dbg !4029

102:                                              ; preds = %95, %92
  %103 = call i32 @HAL_RCC_GetSysClockFreq(), !dbg !4030
  %104 = load volatile i32, i32* inttoptr (i32 1073876996 to i32*), align 4, !dbg !4031, !tbaa !3395
  %105 = lshr i32 %104, 4, !dbg !4032
  %106 = and i32 %105, 15, !dbg !4032
  %107 = getelementptr inbounds [16 x i8], [16 x i8]* @AHBPrescTable, i32 0, i32 %106, !dbg !4033
  %108 = load i8, i8* %107, align 1, !dbg !4033, !tbaa !2561
  %109 = zext i8 %108 to i32, !dbg !4033
  %110 = lshr i32 %103, %109, !dbg !4034
  store i32 %110, i32* @SystemCoreClock, align 4, !dbg !4035, !tbaa !3438
  %111 = load i32, i32* @uwTickPrio, align 4, !dbg !4036, !tbaa !3438
  %112 = call i32 @HAL_InitTick(i32 noundef %111) #33, !dbg !4037
  br label %113, !dbg !4038

113:                                              ; preds = %67, %75, %52, %48, %44, %8, %2, %102
  %114 = phi i32 [ 0, %102 ], [ 1, %2 ], [ 1, %8 ], [ 1, %44 ], [ 1, %48 ], [ 1, %52 ], [ 1, %75 ], [ 3, %67 ], !dbg !3922
  ret i32 %114, !dbg !4039
}

; Function Attrs: mustprogress nofree noinline norecurse nounwind willreturn
define dso_local i32 @HAL_RCC_GetSysClockFreq() local_unnamed_addr #16 !dbg !4040 {
  call void @llvm.dbg.declare(metadata [16 x i8]* @__const.HAL_RCC_GetSysClockFreq.aPLLMULFactorTable, metadata !4042, metadata !DIExpression()), !dbg !4050
  call void @llvm.dbg.declare(metadata [2 x i8]* @__const.HAL_RCC_GetSysClockFreq.aPredivFactorTable, metadata !4043, metadata !DIExpression()), !dbg !4051
  call void @llvm.dbg.value(metadata i32 0, metadata !4045, metadata !DIExpression()), !dbg !4052
  call void @llvm.dbg.value(metadata i32 0, metadata !4046, metadata !DIExpression()), !dbg !4052
  call void @llvm.dbg.value(metadata i32 0, metadata !4047, metadata !DIExpression()), !dbg !4052
  call void @llvm.dbg.value(metadata i32 0, metadata !4048, metadata !DIExpression()), !dbg !4052
  call void @llvm.dbg.value(metadata i32 0, metadata !4049, metadata !DIExpression()), !dbg !4052
  %1 = load volatile i32, i32* inttoptr (i32 1073876996 to i32*), align 4, !dbg !4053, !tbaa !3395
  call void @llvm.dbg.value(metadata i32 %1, metadata !4045, metadata !DIExpression()), !dbg !4052
  %2 = and i32 %1, 12, !dbg !4054
  %3 = icmp eq i32 %2, 8, !dbg !4055
  br i1 %3, label %4, label %23, !dbg !4055

4:                                                ; preds = %0
  %5 = lshr i32 %1, 18, !dbg !4056
  %6 = and i32 %5, 15, !dbg !4056
  %7 = getelementptr inbounds [16 x i8], [16 x i8]* @__const.HAL_RCC_GetSysClockFreq.aPLLMULFactorTable, i32 0, i32 %6, !dbg !4059
  %8 = load i8, i8* %7, align 1, !dbg !4059, !tbaa !2561
  %9 = zext i8 %8 to i32, !dbg !4059
  call void @llvm.dbg.value(metadata i32 %9, metadata !4048, metadata !DIExpression()), !dbg !4052
  %10 = and i32 %1, 65536, !dbg !4060
  %11 = icmp eq i32 %10, 0, !dbg !4062
  br i1 %11, label %21, label %12, !dbg !4063

12:                                               ; preds = %4
  %13 = load volatile i32, i32* inttoptr (i32 1073876996 to i32*), align 4, !dbg !4064, !tbaa !3395
  %14 = lshr i32 %13, 17, !dbg !4066
  %15 = and i32 %14, 1, !dbg !4066
  %16 = getelementptr inbounds [2 x i8], [2 x i8]* @__const.HAL_RCC_GetSysClockFreq.aPredivFactorTable, i32 0, i32 %15, !dbg !4067
  %17 = load i8, i8* %16, align 1, !dbg !4067, !tbaa !2561
  %18 = zext i8 %17 to i32, !dbg !4067
  call void @llvm.dbg.value(metadata i32 %18, metadata !4046, metadata !DIExpression()), !dbg !4052
  %19 = mul nuw nsw i32 %9, 8000000, !dbg !4068
  %20 = udiv i32 %19, %18, !dbg !4069
  call void @llvm.dbg.value(metadata i32 %20, metadata !4047, metadata !DIExpression()), !dbg !4052
  br label %23, !dbg !4070

21:                                               ; preds = %4
  %22 = mul nuw nsw i32 %9, 4000000, !dbg !4071
  call void @llvm.dbg.value(metadata i32 %22, metadata !4047, metadata !DIExpression()), !dbg !4052
  br label %23

23:                                               ; preds = %0, %12, %21
  %24 = phi i32 [ %20, %12 ], [ %22, %21 ], [ 8000000, %0 ], !dbg !4073
  call void @llvm.dbg.value(metadata i32 %24, metadata !4049, metadata !DIExpression()), !dbg !4052
  ret i32 %24, !dbg !4074
}

; Function Attrs: noinline nounwind
define dso_local void @HAL_RCC_MCOConfig(i32 noundef %0, i32 noundef %1, i32 noundef %2) local_unnamed_addr #4 !dbg !4075 {
  %4 = alloca %struct.DMA_Channel_TypeDef, align 4
  %5 = alloca i32, align 4
  call void @llvm.dbg.value(metadata i32 %0, metadata !4079, metadata !DIExpression()), !dbg !4092
  call void @llvm.dbg.value(metadata i32 %1, metadata !4080, metadata !DIExpression()), !dbg !4092
