; ModuleID = './build/App-Scheduling/SCHEDULING_DEMO.elf.bc'
source_filename = "llvm-link"
target datalayout = "e-m:e-p:32:32-Fi8-i64:64-v128:64:128-a:0:32-n32-S64"
target triple = "thumbv6m-none-unknown-eabi"

%"class.std::ios_base::Init" = type { i8 }
%struct.QueueDefinition = type { i8*, i8*, %union.anon.73, %struct.xLIST, %struct.xLIST, i32, i32, i32, i8, i8 }
%union.anon.73 = type { %struct.QueuePointers }
%struct.QueuePointers = type { i8*, i8* }
%struct.xLIST = type { i32, %struct.xLIST_ITEM*, %struct.xMINI_LIST_ITEM }
%struct.xLIST_ITEM = type { i32, %struct.xLIST_ITEM*, %struct.xLIST_ITEM*, i8*, %struct.xLIST* }
%struct.xMINI_LIST_ITEM = type { i32, %struct.xLIST_ITEM*, %struct.xLIST_ITEM* }
%struct.tskTaskControlBlock = type { i32*, %struct.xLIST_ITEM, %struct.xLIST_ITEM, i32, i32*, [16 x i8], [5 x i8*], [3 x i32], [3 x i8] }
%class.HT16K33_Segment = type { [16 x i8], [4 x i32], i32 }
%class.MCP9808 = type <{ i16, i16, i16, i8, i8 }>
%struct.alarm_pool = type { %struct.pheap*, i32*, %struct.alarm_pool_entry*, i8*, i32, i8 }
%struct.pheap = type { %struct.pheap_node*, i1 (i8*, i8, i8)*, i8*, i8, i8, i8, i8 }
%struct.pheap_node = type { i8, i8, i8 }
%struct.alarm_pool_entry = type { i64, i64 (i32, i8*)*, i8* }
%struct.lock_core = type { i32* }
%struct.irq_handler_chain_slot = type { i16, i16, i16, %union.anon.20, void ()* }
%union.anon.20 = type { i16 }
%struct._binary_info_id_and_int = type { %struct._binary_info_core, i32, i32 }
%struct._binary_info_core = type { i16, i16 }
%struct._binary_info_id_and_string = type { %struct._binary_info_core, i32, i8* }
%struct.mutex = type { %struct.lock_core, i8 }
%struct.stdio_driver = type { void (i8*, i32)*, void ()*, i32 (i8*, i32)*, %struct.stdio_driver*, i8, i8 }
%struct._binary_info_pins_with_func = type { %struct._binary_info_core, i32 }
%struct.uart_inst = type opaque
%struct.usbd_class_driver_t = type { void ()*, void (i8)*, i16 (i8, %struct.tusb_desc_interface_t*, i16)*, i1 (i8, i8, %struct.tusb_control_request_t*)*, i1 (i8, i8, i32, i32)*, void (i8)* }
%struct.tusb_desc_interface_t = type { i8, i8, i8, i8, i8, i8, i8, i8, i8 }
%struct.tusb_control_request_t = type { %union.anon.31, i8, i16, i16, i16 }
%union.anon.31 = type { %"class.std::ios_base::Init" }
%struct.tusb_desc_device_t = type { i8, i8, i16, i8, i8, i8, i8, i16, i16, i16, i8, i8, i8, i8 }
%struct.hw_endpoint = type { i8, i8, i8, i8, i32*, i32*, i8*, i8, i16, i16, i8*, i16, i8 }
%struct.osal_queue_def_t = type { %struct.tu_fifo_t, %struct.critical_section }
%struct.tu_fifo_t = type { i8*, i16, i16, i8, i16, i16, i16, i16, %struct.mutex*, %struct.mutex* }
%struct.critical_section = type { i32*, i32 }
%struct.usbd_device_t = type { %"class.std::ios_base::Init", i8, i8, [16 x i8], [16 x [2 x i8]], [16 x [2 x %"class.std::ios_base::Init"]] }
%struct.usbd_control_xfer_t = type { %struct.tusb_control_request_t, i8*, i16, i16, i1 (i8, i8, %struct.tusb_control_request_t*)* }
%struct.cdcd_interface_t = type { i8, i8, i8, i8, i8, i8, %struct.cdc_line_coding_t, %struct.tu_fifo_t, %struct.tu_fifo_t, [256 x i8], [256 x i8], %struct.mutex, %struct.mutex, [64 x i8], [64 x i8] }
%struct.cdc_line_coding_t = type <{ i32, i8, i8, i8 }>
%struct.pico_unique_board_id_t = type { [8 x i8] }
%struct.i2c_inst = type { %struct.i2c_hw_t*, i8 }
%struct.i2c_hw_t = type { i32, i32, i32, i32, i32, i32, i32, i32, i32, [2 x i32], i32, i32, i32, i32, i32, i32, i32, i32, i32, i32, i32, i32, i32, i32, i32, i32, i32, i32, i32, i32, i32, i32, i32, i32, i32, i32, i32, i32, i32, i32, i32, i32, [18 x i32], i32, i32, i32 }
%struct.QUEUE_REGISTRY_ITEM = type { i8*, %struct.QueueDefinition* }
%"class.std::__cxx11::basic_string" = type { %"struct.std::__cxx11::basic_string<char>::_Alloc_hider", i32, %union.anon }
%"struct.std::__cxx11::basic_string<char>::_Alloc_hider" = type { i8* }
%union.anon = type { i32, [12 x i8] }
%"class.std::__cxx11::basic_stringstream" = type { %"class.std::basic_iostream.base", %"class.std::__cxx11::basic_stringbuf", %"class.std::basic_ios" }
%"class.std::basic_iostream.base" = type { %"class.std::basic_istream.base", %"class.std::basic_ostream.base" }
%"class.std::basic_istream.base" = type { i32 (...)**, i32 }
%"class.std::basic_ostream.base" = type { i32 (...)** }
%"class.std::__cxx11::basic_stringbuf" = type { %"class.std::basic_streambuf", i32, %"class.std::__cxx11::basic_string" }
%"class.std::basic_streambuf" = type { i32 (...)**, i8*, i8*, i8*, i8*, i8*, i8*, %"class.std::locale" }
%"class.std::locale" = type { %"class.std::locale::_Impl"* }
%"class.std::locale::_Impl" = type { i32, %"class.std::basic_istream.base"**, i32, %"class.std::basic_istream.base"**, i8** }
%"class.std::basic_ios" = type { %"class.std::ios_base", %"class.std::basic_ostream"*, i8, i8, %"class.std::basic_streambuf"*, %"class.std::ctype"*, %"class.std::num_put"*, %"class.std::num_put"* }
%"class.std::ios_base" = type { i32 (...)**, i32, i32, i32, i32, i32, %"struct.std::ios_base::_Callback_list"*, %"struct.std::ios_base::_Words", [8 x %"struct.std::ios_base::_Words"], i32, %"struct.std::ios_base::_Words"*, %"class.std::locale" }
%"struct.std::ios_base::_Callback_list" = type { %"struct.std::ios_base::_Callback_list"*, void (i32, %"class.std::ios_base"*, i32)*, i32, i32 }
%"struct.std::ios_base::_Words" = type { i8*, i32 }
%"class.std::basic_ostream" = type { i32 (...)**, %"class.std::basic_ios" }
%"class.std::ctype" = type <{ %"class.std::basic_istream.base", i32*, i8, [3 x i8], i32*, i32*, i8*, i8, [256 x i8], [256 x i8], i8, [2 x i8] }>
%"class.std::num_put" = type { %"class.std::basic_istream.base" }
%"class.std::vector" = type { %"struct.std::_Vector_base" }
%"struct.std::_Vector_base" = type { %"struct.std::_Vector_base<std::__cxx11::basic_string<char>, std::allocator<std::__cxx11::basic_string<char>>>::_Vector_impl" }
%"struct.std::_Vector_base<std::__cxx11::basic_string<char>, std::allocator<std::__cxx11::basic_string<char>>>::_Vector_impl" = type { %"struct.std::_Vector_base<std::__cxx11::basic_string<char>, std::allocator<std::__cxx11::basic_string<char>>>::_Vector_impl_data" }
%"struct.std::_Vector_base<std::__cxx11::basic_string<char>, std::allocator<std::__cxx11::basic_string<char>>>::_Vector_impl_data" = type { %"class.std::__cxx11::basic_string"*, %"class.std::__cxx11::basic_string"*, %"class.std::__cxx11::basic_string"* }
%"class.__gnu_cxx::__normal_iterator.3" = type { %"class.std::__cxx11::basic_string"* }
%struct.iobank0_status_ctrl_hw_t = type { i32, i32 }
%struct.io_irq_ctrl_hw_t = type { [4 x i32], [4 x i32], [4 x i32] }
%struct.iobank0_hw_t = type { [30 x %struct.iobank0_status_ctrl_hw_t], [4 x i32], %struct.io_irq_ctrl_hw_t, %struct.io_irq_ctrl_hw_t, %struct.io_irq_ctrl_hw_t }
%struct.uart_hw_t = type { i32, i32, [4 x i32], i32, i32, i32, i32, i32, i32, i32, i32, i32, i32, i32, i32, i32 }
%struct.resets_hw_t = type { i32, i32, i32 }
%struct.repeating_timer = type { i64, %struct.alarm_pool*, i32, {}*, i8* }
%struct.timer_hw_t = type { i32, i32, i32, i32, [4 x i32], i32, i32, i32, i32, i32, i32, i32, i32, i32 }
%struct.recursive_mutex_t = type { %struct.lock_core, i8, i8 }
%struct.pll_hw_t = type { i32, i32, i32, i32 }
%struct.fc_hw_t = type { i32, i32, i32, i32, i32, i32, i32, i32 }
%struct.clocks_hw_t = type { [10 x %struct.resets_hw_t], %struct.iobank0_status_ctrl_hw_t, %struct.fc_hw_t, i32, i32, i32, i32, i32, i32, i32, i32, i32, i32 }
%struct.anon = type { i8, i8 }
%struct.watchdog_hw_t = type { i32, i32, i32, [8 x i32], i32 }
%struct.xosc_hw_t = type { i32, i32, i32, i32, [3 x i32], i32 }
%struct.out_fct_wrap_type = type { void (i8, i8*)*, i8* }
%struct.stdio_stack_buffer = type { i32, [128 x i8] }
%struct.tusb_desc_endpoint_t = type <{ i8, i8, i8, %"class.std::ios_base::Init", %union.anon.20, i8 }>
%struct.dcd_event_t = type { i8, i8, %union.anon.2 }
%union.anon.2 = type { %struct.anon.4 }
%struct.anon.4 = type { i8, i8, i32 }
%struct.tu_fifo_buffer_info_t = type { i16, i16, i8*, i8* }
%struct.ioqspi_hw_t = type { [6 x %struct.iobank0_status_ctrl_hw_t], i32, %struct.resets_hw_t, %struct.resets_hw_t, %struct.resets_hw_t }
%struct.timeout_state = type { i64, i64 }
%struct.xMEMORY_REGION = type { i8*, i32, i32 }
%struct.tmrTimerQueueMessage = type { i32, %union.anon.84 }
%union.anon.84 = type { %struct.tmrTimerParameters }
%struct.tmrTimerParameters = type { i32, %struct.tmrTimerControl* }
%struct.tmrTimerControl = type { i8*, %struct.xLIST_ITEM, i32, i8*, void (%struct.tmrTimerControl*)*, i8 }

$_ZSt5fixedRSt8ios_base = comdat any

$_ZSt12setprecisioni = comdat any

$_ZNSt8ios_base4setfESt13_Ios_FmtflagsS0_ = comdat any

$_ZStcoSt13_Ios_Fmtflags = comdat any

$_ZStaNRSt13_Ios_FmtflagsS_ = comdat any

$_ZStanSt13_Ios_FmtflagsS_ = comdat any

$_ZStoRRSt13_Ios_FmtflagsS_ = comdat any

$_ZStorSt13_Ios_FmtflagsS_ = comdat any

$_ZNSt6vectorINSt7__cxx1112basic_stringIcSt11char_traitsIcESaIcEEESaIS5_EEC2Ev = comdat any

$_ZNSt6vectorINSt7__cxx1112basic_stringIcSt11char_traitsIcESaIcEEESaIS5_EE9push_backERKS5_ = comdat any

$_ZNSt6vectorINSt7__cxx1112basic_stringIcSt11char_traitsIcESaIcEEESaIS5_EE9push_backEOS5_ = comdat any

$_ZSt4moveIRNSt7__cxx1112basic_stringIcSt11char_traitsIcESaIcEEEEONSt16remove_referenceIT_E4typeEOS8_ = comdat any

$_ZNSt6vectorINSt7__cxx1112basic_stringIcSt11char_traitsIcESaIcEEESaIS5_EE12emplace_backIJS5_EEEvDpOT_ = comdat any

$_ZSt7forwardINSt7__cxx1112basic_stringIcSt11char_traitsIcESaIcEEEEOT_RNSt16remove_referenceIS6_E4typeE = comdat any

$_ZNSt16allocator_traitsISaINSt7__cxx1112basic_stringIcSt11char_traitsIcESaIcEEEEE9constructIS5_JS5_EEEvRS6_PT_DpOT0_ = comdat any

$_ZNSt6vectorINSt7__cxx1112basic_stringIcSt11char_traitsIcESaIcEEESaIS5_EE3endEv = comdat any

$_ZNSt6vectorINSt7__cxx1112basic_stringIcSt11char_traitsIcESaIcEEESaIS5_EE17_M_realloc_insertIJS5_EEEvN9__gnu_cxx17__normal_iteratorIPS5_S7_EEDpOT_ = comdat any

$_ZNKSt6vectorINSt7__cxx1112basic_stringIcSt11char_traitsIcESaIcEEESaIS5_EE12_M_check_lenEjPKc = comdat any

$_ZNSt6vectorINSt7__cxx1112basic_stringIcSt11char_traitsIcESaIcEEESaIS5_EE5beginEv = comdat any

$_ZN9__gnu_cxxmiIPNSt7__cxx1112basic_stringIcSt11char_traitsIcESaIcEEESt6vectorIS6_SaIS6_EEEENS_17__normal_iteratorIT_T0_E15difference_typeERKSE_SH_ = comdat any

$_ZNSt12_Vector_baseINSt7__cxx1112basic_stringIcSt11char_traitsIcESaIcEEESaIS5_EE11_M_allocateEj = comdat any

$_ZNK9__gnu_cxx17__normal_iteratorIPNSt7__cxx1112basic_stringIcSt11char_traitsIcESaIcEEESt6vectorIS6_SaIS6_EEE4baseEv = comdat any

$_ZNSt12_Vector_baseINSt7__cxx1112basic_stringIcSt11char_traitsIcESaIcEEESaIS5_EE19_M_get_Tp_allocatorEv = comdat any

$_ZNSt6vectorINSt7__cxx1112basic_stringIcSt11char_traitsIcESaIcEEESaIS5_EE11_S_relocateEPS5_S8_S8_RS6_ = comdat any

$_ZNSt12_Vector_baseINSt7__cxx1112basic_stringIcSt11char_traitsIcESaIcEEESaIS5_EE13_M_deallocateEPS5_j = comdat any

$_ZNSt16allocator_traitsISaINSt7__cxx1112basic_stringIcSt11char_traitsIcESaIcEEEEE10deallocateERS6_PS5_j = comdat any

$_ZN9__gnu_cxx13new_allocatorINSt7__cxx1112basic_stringIcSt11char_traitsIcESaIcEEEE10deallocateEPS6_j = comdat any

$_ZNSt6vectorINSt7__cxx1112basic_stringIcSt11char_traitsIcESaIcEEESaIS5_EE14_S_do_relocateEPS5_S8_S8_RS6_St17integral_constantIbLb1EE = comdat any

$_ZSt12__relocate_aIPNSt7__cxx1112basic_stringIcSt11char_traitsIcESaIcEEES6_SaIS5_EET0_T_S9_S8_RT1_ = comdat any

$_ZSt12__niter_baseIPNSt7__cxx1112basic_stringIcSt11char_traitsIcESaIcEEEET_S7_ = comdat any

$_ZSt14__relocate_a_1IPNSt7__cxx1112basic_stringIcSt11char_traitsIcESaIcEEES6_SaIS5_EET0_T_S9_S8_RT1_ = comdat any

$_ZSt11__addressofINSt7__cxx1112basic_stringIcSt11char_traitsIcESaIcEEEEPT_RS6_ = comdat any

$_ZSt19__relocate_object_aINSt7__cxx1112basic_stringIcSt11char_traitsIcESaIcEEES5_SaIS5_EEvPT_PT0_RT1_ = comdat any

$_ZNSt16allocator_traitsISaINSt7__cxx1112basic_stringIcSt11char_traitsIcESaIcEEEEE7destroyIS5_EEvRS6_PT_ = comdat any

$_ZN9__gnu_cxx13new_allocatorINSt7__cxx1112basic_stringIcSt11char_traitsIcESaIcEEEE7destroyIS6_EEvPT_ = comdat any

$_ZNSt16allocator_traitsISaINSt7__cxx1112basic_stringIcSt11char_traitsIcESaIcEEEEE8allocateERS6_j = comdat any

$_ZN9__gnu_cxx13new_allocatorINSt7__cxx1112basic_stringIcSt11char_traitsIcESaIcEEEE8allocateEjPKv = comdat any

$_ZNK9__gnu_cxx13new_allocatorINSt7__cxx1112basic_stringIcSt11char_traitsIcESaIcEEEE11_M_max_sizeEv = comdat any

$_ZN9__gnu_cxx17__normal_iteratorIPNSt7__cxx1112basic_stringIcSt11char_traitsIcESaIcEEESt6vectorIS6_SaIS6_EEEC2ERKS7_ = comdat any

$_ZNKSt6vectorINSt7__cxx1112basic_stringIcSt11char_traitsIcESaIcEEESaIS5_EE8max_sizeEv = comdat any

$_ZNKSt6vectorINSt7__cxx1112basic_stringIcSt11char_traitsIcESaIcEEESaIS5_EE4sizeEv = comdat any

$_ZSt3maxIjERKT_S2_S2_ = comdat any

$_ZNKSt12_Vector_baseINSt7__cxx1112basic_stringIcSt11char_traitsIcESaIcEEESaIS5_EE19_M_get_Tp_allocatorEv = comdat any

$_ZNSt6vectorINSt7__cxx1112basic_stringIcSt11char_traitsIcESaIcEEESaIS5_EE11_S_max_sizeERKS6_ = comdat any

$_ZNSt16allocator_traitsISaINSt7__cxx1112basic_stringIcSt11char_traitsIcESaIcEEEEE8max_sizeERKS6_ = comdat any

$_ZSt3minIjERKT_S2_S2_ = comdat any

$_ZNK9__gnu_cxx13new_allocatorINSt7__cxx1112basic_stringIcSt11char_traitsIcESaIcEEEE8max_sizeEv = comdat any

$_ZN9__gnu_cxx13new_allocatorINSt7__cxx1112basic_stringIcSt11char_traitsIcESaIcEEEE9constructIS6_JS6_EEEvPT_DpOT0_ = comdat any

$_ZNSt16allocator_traitsISaINSt7__cxx1112basic_stringIcSt11char_traitsIcESaIcEEEEE9constructIS5_JRKS5_EEEvRS6_PT_DpOT0_ = comdat any

$_ZNSt6vectorINSt7__cxx1112basic_stringIcSt11char_traitsIcESaIcEEESaIS5_EE17_M_realloc_insertIJRKS5_EEEvN9__gnu_cxx17__normal_iteratorIPS5_S7_EEDpOT_ = comdat any

$_ZSt7forwardIRKNSt7__cxx1112basic_stringIcSt11char_traitsIcESaIcEEEEOT_RNSt16remove_referenceIS8_E4typeE = comdat any

$_ZN9__gnu_cxx13new_allocatorINSt7__cxx1112basic_stringIcSt11char_traitsIcESaIcEEEE9constructIS6_JRKS6_EEEvPT_DpOT0_ = comdat any

$_ZNSt12_Vector_baseINSt7__cxx1112basic_stringIcSt11char_traitsIcESaIcEEESaIS5_EEC2Ev = comdat any

$_ZNSt12_Vector_baseINSt7__cxx1112basic_stringIcSt11char_traitsIcESaIcEEESaIS5_EE12_Vector_implC2Ev = comdat any

$_ZNSaINSt7__cxx1112basic_stringIcSt11char_traitsIcESaIcEEEEC2Ev = comdat any

$_ZNSt12_Vector_baseINSt7__cxx1112basic_stringIcSt11char_traitsIcESaIcEEESaIS5_EE17_Vector_impl_dataC2Ev = comdat any

$_ZN9__gnu_cxx13new_allocatorINSt7__cxx1112basic_stringIcSt11char_traitsIcESaIcEEEEC2Ev = comdat any

$_ZNKSt6vectorINSt7__cxx1112basic_stringIcSt11char_traitsIcESaIcEEESaIS5_EEixEj = comdat any

$_ZNSt6vectorINSt7__cxx1112basic_stringIcSt11char_traitsIcESaIcEEESaIS5_EED2Ev = comdat any

$_ZSt8_DestroyIPNSt7__cxx1112basic_stringIcSt11char_traitsIcESaIcEEES5_EvT_S7_RSaIT0_E = comdat any

$_ZNSt12_Vector_baseINSt7__cxx1112basic_stringIcSt11char_traitsIcESaIcEEESaIS5_EED2Ev = comdat any

$_ZN9__gnu_cxx13new_allocatorINSt7__cxx1112basic_stringIcSt11char_traitsIcESaIcEEEED2Ev = comdat any

$_ZSt8_DestroyIPNSt7__cxx1112basic_stringIcSt11char_traitsIcESaIcEEEEvT_S7_ = comdat any

$_ZNSt12_Destroy_auxILb0EE9__destroyIPNSt7__cxx1112basic_stringIcSt11char_traitsIcESaIcEEEEEvT_S9_ = comdat any

$_ZSt8_DestroyINSt7__cxx1112basic_stringIcSt11char_traitsIcESaIcEEEEvPT_ = comdat any

$_ZSt9transformIN9__gnu_cxx17__normal_iteratorIPcNSt7__cxx1112basic_stringIcSt11char_traitsIcESaIcEEEEES9_PFiiEET0_T_SD_SC_T1_ = comdat any

$_ZN9__gnu_cxxneIPcNSt7__cxx1112basic_stringIcSt11char_traitsIcESaIcEEEEEbRKNS_17__normal_iteratorIT_T0_EESD_ = comdat any

$_ZNK9__gnu_cxx17__normal_iteratorIPcNSt7__cxx1112basic_stringIcSt11char_traitsIcESaIcEEEEdeEv = comdat any

$_ZN9__gnu_cxx17__normal_iteratorIPcNSt7__cxx1112basic_stringIcSt11char_traitsIcESaIcEEEEppEv = comdat any

$_ZNK9__gnu_cxx17__normal_iteratorIPcNSt7__cxx1112basic_stringIcSt11char_traitsIcESaIcEEEE4baseEv = comdat any

@llvm.global_ctors = appending global [6 x { i32, void ()*, i8* }] [{ i32, void ()*, i8* } { i32 65535, void ()* @_GLOBAL__sub_I_main.cpp, i8* null }, { i32, void ()*, i8* } { i32 65535, void ()* @_GLOBAL__sub_I_ht16k33.cpp, i8* null }, { i32, void ()*, i8* } { i32 65535, void ()* @_GLOBAL__sub_I_i2c_utils.cpp, i8* null }, { i32, void ()*, i8* } { i32 65535, void ()* @_GLOBAL__sub_I_utils.cpp, i8* null }, { i32, void ()*, i8* } { i32 65535, void ()* @_GLOBAL__sub_I_mcp9808.cpp, i8* null }, { i32, void ()*, i8* } { i32 65535, void ()* @_retrieve_unique_id_on_boot, i8* null }]
@_ZStL8__ioinit = internal global %"class.std::ios_base::Init" zeroinitializer, align 1, !dbg !0
@queue = dso_local global %struct.QueueDefinition* null, align 4, !dbg !7
@pico_task_handle = dso_local global %struct.tskTaskControlBlock* null, align 4, !dbg !1558
@gpio_task_handle = dso_local global %struct.tskTaskControlBlock* null, align 4, !dbg !1565
@sens_task_handle = dso_local global %struct.tskTaskControlBlock* null, align 4, !dbg !1567
@display = dso_local global %class.HT16K33_Segment zeroinitializer, align 4, !dbg !1569
@sensor = dso_local global %class.MCP9808 zeroinitializer, align 2, !dbg !1607
@read_temp = dso_local global double 0.000000e+00, align 8, !dbg !1643
@.str = private unnamed_addr constant [15 x i8] c"PICO LED FLASH\00", align 1
@.str.3 = private unnamed_addr constant [15 x i8] c"GPIO LED FLASH\00", align 1
@.str.4 = private unnamed_addr constant [14 x i8] c"PICO_LED_TASK\00", align 1
@.str.5 = private unnamed_addr constant [14 x i8] c"GPIO_LED_TASK\00", align 1
@.str.6 = private unnamed_addr constant [12 x i8] c"SENSOR_TASK\00", align 1
@_ZStL8__ioinit.4 = internal global %"class.std::ios_base::Init" zeroinitializer, align 1, !dbg !2620
@_ZL3POS = internal unnamed_addr constant [4 x i32] [i32 0, i32 2, i32 6, i32 8], align 4, !dbg !2622
@_ZL7CHARSET = internal unnamed_addr constant [18 x i8] c"?\06[Ofm}\07\7Fo_|X^{q@c", align 1, !dbg !2628
@_ZStL8__ioinit.22 = internal global %"class.std::ios_base::Init" zeroinitializer, align 1, !dbg !2695
@_ZStL8__ioinit.32 = internal global %"class.std::ios_base::Init" zeroinitializer, align 1, !dbg !2697
@.str.34 = private unnamed_addr constant [3 x i8] c"\0D\0A\00", align 1
@.str.1 = private unnamed_addr constant [1 x i8] zeroinitializer, align 1
@.str.2 = private unnamed_addr constant [2 x i8] c",\00", align 1
@.str.3.39 = private unnamed_addr constant [17 x i8] c"App: %s %s (%i)\0A\00", align 1
@.str.4.40 = private unnamed_addr constant [16 x i8] c"SCHEDULING_DEMO\00", align 1
@.str.5.41 = private unnamed_addr constant [6 x i8] c"1.4.1\00", align 1
@.str.6.44 = private unnamed_addr constant [12 x i8] c"[DEBUG] %s\0A\00", align 1
@.str.11 = private unnamed_addr constant [26 x i8] c"vector::_M_realloc_insert\00", align 1
@_ZStL8__ioinit.47 = internal global %"class.std::ios_base::Init" zeroinitializer, align 1, !dbg !2699
@.str.49 = private unnamed_addr constant [52 x i8] c"[DEBUG] MCP9809 alert config write: %02x %02x %02x\0A\00", align 1
@.str.1.50 = private unnamed_addr constant [50 x i8] c"[DEBUG] MCP9809 alert config read:  -- %02x %02x\0A\00", align 1
@.str.2.51 = private unnamed_addr constant [12 x i8] c"Lower Limit\00", align 1
@.str.3.53 = private unnamed_addr constant [15 x i8] c"Critical Limit\00", align 1
@.str.4.52 = private unnamed_addr constant [12 x i8] c"Upper Limit\00", align 1
@.str.5.54 = private unnamed_addr constant [19 x i8] c"[DEBUG] %s: %.01f\0A\00", align 1
@_callbacks = internal unnamed_addr global [2 x void (i32, i32)*] zeroinitializer, align 4, !dbg !2701
@striped_spin_lock_num = internal unnamed_addr global i8 16, align 1, !dbg !2826
@claimed = internal global i32 0, align 4, !dbg !2835
@.str.65 = private unnamed_addr constant [31 x i8] c"Spinlock %d is already claimed\00", align 1
@.str.1.66 = private unnamed_addr constant [27 x i8] c"No spinlocks are available\00", align 1
@nil_time = dso_local local_unnamed_addr constant i64 0, align 8, !dbg !2838
@default_alarm_pool = internal global %struct.alarm_pool { %struct.pheap* @default_alarm_pool_heap, i32* null, %struct.alarm_pool_entry* getelementptr inbounds ([16 x %struct.alarm_pool_entry], [16 x %struct.alarm_pool_entry]* @default_alarm_pool_entries, i32 0, i32 0), i8* getelementptr inbounds ([16 x i8], [16 x i8]* @default_alarm_pool_entry_ids_high, i32 0, i32 0), i32 0, i8 0 }, align 4, !dbg !2941
@sleep_notifier = internal global %struct.lock_core zeroinitializer, align 4, !dbg !2931
@pools = internal unnamed_addr global [4 x %struct.alarm_pool*] zeroinitializer, align 4, !dbg !2938
@default_alarm_pool_heap = internal global %struct.pheap { %struct.pheap_node* getelementptr inbounds ([16 x %struct.pheap_node], [16 x %struct.pheap_node]* @default_alarm_pool_heap_nodes, i32 0, i32 0), i1 (i8*, i8, i8)* null, i8* null, i8 16, i8 0, i8 0, i8 0 }, align 4, !dbg !2943
@default_alarm_pool_entries = internal global [16 x %struct.alarm_pool_entry] zeroinitializer, align 8, !dbg !2948
@default_alarm_pool_entry_ids_high = internal global [16 x i8] zeroinitializer, align 1, !dbg !2951
@default_alarm_pool_heap_nodes = internal global [16 x %struct.pheap_node] zeroinitializer, align 1, !dbg !2945
@.str.67 = private unnamed_addr constant [15 x i8] c"%lld (hi %02x)\00", align 1
@claimed.72 = internal global i8 0, align 1, !dbg !2953
@.str.73 = private unnamed_addr constant [34 x i8] c"Hardware alarm %d already claimed\00", align 1
@alarm_callbacks = internal unnamed_addr global [4 x void (i32)*] zeroinitializer, align 4, !dbg !2978
@timer_callbacks_pending = internal unnamed_addr global i8 0, align 1, !dbg !2989
@target_hi = internal unnamed_addr global [4 x i32] zeroinitializer, align 4, !dbg !2987
@.str.109 = private unnamed_addr constant [15 x i8] c"node_count %d\0A\00", align 1
@.str.1.110 = private unnamed_addr constant [21 x i8] c"%d (c=%d s=%d p=%d) \00", align 1
@__preinit_array_start = external dso_local global void ()*, align 4
@__preinit_array_end = external dso_local global void ()*, align 4
@__mutex_array_start = external dso_local global %struct.lock_core, align 4
@__mutex_array_end = external dso_local global %struct.lock_core, align 4
@ram_vector_table = dso_local global [48 x i32] zeroinitializer, section ".ram_vector_table", align 4, !dbg !2991
@__init_array_start = external dso_local global void ()*, align 4
@__init_array_end = external dso_local global void ()*, align 4
@_sbrk.heap_end = internal unnamed_addr global i8* null, align 4, !dbg !3049
@end = external dso_local global i8, align 1
@.str.115 = private unnamed_addr constant [47 x i8] c"assertion \22%s\22 failed: file \22%s\22, line %d%s%s\0A\00", align 1
@.str.1.114 = private unnamed_addr constant [13 x i8] c", function: \00", align 1
@.str.2.113 = private unnamed_addr constant [1 x i8] zeroinitializer, align 1
@.str.3.116 = private unnamed_addr constant [14 x i8] c"not supported\00", align 1
@.str.4.119 = private unnamed_addr constant [16 x i8] c"\0A*** PANIC ***\0A\00", align 1
@.str.5.120 = private unnamed_addr constant [2 x i8] c"\0A\00", align 1
@.str.6.121 = private unnamed_addr constant [12 x i8] c"Hard assert\00", align 1
@configured_freq = internal unnamed_addr global [10 x i32] zeroinitializer, align 4, !dbg !3062
@_resus_callback = internal unnamed_addr global void ()* null, align 4, !dbg !3134
@gpin0_src = internal unnamed_addr constant [10 x i8] c"\01\01\01\01\01\04\05\04\04\04", align 1, !dbg !3139
@irq_hander_chain_free_slot_head = internal unnamed_addr global i8 0, align 1, !dbg !3143
@irq_handler_chain_slots = external dso_local global [4 x %struct.irq_handler_chain_slot], align 4
@load_value = internal unnamed_addr global i32 0, align 4, !dbg !3162
@lazy_vsnprintf = internal unnamed_addr global i32 (void (i8, i8*, i32, i32)*, i8*, i32, i8*, [1 x i32])* null, align 4, !dbg !3191
@_ftoa.pow10 = internal unnamed_addr constant [10 x double] [double 1.000000e+00, double 1.000000e+01, double 1.000000e+02, double 1.000000e+03, double 1.000000e+04, double 1.000000e+05, double 1.000000e+06, double 1.000000e+07, double 1.000000e+08, double 1.000000e+09], align 8, !dbg !3207
@.str.144 = private unnamed_addr constant [4 x i8] c"nan\00", align 1
@.str.1.145 = private unnamed_addr constant [5 x i8] c"fni-\00", align 1
@.str.2.147 = private unnamed_addr constant [5 x i8] c"fni+\00", align 1
@.str.3.146 = private unnamed_addr constant [4 x i8] c"fni\00", align 1
@sd_table = dso_local local_unnamed_addr global [64 x i32] zeroinitializer, align 4, !dbg !3251
@sf_table = dso_local local_unnamed_addr global [64 x i32] zeroinitializer, align 4, !dbg !3263
@sf_clz_func = weak dso_local local_unnamed_addr global i8* null, align 4, !dbg !3257
@__StackLimit = external dso_local global i8, align 1
@.str.153 = private unnamed_addr constant [14 x i8] c"Out of memory\00", align 1
@llvm.compiler.used = appending global [8 x i8*] [i8* bitcast (%struct._binary_info_core** @__bi_ptr22 to i8*), i8* bitcast (%struct._binary_info_core** @__bi_ptr30 to i8*), i8* bitcast (%struct._binary_info_core** @__bi_ptr38 to i8*), i8* bitcast (%struct._binary_info_core** @__bi_ptr44 to i8*), i8* bitcast (%struct._binary_info_core** @__bi_ptr50 to i8*), i8* bitcast (%struct._binary_info_core** @__bi_ptr75 to i8*), i8* bitcast (%struct._binary_info_core** @__bi_ptr81 to i8*), i8* bitcast (void ()* @vTaskSwitchContext to i8*)], section "llvm.metadata"
@__bi_22 = internal constant %struct._binary_info_id_and_int { %struct._binary_info_core { i16 5, i16 20562 }, i32 1760847326, i32 ptrtoint (i8* @__flash_binary_end to i32) }, section ".reset", align 1, !dbg !3271
@__bi_ptr22 = internal global %struct._binary_info_core* getelementptr inbounds (%struct._binary_info_id_and_int, %struct._binary_info_id_and_int* @__bi_22, i32 0, i32 0), section ".binary_info.keep.__bi_ptr22", align 4, !dbg !3276
@__bi_30 = internal constant %struct._binary_info_id_and_string { %struct._binary_info_core { i16 6, i16 20562 }, i32 -1650318764, i8* getelementptr inbounds ([12 x i8], [12 x i8]* @.str.163, i32 0, i32 0) }, section ".reset", align 1, !dbg !3298
@__bi_ptr30 = internal global %struct._binary_info_core* getelementptr inbounds (%struct._binary_info_id_and_string, %struct._binary_info_id_and_string* @__bi_30, i32 0, i32 0), section ".binary_info.keep.__bi_ptr30", align 4, !dbg !3286
@__bi_38 = internal constant %struct._binary_info_id_and_string { %struct._binary_info_core { i16 6, i16 20562 }, i32 33758342, i8* getelementptr inbounds ([16 x i8], [16 x i8]* @.str.1.162, i32 0, i32 0) }, section ".reset", align 1, !dbg !3306
@__bi_ptr38 = internal global %struct._binary_info_core* getelementptr inbounds (%struct._binary_info_id_and_string, %struct._binary_info_id_and_string* @__bi_38, i32 0, i32 0), section ".binary_info.keep.__bi_ptr38", align 4, !dbg !3288
@__bi_44 = internal constant %struct._binary_info_id_and_string { %struct._binary_info_core { i16 6, i16 20562 }, i32 -1237516357, i8* getelementptr inbounds ([5 x i8], [5 x i8]* @.str.2.161, i32 0, i32 0) }, align 1, !dbg !3308
@__bi_ptr44 = internal global %struct._binary_info_core* getelementptr inbounds (%struct._binary_info_id_and_string, %struct._binary_info_id_and_string* @__bi_44, i32 0, i32 0), section ".binary_info.keep.__bi_ptr44", align 4, !dbg !3290
@__bi_50 = internal constant %struct._binary_info_id_and_string { %struct._binary_info_core { i16 6, i16 20562 }, i32 1398846379, i8* getelementptr inbounds ([6 x i8], [6 x i8]* @.str.3.160, i32 0, i32 0) }, section ".reset", align 1, !dbg !3310
@__bi_ptr50 = internal global %struct._binary_info_core* getelementptr inbounds (%struct._binary_info_id_and_string, %struct._binary_info_id_and_string* @__bi_50, i32 0, i32 0), section ".binary_info.keep.__bi_ptr50", align 4, !dbg !3292
@__bi_75 = internal constant %struct._binary_info_id_and_string { %struct._binary_info_core { i16 6, i16 20562 }, i32 2139652833, i8* getelementptr inbounds ([14 x i8], [14 x i8]* @.str.4.159, i32 0, i32 0) }, align 1, !dbg !3312
@__bi_ptr75 = internal global %struct._binary_info_core* getelementptr inbounds (%struct._binary_info_id_and_string, %struct._binary_info_id_and_string* @__bi_75, i32 0, i32 0), section ".binary_info.keep.__bi_ptr75", align 4, !dbg !3294
@__bi_81 = internal constant %struct._binary_info_id_and_string { %struct._binary_info_core { i16 6, i16 20562 }, i32 1115025619, i8* getelementptr inbounds ([8 x i8], [8 x i8]* @.str.5.158, i32 0, i32 0) }, align 1, !dbg !3314
@__bi_ptr81 = internal global %struct._binary_info_core* getelementptr inbounds (%struct._binary_info_id_and_string, %struct._binary_info_id_and_string* @__bi_81, i32 0, i32 0), section ".binary_info.keep.__bi_ptr81", align 4, !dbg !3296
@__flash_binary_end = external dso_local global i8, align 1
@.str.163 = private unnamed_addr constant [12 x i8] c"Jan  2 2023\00", align 1
@.str.1.162 = private unnamed_addr constant [16 x i8] c"SCHEDULING_DEMO\00", align 1
@.str.2.161 = private unnamed_addr constant [5 x i8] c"pico\00", align 1
@.str.3.160 = private unnamed_addr constant [6 x i8] c"1.3.1\00", align 1
@.str.4.159 = private unnamed_addr constant [14 x i8] c"boot2_w25q080\00", align 1
@.str.5.158 = private unnamed_addr constant [8 x i8] c"Release\00", align 1
@print_mutex = internal global %struct.mutex zeroinitializer, section ".mutex_array", align 4, !dbg !3322
@at_the_end_of_time = dso_local local_unnamed_addr constant i64 9223372036854775807, align 8, !dbg !2928
@drivers = internal unnamed_addr global %struct.stdio_driver* null, align 4, !dbg !3365
@filter = internal unnamed_addr global %struct.stdio_driver* null, align 4, !dbg !3385
@stdio_out_chars_crlf.crlf_str = internal constant [2 x i8] c"\0D\0A", align 1, !dbg !3387
@stdio_uart_init.__bi_28 = internal constant %struct._binary_info_id_and_string { %struct._binary_info_core { i16 6, i16 20562 }, i32 -1577798573, i8* getelementptr inbounds ([20 x i8], [20 x i8]* @.str.176, i32 0, i32 0) }, align 1, !dbg !3412
@.str.176 = private unnamed_addr constant [20 x i8] c"UART stdin / stdout\00", align 1
@stdio_uart_init.__bi_ptr28 = internal global %struct._binary_info_core* getelementptr inbounds (%struct._binary_info_id_and_string, %struct._binary_info_id_and_string* @stdio_uart_init.__bi_28, i32 0, i32 0), section ".binary_info.__bi_ptr28", align 4, !dbg !3452
@stdio_uart_init.__bi_29 = internal constant %struct._binary_info_pins_with_func { %struct._binary_info_core { i16 8, i16 20562 }, i32 146 }, align 1, !dbg !3462
@stdio_uart_init.__bi_ptr29 = internal global %struct._binary_info_core* getelementptr inbounds (%struct._binary_info_pins_with_func, %struct._binary_info_pins_with_func* @stdio_uart_init.__bi_29, i32 0, i32 0), section ".binary_info.__bi_ptr29", align 4, !dbg !3469
@stdout_uart_init.__bi_49 = internal constant %struct._binary_info_pins_with_func { %struct._binary_info_core { i16 8, i16 20562 }, i32 18 }, align 1, !dbg !3474
@stdout_uart_init.__bi_ptr49 = internal global %struct._binary_info_core* getelementptr inbounds (%struct._binary_info_pins_with_func, %struct._binary_info_pins_with_func* @stdout_uart_init.__bi_49, i32 0, i32 0), section ".binary_info.__bi_ptr49", align 4, !dbg !3476
@stdout_uart_init.__bi_53 = internal constant %struct._binary_info_id_and_string { %struct._binary_info_core { i16 6, i16 20562 }, i32 -1577798573, i8* getelementptr inbounds ([12 x i8], [12 x i8]* @.str.1.177, i32 0, i32 0) }, align 1, !dbg !3480
@.str.1.177 = private unnamed_addr constant [12 x i8] c"UART stdout\00", align 1
@stdout_uart_init.__bi_ptr53 = internal global %struct._binary_info_core* getelementptr inbounds (%struct._binary_info_id_and_string, %struct._binary_info_id_and_string* @stdout_uart_init.__bi_53, i32 0, i32 0), section ".binary_info.__bi_ptr53", align 4, !dbg !3488
@stdin_uart_init.__bi_61 = internal constant %struct._binary_info_pins_with_func { %struct._binary_info_core { i16 8, i16 20562 }, i32 4242 }, align 1, !dbg !3493
@stdin_uart_init.__bi_ptr61 = internal global %struct._binary_info_core* getelementptr inbounds (%struct._binary_info_pins_with_func, %struct._binary_info_pins_with_func* @stdin_uart_init.__bi_61, i32 0, i32 0), section ".binary_info.__bi_ptr61", align 4, !dbg !3495
@stdin_uart_init.__bi_65 = internal constant %struct._binary_info_id_and_string { %struct._binary_info_core { i16 6, i16 20562 }, i32 -1577798573, i8* getelementptr inbounds ([11 x i8], [11 x i8]* @.str.2.178, i32 0, i32 0) }, align 1, !dbg !3499
@.str.2.178 = private unnamed_addr constant [11 x i8] c"UART stdin\00", align 1
@stdin_uart_init.__bi_ptr65 = internal global %struct._binary_info_core* getelementptr inbounds (%struct._binary_info_id_and_string, %struct._binary_info_id_and_string* @stdin_uart_init.__bi_65, i32 0, i32 0), section ".binary_info.__bi_ptr65", align 4, !dbg !3501
@uart_instance = internal unnamed_addr global %struct.uart_inst* null, align 4, !dbg !3515
@stdio_uart = dso_local global %struct.stdio_driver { void (i8*, i32)* @stdio_uart_out_chars, void ()* null, i32 (i8*, i32)* @stdio_uart_in_chars, %struct.stdio_driver* null, i8 0, i8 1 }, align 4, !dbg !3503
@uart_char_to_line_feed = dso_local local_unnamed_addr global [2 x i16] zeroinitializer, align 2, !dbg !3520
@_resetd_driver = internal constant %struct.usbd_class_driver_t { void ()* @resetd_init, void (i8)* @resetd_reset, i16 (i8, %struct.tusb_desc_interface_t*, i16)* @resetd_open, i1 (i8, i8, %struct.tusb_control_request_t*)* @resetd_control_xfer_cb, i1 (i8, i8, i32, i32)* @resetd_xfer_cb, void (i8)* null }, align 4, !dbg !3579
@itf_num = internal unnamed_addr global i8 0, align 1, !dbg !3626
@stdio_usb_mutex = internal global %struct.mutex zeroinitializer, align 4, !dbg !3686
@stdio_usb = dso_local global %struct.stdio_driver { void (i8*, i32)* @stdio_usb_out_chars, void ()* null, i32 (i8*, i32)* @stdio_usb_in_chars, %struct.stdio_driver* null, i8 0, i8 1 }, align 4, !dbg !3692
@stdio_usb_init.__bi_93 = internal constant %struct._binary_info_id_and_string { %struct._binary_info_core { i16 6, i16 20562 }, i32 -1577798573, i8* getelementptr inbounds ([19 x i8], [19 x i8]* @.str.184, i32 0, i32 0) }, align 1, !dbg !3712
@.str.184 = private unnamed_addr constant [19 x i8] c"USB stdin / stdout\00", align 1
@stdio_usb_init.__bi_ptr93 = internal global %struct._binary_info_core* getelementptr inbounds (%struct._binary_info_id_and_string, %struct._binary_info_id_and_string* @stdio_usb_init.__bi_93, i32 0, i32 0), section ".binary_info.__bi_ptr93", align 4, !dbg !3724
@stdio_usb_out_chars.last_avail_time = internal unnamed_addr global i64 0, align 8, !dbg !3728
@usbd_desc_device = internal constant %struct.tusb_desc_device_t { i8 18, i8 1, i16 512, i8 -17, i8 2, i8 1, i8 64, i16 11914, i16 10, i16 256, i8 1, i8 2, i8 3, i8 1 }, align 1, !dbg !3755
@usbd_desc_cfg = internal constant [84 x i8] c"\09\02T\00\03\01\00\80}\08\0B\00\02\02\02\00\00\09\04\00\00\01\02\02\00\04\05$\00 \01\05$\01\00\01\04$\02\02\05$\06\00\01\07\05\81\03\08\00\10\09\04\01\00\02\0A\00\00\00\07\05\02\02@\00\00\07\05\82\02@\00\00\09\04\02\00\00\FF\00\01\05", align 1, !dbg !3808
@tud_descriptor_string_cb.desc_str = internal global [20 x i16] zeroinitializer, align 2, !dbg !3785
@usbd_serial_str = internal global [17 x i8] zeroinitializer, align 1, !dbg !3803
@usbd_desc_str = internal unnamed_addr constant [6 x i8*] [i8* null, i8* getelementptr inbounds ([13 x i8], [13 x i8]* @.str.185, i32 0, i32 0), i8* getelementptr inbounds ([5 x i8], [5 x i8]* @.str.1.186, i32 0, i32 0), i8* getelementptr inbounds ([17 x i8], [17 x i8]* @usbd_serial_str, i32 0, i32 0), i8* getelementptr inbounds ([10 x i8], [10 x i8]* @.str.2.187, i32 0, i32 0), i8* getelementptr inbounds ([6 x i8], [6 x i8]* @.str.3.188, i32 0, i32 0)], align 4, !dbg !3813
@.str.185 = private unnamed_addr constant [13 x i8] c"Raspberry Pi\00", align 1
@.str.1.186 = private unnamed_addr constant [5 x i8] c"Pico\00", align 1
@.str.2.187 = private unnamed_addr constant [10 x i8] c"Board CDC\00", align 1
@.str.3.188 = private unnamed_addr constant [6 x i8] c"Reset\00", align 1
@hw_endpoints = internal global [16 x [2 x %struct.hw_endpoint]] zeroinitializer, align 4, !dbg !3836
@.str.189 = private unnamed_addr constant [20 x i8] c"Unhandled IRQ 0x%x\0A\00", align 1
@next_buffer_ptr = internal unnamed_addr global i8* null, align 4, !dbg !3959
@.str.190 = private unnamed_addr constant [4 x i8] c"out\00", align 1
@.str.1.191 = private unnamed_addr constant [3 x i8] c"in\00", align 1
@ep_dir_string = dso_local global [2 x i8*] [i8* getelementptr inbounds ([4 x i8], [4 x i8]* @.str.190, i32 0, i32 0), i8* getelementptr inbounds ([3 x i8], [3 x i8]* @.str.1.191, i32 0, i32 0)], align 4, !dbg !3980
@.str.2.202 = private unnamed_addr constant [31 x i8] c"ep %d %s was already available\00", align 1
@.str.3.208 = private unnamed_addr constant [41 x i8] c"Can't continue xfer on inactive ep %d %s\00", align 1
@_usbd_qdef_buf = dso_local global [192 x i8] zeroinitializer, align 1, !dbg !4045
@_usbd_qdef = dso_local global %struct.osal_queue_def_t { %struct.tu_fifo_t { i8* getelementptr inbounds ([192 x i8], [192 x i8]* @_usbd_qdef_buf, i32 0, i32 0), i16 16, i16 12, i8 0, i16 -32, i16 31, i16 0, i16 0, %struct.mutex* null, %struct.mutex* null }, %struct.critical_section zeroinitializer }, align 4, !dbg !4189
@_usbd_dev = internal global %struct.usbd_device_t zeroinitializer, align 1, !dbg !4191
@_usbd_initialized = internal unnamed_addr global i1 false, align 1, !dbg !4273
@_ubsd_mutexdef = internal global %struct.mutex zeroinitializer, align 4, !dbg !4220
@_usbd_mutex = internal unnamed_addr global %struct.mutex* null, align 4, !dbg !4223
@_usbd_q = internal unnamed_addr global %struct.osal_queue_def_t* null, align 4, !dbg !4218
@_app_driver_count = internal global i8 0, align 1, !dbg !4227
@_app_driver = internal unnamed_addr global %struct.usbd_class_driver_t* null, align 4, !dbg !4229
@_usbd_driver = internal constant [1 x %struct.usbd_class_driver_t] [%struct.usbd_class_driver_t { void ()* @cdcd_init, void (i8)* @cdcd_reset, i16 (i8, %struct.tusb_desc_interface_t*, i16)* @cdcd_open, i1 (i8, i8, %struct.tusb_control_request_t*)* @cdcd_control_xfer_cb, i1 (i8, i8, i32, i32)* @cdcd_xfer_cb, void (i8)* null }], align 4, !dbg !4267
@_ctrl_xfer = internal global %struct.usbd_control_xfer_t zeroinitializer, align 8, !dbg !4274
@_usbd_ctrl_buf = internal global [64 x i8] zeroinitializer, align 4, !dbg !4286
@_cdcd_itf = internal global [1 x %struct.cdcd_interface_t] zeroinitializer, align 4, !dbg !4319
@retrieved_id = internal global %struct.pico_unique_board_id_t zeroinitializer, align 8, !dbg !4434
@boot2_copyout_valid = internal unnamed_addr global i1 false, align 1, !dbg !4447
@boot2_copyout = internal unnamed_addr global [64 x i32] zeroinitializer, align 4, !dbg !4529
@i2c0_inst = dso_local global %struct.i2c_inst { %struct.i2c_hw_t* inttoptr (i32 1074020352 to %struct.i2c_hw_t*), i8 0 }, align 4, !dbg !4532
@i2c1_inst = dso_local global %struct.i2c_inst { %struct.i2c_hw_t* inttoptr (i32 1074036736 to %struct.i2c_hw_t*), i8 0 }, align 4, !dbg !4546
@xQueueRegistry = dso_local global [10 x %struct.QUEUE_REGISTRY_ITEM] zeroinitializer, align 4, !dbg !4608
@pxCurrentTCB = dso_local global %struct.tskTaskControlBlock* null, align 4, !dbg !4684
@uxTopUsedPriority = dso_local constant i32 4, align 4, !dbg !4746
@uxTaskNumber = internal unnamed_addr global i32 0, align 4, !dbg !4769
@xTasksWaitingTermination = internal global %struct.xLIST zeroinitializer, align 4, !dbg !4761
@uxDeletedTasksWaitingCleanUp = internal global i32 0, align 4, !dbg !4771
@uxCurrentNumberOfTasks = internal global i32 0, align 4, !dbg !4773
@xSchedulerRunning = internal global i32 0, align 4, !dbg !4775
@xTickCount = internal global i32 0, align 4, !dbg !4778
@pxReadyTasksLists = internal global [5 x %struct.xLIST] zeroinitializer, align 4, !dbg !4749
@uxTopReadyPriority = internal global i32 0, align 4, !dbg !4781
@xSuspendedTaskList = internal global %struct.xLIST zeroinitializer, align 4, !dbg !4763
@uxSchedulerSuspended = internal global i32 0, align 4, !dbg !4783
@xYieldPending = internal global i32 0, align 4, !dbg !4785
@xPendingReadyList = internal global %struct.xLIST zeroinitializer, align 4, !dbg !4759
@.str.329 = private unnamed_addr constant [5 x i8] c"IDLE\00", align 1
@xIdleTaskHandle = internal global %struct.tskTaskControlBlock* null, align 4, !dbg !4787
@xNextTaskUnblockTime = internal global i32 0, align 4, !dbg !4789
@xPendedTicks = internal global i32 0, align 4, !dbg !4791
@pxDelayedTaskList = internal global %struct.xLIST* null, align 4, !dbg !4753
@pxOverflowDelayedTaskList = internal global %struct.xLIST* null, align 4, !dbg !4757
@xNumOfOverflows = internal global i32 0, align 4, !dbg !4793
@xDelayedTaskList1 = internal global %struct.xLIST zeroinitializer, align 4, !dbg !4765
@xDelayedTaskList2 = internal global %struct.xLIST zeroinitializer, align 4, !dbg !4767
@xTimerQueue = internal unnamed_addr global %struct.QueueDefinition* null, align 4, !dbg !4796
@.str.348 = private unnamed_addr constant [8 x i8] c"Tmr Svc\00", align 1
@xTimerTaskHandle = internal global %struct.tskTaskControlBlock* null, align 4, !dbg !4843
@pxCurrentTimerList = internal unnamed_addr global %struct.xLIST* null, align 4, !dbg !4845
@pxOverflowTimerList = internal unnamed_addr global %struct.xLIST* null, align 4, !dbg !4859
@prvSampleTimeNow.xLastTime = internal unnamed_addr global i32 0, align 4, !dbg !4849
@xActiveTimerList1 = internal global %struct.xLIST zeroinitializer, align 4, !dbg !4861
@xActiveTimerList2 = internal global %struct.xLIST zeroinitializer, align 4, !dbg !4863
@.str.1.349 = private unnamed_addr constant [5 x i8] c"TmrQ\00", align 1
@uxCriticalNesting = internal unnamed_addr global i32 -1431655766, align 4, !dbg !4868

@_ZN15HT16K33_SegmentC1Ej = dso_local unnamed_addr alias %class.HT16K33_Segment* (%class.HT16K33_Segment*, i32), %class.HT16K33_Segment* (%class.HT16K33_Segment*, i32)* @_ZN15HT16K33_SegmentC2Ej
@_ZN7MCP9808C1Ej = dso_local unnamed_addr alias %class.MCP9808* (%class.MCP9808*, i32), %class.MCP9808* (%class.MCP9808*, i32)* @_ZN7MCP9808C2Ej

; Function Attrs: noinline nounwind
define internal void @_GLOBAL__sub_I_main.cpp() #0 !dbg !5751 {
  tail call fastcc void @__cxx_global_var_init(), !dbg !5753
  tail call fastcc void @__cxx_global_var_init.1(), !dbg !5753
  tail call fastcc void @__cxx_global_var_init.2(), !dbg !5753
  ret void
}

; Function Attrs: noinline nounwind
define internal fastcc void @__cxx_global_var_init() unnamed_addr #0 !dbg !5754 {
  %1 = tail call noundef %"class.std::ios_base::Init"* @_ZNSt8ios_base4InitC1Ev(%"class.std::ios_base::Init"* noundef nonnull align 1 dereferenceable(1) @_ZStL8__ioinit) #2, !dbg !5755
  %2 = tail call i32 @atexit(void ()* nonnull @__dtor__ZStL8__ioinit) #2, !dbg !5757
  ret void, !dbg !5755
}

; Function Attrs: noinline nounwind
define internal fastcc void @__cxx_global_var_init.1() unnamed_addr #0 !dbg !5758 {
  %1 = tail call noundef %class.HT16K33_Segment* @_ZN15HT16K33_SegmentC1Ej(%class.HT16K33_Segment* noundef nonnull align 4 dereferenceable(36) @display, i32 noundef 112) #2, !dbg !5759
  ret void, !dbg !5759
}

; Function Attrs: noinline nounwind
define internal fastcc void @__cxx_global_var_init.2() unnamed_addr #0 !dbg !5761 {
  %1 = tail call noundef %class.MCP9808* @_ZN7MCP9808C1Ej(%class.MCP9808* noundef nonnull align 2 dereferenceable(7) @sensor, i32 noundef 24) #2, !dbg !5762
  ret void, !dbg !5762
}

declare dso_local noundef %"class.std::ios_base::Init"* @_ZNSt8ios_base4InitC1Ev(%"class.std::ios_base::Init"* noundef nonnull returned align 1 dereferenceable(1)) unnamed_addr #1

; Function Attrs: noinline nounwind
define internal void @__dtor__ZStL8__ioinit() #0 !dbg !5764 {
  %1 = tail call %"class.std::ios_base::Init"* @_ZNSt8ios_base4InitD1Ev(%"class.std::ios_base::Init"* @_ZStL8__ioinit), !dbg !5765
  ret void, !dbg !5766
}

; Function Attrs: nounwind
declare dso_local i32 @atexit(void ()*) local_unnamed_addr #2

; Function Attrs: nounwind
declare dso_local noundef %"class.std::ios_base::Init"* @_ZNSt8ios_base4InitD1Ev(%"class.std::ios_base::Init"* noundef nonnull returned align 1 dereferenceable(1)) unnamed_addr #3

; Function Attrs: mustprogress noinline nounwind
define dso_local void @setup_led() local_unnamed_addr #4 !dbg !5767 {
  tail call void @gpio_init(i32 noundef 25) #2, !dbg !5768
  tail call fastcc void @_ZL12gpio_set_dirjb(i32 noundef 25), !dbg !5769
  tail call void @led_off(), !dbg !5770
  ret void, !dbg !5771
}

; Function Attrs: mustprogress nofree noinline norecurse nounwind
define internal fastcc void @_ZL12gpio_set_dirjb(i32 noundef %0) unnamed_addr #5 !dbg !5772 {
  call void @llvm.dbg.value(metadata i32 %0, metadata !5776, metadata !DIExpression()), !dbg !5779
  call void @llvm.dbg.value(metadata i8 1, metadata !5777, metadata !DIExpression()), !dbg !5779
  call void @llvm.dbg.value(metadata !DIArgList(i32 1, i32 %0), metadata !5778, metadata !DIExpression(DW_OP_LLVM_arg, 0, DW_OP_LLVM_arg, 1, DW_OP_shl, DW_OP_stack_value)), !dbg !5779
  %2 = shl nuw i32 1, %0, !dbg !5780
  call void @llvm.dbg.value(metadata i32 %2, metadata !5778, metadata !DIExpression()), !dbg !5779
  tail call fastcc void @_ZL23gpio_set_dir_out_maskedj(i32 noundef %2), !dbg !5781
  ret void, !dbg !5783
}

; Function Attrs: mustprogress nofree noinline norecurse nounwind
define dso_local void @led_off() local_unnamed_addr #5 !dbg !5784 {
  tail call void @led_set(i1 noundef zeroext false), !dbg !5785
  ret void, !dbg !5786
}

; Function Attrs: mustprogress nofree noinline norecurse nounwind
define dso_local void @led_set(i1 noundef zeroext %0) local_unnamed_addr #5 !dbg !5787 {
  call void @llvm.dbg.value(metadata i1 %0, metadata !5791, metadata !DIExpression(DW_OP_LLVM_convert, 1, DW_ATE_unsigned, DW_OP_LLVM_convert, 8, DW_ATE_unsigned, DW_OP_stack_value)), !dbg !5792
  tail call fastcc void @_ZL8gpio_putjb(i32 noundef 25, i1 noundef zeroext %0), !dbg !5793
  ret void, !dbg !5794
}

; Function Attrs: nofree nosync nounwind readnone speculatable willreturn
declare void @llvm.dbg.value(metadata, metadata, metadata) #6

; Function Attrs: mustprogress nofree noinline norecurse nounwind
define internal fastcc void @_ZL8gpio_putjb(i32 noundef %0, i1 noundef zeroext %1) unnamed_addr #5 !dbg !5795 {
  call void @llvm.dbg.value(metadata i32 %0, metadata !5797, metadata !DIExpression()), !dbg !5800
  call void @llvm.dbg.value(metadata i1 %1, metadata !5798, metadata !DIExpression(DW_OP_LLVM_convert, 1, DW_ATE_unsigned, DW_OP_LLVM_convert, 8, DW_ATE_unsigned, DW_OP_stack_value)), !dbg !5800
  %3 = shl nuw i32 1, %0, !dbg !5801
  call void @llvm.dbg.value(metadata i32 %3, metadata !5799, metadata !DIExpression()), !dbg !5800
  br i1 %1, label %4, label %5, !dbg !5802

4:                                                ; preds = %2
  tail call fastcc void @_ZL13gpio_set_maskj(i32 noundef %3), !dbg !5803
  br label %6, !dbg !5803

5:                                                ; preds = %2
  tail call fastcc void @_ZL13gpio_clr_maskj(i32 noundef %3), !dbg !5805
  br label %6

6:                                                ; preds = %5, %4
  ret void, !dbg !5806
}

; Function Attrs: mustprogress nofree noinline norecurse nounwind
define internal fastcc void @_ZL13gpio_set_maskj(i32 noundef %0) unnamed_addr #5 !dbg !5807 {
  call void @llvm.dbg.value(metadata i32 %0, metadata !5811, metadata !DIExpression()), !dbg !5812
  store volatile i32 %0, i32* inttoptr (i32 -805306348 to i32*), align 4, !dbg !5813, !tbaa !5814
  ret void, !dbg !5819
}

; Function Attrs: mustprogress nofree noinline norecurse nounwind
define internal fastcc void @_ZL13gpio_clr_maskj(i32 noundef %0) unnamed_addr #5 !dbg !5820 {
  call void @llvm.dbg.value(metadata i32 %0, metadata !5822, metadata !DIExpression()), !dbg !5823
  store volatile i32 %0, i32* inttoptr (i32 -805306344 to i32*), align 8, !dbg !5824, !tbaa !5825
  ret void, !dbg !5826
}

; Function Attrs: mustprogress nofree noinline norecurse nounwind
define internal fastcc void @_ZL23gpio_set_dir_out_maskedj(i32 noundef %0) unnamed_addr #5 !dbg !5827 {
  call void @llvm.dbg.value(metadata i32 %0, metadata !5829, metadata !DIExpression()), !dbg !5830
  store volatile i32 %0, i32* inttoptr (i32 -805306332 to i32*), align 4, !dbg !5831, !tbaa !5832
  ret void, !dbg !5833
}

; Function Attrs: mustprogress nofree noinline norecurse nounwind
define dso_local void @led_on() local_unnamed_addr #5 !dbg !5834 {
  tail call void @led_set(i1 noundef zeroext true), !dbg !5835
  ret void, !dbg !5836
}

; Function Attrs: mustprogress noinline nounwind
define dso_local void @setup_i2c() local_unnamed_addr #4 !dbg !5837 {
  %1 = alloca %class.HT16K33_Segment, align 4
  %2 = alloca %class.MCP9808, align 2
  tail call void @_ZN3I2C5setupEv() #2, !dbg !5838
  %3 = getelementptr inbounds %class.HT16K33_Segment, %class.HT16K33_Segment* %1, i32 0, i32 0, i32 0, !dbg !5839
  call void @llvm.lifetime.start.p0i8(i64 36, i8* nonnull %3) #2, !dbg !5839
  %4 = call noundef %class.HT16K33_Segment* @_ZN15HT16K33_SegmentC1Ej(%class.HT16K33_Segment* noundef nonnull align 4 dereferenceable(36) %1, i32 noundef 112) #2, !dbg !5839
  call void @llvm.memcpy.p0i8.p0i8.i32(i8* noundef nonnull align 4 dereferenceable(36) getelementptr inbounds (%class.HT16K33_Segment, %class.HT16K33_Segment* @display, i32 0, i32 0, i32 0), i8* noundef nonnull align 4 dereferenceable(36) %3, i32 36, i1 false), !dbg !5840, !tbaa.struct !5841
  call void @llvm.lifetime.end.p0i8(i64 36, i8* nonnull %3) #2, !dbg !5844
  call void @_ZN15HT16K33_Segment4initEv(%class.HT16K33_Segment* noundef nonnull align 4 dereferenceable(36) @display) #2, !dbg !5845
  %5 = bitcast %class.MCP9808* %2 to i8*, !dbg !5846
  call void @llvm.lifetime.start.p0i8(i64 8, i8* nonnull %5) #2, !dbg !5846
  %6 = call noundef %class.MCP9808* @_ZN7MCP9808C1Ej(%class.MCP9808* noundef nonnull align 2 dereferenceable(7) %2, i32 noundef 24) #2, !dbg !5846
  call void @llvm.memcpy.p0i8.p0i8.i32(i8* noundef nonnull align 2 dereferenceable(7) bitcast (%class.MCP9808* @sensor to i8*), i8* noundef nonnull align 2 dereferenceable(7) %5, i32 7, i1 false), !dbg !5847, !tbaa.struct !5848
  call void @llvm.lifetime.end.p0i8(i64 8, i8* nonnull %5) #2, !dbg !5851
  ret void, !dbg !5852
}

; Function Attrs: argmemonly nofree nosync nounwind willreturn
declare void @llvm.lifetime.start.p0i8(i64 immarg, i8* nocapture) #7

; Function Attrs: argmemonly nofree nounwind willreturn
declare void @llvm.memcpy.p0i8.p0i8.i32(i8* noalias nocapture writeonly, i8* noalias nocapture readonly, i32, i1 immarg) #8

; Function Attrs: argmemonly nofree nosync nounwind willreturn
declare void @llvm.lifetime.end.p0i8(i64 immarg, i8* nocapture) #7

; Function Attrs: mustprogress noinline nounwind
define dso_local void @setup() local_unnamed_addr #4 !dbg !5853 {
  tail call void @setup_i2c(), !dbg !5854
  tail call void @setup_led(), !dbg !5855
  ret void, !dbg !5856
}

; Function Attrs: mustprogress noinline noreturn nounwind
define dso_local void @led_task_pico(i8* nocapture readnone %0) #9 !dbg !5857 {
  %2 = alloca i8, align 1
  %3 = alloca %"class.std::__cxx11::basic_string", align 4
  %4 = alloca %"class.std::ios_base::Init", align 1
  call void @llvm.dbg.value(metadata i8* undef, metadata !5859, metadata !DIExpression()), !dbg !5866
  call void @llvm.lifetime.start.p0i8(i64 1, i8* nonnull %2) #2, !dbg !5867
  call void @llvm.dbg.value(metadata i8 0, metadata !5860, metadata !DIExpression()), !dbg !5866
  store i8 0, i8* %2, align 1, !dbg !5868, !tbaa !5842
  call void @llvm.dbg.value(metadata i32 -1, metadata !5861, metadata !DIExpression()), !dbg !5866
  call void @llvm.dbg.value(metadata i8 1, metadata !5862, metadata !DIExpression()), !dbg !5866
  call void @llvm.dbg.value(metadata i32 0, metadata !5863, metadata !DIExpression()), !dbg !5866
  tail call void @_ZN5Utils15log_device_infoEv() #2, !dbg !5869
  %5 = getelementptr inbounds %"class.std::ios_base::Init", %"class.std::ios_base::Init"* %4, i32 0, i32 0
  br label %6, !dbg !5870

6:                                                ; preds = %27, %1
  %7 = phi i1 [ %29, %27 ], [ true, %1 ]
  %8 = phi i32 [ %11, %27 ], [ 0, %1 ]
  %9 = phi i32 [ %31, %27 ], [ -1, %1 ]
  br label %10, !dbg !5870

10:                                               ; preds = %6, %10
  call void @llvm.dbg.value(metadata i32 %9, metadata !5861, metadata !DIExpression()), !dbg !5866
  call void @llvm.dbg.value(metadata i32 %8, metadata !5863, metadata !DIExpression()), !dbg !5866
  call void @llvm.dbg.value(metadata i8 poison, metadata !5862, metadata !DIExpression()), !dbg !5866
  %11 = call i32 @xTaskGetTickCount() #2, !dbg !5871
  call void @llvm.dbg.value(metadata i32 %11, metadata !5864, metadata !DIExpression()), !dbg !5872
  %12 = sub i32 %11, %8, !dbg !5873
  %13 = icmp ugt i32 %12, 499, !dbg !5875
  br i1 %13, label %14, label %10, !dbg !5876, !llvm.loop !5877

14:                                               ; preds = %10
  call void @llvm.dbg.value(metadata i32 %11, metadata !5863, metadata !DIExpression()), !dbg !5866
  br i1 %7, label %15, label %23, !dbg !5880

15:                                               ; preds = %14
  call void @llvm.lifetime.start.p0i8(i64 1, i8* nonnull %5) #2, !dbg !5882
  %16 = call noundef %"class.std::ios_base::Init"* @_ZNSaIcEC2Ev(%"class.std::ios_base::Init"* noundef nonnull align 1 dereferenceable(1) %4) #2, !dbg !5882
  %17 = call noundef %"class.std::__cxx11::basic_string"* @_ZNSt7__cxx1112basic_stringIcSt11char_traitsIcESaIcEEC2EPKcRKS3_(%"class.std::__cxx11::basic_string"* noundef nonnull align 4 dereferenceable(24) %3, i8* noundef getelementptr inbounds ([15 x i8], [15 x i8]* @.str, i32 0, i32 0), %"class.std::ios_base::Init"* noundef nonnull align 1 dereferenceable(1) %4), !dbg !5882
  call void @_ZN5Utils9log_debugENSt7__cxx1112basic_stringIcSt11char_traitsIcESaIcEEE(%"class.std::__cxx11::basic_string"* noundef nonnull %3) #2, !dbg !5885
  %18 = call noundef %"class.std::__cxx11::basic_string"* @_ZNSt7__cxx1112basic_stringIcSt11char_traitsIcESaIcEED2Ev(%"class.std::__cxx11::basic_string"* noundef nonnull align 4 dereferenceable(24) %3) #2, !dbg !5885
  %19 = call noundef %"class.std::ios_base::Init"* @_ZNSaIcED2Ev(%"class.std::ios_base::Init"* noundef nonnull align 1 dereferenceable(1) %4) #2, !dbg !5885
  call void @llvm.lifetime.end.p0i8(i64 1, i8* nonnull %5) #2, !dbg !5885
  call void @led_on(), !dbg !5886
  call void @llvm.dbg.value(metadata i8 1, metadata !5860, metadata !DIExpression()), !dbg !5866
  store i8 1, i8* %2, align 1, !dbg !5887, !tbaa !5842
  %20 = load volatile %struct.QueueDefinition*, %struct.QueueDefinition** @queue, align 4, !dbg !5888, !tbaa !5889
  call void @llvm.dbg.value(metadata i8* %2, metadata !5860, metadata !DIExpression(DW_OP_deref)), !dbg !5866
  %21 = call i32 @xQueueGenericSend(%struct.QueueDefinition* noundef %20, i8* noundef nonnull %2, i32 noundef 0, i32 noundef 0) #2, !dbg !5888
  %22 = add nsw i32 %9, 1, !dbg !5891
  call void @llvm.dbg.value(metadata i32 %22, metadata !5861, metadata !DIExpression()), !dbg !5866
  call void @display_int(i32 noundef %22), !dbg !5892
  br label %27, !dbg !5893

23:                                               ; preds = %14
  call void @led_off(), !dbg !5894
  call void @llvm.dbg.value(metadata i8 0, metadata !5860, metadata !DIExpression()), !dbg !5866
  store i8 0, i8* %2, align 1, !dbg !5896, !tbaa !5842
  %24 = load volatile %struct.QueueDefinition*, %struct.QueueDefinition** @queue, align 4, !dbg !5897, !tbaa !5889
  call void @llvm.dbg.value(metadata i8* %2, metadata !5860, metadata !DIExpression(DW_OP_deref)), !dbg !5866
  %25 = call i32 @xQueueGenericSend(%struct.QueueDefinition* noundef %24, i8* noundef nonnull %2, i32 noundef 0, i32 noundef 0) #2, !dbg !5897
  %26 = load volatile double, double* @read_temp, align 8, !dbg !5898, !tbaa !5899
  call void @display_tmp(double noundef %26), !dbg !5901
  br label %27

27:                                               ; preds = %23, %15
  %28 = phi i32 [ %22, %15 ], [ %9, %23 ], !dbg !5866
  call void @llvm.dbg.value(metadata i32 %28, metadata !5861, metadata !DIExpression()), !dbg !5866
  %29 = xor i1 %7, true, !dbg !5902
  call void @llvm.dbg.value(metadata i1 %29, metadata !5862, metadata !DIExpression(DW_OP_LLVM_convert, 1, DW_ATE_unsigned, DW_OP_LLVM_convert, 8, DW_ATE_unsigned, DW_OP_stack_value)), !dbg !5866
  %30 = icmp sgt i32 %28, 9998, !dbg !5903
  %31 = select i1 %30, i32 0, i32 %28, !dbg !5905
  call void @llvm.dbg.value(metadata i32 %31, metadata !5861, metadata !DIExpression()), !dbg !5866
  br label %6, !dbg !5906, !llvm.loop !5877
}

; Function Attrs: noinline nounwind
declare dso_local noundef %"class.std::ios_base::Init"* @_ZNSaIcEC2Ev(%"class.std::ios_base::Init"* noundef nonnull returned align 1 dereferenceable(1)) unnamed_addr #0 align 2

; Function Attrs: noinline nounwind
declare dso_local noundef %"class.std::__cxx11::basic_string"* @_ZNSt7__cxx1112basic_stringIcSt11char_traitsIcESaIcEEC2EPKcRKS3_(%"class.std::__cxx11::basic_string"* noundef nonnull returned align 4 dereferenceable(24), i8* noundef, %"class.std::ios_base::Init"* noundef nonnull align 1 dereferenceable(1)) unnamed_addr #0 align 2

; Function Attrs: noinline nounwind
declare dso_local noundef %"class.std::__cxx11::basic_string"* @_ZNSt7__cxx1112basic_stringIcSt11char_traitsIcESaIcEED2Ev(%"class.std::__cxx11::basic_string"* noundef nonnull returned align 4 dereferenceable(24)) unnamed_addr #0 align 2

; Function Attrs: noinline nounwind
declare dso_local noundef %"class.std::ios_base::Init"* @_ZNSaIcED2Ev(%"class.std::ios_base::Init"* noundef nonnull returned align 1 dereferenceable(1)) unnamed_addr #0 align 2

; Function Attrs: mustprogress noinline nounwind
define dso_local void @display_int(i32 noundef %0) local_unnamed_addr #4 !dbg !5907 {
  call void @llvm.dbg.value(metadata i32 %0, metadata !5909, metadata !DIExpression()), !dbg !5911
  %2 = icmp ult i32 %0, 9999, !dbg !5912
  %3 = select i1 %2, i32 %0, i32 9999, !dbg !5912
  call void @llvm.dbg.value(metadata i32 %3, metadata !5909, metadata !DIExpression()), !dbg !5911
  %4 = tail call noundef i32 @_ZN5Utils3bcdEj(i32 noundef %3) #2, !dbg !5914
  call void @llvm.dbg.value(metadata i32 %4, metadata !5910, metadata !DIExpression()), !dbg !5911
  %5 = tail call noundef nonnull align 4 dereferenceable(36) %class.HT16K33_Segment* @_ZN15HT16K33_Segment5clearEv(%class.HT16K33_Segment* noundef nonnull align 4 dereferenceable(36) @display) #2, !dbg !5915
  %6 = lshr i32 %4, 12, !dbg !5916
  %7 = and i32 %6, 15, !dbg !5917
  %8 = tail call noundef nonnull align 4 dereferenceable(36) %class.HT16K33_Segment* @_ZN15HT16K33_Segment10set_numberEjjb(%class.HT16K33_Segment* noundef nonnull align 4 dereferenceable(36) @display, i32 noundef %7, i32 noundef 0, i1 noundef zeroext false) #2, !dbg !5918
  %9 = lshr i32 %4, 8, !dbg !5919
  %10 = and i32 %9, 15, !dbg !5920
  %11 = tail call noundef nonnull align 4 dereferenceable(36) %class.HT16K33_Segment* @_ZN15HT16K33_Segment10set_numberEjjb(%class.HT16K33_Segment* noundef nonnull align 4 dereferenceable(36) @display, i32 noundef %10, i32 noundef 1, i1 noundef zeroext false) #2, !dbg !5921
  %12 = lshr i32 %4, 4, !dbg !5922
  %13 = and i32 %12, 15, !dbg !5923
  %14 = tail call noundef nonnull align 4 dereferenceable(36) %class.HT16K33_Segment* @_ZN15HT16K33_Segment10set_numberEjjb(%class.HT16K33_Segment* noundef nonnull align 4 dereferenceable(36) @display, i32 noundef %13, i32 noundef 2, i1 noundef zeroext false) #2, !dbg !5924
  %15 = and i32 %4, 15, !dbg !5925
  %16 = tail call noundef nonnull align 4 dereferenceable(36) %class.HT16K33_Segment* @_ZN15HT16K33_Segment10set_numberEjjb(%class.HT16K33_Segment* noundef nonnull align 4 dereferenceable(36) @display, i32 noundef %15, i32 noundef 3, i1 noundef zeroext false) #2, !dbg !5926
  tail call void @_ZN15HT16K33_Segment4drawEv(%class.HT16K33_Segment* noundef nonnull align 4 dereferenceable(36) @display) #2, !dbg !5927
  ret void, !dbg !5928
}

; Function Attrs: mustprogress noinline nounwind
define dso_local void @display_tmp(double noundef %0) local_unnamed_addr #4 !dbg !5929 {
  %2 = alloca %"class.std::__cxx11::basic_stringstream", align 4
  %3 = alloca %"class.std::__cxx11::basic_string", align 4
  call void @llvm.dbg.value(metadata double %0, metadata !5933, metadata !DIExpression()), !dbg !5942
  %4 = bitcast %"class.std::__cxx11::basic_stringstream"* %2 to i8*, !dbg !5943
  call void @llvm.lifetime.start.p0i8(i64 208, i8* nonnull %4) #2, !dbg !5943
  call void @llvm.dbg.declare(metadata %"class.std::__cxx11::basic_stringstream"* %2, metadata !5934, metadata !DIExpression()), !dbg !5944
  %5 = call noundef %"class.std::__cxx11::basic_stringstream"* @_ZNSt7__cxx1118basic_stringstreamIcSt11char_traitsIcESaIcEEC1Ev(%"class.std::__cxx11::basic_stringstream"* noundef nonnull align 4 dereferenceable(72) %2), !dbg !5944
  %6 = getelementptr inbounds %"class.std::__cxx11::basic_stringstream", %"class.std::__cxx11::basic_stringstream"* %2, i32 0, i32 0, i32 1, !dbg !5945
  %7 = bitcast %"class.std::basic_ostream.base"* %6 to %"class.std::basic_ostream"*, !dbg !5945
  %8 = call noundef nonnull align 4 dereferenceable(4) %"class.std::basic_ostream"* @_ZNSolsEPFRSt8ios_baseS0_E(%"class.std::basic_ostream"* noundef nonnull align 4 dereferenceable(4) %7, %"class.std::ios_base"* (%"class.std::ios_base"*)* noundef nonnull @_ZSt5fixedRSt8ios_base), !dbg !5946
  %9 = call i32 @_ZSt12setprecisioni(i32 noundef 2), !dbg !5947
  %10 = insertvalue [1 x i32] poison, i32 %9, 0, !dbg !5948
  %11 = call noundef nonnull align 4 dereferenceable(4) %"class.std::basic_ostream"* @_ZStlsIcSt11char_traitsIcEERSt13basic_ostreamIT_T0_ES6_St13_Setprecision(%"class.std::basic_ostream"* noundef nonnull align 4 dereferenceable(4) %8, [1 x i32] %10), !dbg !5948
  %12 = call noundef nonnull align 4 dereferenceable(4) %"class.std::basic_ostream"* @_ZNSolsEd(%"class.std::basic_ostream"* noundef nonnull align 4 dereferenceable(4) %11, double noundef %0), !dbg !5949
  %13 = bitcast %"class.std::__cxx11::basic_string"* %3 to i8*, !dbg !5950
  call void @llvm.lifetime.start.p0i8(i64 24, i8* nonnull %13) #2, !dbg !5950
  call void @llvm.dbg.declare(metadata %"class.std::__cxx11::basic_string"* %3, metadata !5935, metadata !DIExpression()), !dbg !5951
  call void @_ZNKSt7__cxx1118basic_stringstreamIcSt11char_traitsIcESaIcEE3strEv(%"class.std::__cxx11::basic_string"* nonnull sret(%"class.std::__cxx11::basic_string") align 4 %3, %"class.std::__cxx11::basic_stringstream"* noundef nonnull align 4 dereferenceable(72) %2), !dbg !5952
  call void @llvm.dbg.value(metadata i32 0, metadata !5937, metadata !DIExpression()), !dbg !5942
  call void @llvm.dbg.value(metadata i8 0, metadata !5938, metadata !DIExpression()), !dbg !5942
  call void @llvm.dbg.value(metadata i8 0, metadata !5939, metadata !DIExpression()), !dbg !5942
  call void @llvm.dbg.value(metadata i32 0, metadata !5940, metadata !DIExpression()), !dbg !5953
  %14 = call noundef i32 @_ZNKSt7__cxx1112basic_stringIcSt11char_traitsIcESaIcEE6lengthEv(%"class.std::__cxx11::basic_string"* noundef nonnull align 4 dereferenceable(24) %3) #2, !dbg !5954
  %15 = icmp eq i32 %14, 0, !dbg !5956
  br i1 %15, label %16, label %20, !dbg !5957

16:                                               ; preds = %35, %1
  %17 = call noundef nonnull align 4 dereferenceable(36) %class.HT16K33_Segment* @_ZN15HT16K33_Segment9set_alphaEcjb(%class.HT16K33_Segment* noundef nonnull align 4 dereferenceable(36) @display, i8 noundef zeroext 99, i32 noundef 3, i1 noundef zeroext false) #2, !dbg !5958
  call void @_ZN15HT16K33_Segment4drawEv(%class.HT16K33_Segment* noundef nonnull align 4 dereferenceable(36) %17) #2, !dbg !5959
  %18 = call noundef %"class.std::__cxx11::basic_string"* @_ZNSt7__cxx1112basic_stringIcSt11char_traitsIcESaIcEED2Ev(%"class.std::__cxx11::basic_string"* noundef nonnull align 4 dereferenceable(24) %3) #2, !dbg !5960
  call void @llvm.lifetime.end.p0i8(i64 24, i8* nonnull %13) #2, !dbg !5960
  %19 = call noundef %"class.std::__cxx11::basic_stringstream"* @_ZNSt7__cxx1118basic_stringstreamIcSt11char_traitsIcESaIcEED1Ev(%"class.std::__cxx11::basic_stringstream"* noundef nonnull align 4 dereferenceable(72) %2) #2, !dbg !5960
  call void @llvm.lifetime.end.p0i8(i64 208, i8* nonnull %4) #2, !dbg !5960
  ret void, !dbg !5960

20:                                               ; preds = %1, %35
  %21 = phi i32 [ %38, %35 ], [ 0, %1 ]
  %22 = phi i8 [ %37, %35 ], [ 0, %1 ]
  %23 = phi i32 [ %36, %35 ], [ 0, %1 ]
  call void @llvm.dbg.value(metadata i32 %21, metadata !5940, metadata !DIExpression()), !dbg !5953
  call void @llvm.dbg.value(metadata i8 %22, metadata !5938, metadata !DIExpression()), !dbg !5942
  call void @llvm.dbg.value(metadata i32 %23, metadata !5937, metadata !DIExpression()), !dbg !5942
  %24 = call noundef nonnull align 1 dereferenceable(1) i8* @_ZNKSt7__cxx1112basic_stringIcSt11char_traitsIcESaIcEEixEj(%"class.std::__cxx11::basic_string"* noundef nonnull align 4 dereferenceable(24) %3, i32 noundef %21) #2, !dbg !5961
  %25 = load i8, i8* %24, align 1, !dbg !5961, !tbaa !5842
  call void @llvm.dbg.value(metadata i8 %25, metadata !5939, metadata !DIExpression()), !dbg !5942
  %26 = icmp eq i8 %25, 46, !dbg !5963
  %27 = icmp ne i32 %23, 0
  %28 = select i1 %26, i1 %27, i1 false, !dbg !5965
  br i1 %28, label %29, label %32, !dbg !5965

29:                                               ; preds = %20
  %30 = add i32 %23, -1, !dbg !5966
  %31 = call noundef nonnull align 4 dereferenceable(36) %class.HT16K33_Segment* @_ZN15HT16K33_Segment9set_alphaEcjb(%class.HT16K33_Segment* noundef nonnull align 4 dereferenceable(36) @display, i8 noundef zeroext %22, i32 noundef %30, i1 noundef zeroext true) #2, !dbg !5968
  br label %35, !dbg !5969

32:                                               ; preds = %20
  %33 = call noundef nonnull align 4 dereferenceable(36) %class.HT16K33_Segment* @_ZN15HT16K33_Segment9set_alphaEcjb(%class.HT16K33_Segment* noundef nonnull align 4 dereferenceable(36) @display, i8 noundef zeroext %25, i32 noundef %23, i1 noundef zeroext false) #2, !dbg !5970
  call void @llvm.dbg.value(metadata i8 %25, metadata !5938, metadata !DIExpression()), !dbg !5942
  %34 = add i32 %23, 1, !dbg !5972
  call void @llvm.dbg.value(metadata i32 %34, metadata !5937, metadata !DIExpression()), !dbg !5942
  br label %35

35:                                               ; preds = %29, %32
  %36 = phi i32 [ %23, %29 ], [ %34, %32 ], !dbg !5942
  %37 = phi i8 [ %22, %29 ], [ %25, %32 ], !dbg !5942
  call void @llvm.dbg.value(metadata i8 %37, metadata !5938, metadata !DIExpression()), !dbg !5942
  call void @llvm.dbg.value(metadata i32 %36, metadata !5937, metadata !DIExpression()), !dbg !5942
  %38 = add i32 %21, 1, !dbg !5973
  call void @llvm.dbg.value(metadata i32 %38, metadata !5940, metadata !DIExpression()), !dbg !5953
  %39 = call noundef i32 @_ZNKSt7__cxx1112basic_stringIcSt11char_traitsIcESaIcEE6lengthEv(%"class.std::__cxx11::basic_string"* noundef nonnull align 4 dereferenceable(24) %3) #2, !dbg !5954
  %40 = icmp ult i32 %38, %39, !dbg !5956
  %41 = icmp eq i32 %36, 3, !dbg !5974
  %42 = select i1 %40, i1 true, i1 %41, !dbg !5974
  br i1 %42, label %20, label %16, !dbg !5957, !llvm.loop !5975
}

; Function Attrs: nofree nosync nounwind readnone speculatable willreturn
declare void @llvm.dbg.declare(metadata, metadata, metadata) #6

; Function Attrs: noinline nounwind
declare dso_local noundef %"class.std::__cxx11::basic_stringstream"* @_ZNSt7__cxx1118basic_stringstreamIcSt11char_traitsIcESaIcEEC1Ev(%"class.std::__cxx11::basic_stringstream"* noundef nonnull returned align 4 dereferenceable(72)) unnamed_addr #0 align 2

; Function Attrs: mustprogress noinline nounwind
define linkonce_odr dso_local noundef nonnull align 4 dereferenceable(112) %"class.std::ios_base"* @_ZSt5fixedRSt8ios_base(%"class.std::ios_base"* noundef nonnull align 4 dereferenceable(112) %0) #4 comdat !dbg !5977 {
  call void @llvm.dbg.value(metadata %"class.std::ios_base"* %0, metadata !5979, metadata !DIExpression()), !dbg !5980
  %2 = tail call noundef i32 @_ZNSt8ios_base4setfESt13_Ios_FmtflagsS0_(%"class.std::ios_base"* noundef nonnull align 4 dereferenceable(112) %0, i32 noundef 4, i32 noundef 260), !dbg !5981
  ret %"class.std::ios_base"* %0, !dbg !5982
}

; Function Attrs: mustprogress noinline nounwind
declare dso_local noundef nonnull align 4 dereferenceable(4) %"class.std::basic_ostream"* @_ZNSolsEPFRSt8ios_baseS0_E(%"class.std::basic_ostream"* noundef nonnull align 4 dereferenceable(4), %"class.std::ios_base"* (%"class.std::ios_base"*)* noundef) local_unnamed_addr #4 align 2

; Function Attrs: mustprogress noinline nounwind
define linkonce_odr dso_local i32 @_ZSt12setprecisioni(i32 noundef %0) local_unnamed_addr #4 comdat !dbg !5983 {
  call void @llvm.dbg.value(metadata i32 %0, metadata !5991, metadata !DIExpression()), !dbg !5992
  ret i32 %0, !dbg !5993
}

; Function Attrs: mustprogress noinline nounwind
declare dso_local noundef nonnull align 4 dereferenceable(4) %"class.std::basic_ostream"* @_ZStlsIcSt11char_traitsIcEERSt13basic_ostreamIT_T0_ES6_St13_Setprecision(%"class.std::basic_ostream"* noundef nonnull align 4 dereferenceable(4), [1 x i32]) local_unnamed_addr #4

; Function Attrs: mustprogress noinline nounwind
declare dso_local noundef nonnull align 4 dereferenceable(4) %"class.std::basic_ostream"* @_ZNSolsEd(%"class.std::basic_ostream"* noundef nonnull align 4 dereferenceable(4), double noundef) local_unnamed_addr #4 align 2

; Function Attrs: mustprogress noinline nounwind
declare dso_local void @_ZNKSt7__cxx1118basic_stringstreamIcSt11char_traitsIcESaIcEE3strEv(%"class.std::__cxx11::basic_string"* noalias sret(%"class.std::__cxx11::basic_string") align 4, %"class.std::__cxx11::basic_stringstream"* noundef nonnull align 4 dereferenceable(72)) local_unnamed_addr #4 align 2

; Function Attrs: mustprogress noinline nounwind
declare dso_local noundef i32 @_ZNKSt7__cxx1112basic_stringIcSt11char_traitsIcESaIcEE6lengthEv(%"class.std::__cxx11::basic_string"* noundef nonnull align 4 dereferenceable(24)) local_unnamed_addr #4 align 2

; Function Attrs: noinline nounwind
declare dso_local noundef %"class.std::__cxx11::basic_stringstream"* @_ZNSt7__cxx1118basic_stringstreamIcSt11char_traitsIcESaIcEED1Ev(%"class.std::__cxx11::basic_stringstream"* noundef nonnull returned align 4 dereferenceable(72)) unnamed_addr #0 align 2

; Function Attrs: mustprogress noinline nounwind
declare dso_local noundef nonnull align 1 dereferenceable(1) i8* @_ZNKSt7__cxx1112basic_stringIcSt11char_traitsIcESaIcEEixEj(%"class.std::__cxx11::basic_string"* noundef nonnull align 4 dereferenceable(24), i32 noundef) local_unnamed_addr #4 align 2

; Function Attrs: mustprogress noinline nounwind
define linkonce_odr dso_local noundef i32 @_ZNSt8ios_base4setfESt13_Ios_FmtflagsS0_(%"class.std::ios_base"* noundef nonnull align 4 dereferenceable(112) %0, i32 noundef %1, i32 noundef %2) local_unnamed_addr #4 comdat align 2 !dbg !5994 {
  call void @llvm.dbg.value(metadata %"class.std::ios_base"* %0, metadata !6001, metadata !DIExpression()), !dbg !6006
  call void @llvm.dbg.value(metadata i32 %1, metadata !6003, metadata !DIExpression()), !dbg !6006
  call void @llvm.dbg.value(metadata i32 %2, metadata !6004, metadata !DIExpression()), !dbg !6006
  %4 = getelementptr inbounds %"class.std::ios_base", %"class.std::ios_base"* %0, i32 0, i32 3, !dbg !6007
  %5 = load i32, i32* %4, align 4, !dbg !6007, !tbaa !6008
  call void @llvm.dbg.value(metadata i32 %5, metadata !6005, metadata !DIExpression()), !dbg !6006
  %6 = tail call noundef i32 @_ZStcoSt13_Ios_Fmtflags(i32 noundef %2), !dbg !6015
  %7 = tail call noundef nonnull align 4 dereferenceable(4) i32* @_ZStaNRSt13_Ios_FmtflagsS_(i32* noundef nonnull align 4 dereferenceable(4) %4, i32 noundef %6), !dbg !6016
  %8 = tail call noundef i32 @_ZStanSt13_Ios_FmtflagsS_(i32 noundef %1, i32 noundef %2), !dbg !6017
  %9 = tail call noundef nonnull align 4 dereferenceable(4) i32* @_ZStoRRSt13_Ios_FmtflagsS_(i32* noundef nonnull align 4 dereferenceable(4) %4, i32 noundef %8), !dbg !6018
  ret i32 %5, !dbg !6019
}

; Function Attrs: mustprogress noinline nounwind
define linkonce_odr dso_local noundef i32 @_ZStcoSt13_Ios_Fmtflags(i32 noundef %0) local_unnamed_addr #4 comdat !dbg !6020 {
  call void @llvm.dbg.value(metadata i32 %0, metadata !6024, metadata !DIExpression()), !dbg !6025
  %2 = xor i32 %0, -1, !dbg !6026
  ret i32 %2, !dbg !6027
}

; Function Attrs: mustprogress noinline nounwind
define linkonce_odr dso_local noundef nonnull align 4 dereferenceable(4) i32* @_ZStaNRSt13_Ios_FmtflagsS_(i32* noundef nonnull align 4 dereferenceable(4) %0, i32 noundef %1) local_unnamed_addr #4 comdat !dbg !6028 {
  call void @llvm.dbg.value(metadata i32* %0, metadata !6035, metadata !DIExpression()), !dbg !6037
  call void @llvm.dbg.value(metadata i32 %1, metadata !6036, metadata !DIExpression()), !dbg !6037
  %3 = load i32, i32* %0, align 4, !dbg !6038, !tbaa !6039
  %4 = tail call noundef i32 @_ZStanSt13_Ios_FmtflagsS_(i32 noundef %3, i32 noundef %1), !dbg !6040
  store i32 %4, i32* %0, align 4, !dbg !6041, !tbaa !6039
  ret i32* %0, !dbg !6042
}

; Function Attrs: mustprogress noinline nounwind
define linkonce_odr dso_local noundef i32 @_ZStanSt13_Ios_FmtflagsS_(i32 noundef %0, i32 noundef %1) local_unnamed_addr #4 comdat !dbg !6043 {
  call void @llvm.dbg.value(metadata i32 %0, metadata !6047, metadata !DIExpression()), !dbg !6049
  call void @llvm.dbg.value(metadata i32 %1, metadata !6048, metadata !DIExpression()), !dbg !6049
  %3 = and i32 %1, %0, !dbg !6050
  ret i32 %3, !dbg !6051
}

; Function Attrs: mustprogress noinline nounwind
define linkonce_odr dso_local noundef nonnull align 4 dereferenceable(4) i32* @_ZStoRRSt13_Ios_FmtflagsS_(i32* noundef nonnull align 4 dereferenceable(4) %0, i32 noundef %1) local_unnamed_addr #4 comdat !dbg !6052 {
  call void @llvm.dbg.value(metadata i32* %0, metadata !6054, metadata !DIExpression()), !dbg !6056
  call void @llvm.dbg.value(metadata i32 %1, metadata !6055, metadata !DIExpression()), !dbg !6056
  %3 = load i32, i32* %0, align 4, !dbg !6057, !tbaa !6039
  %4 = tail call noundef i32 @_ZStorSt13_Ios_FmtflagsS_(i32 noundef %3, i32 noundef %1), !dbg !6058
  store i32 %4, i32* %0, align 4, !dbg !6059, !tbaa !6039
  ret i32* %0, !dbg !6060
}

; Function Attrs: mustprogress noinline nounwind
define linkonce_odr dso_local noundef i32 @_ZStorSt13_Ios_FmtflagsS_(i32 noundef %0, i32 noundef %1) local_unnamed_addr #4 comdat !dbg !6061 {
  call void @llvm.dbg.value(metadata i32 %0, metadata !6063, metadata !DIExpression()), !dbg !6065
  call void @llvm.dbg.value(metadata i32 %1, metadata !6064, metadata !DIExpression()), !dbg !6065
  %3 = or i32 %1, %0, !dbg !6066
  ret i32 %3, !dbg !6067
}

; Function Attrs: mustprogress noinline noreturn nounwind
define dso_local void @led_task_gpio(i8* nocapture readnone %0) #9 !dbg !6068 {
  %2 = alloca i8, align 1
  %3 = alloca %"class.std::__cxx11::basic_string", align 4
  %4 = alloca %"class.std::ios_base::Init", align 1
  call void @llvm.dbg.value(metadata i8* undef, metadata !6070, metadata !DIExpression()), !dbg !6072
  call void @llvm.lifetime.start.p0i8(i64 1, i8* nonnull %2) #2, !dbg !6073
  call void @llvm.dbg.value(metadata i8 0, metadata !6071, metadata !DIExpression()), !dbg !6072
  store i8 0, i8* %2, align 1, !dbg !6074, !tbaa !5842
  tail call void @gpio_init(i32 noundef 20) #2, !dbg !6075
  tail call fastcc void @_ZL12gpio_set_dirjb(i32 noundef 20), !dbg !6076
  %5 = getelementptr inbounds %"class.std::ios_base::Init", %"class.std::ios_base::Init"* %4, i32 0, i32 0
  br label %6, !dbg !6077

6:                                                ; preds = %22, %1
  %7 = load volatile %struct.QueueDefinition*, %struct.QueueDefinition** @queue, align 4, !dbg !6078, !tbaa !5889
  call void @llvm.dbg.value(metadata i8* %2, metadata !6071, metadata !DIExpression(DW_OP_deref)), !dbg !6072
  %8 = call i32 @xQueueReceive(%struct.QueueDefinition* noundef %7, i8* noundef nonnull %2, i32 noundef -1) #2, !dbg !6081
  %9 = icmp eq i32 %8, 1, !dbg !6082
  br i1 %9, label %10, label %22, !dbg !6083

10:                                               ; preds = %6
  %11 = load i8, i8* %2, align 1, !dbg !6084, !tbaa !5842
  call void @llvm.dbg.value(metadata i8 %11, metadata !6071, metadata !DIExpression()), !dbg !6072
  %12 = icmp eq i8 %11, 0, !dbg !6084
  br i1 %12, label %19, label %13, !dbg !6087

13:                                               ; preds = %10
  call void @llvm.lifetime.start.p0i8(i64 1, i8* nonnull %5) #2, !dbg !6088
  %14 = call noundef %"class.std::ios_base::Init"* @_ZNSaIcEC2Ev(%"class.std::ios_base::Init"* noundef nonnull align 1 dereferenceable(1) %4) #2, !dbg !6088
  %15 = call noundef %"class.std::__cxx11::basic_string"* @_ZNSt7__cxx1112basic_stringIcSt11char_traitsIcESaIcEEC2EPKcRKS3_(%"class.std::__cxx11::basic_string"* noundef nonnull align 4 dereferenceable(24) %3, i8* noundef getelementptr inbounds ([15 x i8], [15 x i8]* @.str.3, i32 0, i32 0), %"class.std::ios_base::Init"* noundef nonnull align 1 dereferenceable(1) %4), !dbg !6088
  call void @_ZN5Utils9log_debugENSt7__cxx1112basic_stringIcSt11char_traitsIcESaIcEEE(%"class.std::__cxx11::basic_string"* noundef nonnull %3) #2, !dbg !6089
  %16 = call noundef %"class.std::__cxx11::basic_string"* @_ZNSt7__cxx1112basic_stringIcSt11char_traitsIcESaIcEED2Ev(%"class.std::__cxx11::basic_string"* noundef nonnull align 4 dereferenceable(24) %3) #2, !dbg !6089
  %17 = call noundef %"class.std::ios_base::Init"* @_ZNSaIcED2Ev(%"class.std::ios_base::Init"* noundef nonnull align 1 dereferenceable(1) %4) #2, !dbg !6089
  call void @llvm.lifetime.end.p0i8(i64 1, i8* nonnull %5) #2, !dbg !6089
  %18 = load i8, i8* %2, align 1, !dbg !6090, !tbaa !5842
  br label %19, !dbg !6089

19:                                               ; preds = %13, %10
  %20 = phi i8 [ %18, %13 ], [ 0, %10 ], !dbg !6090
  call void @llvm.dbg.value(metadata i8 %20, metadata !6071, metadata !DIExpression()), !dbg !6072
  %21 = icmp ne i8 %20, 1, !dbg !6091
  call fastcc void @_ZL8gpio_putjb(i32 noundef 20, i1 noundef zeroext %21), !dbg !6092
  br label %22, !dbg !6093

22:                                               ; preds = %19, %6
  br label %6, !dbg !6078, !llvm.loop !6094
}

; Function Attrs: mustprogress noinline noreturn nounwind
define dso_local void @sensor_read_task(i8* nocapture readnone %0) #9 !dbg !6096 {
  call void @llvm.dbg.value(metadata i8* undef, metadata !6098, metadata !DIExpression()), !dbg !6099
  br label %2, !dbg !6100

2:                                                ; preds = %1, %2
  %3 = tail call noundef double @_ZN7MCP98089read_tempEv(%class.MCP9808* noundef nonnull align 2 dereferenceable(7) @sensor) #2, !dbg !6101
  store volatile double %3, double* @read_temp, align 8, !dbg !6103, !tbaa !5899
  tail call void @vTaskDelay(i32 noundef 20) #2, !dbg !6104
  br label %2, !dbg !6100, !llvm.loop !6105
}

; Function Attrs: mustprogress noinline norecurse noreturn nounwind
define dso_local noundef i32 @main() local_unnamed_addr #10 !dbg !6107 {
  tail call void @stdio_init_all() #2, !dbg !6115
  tail call void @sleep_ms(i32 noundef 2000) #2, !dbg !6116
  tail call void @setup(), !dbg !6117
  tail call void @_ZN15HT16K33_Segment14set_brightnessEj(%class.HT16K33_Segment* noundef nonnull align 4 dereferenceable(36) @display, i32 noundef 1) #2, !dbg !6118
  %1 = tail call i32 @xTaskCreate(void (i8*)* noundef nonnull @led_task_pico, i8* noundef getelementptr inbounds ([14 x i8], [14 x i8]* @.str.4, i32 0, i32 0), i16 noundef zeroext 128, i8* noundef null, i32 noundef 1, %struct.tskTaskControlBlock** noundef nonnull @pico_task_handle) #2, !dbg !6119
  call void @llvm.dbg.value(metadata i32 %1, metadata !6109, metadata !DIExpression()), !dbg !6120
  %2 = tail call i32 @xTaskCreate(void (i8*)* noundef nonnull @led_task_gpio, i8* noundef getelementptr inbounds ([14 x i8], [14 x i8]* @.str.5, i32 0, i32 0), i16 noundef zeroext 128, i8* noundef null, i32 noundef 1, %struct.tskTaskControlBlock** noundef nonnull @gpio_task_handle) #2, !dbg !6121
  call void @llvm.dbg.value(metadata i32 %2, metadata !6110, metadata !DIExpression()), !dbg !6120
  %3 = tail call i32 @xTaskCreate(void (i8*)* noundef nonnull @sensor_read_task, i8* noundef getelementptr inbounds ([12 x i8], [12 x i8]* @.str.6, i32 0, i32 0), i16 noundef zeroext 128, i8* noundef null, i32 noundef 1, %struct.tskTaskControlBlock** noundef nonnull @sens_task_handle) #2, !dbg !6122
  call void @llvm.dbg.value(metadata i32 %3, metadata !6111, metadata !DIExpression()), !dbg !6120
  %4 = icmp eq i32 %1, 1, !dbg !6123
  %5 = icmp eq i32 %2, 1
  %6 = select i1 %4, i1 true, i1 %5, !dbg !6124
  %7 = icmp eq i32 %3, 1
  %8 = select i1 %6, i1 true, i1 %7, !dbg !6124
  br i1 %8, label %10, label %9, !dbg !6124

9:                                                ; preds = %0
  call void @llvm.dbg.value(metadata i8 5, metadata !6112, metadata !DIExpression()), !dbg !6125
  tail call void @led_on(), !dbg !6126
  tail call void @vTaskDelay(i32 noundef 100) #2, !dbg !6128
  tail call void @led_off(), !dbg !6129
  tail call void @vTaskDelay(i32 noundef 100) #2, !dbg !6130
  call void @llvm.dbg.value(metadata i8 4, metadata !6112, metadata !DIExpression()), !dbg !6125
  call void @llvm.dbg.value(metadata i8 4, metadata !6112, metadata !DIExpression()), !dbg !6125
  tail call void @led_on(), !dbg !6126
  tail call void @vTaskDelay(i32 noundef 100) #2, !dbg !6128
  tail call void @led_off(), !dbg !6129
  tail call void @vTaskDelay(i32 noundef 100) #2, !dbg !6130
  call void @llvm.dbg.value(metadata i8 3, metadata !6112, metadata !DIExpression()), !dbg !6125
  call void @llvm.dbg.value(metadata i8 3, metadata !6112, metadata !DIExpression()), !dbg !6125
  tail call void @led_on(), !dbg !6126
  tail call void @vTaskDelay(i32 noundef 100) #2, !dbg !6128
  tail call void @led_off(), !dbg !6129
  tail call void @vTaskDelay(i32 noundef 100) #2, !dbg !6130
  call void @llvm.dbg.value(metadata i8 2, metadata !6112, metadata !DIExpression()), !dbg !6125
  call void @llvm.dbg.value(metadata i8 2, metadata !6112, metadata !DIExpression()), !dbg !6125
  tail call void @led_on(), !dbg !6126
  tail call void @vTaskDelay(i32 noundef 100) #2, !dbg !6128
  tail call void @led_off(), !dbg !6129
  tail call void @vTaskDelay(i32 noundef 100) #2, !dbg !6130
  call void @llvm.dbg.value(metadata i8 1, metadata !6112, metadata !DIExpression()), !dbg !6125
  call void @llvm.dbg.value(metadata i8 1, metadata !6112, metadata !DIExpression()), !dbg !6125
  tail call void @led_on(), !dbg !6126
  tail call void @vTaskDelay(i32 noundef 100) #2, !dbg !6128
  tail call void @led_off(), !dbg !6129
  tail call void @vTaskDelay(i32 noundef 100) #2, !dbg !6130
  unreachable

10:                                               ; preds = %0
  %11 = tail call %struct.QueueDefinition* @xQueueGenericCreate(i32 noundef 4, i32 noundef 1, i8 noundef zeroext 0) #2, !dbg !6131
  store volatile %struct.QueueDefinition* %11, %struct.QueueDefinition** @queue, align 4, !dbg !6133, !tbaa !5889
  tail call void @vTaskStartScheduler() #2, !dbg !6134
  unreachable
}

; Function Attrs: noinline nounwind
define internal void @_GLOBAL__sub_I_ht16k33.cpp() #0 !dbg !6135 {
  tail call fastcc void @__cxx_global_var_init.3(), !dbg !6136
  ret void
}

; Function Attrs: noinline nounwind
define internal fastcc void @__cxx_global_var_init.3() unnamed_addr #0 !dbg !6137 {
  %1 = tail call noundef %"class.std::ios_base::Init"* @_ZNSt8ios_base4InitC1Ev(%"class.std::ios_base::Init"* noundef nonnull align 1 dereferenceable(1) @_ZStL8__ioinit.4) #2, !dbg !6138
  %2 = tail call i32 @atexit(void ()* nonnull @__dtor__ZStL8__ioinit.5) #2, !dbg !6140
  ret void, !dbg !6138
}

; Function Attrs: noinline nounwind
define internal void @__dtor__ZStL8__ioinit.5() #0 !dbg !6141 {
  %1 = tail call %"class.std::ios_base::Init"* @_ZNSt8ios_base4InitD1Ev(%"class.std::ios_base::Init"* @_ZStL8__ioinit.4), !dbg !6142
  ret void, !dbg !6143
}

; Function Attrs: mustprogress nofree noinline norecurse nosync nounwind willreturn writeonly
define dso_local noundef nonnull %class.HT16K33_Segment* @_ZN15HT16K33_SegmentC2Ej(%class.HT16K33_Segment* noundef nonnull returned writeonly align 4 dereferenceable(36) %0, i32 noundef %1) unnamed_addr #11 align 2 !dbg !6144 {
  call void @llvm.dbg.value(metadata %class.HT16K33_Segment* %0, metadata !6146, metadata !DIExpression()), !dbg !6149
  call void @llvm.dbg.value(metadata i32 %1, metadata !6148, metadata !DIExpression()), !dbg !6149
  %3 = add i32 %1, -256, !dbg !6150
  %4 = icmp ult i32 %3, -255, !dbg !6150
  %5 = select i1 %4, i32 112, i32 %1, !dbg !6150
  call void @llvm.dbg.value(metadata i32 %5, metadata !6148, metadata !DIExpression()), !dbg !6149
  %6 = getelementptr inbounds %class.HT16K33_Segment, %class.HT16K33_Segment* %0, i32 0, i32 2, !dbg !6153
  store i32 %5, i32* %6, align 4, !dbg !6154, !tbaa !6155
  ret %class.HT16K33_Segment* %0, !dbg !6157
}

; Function Attrs: mustprogress noinline nounwind
define dso_local void @_ZN15HT16K33_Segment4initEv(%class.HT16K33_Segment* noundef nonnull align 4 dereferenceable(36) %0) local_unnamed_addr #4 align 2 !dbg !6158 {
  call void @llvm.dbg.value(metadata %class.HT16K33_Segment* %0, metadata !6160, metadata !DIExpression()), !dbg !6161
  tail call void @_ZN15HT16K33_Segment8power_onEb(%class.HT16K33_Segment* noundef nonnull align 4 dereferenceable(36) %0, i1 noundef zeroext true), !dbg !6162
  tail call void @_ZN15HT16K33_Segment14set_brightnessEj(%class.HT16K33_Segment* noundef nonnull align 4 dereferenceable(36) %0, i32 noundef 2), !dbg !6163
  %2 = tail call noundef nonnull align 4 dereferenceable(36) %class.HT16K33_Segment* @_ZN15HT16K33_Segment5clearEv(%class.HT16K33_Segment* noundef nonnull align 4 dereferenceable(36) %0), !dbg !6164
  tail call void @_ZN15HT16K33_Segment4drawEv(%class.HT16K33_Segment* noundef nonnull align 4 dereferenceable(36) %0), !dbg !6165
  ret void, !dbg !6166
}

; Function Attrs: mustprogress noinline nounwind
define dso_local void @_ZN15HT16K33_Segment8power_onEb(%class.HT16K33_Segment* nocapture noundef nonnull readonly align 4 dereferenceable(36) %0, i1 noundef zeroext %1) local_unnamed_addr #4 align 2 !dbg !6167 {
  call void @llvm.dbg.value(metadata %class.HT16K33_Segment* %0, metadata !6169, metadata !DIExpression()), !dbg !6171
  call void @llvm.dbg.value(metadata i1 %1, metadata !6170, metadata !DIExpression(DW_OP_LLVM_convert, 1, DW_ATE_unsigned, DW_OP_LLVM_convert, 8, DW_ATE_unsigned, DW_OP_stack_value)), !dbg !6171
  %3 = getelementptr inbounds %class.HT16K33_Segment, %class.HT16K33_Segment* %0, i32 0, i32 2, !dbg !6172
  %4 = load i32, i32* %3, align 4, !dbg !6172, !tbaa !6155
  %5 = trunc i32 %4 to i8, !dbg !6172
  %6 = select i1 %1, i8 33, i8 -128, !dbg !6173
  tail call void @_ZN3I2C10write_byteEhh(i8 noundef zeroext %5, i8 noundef zeroext %6) #2, !dbg !6174
  %7 = load i32, i32* %3, align 4, !dbg !6175, !tbaa !6155
  %8 = trunc i32 %7 to i8, !dbg !6175
  %9 = select i1 %1, i8 -127, i8 32, !dbg !6176
  tail call void @_ZN3I2C10write_byteEhh(i8 noundef zeroext %8, i8 noundef zeroext %9) #2, !dbg !6177
  ret void, !dbg !6178
}

; Function Attrs: mustprogress noinline nounwind
define dso_local void @_ZN15HT16K33_Segment14set_brightnessEj(%class.HT16K33_Segment* nocapture noundef nonnull readonly align 4 dereferenceable(36) %0, i32 noundef %1) local_unnamed_addr #4 align 2 !dbg !6179 {
  call void @llvm.dbg.value(metadata %class.HT16K33_Segment* %0, metadata !6181, metadata !DIExpression()), !dbg !6183
  call void @llvm.dbg.value(metadata i32 %1, metadata !6182, metadata !DIExpression()), !dbg !6183
  %3 = icmp ult i32 %1, 15, !dbg !6184
  %4 = select i1 %3, i32 %1, i32 15, !dbg !6184
  call void @llvm.dbg.value(metadata i32 %4, metadata !6182, metadata !DIExpression()), !dbg !6183
  %5 = getelementptr inbounds %class.HT16K33_Segment, %class.HT16K33_Segment* %0, i32 0, i32 2, !dbg !6186
  %6 = load i32, i32* %5, align 4, !dbg !6186, !tbaa !6155
  %7 = trunc i32 %6 to i8, !dbg !6186
  %8 = trunc i32 %4 to i8, !dbg !6187
  %9 = or i8 %8, -32, !dbg !6187
  tail call void @_ZN3I2C10write_byteEhh(i8 noundef zeroext %7, i8 noundef zeroext %9) #2, !dbg !6188
  ret void, !dbg !6189
}

; Function Attrs: mustprogress nofree noinline norecurse nosync nounwind writeonly
define dso_local noundef nonnull align 4 dereferenceable(36) %class.HT16K33_Segment* @_ZN15HT16K33_Segment5clearEv(%class.HT16K33_Segment* noundef nonnull returned writeonly align 4 dereferenceable(36) %0) local_unnamed_addr #12 align 2 !dbg !6190 {
  call void @llvm.dbg.value(metadata %class.HT16K33_Segment* %0, metadata !6192, metadata !DIExpression()), !dbg !6195
  call void @llvm.dbg.value(metadata i32 0, metadata !6193, metadata !DIExpression()), !dbg !6196
  %2 = getelementptr inbounds %class.HT16K33_Segment, %class.HT16K33_Segment* %0, i32 0, i32 0, i32 0, !dbg !6197
  call void @llvm.memset.p0i8.i32(i8* noundef nonnull align 4 dereferenceable(16) %2, i8 0, i32 16, i1 false), !dbg !6198, !tbaa !5842
  call void @llvm.dbg.value(metadata i32 undef, metadata !6193, metadata !DIExpression()), !dbg !6196
  call void @llvm.dbg.value(metadata i32 undef, metadata !6193, metadata !DIExpression(DW_OP_plus_uconst, 1, DW_OP_stack_value)), !dbg !6196
  ret %class.HT16K33_Segment* %0, !dbg !6200
}

; Function Attrs: mustprogress noinline nounwind
define dso_local void @_ZN15HT16K33_Segment4drawEv(%class.HT16K33_Segment* nocapture noundef nonnull readonly align 4 dereferenceable(36) %0) local_unnamed_addr #4 align 2 !dbg !6201 {
  %2 = getelementptr inbounds %class.HT16K33_Segment, %class.HT16K33_Segment* %0, i32 0, i32 0, i32 0
  %3 = alloca [17 x i8], align 1
  call void @llvm.dbg.value(metadata %class.HT16K33_Segment* %0, metadata !6203, metadata !DIExpression()), !dbg !6210
  %4 = getelementptr inbounds [17 x i8], [17 x i8]* %3, i32 0, i32 0, !dbg !6211
  call void @llvm.lifetime.start.p0i8(i64 17, i8* nonnull %4) #2, !dbg !6211
  call void @llvm.dbg.declare(metadata [17 x i8]* %3, metadata !6204, metadata !DIExpression()), !dbg !6212
  call void @llvm.dbg.value(metadata i32 0, metadata !6206, metadata !DIExpression()), !dbg !6213
  %5 = getelementptr inbounds [17 x i8], [17 x i8]* %3, i32 0, i32 0, !dbg !6214
  store i8 0, i8* %5, align 1, !dbg !6214
  call void @llvm.dbg.value(metadata i32 undef, metadata !6206, metadata !DIExpression()), !dbg !6213
  call void @llvm.dbg.value(metadata i32 undef, metadata !6206, metadata !DIExpression(DW_OP_plus_uconst, 1, DW_OP_stack_value)), !dbg !6213
  %6 = getelementptr inbounds [17 x i8], [17 x i8]* %3, i32 0, i32 1, !dbg !6216
  call void @llvm.memcpy.p0i8.p0i8.i32(i8* noundef nonnull align 1 dereferenceable(16) %6, i8* noundef nonnull align 4 dereferenceable(16) %2, i32 16, i1 false), !dbg !6217, !tbaa !5842
  call void @llvm.dbg.value(metadata i32 undef, metadata !6208, metadata !DIExpression()), !dbg !6220
  call void @llvm.dbg.value(metadata i32 undef, metadata !6208, metadata !DIExpression(DW_OP_plus_uconst, 1, DW_OP_stack_value)), !dbg !6220
  %7 = getelementptr inbounds %class.HT16K33_Segment, %class.HT16K33_Segment* %0, i32 0, i32 2, !dbg !6221
  %8 = load i32, i32* %7, align 4, !dbg !6221, !tbaa !6155
  %9 = trunc i32 %8 to i8, !dbg !6221
  call void @_ZN3I2C11write_blockEhPhh(i8 noundef zeroext %9, i8* noundef nonnull %4, i8 noundef zeroext 17) #2, !dbg !6222
  call void @llvm.lifetime.end.p0i8(i64 17, i8* nonnull %4) #2, !dbg !6223
  ret void, !dbg !6223
}

; Function Attrs: argmemonly nofree nounwind willreturn writeonly
declare void @llvm.memset.p0i8.i32(i8* nocapture writeonly, i8, i32, i1 immarg) #13

; Function Attrs: mustprogress nofree noinline norecurse nosync nounwind willreturn writeonly
define dso_local noundef nonnull align 4 dereferenceable(36) %class.HT16K33_Segment* @_ZN15HT16K33_Segment9set_colonEb(%class.HT16K33_Segment* noundef nonnull returned writeonly align 4 dereferenceable(36) %0, i1 noundef zeroext %1) local_unnamed_addr #11 align 2 !dbg !6224 {
  call void @llvm.dbg.value(metadata %class.HT16K33_Segment* %0, metadata !6226, metadata !DIExpression()), !dbg !6228
  call void @llvm.dbg.value(metadata i1 %1, metadata !6227, metadata !DIExpression(DW_OP_LLVM_convert, 1, DW_ATE_unsigned, DW_OP_LLVM_convert, 8, DW_ATE_unsigned, DW_OP_stack_value)), !dbg !6228
  %3 = select i1 %1, i8 2, i8 0, !dbg !6229
  %4 = getelementptr inbounds %class.HT16K33_Segment, %class.HT16K33_Segment* %0, i32 0, i32 0, i32 4, !dbg !6230
  store i8 %3, i8* %4, align 4, !dbg !6231, !tbaa !5842
  ret %class.HT16K33_Segment* %0, !dbg !6232
}

; Function Attrs: mustprogress nofree noinline norecurse nosync nounwind willreturn
define dso_local noundef nonnull align 4 dereferenceable(36) %class.HT16K33_Segment* @_ZN15HT16K33_Segment9set_glyphEjjb(%class.HT16K33_Segment* noundef nonnull returned align 4 dereferenceable(36) %0, i32 noundef %1, i32 noundef %2, i1 noundef zeroext %3) local_unnamed_addr #14 align 2 !dbg !6233 {
  call void @llvm.dbg.value(metadata %class.HT16K33_Segment* %0, metadata !6235, metadata !DIExpression()), !dbg !6239
  call void @llvm.dbg.value(metadata i32 %1, metadata !6236, metadata !DIExpression()), !dbg !6239
  call void @llvm.dbg.value(metadata i32 %2, metadata !6237, metadata !DIExpression()), !dbg !6239
  call void @llvm.dbg.value(metadata i1 %3, metadata !6238, metadata !DIExpression(DW_OP_LLVM_convert, 1, DW_ATE_unsigned, DW_OP_LLVM_convert, 8, DW_ATE_unsigned, DW_OP_stack_value)), !dbg !6239
  %5 = icmp ugt i32 %2, 4, !dbg !6240
  %6 = icmp ugt i32 %1, 255
  %7 = or i1 %6, %5, !dbg !6242
  br i1 %7, label %15, label %8, !dbg !6242

8:                                                ; preds = %4
  %9 = trunc i32 %1 to i8, !dbg !6243
  %10 = getelementptr inbounds [4 x i32], [4 x i32]* @_ZL3POS, i32 0, i32 %2, !dbg !6244
  %11 = load i32, i32* %10, align 4, !dbg !6244, !tbaa !5843
  %12 = getelementptr inbounds %class.HT16K33_Segment, %class.HT16K33_Segment* %0, i32 0, i32 0, i32 %11, !dbg !6245
  store i8 %9, i8* %12, align 1, !dbg !6246, !tbaa !5842
  br i1 %3, label %13, label %15, !dbg !6247

13:                                               ; preds = %8
  %14 = or i8 %9, -128, !dbg !6248
  store i8 %14, i8* %12, align 1, !dbg !6248, !tbaa !5842
  br label %15, !dbg !6250

15:                                               ; preds = %8, %13, %4
  ret %class.HT16K33_Segment* %0, !dbg !6251
}

; Function Attrs: mustprogress nofree noinline norecurse nosync nounwind willreturn
define dso_local noundef nonnull align 4 dereferenceable(36) %class.HT16K33_Segment* @_ZN15HT16K33_Segment10set_numberEjjb(%class.HT16K33_Segment* noundef nonnull align 4 dereferenceable(36) %0, i32 noundef %1, i32 noundef %2, i1 noundef zeroext %3) local_unnamed_addr #14 align 2 !dbg !6252 {
  call void @llvm.dbg.value(metadata %class.HT16K33_Segment* %0, metadata !6254, metadata !DIExpression()), !dbg !6258
  call void @llvm.dbg.value(metadata i32 %1, metadata !6255, metadata !DIExpression()), !dbg !6258
  call void @llvm.dbg.value(metadata i32 %2, metadata !6256, metadata !DIExpression()), !dbg !6258
  call void @llvm.dbg.value(metadata i1 %3, metadata !6257, metadata !DIExpression(DW_OP_LLVM_convert, 1, DW_ATE_unsigned, DW_OP_LLVM_convert, 8, DW_ATE_unsigned, DW_OP_stack_value)), !dbg !6258
  %5 = icmp ugt i32 %2, 4, !dbg !6259
  %6 = icmp ugt i32 %1, 9
  %7 = or i1 %6, %5, !dbg !6261
  br i1 %7, label %12, label %8, !dbg !6261

8:                                                ; preds = %4
  %9 = trunc i32 %1 to i8, !dbg !6262
  %10 = add nuw nsw i8 %9, 48, !dbg !6262
  %11 = tail call noundef nonnull align 4 dereferenceable(36) %class.HT16K33_Segment* @_ZN15HT16K33_Segment9set_alphaEcjb(%class.HT16K33_Segment* noundef nonnull align 4 dereferenceable(36) %0, i8 noundef zeroext %10, i32 noundef %2, i1 noundef zeroext %3), !dbg !6263
  br label %12, !dbg !6264

12:                                               ; preds = %4, %8
  ret %class.HT16K33_Segment* %0, !dbg !6265
}

; Function Attrs: mustprogress nofree noinline norecurse nosync nounwind willreturn
define dso_local noundef nonnull align 4 dereferenceable(36) %class.HT16K33_Segment* @_ZN15HT16K33_Segment9set_alphaEcjb(%class.HT16K33_Segment* noundef nonnull returned align 4 dereferenceable(36) %0, i8 noundef zeroext %1, i32 noundef %2, i1 noundef zeroext %3) local_unnamed_addr #14 align 2 !dbg !6266 {
  call void @llvm.dbg.value(metadata %class.HT16K33_Segment* %0, metadata !6268, metadata !DIExpression()), !dbg !6273
  call void @llvm.dbg.value(metadata i8 %1, metadata !6269, metadata !DIExpression()), !dbg !6273
  call void @llvm.dbg.value(metadata i32 %2, metadata !6270, metadata !DIExpression()), !dbg !6273
  call void @llvm.dbg.value(metadata i1 %3, metadata !6271, metadata !DIExpression(DW_OP_LLVM_convert, 1, DW_ATE_unsigned, DW_OP_LLVM_convert, 8, DW_ATE_unsigned, DW_OP_stack_value)), !dbg !6273
  %5 = icmp ugt i32 %2, 4, !dbg !6274
  br i1 %5, label %33, label %6, !dbg !6276

6:                                                ; preds = %4
  call void @llvm.dbg.value(metadata i8 -1, metadata !6272, metadata !DIExpression()), !dbg !6273
  %7 = zext i8 %1 to i32, !dbg !6277
  switch i8 %1, label %10 [
    i8 32, label %24
    i8 45, label %8
    i8 111, label %9
  ], !dbg !6279

8:                                                ; preds = %6
  call void @llvm.dbg.value(metadata i8 16, metadata !6272, metadata !DIExpression()), !dbg !6273
  br label %24, !dbg !6280

9:                                                ; preds = %6
  call void @llvm.dbg.value(metadata i8 17, metadata !6272, metadata !DIExpression()), !dbg !6273
  br label %24, !dbg !6283

10:                                               ; preds = %6
  %11 = add i8 %1, -97, !dbg !6286
  %12 = icmp ult i8 %11, 6, !dbg !6286
  br i1 %12, label %13, label %15, !dbg !6286

13:                                               ; preds = %10
  %14 = add nsw i32 %7, -87, !dbg !6288
  call void @llvm.dbg.value(metadata i32 %14, metadata !6272, metadata !DIExpression(DW_OP_LLVM_convert, 32, DW_ATE_unsigned, DW_OP_LLVM_convert, 8, DW_ATE_unsigned, DW_OP_stack_value)), !dbg !6273
  br label %20, !dbg !6290

15:                                               ; preds = %10
  %16 = add i8 %1, -48, !dbg !6291
  %17 = icmp ult i8 %16, 10, !dbg !6291
  %18 = add nsw i32 %7, -48
  %19 = select i1 %17, i32 %18, i32 255, !dbg !6291
  br label %20, !dbg !6291

20:                                               ; preds = %15, %13
  %21 = phi i32 [ %14, %13 ], [ %19, %15 ], !dbg !6273
  %22 = and i32 %21, 255, !dbg !6293
  call void @llvm.dbg.value(metadata i32 %21, metadata !6272, metadata !DIExpression()), !dbg !6273
  %23 = icmp eq i32 %22, 255, !dbg !6295
  br i1 %23, label %33, label %24, !dbg !6296

24:                                               ; preds = %6, %9, %8, %20
  %25 = phi i32 [ %22, %20 ], [ 0, %6 ], [ 17, %9 ], [ 16, %8 ]
  %26 = getelementptr inbounds [18 x i8], [18 x i8]* @_ZL7CHARSET, i32 0, i32 %25, !dbg !6297
  %27 = load i8, i8* %26, align 1, !dbg !6297, !tbaa !5842
  %28 = getelementptr inbounds [4 x i32], [4 x i32]* @_ZL3POS, i32 0, i32 %2, !dbg !6298
  %29 = load i32, i32* %28, align 4, !dbg !6298, !tbaa !5843
  %30 = getelementptr inbounds %class.HT16K33_Segment, %class.HT16K33_Segment* %0, i32 0, i32 0, i32 %29, !dbg !6299
  store i8 %27, i8* %30, align 1, !dbg !6300, !tbaa !5842
  br i1 %3, label %31, label %33, !dbg !6301

31:                                               ; preds = %24
  %32 = or i8 %27, -128, !dbg !6302
  store i8 %32, i8* %30, align 1, !dbg !6302, !tbaa !5842
  br label %33, !dbg !6304

33:                                               ; preds = %20, %31, %24, %4
  ret %class.HT16K33_Segment* %0, !dbg !6305
}

; Function Attrs: noinline nounwind
define internal void @_GLOBAL__sub_I_i2c_utils.cpp() #0 !dbg !6306 {
  tail call fastcc void @__cxx_global_var_init.21(), !dbg !6307
  ret void
}

; Function Attrs: noinline nounwind
define internal fastcc void @__cxx_global_var_init.21() unnamed_addr #0 !dbg !6308 {
  %1 = tail call noundef %"class.std::ios_base::Init"* @_ZNSt8ios_base4InitC1Ev(%"class.std::ios_base::Init"* noundef nonnull align 1 dereferenceable(1) @_ZStL8__ioinit.22) #2, !dbg !6309
  %2 = tail call i32 @atexit(void ()* nonnull @__dtor__ZStL8__ioinit.23) #2, !dbg !6311
  ret void, !dbg !6309
}

; Function Attrs: noinline nounwind
define internal void @__dtor__ZStL8__ioinit.23() #0 !dbg !6312 {
  %1 = tail call %"class.std::ios_base::Init"* @_ZNSt8ios_base4InitD1Ev(%"class.std::ios_base::Init"* @_ZStL8__ioinit.22), !dbg !6313
  ret void, !dbg !6314
}

; Function Attrs: mustprogress noinline nounwind
define dso_local void @_ZN3I2C5setupEv() local_unnamed_addr #4 !dbg !6315 {
  %1 = tail call i32 @i2c_init(%struct.i2c_inst* noundef nonnull @i2c1_inst, i32 noundef 400000) #2, !dbg !6318
  tail call void @gpio_set_function(i32 noundef 2, i32 noundef 3) #2, !dbg !6319
  tail call void @gpio_set_function(i32 noundef 3, i32 noundef 3) #2, !dbg !6320
  tail call fastcc void @_ZL12gpio_pull_upj(i32 noundef 2), !dbg !6321
  tail call fastcc void @_ZL12gpio_pull_upj(i32 noundef 3), !dbg !6322
  ret void, !dbg !6323
}

; Function Attrs: mustprogress noinline nounwind
define internal fastcc void @_ZL12gpio_pull_upj(i32 noundef %0) unnamed_addr #4 !dbg !6324 {
  call void @llvm.dbg.value(metadata i32 %0, metadata !6326, metadata !DIExpression()), !dbg !6327
  tail call void @gpio_set_pulls(i32 noundef %0, i1 noundef zeroext true, i1 noundef zeroext false) #2, !dbg !6328
  ret void, !dbg !6329
}

; Function Attrs: mustprogress noinline nounwind
define dso_local void @_ZN3I2C10write_byteEhh(i8 noundef zeroext %0, i8 noundef zeroext %1) local_unnamed_addr #4 !dbg !6330 {
  %3 = alloca i8, align 1
  call void @llvm.dbg.value(metadata i8 %0, metadata !6334, metadata !DIExpression()), !dbg !6336
  call void @llvm.dbg.value(metadata i8 %1, metadata !6335, metadata !DIExpression()), !dbg !6336
  store i8 %1, i8* %3, align 1, !tbaa !5842
  call void @llvm.dbg.value(metadata i8* %3, metadata !6335, metadata !DIExpression(DW_OP_deref)), !dbg !6336
  %4 = call i32 @i2c_write_blocking(%struct.i2c_inst* noundef nonnull @i2c1_inst, i8 noundef zeroext %0, i8* noundef nonnull %3, i32 noundef 1, i1 noundef zeroext false) #2, !dbg !6337
  ret void, !dbg !6338
}

; Function Attrs: mustprogress noinline nounwind
define dso_local void @_ZN3I2C11write_blockEhPhh(i8 noundef zeroext %0, i8* noundef %1, i8 noundef zeroext %2) local_unnamed_addr #4 !dbg !6339 {
  call void @llvm.dbg.value(metadata i8 %0, metadata !6343, metadata !DIExpression()), !dbg !6346
  call void @llvm.dbg.value(metadata i8* %1, metadata !6344, metadata !DIExpression()), !dbg !6346
  call void @llvm.dbg.value(metadata i8 %2, metadata !6345, metadata !DIExpression()), !dbg !6346
  %4 = zext i8 %2 to i32, !dbg !6347
  %5 = tail call i32 @i2c_write_blocking(%struct.i2c_inst* noundef nonnull @i2c1_inst, i8 noundef zeroext %0, i8* noundef %1, i32 noundef %4, i1 noundef zeroext false) #2, !dbg !6348
  ret void, !dbg !6349
}

; Function Attrs: mustprogress noinline nounwind
define dso_local void @_ZN3I2C10read_blockEhPhh(i8 noundef zeroext %0, i8* noundef %1, i8 noundef zeroext %2) local_unnamed_addr #4 !dbg !6350 {
  call void @llvm.dbg.value(metadata i8 %0, metadata !6352, metadata !DIExpression()), !dbg !6355
  call void @llvm.dbg.value(metadata i8* %1, metadata !6353, metadata !DIExpression()), !dbg !6355
  call void @llvm.dbg.value(metadata i8 %2, metadata !6354, metadata !DIExpression()), !dbg !6355
  %4 = zext i8 %2 to i32, !dbg !6356
  %5 = tail call i32 @i2c_read_blocking(%struct.i2c_inst* noundef nonnull @i2c1_inst, i8 noundef zeroext %0, i8* noundef %1, i32 noundef %4, i1 noundef zeroext false) #2, !dbg !6357
  ret void, !dbg !6358
}

; Function Attrs: noinline nounwind
define internal void @_GLOBAL__sub_I_utils.cpp() #0 !dbg !6359 {
  tail call fastcc void @__cxx_global_var_init.31(), !dbg !6360
  ret void
}

; Function Attrs: noinline nounwind
define internal fastcc void @__cxx_global_var_init.31() unnamed_addr #0 !dbg !6361 {
  %1 = tail call noundef %"class.std::ios_base::Init"* @_ZNSt8ios_base4InitC1Ev(%"class.std::ios_base::Init"* noundef nonnull align 1 dereferenceable(1) @_ZStL8__ioinit.32) #2, !dbg !6362
  %2 = tail call i32 @atexit(void ()* nonnull @__dtor__ZStL8__ioinit.33) #2, !dbg !6364
  ret void, !dbg !6362
}

; Function Attrs: noinline nounwind
define internal void @__dtor__ZStL8__ioinit.33() #0 !dbg !6365 {
  %1 = tail call %"class.std::ios_base::Init"* @_ZNSt8ios_base4InitD1Ev(%"class.std::ios_base::Init"* @_ZStL8__ioinit.32), !dbg !6366
  ret void, !dbg !6367
}

; Function Attrs: mustprogress noinline nounwind
define dso_local void @_ZN5Utils14split_to_linesENSt7__cxx1112basic_stringIcSt11char_traitsIcESaIcEEES5_(%"class.std::vector"* noalias nonnull sret(%"class.std::vector") align 4 %0, %"class.std::__cxx11::basic_string"* noundef %1, %"class.std::__cxx11::basic_string"* noundef %2) local_unnamed_addr #4 !dbg !6368 {
  %4 = alloca %"class.std::__cxx11::basic_string", align 4
  %5 = alloca %"class.std::__cxx11::basic_string", align 4
  call void @llvm.dbg.value(metadata i8* undef, metadata !6375, metadata !DIExpression(DW_OP_deref)), !dbg !6378
  call void @llvm.dbg.declare(metadata %"class.std::__cxx11::basic_string"* %1, metadata !6373, metadata !DIExpression()), !dbg !6379
  call void @llvm.dbg.declare(metadata %"class.std::__cxx11::basic_string"* %2, metadata !6374, metadata !DIExpression()), !dbg !6380
  %6 = tail call noundef %"class.std::vector"* @_ZNSt6vectorINSt7__cxx1112basic_stringIcSt11char_traitsIcESaIcEEESaIS5_EEC2Ev(%"class.std::vector"* noundef nonnull align 4 dereferenceable(12) %0) #2, !dbg !6381
  %7 = call noundef i32 @_ZNKSt7__cxx1112basic_stringIcSt11char_traitsIcESaIcEE6lengthEv(%"class.std::__cxx11::basic_string"* noundef nonnull align 4 dereferenceable(24) %1) #2, !dbg !6382
  %8 = icmp eq i32 %7, 0, !dbg !6383
  br i1 %8, label %24, label %9, !dbg !6384

9:                                                ; preds = %3
  %10 = bitcast %"class.std::__cxx11::basic_string"* %4 to i8*
  %11 = bitcast %"class.std::__cxx11::basic_string"* %5 to i8*
  br label %12, !dbg !6384

12:                                               ; preds = %9, %16
  %13 = call noundef i32 @_ZNKSt7__cxx1112basic_stringIcSt11char_traitsIcESaIcEE4findERKS4_j(%"class.std::__cxx11::basic_string"* noundef nonnull align 4 dereferenceable(24) %1, %"class.std::__cxx11::basic_string"* noundef nonnull align 4 dereferenceable(24) %2, i32 noundef 0) #2, !dbg !6385
  call void @llvm.dbg.value(metadata i32 %13, metadata !6376, metadata !DIExpression()), !dbg !6386
  %14 = icmp eq i32 %13, -1, !dbg !6387
  br i1 %14, label %15, label %16, !dbg !6389

15:                                               ; preds = %12
  call void @_ZNSt6vectorINSt7__cxx1112basic_stringIcSt11char_traitsIcESaIcEEESaIS5_EE9push_backERKS5_(%"class.std::vector"* noundef nonnull align 4 dereferenceable(12) %0, %"class.std::__cxx11::basic_string"* noundef nonnull align 4 dereferenceable(24) %1), !dbg !6390
  br label %24

16:                                               ; preds = %12
  call void @llvm.lifetime.start.p0i8(i64 24, i8* nonnull %10) #2, !dbg !6392
  call void @_ZNKSt7__cxx1112basic_stringIcSt11char_traitsIcESaIcEE6substrEjj(%"class.std::__cxx11::basic_string"* nonnull sret(%"class.std::__cxx11::basic_string") align 4 %4, %"class.std::__cxx11::basic_string"* noundef nonnull align 4 dereferenceable(24) %1, i32 noundef 0, i32 noundef %13), !dbg !6394
  call void @_ZNSt6vectorINSt7__cxx1112basic_stringIcSt11char_traitsIcESaIcEEESaIS5_EE9push_backEOS5_(%"class.std::vector"* noundef nonnull align 4 dereferenceable(12) %0, %"class.std::__cxx11::basic_string"* noundef nonnull align 4 dereferenceable(24) %4), !dbg !6395
  %17 = call noundef %"class.std::__cxx11::basic_string"* @_ZNSt7__cxx1112basic_stringIcSt11char_traitsIcESaIcEED2Ev(%"class.std::__cxx11::basic_string"* noundef nonnull align 4 dereferenceable(24) %4) #2, !dbg !6396
  call void @llvm.lifetime.end.p0i8(i64 24, i8* nonnull %10) #2, !dbg !6396
  call void @llvm.lifetime.start.p0i8(i64 24, i8* nonnull %11) #2, !dbg !6397
  %18 = call noundef i32 @_ZNKSt7__cxx1112basic_stringIcSt11char_traitsIcESaIcEE6lengthEv(%"class.std::__cxx11::basic_string"* noundef nonnull align 4 dereferenceable(24) %2) #2, !dbg !6398
  %19 = add i32 %18, %13, !dbg !6399
  call void @_ZNKSt7__cxx1112basic_stringIcSt11char_traitsIcESaIcEE6substrEjj(%"class.std::__cxx11::basic_string"* nonnull sret(%"class.std::__cxx11::basic_string") align 4 %5, %"class.std::__cxx11::basic_string"* noundef nonnull align 4 dereferenceable(24) %1, i32 noundef %19, i32 noundef -1), !dbg !6400
  %20 = call noundef nonnull align 4 dereferenceable(24) %"class.std::__cxx11::basic_string"* @_ZNSt7__cxx1112basic_stringIcSt11char_traitsIcESaIcEEaSEOS4_(%"class.std::__cxx11::basic_string"* noundef nonnull align 4 dereferenceable(24) %1, %"class.std::__cxx11::basic_string"* noundef nonnull align 4 dereferenceable(24) %5) #2, !dbg !6401
  %21 = call noundef %"class.std::__cxx11::basic_string"* @_ZNSt7__cxx1112basic_stringIcSt11char_traitsIcESaIcEED2Ev(%"class.std::__cxx11::basic_string"* noundef nonnull align 4 dereferenceable(24) %5) #2, !dbg !6402
  call void @llvm.lifetime.end.p0i8(i64 24, i8* nonnull %11) #2, !dbg !6402
  %22 = call noundef i32 @_ZNKSt7__cxx1112basic_stringIcSt11char_traitsIcESaIcEE6lengthEv(%"class.std::__cxx11::basic_string"* noundef nonnull align 4 dereferenceable(24) %1) #2, !dbg !6382
  %23 = icmp eq i32 %22, 0, !dbg !6383
  br i1 %23, label %24, label %12, !dbg !6384

24:                                               ; preds = %16, %3, %15
  ret void, !dbg !6403
}

; Function Attrs: noinline nounwind
define linkonce_odr dso_local noundef %"class.std::vector"* @_ZNSt6vectorINSt7__cxx1112basic_stringIcSt11char_traitsIcESaIcEEESaIS5_EEC2Ev(%"class.std::vector"* noundef nonnull returned align 4 dereferenceable(12) %0) unnamed_addr #0 comdat align 2 !dbg !6404 {
  call void @llvm.dbg.value(metadata %"class.std::vector"* %0, metadata !6406, metadata !DIExpression()), !dbg !6408
  %2 = getelementptr inbounds %"class.std::vector", %"class.std::vector"* %0, i32 0, i32 0, !dbg !6409
  %3 = tail call noundef %"struct.std::_Vector_base"* @_ZNSt12_Vector_baseINSt7__cxx1112basic_stringIcSt11char_traitsIcESaIcEEESaIS5_EEC2Ev(%"struct.std::_Vector_base"* noundef nonnull align 4 dereferenceable(12) %2) #2, !dbg !6410
  ret %"class.std::vector"* %0, !dbg !6409
}

; Function Attrs: mustprogress noinline nounwind
declare dso_local noundef i32 @_ZNKSt7__cxx1112basic_stringIcSt11char_traitsIcESaIcEE4findERKS4_j(%"class.std::__cxx11::basic_string"* noundef nonnull align 4 dereferenceable(24), %"class.std::__cxx11::basic_string"* noundef nonnull align 4 dereferenceable(24), i32 noundef) local_unnamed_addr #4 align 2

; Function Attrs: mustprogress noinline nounwind
define linkonce_odr dso_local void @_ZNSt6vectorINSt7__cxx1112basic_stringIcSt11char_traitsIcESaIcEEESaIS5_EE9push_backERKS5_(%"class.std::vector"* noundef nonnull align 4 dereferenceable(12) %0, %"class.std::__cxx11::basic_string"* noundef nonnull align 4 dereferenceable(24) %1) local_unnamed_addr #4 comdat align 2 !dbg !6411 {
  call void @llvm.dbg.value(metadata %"class.std::vector"* %0, metadata !6413, metadata !DIExpression()), !dbg !6415
  call void @llvm.dbg.value(metadata %"class.std::__cxx11::basic_string"* %1, metadata !6414, metadata !DIExpression()), !dbg !6415
  %3 = getelementptr inbounds %"class.std::vector", %"class.std::vector"* %0, i32 0, i32 0, i32 0, i32 0, i32 1, !dbg !6416
  %4 = load %"class.std::__cxx11::basic_string"*, %"class.std::__cxx11::basic_string"** %3, align 4, !dbg !6416, !tbaa !6418
  %5 = getelementptr inbounds %"class.std::vector", %"class.std::vector"* %0, i32 0, i32 0, i32 0, i32 0, i32 2, !dbg !6420
  %6 = load %"class.std::__cxx11::basic_string"*, %"class.std::__cxx11::basic_string"** %5, align 4, !dbg !6420, !tbaa !6421
  %7 = icmp eq %"class.std::__cxx11::basic_string"* %4, %6, !dbg !6422
  br i1 %7, label %12, label %8, !dbg !6423

8:                                                ; preds = %2
  %9 = bitcast %"class.std::vector"* %0 to %"class.std::ios_base::Init"*, !dbg !6424
  tail call void @_ZNSt16allocator_traitsISaINSt7__cxx1112basic_stringIcSt11char_traitsIcESaIcEEEEE9constructIS5_JRKS5_EEEvRS6_PT_DpOT0_(%"class.std::ios_base::Init"* noundef nonnull align 1 dereferenceable(1) %9, %"class.std::__cxx11::basic_string"* noundef %4, %"class.std::__cxx11::basic_string"* noundef nonnull align 4 dereferenceable(24) %1), !dbg !6426
  %10 = load %"class.std::__cxx11::basic_string"*, %"class.std::__cxx11::basic_string"** %3, align 4, !dbg !6427, !tbaa !6418
  %11 = getelementptr inbounds %"class.std::__cxx11::basic_string", %"class.std::__cxx11::basic_string"* %10, i32 1, !dbg !6427
  store %"class.std::__cxx11::basic_string"* %11, %"class.std::__cxx11::basic_string"** %3, align 4, !dbg !6427, !tbaa !6418
  br label %15, !dbg !6428

12:                                               ; preds = %2
  %13 = tail call i32 @_ZNSt6vectorINSt7__cxx1112basic_stringIcSt11char_traitsIcESaIcEEESaIS5_EE3endEv(%"class.std::vector"* noundef nonnull align 4 dereferenceable(12) %0) #2, !dbg !6429
  %14 = insertvalue [1 x i32] poison, i32 %13, 0, !dbg !6430
  tail call void @_ZNSt6vectorINSt7__cxx1112basic_stringIcSt11char_traitsIcESaIcEEESaIS5_EE17_M_realloc_insertIJRKS5_EEEvN9__gnu_cxx17__normal_iteratorIPS5_S7_EEDpOT_(%"class.std::vector"* noundef nonnull align 4 dereferenceable(12) %0, [1 x i32] %14, %"class.std::__cxx11::basic_string"* noundef nonnull align 4 dereferenceable(24) %1), !dbg !6430
  br label %15

15:                                               ; preds = %12, %8
  ret void, !dbg !6431
}

; Function Attrs: mustprogress noinline nounwind
declare dso_local void @_ZNKSt7__cxx1112basic_stringIcSt11char_traitsIcESaIcEE6substrEjj(%"class.std::__cxx11::basic_string"* noalias sret(%"class.std::__cxx11::basic_string") align 4, %"class.std::__cxx11::basic_string"* noundef nonnull align 4 dereferenceable(24), i32 noundef, i32 noundef) local_unnamed_addr #4 align 2

; Function Attrs: mustprogress noinline nounwind
define linkonce_odr dso_local void @_ZNSt6vectorINSt7__cxx1112basic_stringIcSt11char_traitsIcESaIcEEESaIS5_EE9push_backEOS5_(%"class.std::vector"* noundef nonnull align 4 dereferenceable(12) %0, %"class.std::__cxx11::basic_string"* noundef nonnull align 4 dereferenceable(24) %1) local_unnamed_addr #4 comdat align 2 !dbg !6432 {
  call void @llvm.dbg.value(metadata %"class.std::vector"* %0, metadata !6434, metadata !DIExpression()), !dbg !6436
  call void @llvm.dbg.value(metadata %"class.std::__cxx11::basic_string"* %1, metadata !6435, metadata !DIExpression()), !dbg !6436
  %3 = tail call noundef nonnull align 4 dereferenceable(24) %"class.std::__cxx11::basic_string"* @_ZSt4moveIRNSt7__cxx1112basic_stringIcSt11char_traitsIcESaIcEEEEONSt16remove_referenceIT_E4typeEOS8_(%"class.std::__cxx11::basic_string"* noundef nonnull align 4 dereferenceable(24) %1) #2, !dbg !6437
  tail call void @_ZNSt6vectorINSt7__cxx1112basic_stringIcSt11char_traitsIcESaIcEEESaIS5_EE12emplace_backIJS5_EEEvDpOT_(%"class.std::vector"* noundef nonnull align 4 dereferenceable(12) %0, %"class.std::__cxx11::basic_string"* noundef nonnull align 4 dereferenceable(24) %3), !dbg !6438
  ret void, !dbg !6439
}

; Function Attrs: mustprogress noinline nounwind
declare dso_local noundef nonnull align 4 dereferenceable(24) %"class.std::__cxx11::basic_string"* @_ZNSt7__cxx1112basic_stringIcSt11char_traitsIcESaIcEEaSEOS4_(%"class.std::__cxx11::basic_string"* noundef nonnull align 4 dereferenceable(24), %"class.std::__cxx11::basic_string"* noundef nonnull align 4 dereferenceable(24)) local_unnamed_addr #4 align 2

; Function Attrs: mustprogress noinline nounwind
define linkonce_odr dso_local noundef nonnull align 4 dereferenceable(24) %"class.std::__cxx11::basic_string"* @_ZSt4moveIRNSt7__cxx1112basic_stringIcSt11char_traitsIcESaIcEEEEONSt16remove_referenceIT_E4typeEOS8_(%"class.std::__cxx11::basic_string"* noundef nonnull align 4 dereferenceable(24) %0) local_unnamed_addr #4 comdat !dbg !6440 {
  call void @llvm.dbg.value(metadata %"class.std::__cxx11::basic_string"* %0, metadata !6450, metadata !DIExpression()), !dbg !6451
  ret %"class.std::__cxx11::basic_string"* %0, !dbg !6452
}

; Function Attrs: mustprogress noinline nounwind
define linkonce_odr dso_local void @_ZNSt6vectorINSt7__cxx1112basic_stringIcSt11char_traitsIcESaIcEEESaIS5_EE12emplace_backIJS5_EEEvDpOT_(%"class.std::vector"* noundef nonnull align 4 dereferenceable(12) %0, %"class.std::__cxx11::basic_string"* noundef nonnull align 4 dereferenceable(24) %1) local_unnamed_addr #4 comdat align 2 !dbg !6453 {
  call void @llvm.dbg.value(metadata %"class.std::vector"* %0, metadata !6462, metadata !DIExpression()), !dbg !6464
  call void @llvm.dbg.value(metadata %"class.std::__cxx11::basic_string"* %1, metadata !6463, metadata !DIExpression()), !dbg !6464
  %3 = getelementptr inbounds %"class.std::vector", %"class.std::vector"* %0, i32 0, i32 0, i32 0, i32 0, i32 1, !dbg !6465
  %4 = load %"class.std::__cxx11::basic_string"*, %"class.std::__cxx11::basic_string"** %3, align 4, !dbg !6465, !tbaa !6418
  %5 = getelementptr inbounds %"class.std::vector", %"class.std::vector"* %0, i32 0, i32 0, i32 0, i32 0, i32 2, !dbg !6467
  %6 = load %"class.std::__cxx11::basic_string"*, %"class.std::__cxx11::basic_string"** %5, align 4, !dbg !6467, !tbaa !6421
  %7 = icmp eq %"class.std::__cxx11::basic_string"* %4, %6, !dbg !6468
  br i1 %7, label %13, label %8, !dbg !6469

8:                                                ; preds = %2
  %9 = bitcast %"class.std::vector"* %0 to %"class.std::ios_base::Init"*, !dbg !6470
  %10 = tail call noundef nonnull align 4 dereferenceable(24) %"class.std::__cxx11::basic_string"* @_ZSt7forwardINSt7__cxx1112basic_stringIcSt11char_traitsIcESaIcEEEEOT_RNSt16remove_referenceIS6_E4typeE(%"class.std::__cxx11::basic_string"* noundef nonnull align 4 dereferenceable(24) %1) #2, !dbg !6472
  tail call void @_ZNSt16allocator_traitsISaINSt7__cxx1112basic_stringIcSt11char_traitsIcESaIcEEEEE9constructIS5_JS5_EEEvRS6_PT_DpOT0_(%"class.std::ios_base::Init"* noundef nonnull align 1 dereferenceable(1) %9, %"class.std::__cxx11::basic_string"* noundef %4, %"class.std::__cxx11::basic_string"* noundef nonnull align 4 dereferenceable(24) %10) #2, !dbg !6473
  %11 = load %"class.std::__cxx11::basic_string"*, %"class.std::__cxx11::basic_string"** %3, align 4, !dbg !6474, !tbaa !6418
  %12 = getelementptr inbounds %"class.std::__cxx11::basic_string", %"class.std::__cxx11::basic_string"* %11, i32 1, !dbg !6474
  store %"class.std::__cxx11::basic_string"* %12, %"class.std::__cxx11::basic_string"** %3, align 4, !dbg !6474, !tbaa !6418
  br label %17, !dbg !6475

13:                                               ; preds = %2
  %14 = tail call i32 @_ZNSt6vectorINSt7__cxx1112basic_stringIcSt11char_traitsIcESaIcEEESaIS5_EE3endEv(%"class.std::vector"* noundef nonnull align 4 dereferenceable(12) %0) #2, !dbg !6476
  %15 = tail call noundef nonnull align 4 dereferenceable(24) %"class.std::__cxx11::basic_string"* @_ZSt7forwardINSt7__cxx1112basic_stringIcSt11char_traitsIcESaIcEEEEOT_RNSt16remove_referenceIS6_E4typeE(%"class.std::__cxx11::basic_string"* noundef nonnull align 4 dereferenceable(24) %1) #2, !dbg !6477
  %16 = insertvalue [1 x i32] poison, i32 %14, 0, !dbg !6478
  tail call void @_ZNSt6vectorINSt7__cxx1112basic_stringIcSt11char_traitsIcESaIcEEESaIS5_EE17_M_realloc_insertIJS5_EEEvN9__gnu_cxx17__normal_iteratorIPS5_S7_EEDpOT_(%"class.std::vector"* noundef nonnull align 4 dereferenceable(12) %0, [1 x i32] %16, %"class.std::__cxx11::basic_string"* noundef nonnull align 4 dereferenceable(24) %15), !dbg !6478
  br label %17

17:                                               ; preds = %13, %8
  ret void, !dbg !6479
}

; Function Attrs: mustprogress noinline nounwind
define linkonce_odr dso_local noundef nonnull align 4 dereferenceable(24) %"class.std::__cxx11::basic_string"* @_ZSt7forwardINSt7__cxx1112basic_stringIcSt11char_traitsIcESaIcEEEEOT_RNSt16remove_referenceIS6_E4typeE(%"class.std::__cxx11::basic_string"* noundef nonnull align 4 dereferenceable(24) %0) local_unnamed_addr #4 comdat !dbg !6480 {
  call void @llvm.dbg.value(metadata %"class.std::__cxx11::basic_string"* %0, metadata !6487, metadata !DIExpression()), !dbg !6488
  ret %"class.std::__cxx11::basic_string"* %0, !dbg !6489
}

; Function Attrs: mustprogress noinline nounwind
define linkonce_odr dso_local void @_ZNSt16allocator_traitsISaINSt7__cxx1112basic_stringIcSt11char_traitsIcESaIcEEEEE9constructIS5_JS5_EEEvRS6_PT_DpOT0_(%"class.std::ios_base::Init"* noundef nonnull align 1 dereferenceable(1) %0, %"class.std::__cxx11::basic_string"* noundef %1, %"class.std::__cxx11::basic_string"* noundef nonnull align 4 dereferenceable(24) %2) local_unnamed_addr #4 comdat align 2 !dbg !6490 {
  call void @llvm.dbg.value(metadata %"class.std::ios_base::Init"* %0, metadata !6497, metadata !DIExpression()), !dbg !6500
  call void @llvm.dbg.value(metadata %"class.std::__cxx11::basic_string"* %1, metadata !6498, metadata !DIExpression()), !dbg !6500
  call void @llvm.dbg.value(metadata %"class.std::__cxx11::basic_string"* %2, metadata !6499, metadata !DIExpression()), !dbg !6500
  %4 = bitcast %"class.std::ios_base::Init"* %0 to %"class.std::ios_base::Init"*, !dbg !6501
  %5 = tail call noundef nonnull align 4 dereferenceable(24) %"class.std::__cxx11::basic_string"* @_ZSt7forwardINSt7__cxx1112basic_stringIcSt11char_traitsIcESaIcEEEEOT_RNSt16remove_referenceIS6_E4typeE(%"class.std::__cxx11::basic_string"* noundef nonnull align 4 dereferenceable(24) %2) #2, !dbg !6502
  tail call void @_ZN9__gnu_cxx13new_allocatorINSt7__cxx1112basic_stringIcSt11char_traitsIcESaIcEEEE9constructIS6_JS6_EEEvPT_DpOT0_(%"class.std::ios_base::Init"* noundef nonnull align 1 dereferenceable(1) %4, %"class.std::__cxx11::basic_string"* noundef %1, %"class.std::__cxx11::basic_string"* noundef nonnull align 4 dereferenceable(24) %5) #2, !dbg !6503
  ret void, !dbg !6504
}

; Function Attrs: mustprogress noinline nounwind
define linkonce_odr dso_local i32 @_ZNSt6vectorINSt7__cxx1112basic_stringIcSt11char_traitsIcESaIcEEESaIS5_EE3endEv(%"class.std::vector"* noundef nonnull align 4 dereferenceable(12) %0) local_unnamed_addr #4 comdat align 2 !dbg !6505 {
  %2 = alloca %"class.__gnu_cxx::__normal_iterator.3", align 4
  call void @llvm.dbg.value(metadata %"class.std::vector"* %0, metadata !6507, metadata !DIExpression()), !dbg !6508
  %3 = getelementptr inbounds %"class.std::vector", %"class.std::vector"* %0, i32 0, i32 0, i32 0, i32 0, i32 1, !dbg !6509
  %4 = call noundef %"class.__gnu_cxx::__normal_iterator.3"* @_ZN9__gnu_cxx17__normal_iteratorIPNSt7__cxx1112basic_stringIcSt11char_traitsIcESaIcEEESt6vectorIS6_SaIS6_EEEC2ERKS7_(%"class.__gnu_cxx::__normal_iterator.3"* noundef nonnull align 4 dereferenceable(4) %2, %"class.std::__cxx11::basic_string"** noundef nonnull align 4 dereferenceable(4) %3) #2, !dbg !6510
  %5 = getelementptr inbounds %"class.__gnu_cxx::__normal_iterator.3", %"class.__gnu_cxx::__normal_iterator.3"* %2, i32 0, i32 0, !dbg !6511
  %6 = load %"class.std::__cxx11::basic_string"*, %"class.std::__cxx11::basic_string"** %5, align 4, !dbg !6511
  %7 = ptrtoint %"class.std::__cxx11::basic_string"* %6 to i32, !dbg !6511
  ret i32 %7, !dbg !6511
}

; Function Attrs: mustprogress noinline nounwind
define linkonce_odr dso_local void @_ZNSt6vectorINSt7__cxx1112basic_stringIcSt11char_traitsIcESaIcEEESaIS5_EE17_M_realloc_insertIJS5_EEEvN9__gnu_cxx17__normal_iteratorIPS5_S7_EEDpOT_(%"class.std::vector"* noundef nonnull align 4 dereferenceable(12) %0, [1 x i32] %1, %"class.std::__cxx11::basic_string"* noundef nonnull align 4 dereferenceable(24) %2) local_unnamed_addr #4 comdat align 2 !dbg !6512 {
  %4 = alloca %"class.__gnu_cxx::__normal_iterator.3", align 4
  %5 = alloca %"class.__gnu_cxx::__normal_iterator.3", align 4
  %6 = extractvalue [1 x i32] %1, 0
  %7 = bitcast %"class.__gnu_cxx::__normal_iterator.3"* %4 to i32*
  store i32 %6, i32* %7, align 4
  call void @llvm.dbg.value(metadata %"class.std::vector"* %0, metadata !6517, metadata !DIExpression()), !dbg !6527
  call void @llvm.dbg.declare(metadata %"class.__gnu_cxx::__normal_iterator.3"* %4, metadata !6518, metadata !DIExpression()), !dbg !6528
  call void @llvm.dbg.value(metadata %"class.std::__cxx11::basic_string"* %2, metadata !6519, metadata !DIExpression()), !dbg !6527
  %8 = tail call noundef i32 @_ZNKSt6vectorINSt7__cxx1112basic_stringIcSt11char_traitsIcESaIcEEESaIS5_EE12_M_check_lenEjPKc(%"class.std::vector"* noundef nonnull align 4 dereferenceable(12) %0, i32 noundef 1, i8* noundef getelementptr inbounds ([26 x i8], [26 x i8]* @.str.11, i32 0, i32 0)), !dbg !6529
  call void @llvm.dbg.value(metadata i32 %8, metadata !6520, metadata !DIExpression()), !dbg !6527
  %9 = getelementptr inbounds %"class.std::vector", %"class.std::vector"* %0, i32 0, i32 0, !dbg !6530
  %10 = getelementptr inbounds %"class.std::vector", %"class.std::vector"* %0, i32 0, i32 0, i32 0, i32 0, i32 0, !dbg !6531
  %11 = load %"class.std::__cxx11::basic_string"*, %"class.std::__cxx11::basic_string"** %10, align 4, !dbg !6531, !tbaa !6532
  call void @llvm.dbg.value(metadata %"class.std::__cxx11::basic_string"* %11, metadata !6522, metadata !DIExpression()), !dbg !6527
  %12 = getelementptr inbounds %"class.std::vector", %"class.std::vector"* %0, i32 0, i32 0, i32 0, i32 0, i32 1, !dbg !6533
  %13 = load %"class.std::__cxx11::basic_string"*, %"class.std::__cxx11::basic_string"** %12, align 4, !dbg !6533, !tbaa !6418
  call void @llvm.dbg.value(metadata %"class.std::__cxx11::basic_string"* %13, metadata !6523, metadata !DIExpression()), !dbg !6527
  %14 = bitcast %"class.__gnu_cxx::__normal_iterator.3"* %5 to i8*, !dbg !6534
  call void @llvm.lifetime.start.p0i8(i64 4, i8* nonnull %14) #2, !dbg !6534
  %15 = tail call i32 @_ZNSt6vectorINSt7__cxx1112basic_stringIcSt11char_traitsIcESaIcEEESaIS5_EE5beginEv(%"class.std::vector"* noundef nonnull align 4 dereferenceable(12) %0) #2, !dbg !6534
  %16 = getelementptr inbounds %"class.__gnu_cxx::__normal_iterator.3", %"class.__gnu_cxx::__normal_iterator.3"* %5, i32 0, i32 0, !dbg !6534
  %17 = inttoptr i32 %15 to %"class.std::__cxx11::basic_string"*, !dbg !6534
  store %"class.std::__cxx11::basic_string"* %17, %"class.std::__cxx11::basic_string"** %16, align 4, !dbg !6534
  %18 = call noundef i32 @_ZN9__gnu_cxxmiIPNSt7__cxx1112basic_stringIcSt11char_traitsIcESaIcEEESt6vectorIS6_SaIS6_EEEENS_17__normal_iteratorIT_T0_E15difference_typeERKSE_SH_(%"class.__gnu_cxx::__normal_iterator.3"* noundef nonnull align 4 dereferenceable(4) %4, %"class.__gnu_cxx::__normal_iterator.3"* noundef nonnull align 4 dereferenceable(4) %5) #2, !dbg !6535
  call void @llvm.lifetime.end.p0i8(i64 4, i8* nonnull %14) #2, !dbg !6536
  call void @llvm.dbg.value(metadata i32 %18, metadata !6524, metadata !DIExpression()), !dbg !6527
  %19 = call noundef %"class.std::__cxx11::basic_string"* @_ZNSt12_Vector_baseINSt7__cxx1112basic_stringIcSt11char_traitsIcESaIcEEESaIS5_EE11_M_allocateEj(%"struct.std::_Vector_base"* noundef nonnull align 4 dereferenceable(12) %9, i32 noundef %8), !dbg !6537
  call void @llvm.dbg.value(metadata %"class.std::__cxx11::basic_string"* %19, metadata !6525, metadata !DIExpression()), !dbg !6527
  call void @llvm.dbg.value(metadata %"class.std::__cxx11::basic_string"* %19, metadata !6526, metadata !DIExpression()), !dbg !6527
  %20 = bitcast %"class.std::vector"* %0 to %"class.std::ios_base::Init"*, !dbg !6538
  %21 = getelementptr inbounds %"class.std::__cxx11::basic_string", %"class.std::__cxx11::basic_string"* %19, i32 %18, !dbg !6541
  %22 = call noundef nonnull align 4 dereferenceable(24) %"class.std::__cxx11::basic_string"* @_ZSt7forwardINSt7__cxx1112basic_stringIcSt11char_traitsIcESaIcEEEEOT_RNSt16remove_referenceIS6_E4typeE(%"class.std::__cxx11::basic_string"* noundef nonnull align 4 dereferenceable(24) %2) #2, !dbg !6542
  call void @_ZNSt16allocator_traitsISaINSt7__cxx1112basic_stringIcSt11char_traitsIcESaIcEEEEE9constructIS5_JS5_EEEvRS6_PT_DpOT0_(%"class.std::ios_base::Init"* noundef nonnull align 1 dereferenceable(1) %20, %"class.std::__cxx11::basic_string"* noundef %21, %"class.std::__cxx11::basic_string"* noundef nonnull align 4 dereferenceable(24) %22) #2, !dbg !6543
  call void @llvm.dbg.value(metadata %"class.std::__cxx11::basic_string"* null, metadata !6526, metadata !DIExpression()), !dbg !6527
  %23 = call noundef nonnull align 4 dereferenceable(4) %"class.std::__cxx11::basic_string"** @_ZNK9__gnu_cxx17__normal_iteratorIPNSt7__cxx1112basic_stringIcSt11char_traitsIcESaIcEEESt6vectorIS6_SaIS6_EEE4baseEv(%"class.__gnu_cxx::__normal_iterator.3"* noundef nonnull align 4 dereferenceable(4) %4) #2, !dbg !6544
  %24 = load %"class.std::__cxx11::basic_string"*, %"class.std::__cxx11::basic_string"** %23, align 4, !dbg !6544, !tbaa !5889
  %25 = call noundef nonnull align 1 dereferenceable(1) %"class.std::ios_base::Init"* @_ZNSt12_Vector_baseINSt7__cxx1112basic_stringIcSt11char_traitsIcESaIcEEESaIS5_EE19_M_get_Tp_allocatorEv(%"struct.std::_Vector_base"* noundef nonnull align 4 dereferenceable(12) %9) #2, !dbg !6547
  %26 = call noundef %"class.std::__cxx11::basic_string"* @_ZNSt6vectorINSt7__cxx1112basic_stringIcSt11char_traitsIcESaIcEEESaIS5_EE11_S_relocateEPS5_S8_S8_RS6_(%"class.std::__cxx11::basic_string"* noundef %11, %"class.std::__cxx11::basic_string"* noundef %24, %"class.std::__cxx11::basic_string"* noundef %19, %"class.std::ios_base::Init"* noundef nonnull align 1 dereferenceable(1) %25) #2, !dbg !6548
  call void @llvm.dbg.value(metadata %"class.std::__cxx11::basic_string"* %26, metadata !6526, metadata !DIExpression()), !dbg !6527
  %27 = getelementptr inbounds %"class.std::__cxx11::basic_string", %"class.std::__cxx11::basic_string"* %26, i32 1, !dbg !6549
  call void @llvm.dbg.value(metadata %"class.std::__cxx11::basic_string"* %27, metadata !6526, metadata !DIExpression()), !dbg !6527
  %28 = call noundef nonnull align 4 dereferenceable(4) %"class.std::__cxx11::basic_string"** @_ZNK9__gnu_cxx17__normal_iteratorIPNSt7__cxx1112basic_stringIcSt11char_traitsIcESaIcEEESt6vectorIS6_SaIS6_EEE4baseEv(%"class.__gnu_cxx::__normal_iterator.3"* noundef nonnull align 4 dereferenceable(4) %4) #2, !dbg !6550
  %29 = load %"class.std::__cxx11::basic_string"*, %"class.std::__cxx11::basic_string"** %28, align 4, !dbg !6550, !tbaa !5889
  %30 = call noundef nonnull align 1 dereferenceable(1) %"class.std::ios_base::Init"* @_ZNSt12_Vector_baseINSt7__cxx1112basic_stringIcSt11char_traitsIcESaIcEEESaIS5_EE19_M_get_Tp_allocatorEv(%"struct.std::_Vector_base"* noundef nonnull align 4 dereferenceable(12) %9) #2, !dbg !6551
  %31 = call noundef %"class.std::__cxx11::basic_string"* @_ZNSt6vectorINSt7__cxx1112basic_stringIcSt11char_traitsIcESaIcEEESaIS5_EE11_S_relocateEPS5_S8_S8_RS6_(%"class.std::__cxx11::basic_string"* noundef %29, %"class.std::__cxx11::basic_string"* noundef %13, %"class.std::__cxx11::basic_string"* noundef nonnull %27, %"class.std::ios_base::Init"* noundef nonnull align 1 dereferenceable(1) %30) #2, !dbg !6552
  call void @llvm.dbg.value(metadata %"class.std::__cxx11::basic_string"* %31, metadata !6526, metadata !DIExpression()), !dbg !6527
  %32 = getelementptr inbounds %"class.std::vector", %"class.std::vector"* %0, i32 0, i32 0, i32 0, i32 0, i32 2, !dbg !6553
  %33 = load %"class.std::__cxx11::basic_string"*, %"class.std::__cxx11::basic_string"** %32, align 4, !dbg !6553, !tbaa !6421
  %34 = ptrtoint %"class.std::__cxx11::basic_string"* %33 to i32, !dbg !6554
  %35 = ptrtoint %"class.std::__cxx11::basic_string"* %11 to i32, !dbg !6554
  %36 = sub i32 %34, %35, !dbg !6554
  %37 = sdiv exact i32 %36, 24, !dbg !6554
  call void @_ZNSt12_Vector_baseINSt7__cxx1112basic_stringIcSt11char_traitsIcESaIcEEESaIS5_EE13_M_deallocateEPS5_j(%"struct.std::_Vector_base"* noundef nonnull align 4 dereferenceable(12) %9, %"class.std::__cxx11::basic_string"* noundef %11, i32 noundef %37), !dbg !6555
  store %"class.std::__cxx11::basic_string"* %19, %"class.std::__cxx11::basic_string"** %10, align 4, !dbg !6556, !tbaa !6532
  store %"class.std::__cxx11::basic_string"* %31, %"class.std::__cxx11::basic_string"** %12, align 4, !dbg !6557, !tbaa !6418
  %38 = getelementptr inbounds %"class.std::__cxx11::basic_string", %"class.std::__cxx11::basic_string"* %19, i32 %8, !dbg !6558
  store %"class.std::__cxx11::basic_string"* %38, %"class.std::__cxx11::basic_string"** %32, align 4, !dbg !6559, !tbaa !6421
  ret void, !dbg !6560
}

; Function Attrs: mustprogress noinline nounwind
define linkonce_odr dso_local noundef i32 @_ZNKSt6vectorINSt7__cxx1112basic_stringIcSt11char_traitsIcESaIcEEESaIS5_EE12_M_check_lenEjPKc(%"class.std::vector"* noundef nonnull align 4 dereferenceable(12) %0, i32 noundef %1, i8* noundef %2) local_unnamed_addr #4 comdat align 2 !dbg !6561 {
  %4 = alloca i32, align 4
  %5 = alloca i32, align 4
  call void @llvm.dbg.value(metadata %"class.std::vector"* %0, metadata !6563, metadata !DIExpression()), !dbg !6568
  call void @llvm.dbg.value(metadata i32 %1, metadata !6565, metadata !DIExpression()), !dbg !6568
  store i32 %1, i32* %4, align 4, !tbaa !5843
  call void @llvm.dbg.value(metadata i8* %2, metadata !6566, metadata !DIExpression()), !dbg !6568
  %6 = tail call noundef i32 @_ZNKSt6vectorINSt7__cxx1112basic_stringIcSt11char_traitsIcESaIcEEESaIS5_EE8max_sizeEv(%"class.std::vector"* noundef nonnull align 4 dereferenceable(12) %0) #2, !dbg !6569
  %7 = tail call noundef i32 @_ZNKSt6vectorINSt7__cxx1112basic_stringIcSt11char_traitsIcESaIcEEESaIS5_EE4sizeEv(%"class.std::vector"* noundef nonnull align 4 dereferenceable(12) %0) #2, !dbg !6571
  %8 = sub i32 %6, %7, !dbg !6572
  call void @llvm.dbg.value(metadata i32 %1, metadata !6565, metadata !DIExpression()), !dbg !6568
  %9 = icmp ult i32 %8, %1, !dbg !6573
  br i1 %9, label %10, label %11, !dbg !6574

10:                                               ; preds = %3
  tail call void @_ZSt20__throw_length_errorPKc(i8* noundef %2) #42, !dbg !6575
  unreachable, !dbg !6575

11:                                               ; preds = %3
  %12 = tail call noundef i32 @_ZNKSt6vectorINSt7__cxx1112basic_stringIcSt11char_traitsIcESaIcEEESaIS5_EE4sizeEv(%"class.std::vector"* noundef nonnull align 4 dereferenceable(12) %0) #2, !dbg !6576
  %13 = bitcast i32* %5 to i8*, !dbg !6577
  call void @llvm.lifetime.start.p0i8(i64 4, i8* nonnull %13) #2, !dbg !6577
  %14 = tail call noundef i32 @_ZNKSt6vectorINSt7__cxx1112basic_stringIcSt11char_traitsIcESaIcEEESaIS5_EE4sizeEv(%"class.std::vector"* noundef nonnull align 4 dereferenceable(12) %0) #2, !dbg !6577
  store i32 %14, i32* %5, align 4, !dbg !6577, !tbaa !5843
  call void @llvm.dbg.value(metadata i32* %4, metadata !6565, metadata !DIExpression(DW_OP_deref)), !dbg !6568
  %15 = call noundef nonnull align 4 dereferenceable(4) i32* @_ZSt3maxIjERKT_S2_S2_(i32* noundef nonnull align 4 dereferenceable(4) %5, i32* noundef nonnull align 4 dereferenceable(4) %4), !dbg !6578
  %16 = load i32, i32* %15, align 4, !dbg !6578, !tbaa !5843
  %17 = add i32 %16, %12, !dbg !6579
  call void @llvm.lifetime.end.p0i8(i64 4, i8* nonnull %13) #2, !dbg !6576
  call void @llvm.dbg.value(metadata i32 %17, metadata !6567, metadata !DIExpression()), !dbg !6568
  %18 = call noundef i32 @_ZNKSt6vectorINSt7__cxx1112basic_stringIcSt11char_traitsIcESaIcEEESaIS5_EE4sizeEv(%"class.std::vector"* noundef nonnull align 4 dereferenceable(12) %0) #2, !dbg !6580
  %19 = icmp ult i32 %17, %18, !dbg !6581
  br i1 %19, label %23, label %20, !dbg !6582

20:                                               ; preds = %11
  %21 = call noundef i32 @_ZNKSt6vectorINSt7__cxx1112basic_stringIcSt11char_traitsIcESaIcEEESaIS5_EE8max_sizeEv(%"class.std::vector"* noundef nonnull align 4 dereferenceable(12) %0) #2, !dbg !6583
  %22 = icmp ugt i32 %17, %21, !dbg !6584
  br i1 %22, label %23, label %25, !dbg !6585

23:                                               ; preds = %20, %11
  %24 = call noundef i32 @_ZNKSt6vectorINSt7__cxx1112basic_stringIcSt11char_traitsIcESaIcEEESaIS5_EE8max_sizeEv(%"class.std::vector"* noundef nonnull align 4 dereferenceable(12) %0) #2, !dbg !6586
  br label %25, !dbg !6585

25:                                               ; preds = %20, %23
  %26 = phi i32 [ %24, %23 ], [ %17, %20 ], !dbg !6585
  ret i32 %26, !dbg !6587
}

; Function Attrs: mustprogress noinline nounwind
define linkonce_odr dso_local i32 @_ZNSt6vectorINSt7__cxx1112basic_stringIcSt11char_traitsIcESaIcEEESaIS5_EE5beginEv(%"class.std::vector"* noundef nonnull align 4 dereferenceable(12) %0) local_unnamed_addr #4 comdat align 2 !dbg !6588 {
  %2 = alloca %"class.__gnu_cxx::__normal_iterator.3", align 4
  call void @llvm.dbg.value(metadata %"class.std::vector"* %0, metadata !6590, metadata !DIExpression()), !dbg !6591
  %3 = getelementptr inbounds %"class.std::vector", %"class.std::vector"* %0, i32 0, i32 0, i32 0, i32 0, i32 0, !dbg !6592
  %4 = call noundef %"class.__gnu_cxx::__normal_iterator.3"* @_ZN9__gnu_cxx17__normal_iteratorIPNSt7__cxx1112basic_stringIcSt11char_traitsIcESaIcEEESt6vectorIS6_SaIS6_EEEC2ERKS7_(%"class.__gnu_cxx::__normal_iterator.3"* noundef nonnull align 4 dereferenceable(4) %2, %"class.std::__cxx11::basic_string"** noundef nonnull align 4 dereferenceable(4) %3) #2, !dbg !6593
  %5 = getelementptr inbounds %"class.__gnu_cxx::__normal_iterator.3", %"class.__gnu_cxx::__normal_iterator.3"* %2, i32 0, i32 0, !dbg !6594
  %6 = load %"class.std::__cxx11::basic_string"*, %"class.std::__cxx11::basic_string"** %5, align 4, !dbg !6594
  %7 = ptrtoint %"class.std::__cxx11::basic_string"* %6 to i32, !dbg !6594
  ret i32 %7, !dbg !6594
}

; Function Attrs: mustprogress noinline nounwind
define linkonce_odr dso_local noundef i32 @_ZN9__gnu_cxxmiIPNSt7__cxx1112basic_stringIcSt11char_traitsIcESaIcEEESt6vectorIS6_SaIS6_EEEENS_17__normal_iteratorIT_T0_E15difference_typeERKSE_SH_(%"class.__gnu_cxx::__normal_iterator.3"* noundef nonnull align 4 dereferenceable(4) %0, %"class.__gnu_cxx::__normal_iterator.3"* noundef nonnull align 4 dereferenceable(4) %1) local_unnamed_addr #4 comdat !dbg !6595 {
  call void @llvm.dbg.value(metadata %"class.__gnu_cxx::__normal_iterator.3"* %0, metadata !6600, metadata !DIExpression()), !dbg !6602
  call void @llvm.dbg.value(metadata %"class.__gnu_cxx::__normal_iterator.3"* %1, metadata !6601, metadata !DIExpression()), !dbg !6602
  %3 = tail call noundef nonnull align 4 dereferenceable(4) %"class.std::__cxx11::basic_string"** @_ZNK9__gnu_cxx17__normal_iteratorIPNSt7__cxx1112basic_stringIcSt11char_traitsIcESaIcEEESt6vectorIS6_SaIS6_EEE4baseEv(%"class.__gnu_cxx::__normal_iterator.3"* noundef nonnull align 4 dereferenceable(4) %0) #2, !dbg !6603
  %4 = load %"class.std::__cxx11::basic_string"*, %"class.std::__cxx11::basic_string"** %3, align 4, !dbg !6603, !tbaa !5889
  %5 = tail call noundef nonnull align 4 dereferenceable(4) %"class.std::__cxx11::basic_string"** @_ZNK9__gnu_cxx17__normal_iteratorIPNSt7__cxx1112basic_stringIcSt11char_traitsIcESaIcEEESt6vectorIS6_SaIS6_EEE4baseEv(%"class.__gnu_cxx::__normal_iterator.3"* noundef nonnull align 4 dereferenceable(4) %1) #2, !dbg !6604
  %6 = load %"class.std::__cxx11::basic_string"*, %"class.std::__cxx11::basic_string"** %5, align 4, !dbg !6604, !tbaa !5889
  %7 = ptrtoint %"class.std::__cxx11::basic_string"* %4 to i32, !dbg !6605
  %8 = ptrtoint %"class.std::__cxx11::basic_string"* %6 to i32, !dbg !6605
  %9 = sub i32 %7, %8, !dbg !6605
  %10 = sdiv exact i32 %9, 24, !dbg !6605
  ret i32 %10, !dbg !6606
}

; Function Attrs: mustprogress noinline nounwind
define linkonce_odr dso_local noundef %"class.std::__cxx11::basic_string"* @_ZNSt12_Vector_baseINSt7__cxx1112basic_stringIcSt11char_traitsIcESaIcEEESaIS5_EE11_M_allocateEj(%"struct.std::_Vector_base"* noundef nonnull align 4 dereferenceable(12) %0, i32 noundef %1) local_unnamed_addr #4 comdat align 2 !dbg !6607 {
  call void @llvm.dbg.value(metadata %"struct.std::_Vector_base"* %0, metadata !6609, metadata !DIExpression()), !dbg !6612
  call void @llvm.dbg.value(metadata i32 %1, metadata !6611, metadata !DIExpression()), !dbg !6612
  %3 = icmp eq i32 %1, 0, !dbg !6613
  br i1 %3, label %7, label %4, !dbg !6614

4:                                                ; preds = %2
  %5 = bitcast %"struct.std::_Vector_base"* %0 to %"class.std::ios_base::Init"*, !dbg !6615
  %6 = tail call noundef %"class.std::__cxx11::basic_string"* @_ZNSt16allocator_traitsISaINSt7__cxx1112basic_stringIcSt11char_traitsIcESaIcEEEEE8allocateERS6_j(%"class.std::ios_base::Init"* noundef nonnull align 1 dereferenceable(1) %5, i32 noundef %1), !dbg !6616
  br label %7, !dbg !6614

7:                                                ; preds = %2, %4
  %8 = phi %"class.std::__cxx11::basic_string"* [ %6, %4 ], [ null, %2 ], !dbg !6614
  ret %"class.std::__cxx11::basic_string"* %8, !dbg !6617
}

; Function Attrs: mustprogress noinline nounwind
define linkonce_odr dso_local noundef nonnull align 4 dereferenceable(4) %"class.std::__cxx11::basic_string"** @_ZNK9__gnu_cxx17__normal_iteratorIPNSt7__cxx1112basic_stringIcSt11char_traitsIcESaIcEEESt6vectorIS6_SaIS6_EEE4baseEv(%"class.__gnu_cxx::__normal_iterator.3"* noundef nonnull align 4 dereferenceable(4) %0) local_unnamed_addr #4 comdat align 2 !dbg !6618 {
  call void @llvm.dbg.value(metadata %"class.__gnu_cxx::__normal_iterator.3"* %0, metadata !6620, metadata !DIExpression()), !dbg !6622
  %2 = getelementptr inbounds %"class.__gnu_cxx::__normal_iterator.3", %"class.__gnu_cxx::__normal_iterator.3"* %0, i32 0, i32 0, !dbg !6623
  ret %"class.std::__cxx11::basic_string"** %2, !dbg !6624
}

; Function Attrs: mustprogress noinline nounwind
define linkonce_odr dso_local noundef nonnull align 1 dereferenceable(1) %"class.std::ios_base::Init"* @_ZNSt12_Vector_baseINSt7__cxx1112basic_stringIcSt11char_traitsIcESaIcEEESaIS5_EE19_M_get_Tp_allocatorEv(%"struct.std::_Vector_base"* noundef nonnull align 4 dereferenceable(12) %0) local_unnamed_addr #4 comdat align 2 !dbg !6625 {
  call void @llvm.dbg.value(metadata %"struct.std::_Vector_base"* %0, metadata !6627, metadata !DIExpression()), !dbg !6628
  %2 = bitcast %"struct.std::_Vector_base"* %0 to %"class.std::ios_base::Init"*, !dbg !6629
  ret %"class.std::ios_base::Init"* %2, !dbg !6630
}

; Function Attrs: mustprogress noinline nounwind
define linkonce_odr dso_local noundef %"class.std::__cxx11::basic_string"* @_ZNSt6vectorINSt7__cxx1112basic_stringIcSt11char_traitsIcESaIcEEESaIS5_EE11_S_relocateEPS5_S8_S8_RS6_(%"class.std::__cxx11::basic_string"* noundef %0, %"class.std::__cxx11::basic_string"* noundef %1, %"class.std::__cxx11::basic_string"* noundef %2, %"class.std::ios_base::Init"* noundef nonnull align 1 dereferenceable(1) %3) local_unnamed_addr #4 comdat align 2 !dbg !5467 {
  call void @llvm.dbg.value(metadata %"class.std::__cxx11::basic_string"* %0, metadata !5469, metadata !DIExpression()), !dbg !6631
  call void @llvm.dbg.value(metadata %"class.std::__cxx11::basic_string"* %1, metadata !5470, metadata !DIExpression()), !dbg !6631
  call void @llvm.dbg.value(metadata %"class.std::__cxx11::basic_string"* %2, metadata !5471, metadata !DIExpression()), !dbg !6631
  call void @llvm.dbg.value(metadata %"class.std::ios_base::Init"* %3, metadata !5472, metadata !DIExpression()), !dbg !6631
  %5 = tail call noundef %"class.std::__cxx11::basic_string"* @_ZNSt6vectorINSt7__cxx1112basic_stringIcSt11char_traitsIcESaIcEEESaIS5_EE14_S_do_relocateEPS5_S8_S8_RS6_St17integral_constantIbLb1EE(%"class.std::__cxx11::basic_string"* noundef %0, %"class.std::__cxx11::basic_string"* noundef %1, %"class.std::__cxx11::basic_string"* noundef %2, %"class.std::ios_base::Init"* noundef nonnull align 1 dereferenceable(1) %3) #2, !dbg !6632
  ret %"class.std::__cxx11::basic_string"* %5, !dbg !6633
}

; Function Attrs: mustprogress noinline nounwind
define linkonce_odr dso_local void @_ZNSt12_Vector_baseINSt7__cxx1112basic_stringIcSt11char_traitsIcESaIcEEESaIS5_EE13_M_deallocateEPS5_j(%"struct.std::_Vector_base"* noundef nonnull align 4 dereferenceable(12) %0, %"class.std::__cxx11::basic_string"* noundef %1, i32 noundef %2) local_unnamed_addr #4 comdat align 2 !dbg !6634 {
  call void @llvm.dbg.value(metadata %"struct.std::_Vector_base"* %0, metadata !6636, metadata !DIExpression()), !dbg !6639
  call void @llvm.dbg.value(metadata %"class.std::__cxx11::basic_string"* %1, metadata !6637, metadata !DIExpression()), !dbg !6639
  call void @llvm.dbg.value(metadata i32 %2, metadata !6638, metadata !DIExpression()), !dbg !6639
  %4 = icmp eq %"class.std::__cxx11::basic_string"* %1, null, !dbg !6640
  br i1 %4, label %7, label %5, !dbg !6642

5:                                                ; preds = %3
  %6 = bitcast %"struct.std::_Vector_base"* %0 to %"class.std::ios_base::Init"*, !dbg !6643
  tail call void @_ZNSt16allocator_traitsISaINSt7__cxx1112basic_stringIcSt11char_traitsIcESaIcEEEEE10deallocateERS6_PS5_j(%"class.std::ios_base::Init"* noundef nonnull align 1 dereferenceable(1) %6, %"class.std::__cxx11::basic_string"* noundef nonnull %1, i32 noundef %2), !dbg !6644
  br label %7, !dbg !6644

7:                                                ; preds = %5, %3
  ret void, !dbg !6645
}

; Function Attrs: mustprogress noinline nounwind
define linkonce_odr dso_local void @_ZNSt16allocator_traitsISaINSt7__cxx1112basic_stringIcSt11char_traitsIcESaIcEEEEE10deallocateERS6_PS5_j(%"class.std::ios_base::Init"* noundef nonnull align 1 dereferenceable(1) %0, %"class.std::__cxx11::basic_string"* noundef %1, i32 noundef %2) local_unnamed_addr #4 comdat align 2 !dbg !6646 {
  call void @llvm.dbg.value(metadata %"class.std::ios_base::Init"* %0, metadata !6648, metadata !DIExpression()), !dbg !6651
  call void @llvm.dbg.value(metadata %"class.std::__cxx11::basic_string"* %1, metadata !6649, metadata !DIExpression()), !dbg !6651
  call void @llvm.dbg.value(metadata i32 %2, metadata !6650, metadata !DIExpression()), !dbg !6651
  %4 = bitcast %"class.std::ios_base::Init"* %0 to %"class.std::ios_base::Init"*, !dbg !6652
  tail call void @_ZN9__gnu_cxx13new_allocatorINSt7__cxx1112basic_stringIcSt11char_traitsIcESaIcEEEE10deallocateEPS6_j(%"class.std::ios_base::Init"* noundef nonnull align 1 dereferenceable(1) %4, %"class.std::__cxx11::basic_string"* noundef %1, i32 noundef %2), !dbg !6653
  ret void, !dbg !6654
}

; Function Attrs: mustprogress noinline nounwind
define linkonce_odr dso_local void @_ZN9__gnu_cxx13new_allocatorINSt7__cxx1112basic_stringIcSt11char_traitsIcESaIcEEEE10deallocateEPS6_j(%"class.std::ios_base::Init"* noundef nonnull align 1 dereferenceable(1) %0, %"class.std::__cxx11::basic_string"* noundef %1, i32 noundef %2) local_unnamed_addr #4 comdat align 2 !dbg !6655 {
  call void @llvm.dbg.value(metadata %"class.std::ios_base::Init"* %0, metadata !6657, metadata !DIExpression()), !dbg !6661
  call void @llvm.dbg.value(metadata %"class.std::__cxx11::basic_string"* %1, metadata !6659, metadata !DIExpression()), !dbg !6661
  call void @llvm.dbg.value(metadata i32 %2, metadata !6660, metadata !DIExpression()), !dbg !6661
  %4 = bitcast %"class.std::__cxx11::basic_string"* %1 to i8*, !dbg !6662
  tail call void @_ZdlPv(i8* noundef %4) #2, !dbg !6663
  ret void, !dbg !6664
}

; Function Attrs: mustprogress noinline nounwind
define linkonce_odr dso_local noundef %"class.std::__cxx11::basic_string"* @_ZNSt6vectorINSt7__cxx1112basic_stringIcSt11char_traitsIcESaIcEEESaIS5_EE14_S_do_relocateEPS5_S8_S8_RS6_St17integral_constantIbLb1EE(%"class.std::__cxx11::basic_string"* noundef %0, %"class.std::__cxx11::basic_string"* noundef %1, %"class.std::__cxx11::basic_string"* noundef %2, %"class.std::ios_base::Init"* noundef nonnull align 1 dereferenceable(1) %3) local_unnamed_addr #4 comdat align 2 !dbg !6665 {
  call void @llvm.dbg.value(metadata %"class.std::__cxx11::basic_string"* %0, metadata !6667, metadata !DIExpression()), !dbg !6672
  call void @llvm.dbg.value(metadata %"class.std::__cxx11::basic_string"* %1, metadata !6668, metadata !DIExpression()), !dbg !6672
  call void @llvm.dbg.value(metadata %"class.std::__cxx11::basic_string"* %2, metadata !6669, metadata !DIExpression()), !dbg !6672
  call void @llvm.dbg.value(metadata %"class.std::ios_base::Init"* %3, metadata !6670, metadata !DIExpression()), !dbg !6672
  call void @llvm.dbg.declare(metadata %"class.std::ios_base::Init"* undef, metadata !6671, metadata !DIExpression()), !dbg !6673
  %5 = tail call noundef %"class.std::__cxx11::basic_string"* @_ZSt12__relocate_aIPNSt7__cxx1112basic_stringIcSt11char_traitsIcESaIcEEES6_SaIS5_EET0_T_S9_S8_RT1_(%"class.std::__cxx11::basic_string"* noundef %0, %"class.std::__cxx11::basic_string"* noundef %1, %"class.std::__cxx11::basic_string"* noundef %2, %"class.std::ios_base::Init"* noundef nonnull align 1 dereferenceable(1) %3) #2, !dbg !6674
  ret %"class.std::__cxx11::basic_string"* %5, !dbg !6675
}

; Function Attrs: mustprogress noinline nounwind
define linkonce_odr dso_local noundef %"class.std::__cxx11::basic_string"* @_ZSt12__relocate_aIPNSt7__cxx1112basic_stringIcSt11char_traitsIcESaIcEEES6_SaIS5_EET0_T_S9_S8_RT1_(%"class.std::__cxx11::basic_string"* noundef %0, %"class.std::__cxx11::basic_string"* noundef %1, %"class.std::__cxx11::basic_string"* noundef %2, %"class.std::ios_base::Init"* noundef nonnull align 1 dereferenceable(1) %3) local_unnamed_addr #4 comdat !dbg !6676 {
  call void @llvm.dbg.value(metadata %"class.std::__cxx11::basic_string"* %0, metadata !6681, metadata !DIExpression()), !dbg !6689
  call void @llvm.dbg.value(metadata %"class.std::__cxx11::basic_string"* %1, metadata !6682, metadata !DIExpression()), !dbg !6689
  call void @llvm.dbg.value(metadata %"class.std::__cxx11::basic_string"* %2, metadata !6683, metadata !DIExpression()), !dbg !6689
  call void @llvm.dbg.value(metadata %"class.std::ios_base::Init"* %3, metadata !6684, metadata !DIExpression()), !dbg !6689
  %5 = tail call noundef %"class.std::__cxx11::basic_string"* @_ZSt12__niter_baseIPNSt7__cxx1112basic_stringIcSt11char_traitsIcESaIcEEEET_S7_(%"class.std::__cxx11::basic_string"* noundef %0) #2, !dbg !6690
  %6 = tail call noundef %"class.std::__cxx11::basic_string"* @_ZSt12__niter_baseIPNSt7__cxx1112basic_stringIcSt11char_traitsIcESaIcEEEET_S7_(%"class.std::__cxx11::basic_string"* noundef %1) #2, !dbg !6691
  %7 = tail call noundef %"class.std::__cxx11::basic_string"* @_ZSt12__niter_baseIPNSt7__cxx1112basic_stringIcSt11char_traitsIcESaIcEEEET_S7_(%"class.std::__cxx11::basic_string"* noundef %2) #2, !dbg !6692
  %8 = tail call noundef %"class.std::__cxx11::basic_string"* @_ZSt14__relocate_a_1IPNSt7__cxx1112basic_stringIcSt11char_traitsIcESaIcEEES6_SaIS5_EET0_T_S9_S8_RT1_(%"class.std::__cxx11::basic_string"* noundef %5, %"class.std::__cxx11::basic_string"* noundef %6, %"class.std::__cxx11::basic_string"* noundef %7, %"class.std::ios_base::Init"* noundef nonnull align 1 dereferenceable(1) %3) #2, !dbg !6693
  ret %"class.std::__cxx11::basic_string"* %8, !dbg !6694
}

; Function Attrs: mustprogress noinline nounwind
define linkonce_odr dso_local noundef %"class.std::__cxx11::basic_string"* @_ZSt12__niter_baseIPNSt7__cxx1112basic_stringIcSt11char_traitsIcESaIcEEEET_S7_(%"class.std::__cxx11::basic_string"* noundef %0) local_unnamed_addr #4 comdat !dbg !6695 {
  call void @llvm.dbg.value(metadata %"class.std::__cxx11::basic_string"* %0, metadata !6700, metadata !DIExpression()), !dbg !6701
  ret %"class.std::__cxx11::basic_string"* %0, !dbg !6702
}

; Function Attrs: mustprogress noinline nounwind
define linkonce_odr dso_local noundef %"class.std::__cxx11::basic_string"* @_ZSt14__relocate_a_1IPNSt7__cxx1112basic_stringIcSt11char_traitsIcESaIcEEES6_SaIS5_EET0_T_S9_S8_RT1_(%"class.std::__cxx11::basic_string"* noundef %0, %"class.std::__cxx11::basic_string"* noundef %1, %"class.std::__cxx11::basic_string"* noundef %2, %"class.std::ios_base::Init"* noundef nonnull align 1 dereferenceable(1) %3) local_unnamed_addr #4 comdat !dbg !6703 {
  call void @llvm.dbg.value(metadata %"class.std::__cxx11::basic_string"* %0, metadata !6705, metadata !DIExpression()), !dbg !6710
  call void @llvm.dbg.value(metadata %"class.std::__cxx11::basic_string"* %1, metadata !6706, metadata !DIExpression()), !dbg !6710
  call void @llvm.dbg.value(metadata %"class.std::__cxx11::basic_string"* %2, metadata !6707, metadata !DIExpression()), !dbg !6710
  call void @llvm.dbg.value(metadata %"class.std::ios_base::Init"* %3, metadata !6708, metadata !DIExpression()), !dbg !6710
  call void @llvm.dbg.value(metadata %"class.std::__cxx11::basic_string"* %2, metadata !6709, metadata !DIExpression()), !dbg !6710
  %5 = icmp eq %"class.std::__cxx11::basic_string"* %0, %1, !dbg !6711
  br i1 %5, label %14, label %6, !dbg !6714

6:                                                ; preds = %4, %6
  %7 = phi %"class.std::__cxx11::basic_string"* [ %12, %6 ], [ %2, %4 ]
  %8 = phi %"class.std::__cxx11::basic_string"* [ %11, %6 ], [ %0, %4 ]
  call void @llvm.dbg.value(metadata %"class.std::__cxx11::basic_string"* %7, metadata !6709, metadata !DIExpression()), !dbg !6710
  call void @llvm.dbg.value(metadata %"class.std::__cxx11::basic_string"* %8, metadata !6705, metadata !DIExpression()), !dbg !6710
  %9 = tail call noundef %"class.std::__cxx11::basic_string"* @_ZSt11__addressofINSt7__cxx1112basic_stringIcSt11char_traitsIcESaIcEEEEPT_RS6_(%"class.std::__cxx11::basic_string"* noundef nonnull align 4 dereferenceable(24) %7) #2, !dbg !6715
  %10 = tail call noundef %"class.std::__cxx11::basic_string"* @_ZSt11__addressofINSt7__cxx1112basic_stringIcSt11char_traitsIcESaIcEEEEPT_RS6_(%"class.std::__cxx11::basic_string"* noundef nonnull align 4 dereferenceable(24) %8) #2, !dbg !6716
  tail call void @_ZSt19__relocate_object_aINSt7__cxx1112basic_stringIcSt11char_traitsIcESaIcEEES5_SaIS5_EEvPT_PT0_RT1_(%"class.std::__cxx11::basic_string"* noundef %9, %"class.std::__cxx11::basic_string"* noundef %10, %"class.std::ios_base::Init"* noundef nonnull align 1 dereferenceable(1) %3) #2, !dbg !6717
  %11 = getelementptr inbounds %"class.std::__cxx11::basic_string", %"class.std::__cxx11::basic_string"* %8, i32 1, !dbg !6718
  call void @llvm.dbg.value(metadata %"class.std::__cxx11::basic_string"* %11, metadata !6705, metadata !DIExpression()), !dbg !6710
  %12 = getelementptr inbounds %"class.std::__cxx11::basic_string", %"class.std::__cxx11::basic_string"* %7, i32 1, !dbg !6719
  call void @llvm.dbg.value(metadata %"class.std::__cxx11::basic_string"* %12, metadata !6709, metadata !DIExpression()), !dbg !6710
  %13 = icmp eq %"class.std::__cxx11::basic_string"* %11, %1, !dbg !6711
  br i1 %13, label %14, label %6, !dbg !6714, !llvm.loop !6720

14:                                               ; preds = %6, %4
  %15 = phi %"class.std::__cxx11::basic_string"* [ %2, %4 ], [ %12, %6 ], !dbg !6710
  ret %"class.std::__cxx11::basic_string"* %15, !dbg !6722
}

; Function Attrs: mustprogress noinline nounwind
define linkonce_odr dso_local noundef %"class.std::__cxx11::basic_string"* @_ZSt11__addressofINSt7__cxx1112basic_stringIcSt11char_traitsIcESaIcEEEEPT_RS6_(%"class.std::__cxx11::basic_string"* noundef nonnull align 4 dereferenceable(24) %0) local_unnamed_addr #4 comdat !dbg !6723 {
  call void @llvm.dbg.value(metadata %"class.std::__cxx11::basic_string"* %0, metadata !6727, metadata !DIExpression()), !dbg !6728
  ret %"class.std::__cxx11::basic_string"* %0, !dbg !6729
}

; Function Attrs: mustprogress noinline nounwind
define linkonce_odr dso_local void @_ZSt19__relocate_object_aINSt7__cxx1112basic_stringIcSt11char_traitsIcESaIcEEES5_SaIS5_EEvPT_PT0_RT1_(%"class.std::__cxx11::basic_string"* noundef %0, %"class.std::__cxx11::basic_string"* noundef %1, %"class.std::ios_base::Init"* noundef nonnull align 1 dereferenceable(1) %2) local_unnamed_addr #4 comdat !dbg !6730 {
  call void @llvm.dbg.value(metadata %"class.std::__cxx11::basic_string"* %0, metadata !6734, metadata !DIExpression()), !dbg !6738
  call void @llvm.dbg.value(metadata %"class.std::__cxx11::basic_string"* %1, metadata !6735, metadata !DIExpression()), !dbg !6738
  call void @llvm.dbg.value(metadata %"class.std::ios_base::Init"* %2, metadata !6736, metadata !DIExpression()), !dbg !6738
  %4 = tail call noundef nonnull align 4 dereferenceable(24) %"class.std::__cxx11::basic_string"* @_ZSt4moveIRNSt7__cxx1112basic_stringIcSt11char_traitsIcESaIcEEEEONSt16remove_referenceIT_E4typeEOS8_(%"class.std::__cxx11::basic_string"* noundef nonnull align 4 dereferenceable(24) %1) #2, !dbg !6739
  tail call void @_ZNSt16allocator_traitsISaINSt7__cxx1112basic_stringIcSt11char_traitsIcESaIcEEEEE9constructIS5_JS5_EEEvRS6_PT_DpOT0_(%"class.std::ios_base::Init"* noundef nonnull align 1 dereferenceable(1) %2, %"class.std::__cxx11::basic_string"* noundef %0, %"class.std::__cxx11::basic_string"* noundef nonnull align 4 dereferenceable(24) %4) #2, !dbg !6740
  %5 = tail call noundef %"class.std::__cxx11::basic_string"* @_ZSt11__addressofINSt7__cxx1112basic_stringIcSt11char_traitsIcESaIcEEEEPT_RS6_(%"class.std::__cxx11::basic_string"* noundef nonnull align 4 dereferenceable(24) %1) #2, !dbg !6741
  tail call void @_ZNSt16allocator_traitsISaINSt7__cxx1112basic_stringIcSt11char_traitsIcESaIcEEEEE7destroyIS5_EEvRS6_PT_(%"class.std::ios_base::Init"* noundef nonnull align 1 dereferenceable(1) %2, %"class.std::__cxx11::basic_string"* noundef %5) #2, !dbg !6742
  ret void, !dbg !6743
}

; Function Attrs: mustprogress noinline nounwind
define linkonce_odr dso_local void @_ZNSt16allocator_traitsISaINSt7__cxx1112basic_stringIcSt11char_traitsIcESaIcEEEEE7destroyIS5_EEvRS6_PT_(%"class.std::ios_base::Init"* noundef nonnull align 1 dereferenceable(1) %0, %"class.std::__cxx11::basic_string"* noundef %1) local_unnamed_addr #4 comdat align 2 !dbg !6744 {
  call void @llvm.dbg.value(metadata %"class.std::ios_base::Init"* %0, metadata !6750, metadata !DIExpression()), !dbg !6752
  call void @llvm.dbg.value(metadata %"class.std::__cxx11::basic_string"* %1, metadata !6751, metadata !DIExpression()), !dbg !6752
  %3 = bitcast %"class.std::ios_base::Init"* %0 to %"class.std::ios_base::Init"*, !dbg !6753
  tail call void @_ZN9__gnu_cxx13new_allocatorINSt7__cxx1112basic_stringIcSt11char_traitsIcESaIcEEEE7destroyIS6_EEvPT_(%"class.std::ios_base::Init"* noundef nonnull align 1 dereferenceable(1) %3, %"class.std::__cxx11::basic_string"* noundef %1) #2, !dbg !6754
  ret void, !dbg !6755
}

; Function Attrs: mustprogress noinline nounwind
define linkonce_odr dso_local void @_ZN9__gnu_cxx13new_allocatorINSt7__cxx1112basic_stringIcSt11char_traitsIcESaIcEEEE7destroyIS6_EEvPT_(%"class.std::ios_base::Init"* noundef nonnull align 1 dereferenceable(1) %0, %"class.std::__cxx11::basic_string"* noundef %1) local_unnamed_addr #4 comdat align 2 !dbg !6756 {
  call void @llvm.dbg.value(metadata %"class.std::ios_base::Init"* %0, metadata !6761, metadata !DIExpression()), !dbg !6763
  call void @llvm.dbg.value(metadata %"class.std::__cxx11::basic_string"* %1, metadata !6762, metadata !DIExpression()), !dbg !6763
  %3 = tail call noundef %"class.std::__cxx11::basic_string"* @_ZNSt7__cxx1112basic_stringIcSt11char_traitsIcESaIcEED2Ev(%"class.std::__cxx11::basic_string"* noundef nonnull align 4 dereferenceable(24) %1) #2, !dbg !6764
  ret void, !dbg !6765
}

; Function Attrs: mustprogress noinline nounwind
define linkonce_odr dso_local noundef %"class.std::__cxx11::basic_string"* @_ZNSt16allocator_traitsISaINSt7__cxx1112basic_stringIcSt11char_traitsIcESaIcEEEEE8allocateERS6_j(%"class.std::ios_base::Init"* noundef nonnull align 1 dereferenceable(1) %0, i32 noundef %1) local_unnamed_addr #4 comdat align 2 !dbg !6766 {
  call void @llvm.dbg.value(metadata %"class.std::ios_base::Init"* %0, metadata !6768, metadata !DIExpression()), !dbg !6770
  call void @llvm.dbg.value(metadata i32 %1, metadata !6769, metadata !DIExpression()), !dbg !6770
  %3 = bitcast %"class.std::ios_base::Init"* %0 to %"class.std::ios_base::Init"*, !dbg !6771
  %4 = tail call noundef %"class.std::__cxx11::basic_string"* @_ZN9__gnu_cxx13new_allocatorINSt7__cxx1112basic_stringIcSt11char_traitsIcESaIcEEEE8allocateEjPKv(%"class.std::ios_base::Init"* noundef nonnull align 1 dereferenceable(1) %3, i32 noundef %1, i8* noundef null), !dbg !6772
  ret %"class.std::__cxx11::basic_string"* %4, !dbg !6773
}

; Function Attrs: mustprogress noinline nounwind
define linkonce_odr dso_local noundef %"class.std::__cxx11::basic_string"* @_ZN9__gnu_cxx13new_allocatorINSt7__cxx1112basic_stringIcSt11char_traitsIcESaIcEEEE8allocateEjPKv(%"class.std::ios_base::Init"* noundef nonnull align 1 dereferenceable(1) %0, i32 noundef %1, i8* noundef %2) local_unnamed_addr #4 comdat align 2 !dbg !6774 {
  call void @llvm.dbg.value(metadata %"class.std::ios_base::Init"* %0, metadata !6776, metadata !DIExpression()), !dbg !6779
  call void @llvm.dbg.value(metadata i32 %1, metadata !6777, metadata !DIExpression()), !dbg !6779
  call void @llvm.dbg.value(metadata i8* %2, metadata !6778, metadata !DIExpression()), !dbg !6779
  %4 = tail call noundef i32 @_ZNK9__gnu_cxx13new_allocatorINSt7__cxx1112basic_stringIcSt11char_traitsIcESaIcEEEE11_M_max_sizeEv(%"class.std::ios_base::Init"* noundef nonnull align 1 dereferenceable(1) %0) #2, !dbg !6780
  %5 = icmp ult i32 %4, %1, !dbg !6782
  br i1 %5, label %6, label %7, !dbg !6783

6:                                                ; preds = %3
  tail call void @_ZSt17__throw_bad_allocv() #42, !dbg !6784
  unreachable, !dbg !6784

7:                                                ; preds = %3
  %8 = mul i32 %1, 24, !dbg !6785
  %9 = tail call noalias noundef nonnull i8* @_Znwj(i32 noundef %8) #43, !dbg !6786
  %10 = bitcast i8* %9 to %"class.std::__cxx11::basic_string"*, !dbg !6787
  ret %"class.std::__cxx11::basic_string"* %10, !dbg !6788
}

; Function Attrs: mustprogress noinline nounwind
define linkonce_odr dso_local noundef i32 @_ZNK9__gnu_cxx13new_allocatorINSt7__cxx1112basic_stringIcSt11char_traitsIcESaIcEEEE11_M_max_sizeEv(%"class.std::ios_base::Init"* noundef nonnull align 1 dereferenceable(1) %0) local_unnamed_addr #4 comdat align 2 !dbg !6789 {
  call void @llvm.dbg.value(metadata %"class.std::ios_base::Init"* %0, metadata !6791, metadata !DIExpression()), !dbg !6793
  ret i32 89478485, !dbg !6794
}

; Function Attrs: noreturn
declare dso_local void @_ZSt17__throw_bad_allocv() local_unnamed_addr #15

; Function Attrs: noinline nounwind
define linkonce_odr dso_local noundef %"class.__gnu_cxx::__normal_iterator.3"* @_ZN9__gnu_cxx17__normal_iteratorIPNSt7__cxx1112basic_stringIcSt11char_traitsIcESaIcEEESt6vectorIS6_SaIS6_EEEC2ERKS7_(%"class.__gnu_cxx::__normal_iterator.3"* noundef nonnull returned align 4 dereferenceable(4) %0, %"class.std::__cxx11::basic_string"** noundef nonnull align 4 dereferenceable(4) %1) unnamed_addr #0 comdat align 2 !dbg !6795 {
  call void @llvm.dbg.value(metadata %"class.__gnu_cxx::__normal_iterator.3"* %0, metadata !6797, metadata !DIExpression()), !dbg !6800
  call void @llvm.dbg.value(metadata %"class.std::__cxx11::basic_string"** %1, metadata !6799, metadata !DIExpression()), !dbg !6800
  %3 = getelementptr inbounds %"class.__gnu_cxx::__normal_iterator.3", %"class.__gnu_cxx::__normal_iterator.3"* %0, i32 0, i32 0, !dbg !6801
  %4 = load %"class.std::__cxx11::basic_string"*, %"class.std::__cxx11::basic_string"** %1, align 4, !dbg !6802, !tbaa !5889
  store %"class.std::__cxx11::basic_string"* %4, %"class.std::__cxx11::basic_string"** %3, align 4, !dbg !6801, !tbaa !6803
  ret %"class.__gnu_cxx::__normal_iterator.3"* %0, !dbg !6805
}

; Function Attrs: mustprogress noinline nounwind
define linkonce_odr dso_local noundef i32 @_ZNKSt6vectorINSt7__cxx1112basic_stringIcSt11char_traitsIcESaIcEEESaIS5_EE8max_sizeEv(%"class.std::vector"* noundef nonnull align 4 dereferenceable(12) %0) local_unnamed_addr #4 comdat align 2 !dbg !6806 {
  call void @llvm.dbg.value(metadata %"class.std::vector"* %0, metadata !6808, metadata !DIExpression()), !dbg !6809
  %2 = getelementptr inbounds %"class.std::vector", %"class.std::vector"* %0, i32 0, i32 0, !dbg !6810
  %3 = tail call noundef nonnull align 1 dereferenceable(1) %"class.std::ios_base::Init"* @_ZNKSt12_Vector_baseINSt7__cxx1112basic_stringIcSt11char_traitsIcESaIcEEESaIS5_EE19_M_get_Tp_allocatorEv(%"struct.std::_Vector_base"* noundef nonnull align 4 dereferenceable(12) %2) #2, !dbg !6810
  %4 = tail call noundef i32 @_ZNSt6vectorINSt7__cxx1112basic_stringIcSt11char_traitsIcESaIcEEESaIS5_EE11_S_max_sizeERKS6_(%"class.std::ios_base::Init"* noundef nonnull align 1 dereferenceable(1) %3) #2, !dbg !6811
  ret i32 %4, !dbg !6812
}

; Function Attrs: mustprogress noinline nounwind
define linkonce_odr dso_local noundef i32 @_ZNKSt6vectorINSt7__cxx1112basic_stringIcSt11char_traitsIcESaIcEEESaIS5_EE4sizeEv(%"class.std::vector"* noundef nonnull align 4 dereferenceable(12) %0) local_unnamed_addr #4 comdat align 2 !dbg !6813 {
  call void @llvm.dbg.value(metadata %"class.std::vector"* %0, metadata !6815, metadata !DIExpression()), !dbg !6816
  %2 = getelementptr inbounds %"class.std::vector", %"class.std::vector"* %0, i32 0, i32 0, i32 0, i32 0, i32 1, !dbg !6817
  %3 = load %"class.std::__cxx11::basic_string"*, %"class.std::__cxx11::basic_string"** %2, align 4, !dbg !6817, !tbaa !6418
  %4 = getelementptr inbounds %"class.std::vector", %"class.std::vector"* %0, i32 0, i32 0, i32 0, i32 0, i32 0, !dbg !6818
  %5 = load %"class.std::__cxx11::basic_string"*, %"class.std::__cxx11::basic_string"** %4, align 4, !dbg !6818, !tbaa !6532
  %6 = ptrtoint %"class.std::__cxx11::basic_string"* %3 to i32, !dbg !6819
  %7 = ptrtoint %"class.std::__cxx11::basic_string"* %5 to i32, !dbg !6819
  %8 = sub i32 %6, %7, !dbg !6819
  %9 = sdiv exact i32 %8, 24, !dbg !6819
  ret i32 %9, !dbg !6820
}

; Function Attrs: noreturn
declare dso_local void @_ZSt20__throw_length_errorPKc(i8* noundef) local_unnamed_addr #15

; Function Attrs: mustprogress noinline nounwind
define linkonce_odr dso_local noundef nonnull align 4 dereferenceable(4) i32* @_ZSt3maxIjERKT_S2_S2_(i32* noundef nonnull align 4 dereferenceable(4) %0, i32* noundef nonnull align 4 dereferenceable(4) %1) local_unnamed_addr #4 comdat !dbg !6821 {
  call void @llvm.dbg.value(metadata i32* %0, metadata !6827, metadata !DIExpression()), !dbg !6831
  call void @llvm.dbg.value(metadata i32* %1, metadata !6828, metadata !DIExpression()), !dbg !6831
  %3 = load i32, i32* %0, align 4, !dbg !6832, !tbaa !5843
  %4 = load i32, i32* %1, align 4, !dbg !6834, !tbaa !5843
  %5 = icmp ult i32 %3, %4, !dbg !6835
  %6 = select i1 %5, i32* %1, i32* %0, !dbg !6831
  ret i32* %6, !dbg !6836
}

; Function Attrs: mustprogress noinline nounwind
define linkonce_odr dso_local noundef nonnull align 1 dereferenceable(1) %"class.std::ios_base::Init"* @_ZNKSt12_Vector_baseINSt7__cxx1112basic_stringIcSt11char_traitsIcESaIcEEESaIS5_EE19_M_get_Tp_allocatorEv(%"struct.std::_Vector_base"* noundef nonnull align 4 dereferenceable(12) %0) local_unnamed_addr #4 comdat align 2 !dbg !6837 {
  call void @llvm.dbg.value(metadata %"struct.std::_Vector_base"* %0, metadata !6839, metadata !DIExpression()), !dbg !6841
  %2 = bitcast %"struct.std::_Vector_base"* %0 to %"class.std::ios_base::Init"*, !dbg !6842
  ret %"class.std::ios_base::Init"* %2, !dbg !6843
}

; Function Attrs: mustprogress noinline nounwind
define linkonce_odr dso_local noundef i32 @_ZNSt6vectorINSt7__cxx1112basic_stringIcSt11char_traitsIcESaIcEEESaIS5_EE11_S_max_sizeERKS6_(%"class.std::ios_base::Init"* noundef nonnull align 1 dereferenceable(1) %0) local_unnamed_addr #4 comdat align 2 !dbg !6844 {
  %2 = alloca i32, align 4
  %3 = alloca i32, align 4
  call void @llvm.dbg.value(metadata %"class.std::ios_base::Init"* %0, metadata !6846, metadata !DIExpression()), !dbg !6850
  %4 = bitcast i32* %2 to i8*, !dbg !6851
  call void @llvm.lifetime.start.p0i8(i64 4, i8* nonnull %4) #2, !dbg !6851
  call void @llvm.dbg.value(metadata i32 89478485, metadata !6847, metadata !DIExpression()), !dbg !6850
  store i32 89478485, i32* %2, align 4, !dbg !6852, !tbaa !5843
  %5 = bitcast i32* %3 to i8*, !dbg !6853
  call void @llvm.lifetime.start.p0i8(i64 4, i8* nonnull %5) #2, !dbg !6853
  %6 = tail call noundef i32 @_ZNSt16allocator_traitsISaINSt7__cxx1112basic_stringIcSt11char_traitsIcESaIcEEEEE8max_sizeERKS6_(%"class.std::ios_base::Init"* noundef nonnull align 1 dereferenceable(1) %0) #2, !dbg !6854
  call void @llvm.dbg.value(metadata i32 %6, metadata !6849, metadata !DIExpression()), !dbg !6850
  store i32 %6, i32* %3, align 4, !dbg !6855, !tbaa !5843
  call void @llvm.dbg.value(metadata i32* %2, metadata !6847, metadata !DIExpression(DW_OP_deref)), !dbg !6850
  call void @llvm.dbg.value(metadata i32* %3, metadata !6849, metadata !DIExpression(DW_OP_deref)), !dbg !6850
  %7 = call noundef nonnull align 4 dereferenceable(4) i32* @_ZSt3minIjERKT_S2_S2_(i32* noundef nonnull align 4 dereferenceable(4) %2, i32* noundef nonnull align 4 dereferenceable(4) %3), !dbg !6856
  %8 = load i32, i32* %7, align 4, !dbg !6856, !tbaa !5843
  call void @llvm.lifetime.end.p0i8(i64 4, i8* nonnull %5) #2, !dbg !6857
  call void @llvm.lifetime.end.p0i8(i64 4, i8* nonnull %4) #2, !dbg !6857
  ret i32 %8, !dbg !6858
}

; Function Attrs: mustprogress noinline nounwind
define linkonce_odr dso_local noundef i32 @_ZNSt16allocator_traitsISaINSt7__cxx1112basic_stringIcSt11char_traitsIcESaIcEEEEE8max_sizeERKS6_(%"class.std::ios_base::Init"* noundef nonnull align 1 dereferenceable(1) %0) local_unnamed_addr #4 comdat align 2 !dbg !6859 {
  call void @llvm.dbg.value(metadata %"class.std::ios_base::Init"* %0, metadata !6861, metadata !DIExpression()), !dbg !6862
  %2 = bitcast %"class.std::ios_base::Init"* %0 to %"class.std::ios_base::Init"*, !dbg !6863
  %3 = tail call noundef i32 @_ZNK9__gnu_cxx13new_allocatorINSt7__cxx1112basic_stringIcSt11char_traitsIcESaIcEEEE8max_sizeEv(%"class.std::ios_base::Init"* noundef nonnull align 1 dereferenceable(1) %2) #2, !dbg !6864
  ret i32 %3, !dbg !6865
}

; Function Attrs: mustprogress noinline nounwind
define linkonce_odr dso_local noundef nonnull align 4 dereferenceable(4) i32* @_ZSt3minIjERKT_S2_S2_(i32* noundef nonnull align 4 dereferenceable(4) %0, i32* noundef nonnull align 4 dereferenceable(4) %1) local_unnamed_addr #4 comdat !dbg !6866 {
  call void @llvm.dbg.value(metadata i32* %0, metadata !6868, metadata !DIExpression()), !dbg !6870
  call void @llvm.dbg.value(metadata i32* %1, metadata !6869, metadata !DIExpression()), !dbg !6870
  %3 = load i32, i32* %1, align 4, !dbg !6871, !tbaa !5843
  %4 = load i32, i32* %0, align 4, !dbg !6873, !tbaa !5843
  %5 = icmp ult i32 %3, %4, !dbg !6874
  %6 = select i1 %5, i32* %1, i32* %0, !dbg !6870
  ret i32* %6, !dbg !6875
}

; Function Attrs: mustprogress noinline nounwind
define linkonce_odr dso_local noundef i32 @_ZNK9__gnu_cxx13new_allocatorINSt7__cxx1112basic_stringIcSt11char_traitsIcESaIcEEEE8max_sizeEv(%"class.std::ios_base::Init"* noundef nonnull align 1 dereferenceable(1) %0) local_unnamed_addr #4 comdat align 2 !dbg !6876 {
  call void @llvm.dbg.value(metadata %"class.std::ios_base::Init"* %0, metadata !6878, metadata !DIExpression()), !dbg !6879
  %2 = tail call noundef i32 @_ZNK9__gnu_cxx13new_allocatorINSt7__cxx1112basic_stringIcSt11char_traitsIcESaIcEEEE11_M_max_sizeEv(%"class.std::ios_base::Init"* noundef nonnull align 1 dereferenceable(1) %0) #2, !dbg !6880
  ret i32 %2, !dbg !6881
}

; Function Attrs: mustprogress noinline nounwind
define linkonce_odr dso_local void @_ZN9__gnu_cxx13new_allocatorINSt7__cxx1112basic_stringIcSt11char_traitsIcESaIcEEEE9constructIS6_JS6_EEEvPT_DpOT0_(%"class.std::ios_base::Init"* noundef nonnull align 1 dereferenceable(1) %0, %"class.std::__cxx11::basic_string"* noundef %1, %"class.std::__cxx11::basic_string"* noundef nonnull align 4 dereferenceable(24) %2) local_unnamed_addr #4 comdat align 2 !dbg !6882 {
  call void @llvm.dbg.value(metadata %"class.std::ios_base::Init"* %0, metadata !6887, metadata !DIExpression()), !dbg !6890
  call void @llvm.dbg.value(metadata %"class.std::__cxx11::basic_string"* %1, metadata !6888, metadata !DIExpression()), !dbg !6890
  call void @llvm.dbg.value(metadata %"class.std::__cxx11::basic_string"* %2, metadata !6889, metadata !DIExpression()), !dbg !6890
  %4 = tail call noundef nonnull align 4 dereferenceable(24) %"class.std::__cxx11::basic_string"* @_ZSt7forwardINSt7__cxx1112basic_stringIcSt11char_traitsIcESaIcEEEEOT_RNSt16remove_referenceIS6_E4typeE(%"class.std::__cxx11::basic_string"* noundef nonnull align 4 dereferenceable(24) %2) #2, !dbg !6891
  %5 = tail call noundef %"class.std::__cxx11::basic_string"* @_ZNSt7__cxx1112basic_stringIcSt11char_traitsIcESaIcEEC2EOS4_(%"class.std::__cxx11::basic_string"* noundef nonnull align 4 dereferenceable(24) %1, %"class.std::__cxx11::basic_string"* noundef nonnull align 4 dereferenceable(24) %4) #2, !dbg !6892
  ret void, !dbg !6893
}

; Function Attrs: noinline nounwind
declare dso_local noundef %"class.std::__cxx11::basic_string"* @_ZNSt7__cxx1112basic_stringIcSt11char_traitsIcESaIcEEC2EOS4_(%"class.std::__cxx11::basic_string"* noundef nonnull returned align 4 dereferenceable(24), %"class.std::__cxx11::basic_string"* noundef nonnull align 4 dereferenceable(24)) unnamed_addr #0 align 2

; Function Attrs: mustprogress noinline nounwind
define linkonce_odr dso_local void @_ZNSt16allocator_traitsISaINSt7__cxx1112basic_stringIcSt11char_traitsIcESaIcEEEEE9constructIS5_JRKS5_EEEvRS6_PT_DpOT0_(%"class.std::ios_base::Init"* noundef nonnull align 1 dereferenceable(1) %0, %"class.std::__cxx11::basic_string"* noundef %1, %"class.std::__cxx11::basic_string"* noundef nonnull align 4 dereferenceable(24) %2) local_unnamed_addr #4 comdat align 2 !dbg !6894 {
  call void @llvm.dbg.value(metadata %"class.std::ios_base::Init"* %0, metadata !6903, metadata !DIExpression()), !dbg !6906
  call void @llvm.dbg.value(metadata %"class.std::__cxx11::basic_string"* %1, metadata !6904, metadata !DIExpression()), !dbg !6906
  call void @llvm.dbg.value(metadata %"class.std::__cxx11::basic_string"* %2, metadata !6905, metadata !DIExpression()), !dbg !6906
  %4 = bitcast %"class.std::ios_base::Init"* %0 to %"class.std::ios_base::Init"*, !dbg !6907
  %5 = tail call noundef nonnull align 4 dereferenceable(24) %"class.std::__cxx11::basic_string"* @_ZSt7forwardIRKNSt7__cxx1112basic_stringIcSt11char_traitsIcESaIcEEEEOT_RNSt16remove_referenceIS8_E4typeE(%"class.std::__cxx11::basic_string"* noundef nonnull align 4 dereferenceable(24) %2) #2, !dbg !6908
  tail call void @_ZN9__gnu_cxx13new_allocatorINSt7__cxx1112basic_stringIcSt11char_traitsIcESaIcEEEE9constructIS6_JRKS6_EEEvPT_DpOT0_(%"class.std::ios_base::Init"* noundef nonnull align 1 dereferenceable(1) %4, %"class.std::__cxx11::basic_string"* noundef %1, %"class.std::__cxx11::basic_string"* noundef nonnull align 4 dereferenceable(24) %5), !dbg !6909
  ret void, !dbg !6910
}

; Function Attrs: mustprogress noinline nounwind
define linkonce_odr dso_local void @_ZNSt6vectorINSt7__cxx1112basic_stringIcSt11char_traitsIcESaIcEEESaIS5_EE17_M_realloc_insertIJRKS5_EEEvN9__gnu_cxx17__normal_iteratorIPS5_S7_EEDpOT_(%"class.std::vector"* noundef nonnull align 4 dereferenceable(12) %0, [1 x i32] %1, %"class.std::__cxx11::basic_string"* noundef nonnull align 4 dereferenceable(24) %2) local_unnamed_addr #4 comdat align 2 !dbg !6911 {
  %4 = alloca %"class.__gnu_cxx::__normal_iterator.3", align 4
  %5 = alloca %"class.__gnu_cxx::__normal_iterator.3", align 4
  %6 = extractvalue [1 x i32] %1, 0
  %7 = bitcast %"class.__gnu_cxx::__normal_iterator.3"* %4 to i32*
  store i32 %6, i32* %7, align 4
  call void @llvm.dbg.value(metadata %"class.std::vector"* %0, metadata !6917, metadata !DIExpression()), !dbg !6926
  call void @llvm.dbg.declare(metadata %"class.__gnu_cxx::__normal_iterator.3"* %4, metadata !6918, metadata !DIExpression()), !dbg !6927
  call void @llvm.dbg.value(metadata %"class.std::__cxx11::basic_string"* %2, metadata !6919, metadata !DIExpression()), !dbg !6926
  %8 = tail call noundef i32 @_ZNKSt6vectorINSt7__cxx1112basic_stringIcSt11char_traitsIcESaIcEEESaIS5_EE12_M_check_lenEjPKc(%"class.std::vector"* noundef nonnull align 4 dereferenceable(12) %0, i32 noundef 1, i8* noundef getelementptr inbounds ([26 x i8], [26 x i8]* @.str.11, i32 0, i32 0)), !dbg !6928
  call void @llvm.dbg.value(metadata i32 %8, metadata !6920, metadata !DIExpression()), !dbg !6926
  %9 = getelementptr inbounds %"class.std::vector", %"class.std::vector"* %0, i32 0, i32 0, !dbg !6929
  %10 = getelementptr inbounds %"class.std::vector", %"class.std::vector"* %0, i32 0, i32 0, i32 0, i32 0, i32 0, !dbg !6930
  %11 = load %"class.std::__cxx11::basic_string"*, %"class.std::__cxx11::basic_string"** %10, align 4, !dbg !6930, !tbaa !6532
  call void @llvm.dbg.value(metadata %"class.std::__cxx11::basic_string"* %11, metadata !6921, metadata !DIExpression()), !dbg !6926
  %12 = getelementptr inbounds %"class.std::vector", %"class.std::vector"* %0, i32 0, i32 0, i32 0, i32 0, i32 1, !dbg !6931
  %13 = load %"class.std::__cxx11::basic_string"*, %"class.std::__cxx11::basic_string"** %12, align 4, !dbg !6931, !tbaa !6418
  call void @llvm.dbg.value(metadata %"class.std::__cxx11::basic_string"* %13, metadata !6922, metadata !DIExpression()), !dbg !6926
  %14 = bitcast %"class.__gnu_cxx::__normal_iterator.3"* %5 to i8*, !dbg !6932
  call void @llvm.lifetime.start.p0i8(i64 4, i8* nonnull %14) #2, !dbg !6932
  %15 = tail call i32 @_ZNSt6vectorINSt7__cxx1112basic_stringIcSt11char_traitsIcESaIcEEESaIS5_EE5beginEv(%"class.std::vector"* noundef nonnull align 4 dereferenceable(12) %0) #2, !dbg !6932
  %16 = getelementptr inbounds %"class.__gnu_cxx::__normal_iterator.3", %"class.__gnu_cxx::__normal_iterator.3"* %5, i32 0, i32 0, !dbg !6932
  %17 = inttoptr i32 %15 to %"class.std::__cxx11::basic_string"*, !dbg !6932
  store %"class.std::__cxx11::basic_string"* %17, %"class.std::__cxx11::basic_string"** %16, align 4, !dbg !6932
  %18 = call noundef i32 @_ZN9__gnu_cxxmiIPNSt7__cxx1112basic_stringIcSt11char_traitsIcESaIcEEESt6vectorIS6_SaIS6_EEEENS_17__normal_iteratorIT_T0_E15difference_typeERKSE_SH_(%"class.__gnu_cxx::__normal_iterator.3"* noundef nonnull align 4 dereferenceable(4) %4, %"class.__gnu_cxx::__normal_iterator.3"* noundef nonnull align 4 dereferenceable(4) %5) #2, !dbg !6933
  call void @llvm.lifetime.end.p0i8(i64 4, i8* nonnull %14) #2, !dbg !6934
  call void @llvm.dbg.value(metadata i32 %18, metadata !6923, metadata !DIExpression()), !dbg !6926
  %19 = call noundef %"class.std::__cxx11::basic_string"* @_ZNSt12_Vector_baseINSt7__cxx1112basic_stringIcSt11char_traitsIcESaIcEEESaIS5_EE11_M_allocateEj(%"struct.std::_Vector_base"* noundef nonnull align 4 dereferenceable(12) %9, i32 noundef %8), !dbg !6935
  call void @llvm.dbg.value(metadata %"class.std::__cxx11::basic_string"* %19, metadata !6924, metadata !DIExpression()), !dbg !6926
  call void @llvm.dbg.value(metadata %"class.std::__cxx11::basic_string"* %19, metadata !6925, metadata !DIExpression()), !dbg !6926
  %20 = bitcast %"class.std::vector"* %0 to %"class.std::ios_base::Init"*, !dbg !6936
  %21 = getelementptr inbounds %"class.std::__cxx11::basic_string", %"class.std::__cxx11::basic_string"* %19, i32 %18, !dbg !6939
  %22 = call noundef nonnull align 4 dereferenceable(24) %"class.std::__cxx11::basic_string"* @_ZSt7forwardIRKNSt7__cxx1112basic_stringIcSt11char_traitsIcESaIcEEEEOT_RNSt16remove_referenceIS8_E4typeE(%"class.std::__cxx11::basic_string"* noundef nonnull align 4 dereferenceable(24) %2) #2, !dbg !6940
  call void @_ZNSt16allocator_traitsISaINSt7__cxx1112basic_stringIcSt11char_traitsIcESaIcEEEEE9constructIS5_JRKS5_EEEvRS6_PT_DpOT0_(%"class.std::ios_base::Init"* noundef nonnull align 1 dereferenceable(1) %20, %"class.std::__cxx11::basic_string"* noundef %21, %"class.std::__cxx11::basic_string"* noundef nonnull align 4 dereferenceable(24) %22), !dbg !6941
  call void @llvm.dbg.value(metadata %"class.std::__cxx11::basic_string"* null, metadata !6925, metadata !DIExpression()), !dbg !6926
  %23 = call noundef nonnull align 4 dereferenceable(4) %"class.std::__cxx11::basic_string"** @_ZNK9__gnu_cxx17__normal_iteratorIPNSt7__cxx1112basic_stringIcSt11char_traitsIcESaIcEEESt6vectorIS6_SaIS6_EEE4baseEv(%"class.__gnu_cxx::__normal_iterator.3"* noundef nonnull align 4 dereferenceable(4) %4) #2, !dbg !6942
  %24 = load %"class.std::__cxx11::basic_string"*, %"class.std::__cxx11::basic_string"** %23, align 4, !dbg !6942, !tbaa !5889
  %25 = call noundef nonnull align 1 dereferenceable(1) %"class.std::ios_base::Init"* @_ZNSt12_Vector_baseINSt7__cxx1112basic_stringIcSt11char_traitsIcESaIcEEESaIS5_EE19_M_get_Tp_allocatorEv(%"struct.std::_Vector_base"* noundef nonnull align 4 dereferenceable(12) %9) #2, !dbg !6945
  %26 = call noundef %"class.std::__cxx11::basic_string"* @_ZNSt6vectorINSt7__cxx1112basic_stringIcSt11char_traitsIcESaIcEEESaIS5_EE11_S_relocateEPS5_S8_S8_RS6_(%"class.std::__cxx11::basic_string"* noundef %11, %"class.std::__cxx11::basic_string"* noundef %24, %"class.std::__cxx11::basic_string"* noundef %19, %"class.std::ios_base::Init"* noundef nonnull align 1 dereferenceable(1) %25) #2, !dbg !6946
  call void @llvm.dbg.value(metadata %"class.std::__cxx11::basic_string"* %26, metadata !6925, metadata !DIExpression()), !dbg !6926
  %27 = getelementptr inbounds %"class.std::__cxx11::basic_string", %"class.std::__cxx11::basic_string"* %26, i32 1, !dbg !6947
  call void @llvm.dbg.value(metadata %"class.std::__cxx11::basic_string"* %27, metadata !6925, metadata !DIExpression()), !dbg !6926
  %28 = call noundef nonnull align 4 dereferenceable(4) %"class.std::__cxx11::basic_string"** @_ZNK9__gnu_cxx17__normal_iteratorIPNSt7__cxx1112basic_stringIcSt11char_traitsIcESaIcEEESt6vectorIS6_SaIS6_EEE4baseEv(%"class.__gnu_cxx::__normal_iterator.3"* noundef nonnull align 4 dereferenceable(4) %4) #2, !dbg !6948
  %29 = load %"class.std::__cxx11::basic_string"*, %"class.std::__cxx11::basic_string"** %28, align 4, !dbg !6948, !tbaa !5889
  %30 = call noundef nonnull align 1 dereferenceable(1) %"class.std::ios_base::Init"* @_ZNSt12_Vector_baseINSt7__cxx1112basic_stringIcSt11char_traitsIcESaIcEEESaIS5_EE19_M_get_Tp_allocatorEv(%"struct.std::_Vector_base"* noundef nonnull align 4 dereferenceable(12) %9) #2, !dbg !6949
  %31 = call noundef %"class.std::__cxx11::basic_string"* @_ZNSt6vectorINSt7__cxx1112basic_stringIcSt11char_traitsIcESaIcEEESaIS5_EE11_S_relocateEPS5_S8_S8_RS6_(%"class.std::__cxx11::basic_string"* noundef %29, %"class.std::__cxx11::basic_string"* noundef %13, %"class.std::__cxx11::basic_string"* noundef nonnull %27, %"class.std::ios_base::Init"* noundef nonnull align 1 dereferenceable(1) %30) #2, !dbg !6950
  call void @llvm.dbg.value(metadata %"class.std::__cxx11::basic_string"* %31, metadata !6925, metadata !DIExpression()), !dbg !6926
  %32 = getelementptr inbounds %"class.std::vector", %"class.std::vector"* %0, i32 0, i32 0, i32 0, i32 0, i32 2, !dbg !6951
  %33 = load %"class.std::__cxx11::basic_string"*, %"class.std::__cxx11::basic_string"** %32, align 4, !dbg !6951, !tbaa !6421
  %34 = ptrtoint %"class.std::__cxx11::basic_string"* %33 to i32, !dbg !6952
  %35 = ptrtoint %"class.std::__cxx11::basic_string"* %11 to i32, !dbg !6952
  %36 = sub i32 %34, %35, !dbg !6952
  %37 = sdiv exact i32 %36, 24, !dbg !6952
  call void @_ZNSt12_Vector_baseINSt7__cxx1112basic_stringIcSt11char_traitsIcESaIcEEESaIS5_EE13_M_deallocateEPS5_j(%"struct.std::_Vector_base"* noundef nonnull align 4 dereferenceable(12) %9, %"class.std::__cxx11::basic_string"* noundef %11, i32 noundef %37), !dbg !6953
  store %"class.std::__cxx11::basic_string"* %19, %"class.std::__cxx11::basic_string"** %10, align 4, !dbg !6954, !tbaa !6532
  store %"class.std::__cxx11::basic_string"* %31, %"class.std::__cxx11::basic_string"** %12, align 4, !dbg !6955, !tbaa !6418
  %38 = getelementptr inbounds %"class.std::__cxx11::basic_string", %"class.std::__cxx11::basic_string"* %19, i32 %8, !dbg !6956
  store %"class.std::__cxx11::basic_string"* %38, %"class.std::__cxx11::basic_string"** %32, align 4, !dbg !6957, !tbaa !6421
  ret void, !dbg !6958
}

; Function Attrs: mustprogress noinline nounwind
define linkonce_odr dso_local noundef nonnull align 4 dereferenceable(24) %"class.std::__cxx11::basic_string"* @_ZSt7forwardIRKNSt7__cxx1112basic_stringIcSt11char_traitsIcESaIcEEEEOT_RNSt16remove_referenceIS8_E4typeE(%"class.std::__cxx11::basic_string"* noundef nonnull align 4 dereferenceable(24) %0) local_unnamed_addr #4 comdat !dbg !6959 {
  call void @llvm.dbg.value(metadata %"class.std::__cxx11::basic_string"* %0, metadata !6968, metadata !DIExpression()), !dbg !6969
  ret %"class.std::__cxx11::basic_string"* %0, !dbg !6970
}

; Function Attrs: mustprogress noinline nounwind
define linkonce_odr dso_local void @_ZN9__gnu_cxx13new_allocatorINSt7__cxx1112basic_stringIcSt11char_traitsIcESaIcEEEE9constructIS6_JRKS6_EEEvPT_DpOT0_(%"class.std::ios_base::Init"* noundef nonnull align 1 dereferenceable(1) %0, %"class.std::__cxx11::basic_string"* noundef %1, %"class.std::__cxx11::basic_string"* noundef nonnull align 4 dereferenceable(24) %2) local_unnamed_addr #4 comdat align 2 !dbg !6971 {
  call void @llvm.dbg.value(metadata %"class.std::ios_base::Init"* %0, metadata !6976, metadata !DIExpression()), !dbg !6979
  call void @llvm.dbg.value(metadata %"class.std::__cxx11::basic_string"* %1, metadata !6977, metadata !DIExpression()), !dbg !6979
  call void @llvm.dbg.value(metadata %"class.std::__cxx11::basic_string"* %2, metadata !6978, metadata !DIExpression()), !dbg !6979
  %4 = tail call noundef nonnull align 4 dereferenceable(24) %"class.std::__cxx11::basic_string"* @_ZSt7forwardIRKNSt7__cxx1112basic_stringIcSt11char_traitsIcESaIcEEEEOT_RNSt16remove_referenceIS8_E4typeE(%"class.std::__cxx11::basic_string"* noundef nonnull align 4 dereferenceable(24) %2) #2, !dbg !6980
  %5 = tail call noundef %"class.std::__cxx11::basic_string"* @_ZNSt7__cxx1112basic_stringIcSt11char_traitsIcESaIcEEC2ERKS4_(%"class.std::__cxx11::basic_string"* noundef nonnull align 4 dereferenceable(24) %1, %"class.std::__cxx11::basic_string"* noundef nonnull align 4 dereferenceable(24) %4), !dbg !6981
  ret void, !dbg !6982
}

; Function Attrs: noinline nounwind
declare dso_local noundef %"class.std::__cxx11::basic_string"* @_ZNSt7__cxx1112basic_stringIcSt11char_traitsIcESaIcEEC2ERKS4_(%"class.std::__cxx11::basic_string"* noundef nonnull returned align 4 dereferenceable(24), %"class.std::__cxx11::basic_string"* noundef nonnull align 4 dereferenceable(24)) unnamed_addr #0 align 2

; Function Attrs: noinline nounwind
define linkonce_odr dso_local noundef %"struct.std::_Vector_base"* @_ZNSt12_Vector_baseINSt7__cxx1112basic_stringIcSt11char_traitsIcESaIcEEESaIS5_EEC2Ev(%"struct.std::_Vector_base"* noundef nonnull returned align 4 dereferenceable(12) %0) unnamed_addr #0 comdat align 2 !dbg !6983 {
  call void @llvm.dbg.value(metadata %"struct.std::_Vector_base"* %0, metadata !6985, metadata !DIExpression()), !dbg !6986
  %2 = getelementptr inbounds %"struct.std::_Vector_base", %"struct.std::_Vector_base"* %0, i32 0, i32 0, !dbg !6987
  %3 = tail call noundef %"struct.std::_Vector_base<std::__cxx11::basic_string<char>, std::allocator<std::__cxx11::basic_string<char>>>::_Vector_impl"* @_ZNSt12_Vector_baseINSt7__cxx1112basic_stringIcSt11char_traitsIcESaIcEEESaIS5_EE12_Vector_implC2Ev(%"struct.std::_Vector_base<std::__cxx11::basic_string<char>, std::allocator<std::__cxx11::basic_string<char>>>::_Vector_impl"* noundef nonnull align 4 dereferenceable(12) %2) #2, !dbg !6987
  ret %"struct.std::_Vector_base"* %0, !dbg !6988
}

; Function Attrs: noinline nounwind
define linkonce_odr dso_local noundef %"struct.std::_Vector_base<std::__cxx11::basic_string<char>, std::allocator<std::__cxx11::basic_string<char>>>::_Vector_impl"* @_ZNSt12_Vector_baseINSt7__cxx1112basic_stringIcSt11char_traitsIcESaIcEEESaIS5_EE12_Vector_implC2Ev(%"struct.std::_Vector_base<std::__cxx11::basic_string<char>, std::allocator<std::__cxx11::basic_string<char>>>::_Vector_impl"* noundef nonnull returned align 4 dereferenceable(12) %0) unnamed_addr #0 comdat align 2 !dbg !6989 {
  call void @llvm.dbg.value(metadata %"struct.std::_Vector_base<std::__cxx11::basic_string<char>, std::allocator<std::__cxx11::basic_string<char>>>::_Vector_impl"* %0, metadata !6991, metadata !DIExpression()), !dbg !6993
  %2 = bitcast %"struct.std::_Vector_base<std::__cxx11::basic_string<char>, std::allocator<std::__cxx11::basic_string<char>>>::_Vector_impl"* %0 to %"class.std::ios_base::Init"*, !dbg !6994
  %3 = tail call noundef %"class.std::ios_base::Init"* @_ZNSaINSt7__cxx1112basic_stringIcSt11char_traitsIcESaIcEEEEC2Ev(%"class.std::ios_base::Init"* noundef nonnull align 1 dereferenceable(1) %2) #2, !dbg !6995
  %4 = getelementptr inbounds %"struct.std::_Vector_base<std::__cxx11::basic_string<char>, std::allocator<std::__cxx11::basic_string<char>>>::_Vector_impl", %"struct.std::_Vector_base<std::__cxx11::basic_string<char>, std::allocator<std::__cxx11::basic_string<char>>>::_Vector_impl"* %0, i32 0, i32 0, !dbg !6994
  %5 = tail call noundef %"struct.std::_Vector_base<std::__cxx11::basic_string<char>, std::allocator<std::__cxx11::basic_string<char>>>::_Vector_impl_data"* @_ZNSt12_Vector_baseINSt7__cxx1112basic_stringIcSt11char_traitsIcESaIcEEESaIS5_EE17_Vector_impl_dataC2Ev(%"struct.std::_Vector_base<std::__cxx11::basic_string<char>, std::allocator<std::__cxx11::basic_string<char>>>::_Vector_impl_data"* noundef nonnull align 4 dereferenceable(12) %4) #2, !dbg !6996
  ret %"struct.std::_Vector_base<std::__cxx11::basic_string<char>, std::allocator<std::__cxx11::basic_string<char>>>::_Vector_impl"* %0, !dbg !6997
}

; Function Attrs: noinline nounwind
define linkonce_odr dso_local noundef %"class.std::ios_base::Init"* @_ZNSaINSt7__cxx1112basic_stringIcSt11char_traitsIcESaIcEEEEC2Ev(%"class.std::ios_base::Init"* noundef nonnull returned align 1 dereferenceable(1) %0) unnamed_addr #0 comdat align 2 !dbg !6998 {
  call void @llvm.dbg.value(metadata %"class.std::ios_base::Init"* %0, metadata !7000, metadata !DIExpression()), !dbg !7002
  %2 = bitcast %"class.std::ios_base::Init"* %0 to %"class.std::ios_base::Init"*, !dbg !7003
  %3 = tail call noundef %"class.std::ios_base::Init"* @_ZN9__gnu_cxx13new_allocatorINSt7__cxx1112basic_stringIcSt11char_traitsIcESaIcEEEEC2Ev(%"class.std::ios_base::Init"* noundef nonnull align 1 dereferenceable(1) %2) #2, !dbg !7004
  ret %"class.std::ios_base::Init"* %0, !dbg !7005
}

; Function Attrs: noinline nounwind
define linkonce_odr dso_local noundef %"struct.std::_Vector_base<std::__cxx11::basic_string<char>, std::allocator<std::__cxx11::basic_string<char>>>::_Vector_impl_data"* @_ZNSt12_Vector_baseINSt7__cxx1112basic_stringIcSt11char_traitsIcESaIcEEESaIS5_EE17_Vector_impl_dataC2Ev(%"struct.std::_Vector_base<std::__cxx11::basic_string<char>, std::allocator<std::__cxx11::basic_string<char>>>::_Vector_impl_data"* noundef nonnull returned align 4 dereferenceable(12) %0) unnamed_addr #0 comdat align 2 !dbg !7006 {
  call void @llvm.dbg.value(metadata %"struct.std::_Vector_base<std::__cxx11::basic_string<char>, std::allocator<std::__cxx11::basic_string<char>>>::_Vector_impl_data"* %0, metadata !7008, metadata !DIExpression()), !dbg !7010
  %2 = getelementptr inbounds %"struct.std::_Vector_base<std::__cxx11::basic_string<char>, std::allocator<std::__cxx11::basic_string<char>>>::_Vector_impl_data", %"struct.std::_Vector_base<std::__cxx11::basic_string<char>, std::allocator<std::__cxx11::basic_string<char>>>::_Vector_impl_data"* %0, i32 0, i32 0, !dbg !7011
  store %"class.std::__cxx11::basic_string"* null, %"class.std::__cxx11::basic_string"** %2, align 4, !dbg !7011, !tbaa !6532
  %3 = getelementptr inbounds %"struct.std::_Vector_base<std::__cxx11::basic_string<char>, std::allocator<std::__cxx11::basic_string<char>>>::_Vector_impl_data", %"struct.std::_Vector_base<std::__cxx11::basic_string<char>, std::allocator<std::__cxx11::basic_string<char>>>::_Vector_impl_data"* %0, i32 0, i32 1, !dbg !7012
  store %"class.std::__cxx11::basic_string"* null, %"class.std::__cxx11::basic_string"** %3, align 4, !dbg !7012, !tbaa !6418
  %4 = getelementptr inbounds %"struct.std::_Vector_base<std::__cxx11::basic_string<char>, std::allocator<std::__cxx11::basic_string<char>>>::_Vector_impl_data", %"struct.std::_Vector_base<std::__cxx11::basic_string<char>, std::allocator<std::__cxx11::basic_string<char>>>::_Vector_impl_data"* %0, i32 0, i32 2, !dbg !7013
  store %"class.std::__cxx11::basic_string"* null, %"class.std::__cxx11::basic_string"** %4, align 4, !dbg !7013, !tbaa !6421
  ret %"struct.std::_Vector_base<std::__cxx11::basic_string<char>, std::allocator<std::__cxx11::basic_string<char>>>::_Vector_impl_data"* %0, !dbg !7014
}

; Function Attrs: noinline nounwind
define linkonce_odr dso_local noundef %"class.std::ios_base::Init"* @_ZN9__gnu_cxx13new_allocatorINSt7__cxx1112basic_stringIcSt11char_traitsIcESaIcEEEEC2Ev(%"class.std::ios_base::Init"* noundef nonnull returned align 1 dereferenceable(1) %0) unnamed_addr #0 comdat align 2 !dbg !7015 {
  call void @llvm.dbg.value(metadata %"class.std::ios_base::Init"* %0, metadata !7017, metadata !DIExpression()), !dbg !7018
  ret %"class.std::ios_base::Init"* %0, !dbg !7019
}

; Function Attrs: mustprogress noinline nounwind
define dso_local void @_ZN5Utils9split_msgENSt7__cxx1112basic_stringIcSt11char_traitsIcESaIcEEEj(%"class.std::__cxx11::basic_string"* noalias sret(%"class.std::__cxx11::basic_string") align 4 %0, %"class.std::__cxx11::basic_string"* noundef nonnull %1, i32 noundef %2) local_unnamed_addr #4 !dbg !7020 {
  %4 = alloca %"class.std::vector", align 4
  %5 = alloca %"class.std::__cxx11::basic_string", align 4
  %6 = alloca %"class.std::__cxx11::basic_string", align 4
  %7 = alloca %"class.std::ios_base::Init", align 1
  %8 = alloca %"class.std::ios_base::Init", align 1
  call void @llvm.dbg.declare(metadata %"class.std::__cxx11::basic_string"* %1, metadata !7024, metadata !DIExpression()), !dbg !7029
  call void @llvm.dbg.value(metadata i32 %2, metadata !7025, metadata !DIExpression()), !dbg !7030
  %9 = bitcast %"class.std::vector"* %4 to i8*, !dbg !7031
  call void @llvm.lifetime.start.p0i8(i64 12, i8* nonnull %9) #2, !dbg !7031
  call void @llvm.dbg.declare(metadata %"class.std::vector"* %4, metadata !7026, metadata !DIExpression()), !dbg !7032
  %10 = call noundef %"class.std::__cxx11::basic_string"* @_ZNSt7__cxx1112basic_stringIcSt11char_traitsIcESaIcEEC2ERKS4_(%"class.std::__cxx11::basic_string"* noundef nonnull align 4 dereferenceable(24) %5, %"class.std::__cxx11::basic_string"* noundef nonnull align 4 dereferenceable(24) %1), !dbg !7033
  %11 = getelementptr inbounds %"class.std::ios_base::Init", %"class.std::ios_base::Init"* %7, i32 0, i32 0, !dbg !7034
  call void @llvm.lifetime.start.p0i8(i64 1, i8* nonnull %11) #2, !dbg !7034
  %12 = call noundef %"class.std::ios_base::Init"* @_ZNSaIcEC2Ev(%"class.std::ios_base::Init"* noundef nonnull align 1 dereferenceable(1) %7) #2, !dbg !7034
  %13 = call noundef %"class.std::__cxx11::basic_string"* @_ZNSt7__cxx1112basic_stringIcSt11char_traitsIcESaIcEEC2EPKcRKS3_(%"class.std::__cxx11::basic_string"* noundef nonnull align 4 dereferenceable(24) %6, i8* noundef getelementptr inbounds ([3 x i8], [3 x i8]* @.str.34, i32 0, i32 0), %"class.std::ios_base::Init"* noundef nonnull align 1 dereferenceable(1) %7), !dbg !7034
  call void @_ZN5Utils14split_to_linesENSt7__cxx1112basic_stringIcSt11char_traitsIcESaIcEEES5_(%"class.std::vector"* nonnull sret(%"class.std::vector") align 4 %4, %"class.std::__cxx11::basic_string"* noundef nonnull %5, %"class.std::__cxx11::basic_string"* noundef nonnull %6), !dbg !7034
  %14 = call noundef %"class.std::__cxx11::basic_string"* @_ZNSt7__cxx1112basic_stringIcSt11char_traitsIcESaIcEED2Ev(%"class.std::__cxx11::basic_string"* noundef nonnull align 4 dereferenceable(24) %6) #2, !dbg !7034
  %15 = call noundef %"class.std::ios_base::Init"* @_ZNSaIcED2Ev(%"class.std::ios_base::Init"* noundef nonnull align 1 dereferenceable(1) %7) #2, !dbg !7034
  call void @llvm.lifetime.end.p0i8(i64 1, i8* nonnull %11) #2, !dbg !7034
  %16 = call noundef %"class.std::__cxx11::basic_string"* @_ZNSt7__cxx1112basic_stringIcSt11char_traitsIcESaIcEED2Ev(%"class.std::__cxx11::basic_string"* noundef nonnull align 4 dereferenceable(24) %5) #2, !dbg !7034
  call void @llvm.dbg.value(metadata i32 0, metadata !7027, metadata !DIExpression()), !dbg !7035
  %17 = call noundef i32 @_ZNKSt6vectorINSt7__cxx1112basic_stringIcSt11char_traitsIcESaIcEEESaIS5_EE4sizeEv(%"class.std::vector"* noundef nonnull align 4 dereferenceable(12) %4) #2, !dbg !7036
  %18 = icmp eq i32 %17, 0, !dbg !7038
  br i1 %18, label %29, label %19, !dbg !7039

19:                                               ; preds = %3, %25
  %20 = phi i32 [ %26, %25 ], [ 0, %3 ]
  call void @llvm.dbg.value(metadata i32 %20, metadata !7027, metadata !DIExpression()), !dbg !7035
  %21 = icmp eq i32 %20, %2, !dbg !7040
  br i1 %21, label %22, label %25, !dbg !7043

22:                                               ; preds = %19
  %23 = call noundef nonnull align 4 dereferenceable(24) %"class.std::__cxx11::basic_string"* @_ZNKSt6vectorINSt7__cxx1112basic_stringIcSt11char_traitsIcESaIcEEESaIS5_EEixEj(%"class.std::vector"* noundef nonnull align 4 dereferenceable(12) %4, i32 noundef %2) #2, !dbg !7044
  %24 = call noundef %"class.std::__cxx11::basic_string"* @_ZNSt7__cxx1112basic_stringIcSt11char_traitsIcESaIcEEC2ERKS4_(%"class.std::__cxx11::basic_string"* noundef nonnull align 4 dereferenceable(24) %0, %"class.std::__cxx11::basic_string"* noundef nonnull align 4 dereferenceable(24) %23), !dbg !7044
  br label %34

25:                                               ; preds = %19
  %26 = add nuw i32 %20, 1, !dbg !7045
  call void @llvm.dbg.value(metadata i32 %26, metadata !7027, metadata !DIExpression()), !dbg !7035
  %27 = call noundef i32 @_ZNKSt6vectorINSt7__cxx1112basic_stringIcSt11char_traitsIcESaIcEEESaIS5_EE4sizeEv(%"class.std::vector"* noundef nonnull align 4 dereferenceable(12) %4) #2, !dbg !7036
  %28 = icmp ult i32 %26, %27, !dbg !7038
  br i1 %28, label %19, label %29, !dbg !7039, !llvm.loop !7046

29:                                               ; preds = %25, %3
  %30 = getelementptr inbounds %"class.std::ios_base::Init", %"class.std::ios_base::Init"* %8, i32 0, i32 0, !dbg !7048
  call void @llvm.lifetime.start.p0i8(i64 1, i8* nonnull %30) #2, !dbg !7048
  %31 = call noundef %"class.std::ios_base::Init"* @_ZNSaIcEC2Ev(%"class.std::ios_base::Init"* noundef nonnull align 1 dereferenceable(1) %8) #2, !dbg !7048
  %32 = call noundef %"class.std::__cxx11::basic_string"* @_ZNSt7__cxx1112basic_stringIcSt11char_traitsIcESaIcEEC2EPKcRKS3_(%"class.std::__cxx11::basic_string"* noundef nonnull align 4 dereferenceable(24) %0, i8* noundef getelementptr inbounds ([1 x i8], [1 x i8]* @.str.1, i32 0, i32 0), %"class.std::ios_base::Init"* noundef nonnull align 1 dereferenceable(1) %8), !dbg !7048
  %33 = call noundef %"class.std::ios_base::Init"* @_ZNSaIcED2Ev(%"class.std::ios_base::Init"* noundef nonnull align 1 dereferenceable(1) %8) #2, !dbg !7049
  call void @llvm.lifetime.end.p0i8(i64 1, i8* nonnull %30) #2, !dbg !7049
  br label %34, !dbg !7049

34:                                               ; preds = %22, %29
  %35 = call noundef %"class.std::vector"* @_ZNSt6vectorINSt7__cxx1112basic_stringIcSt11char_traitsIcESaIcEEESaIS5_EED2Ev(%"class.std::vector"* noundef nonnull align 4 dereferenceable(12) %4) #2, !dbg !7050
  call void @llvm.lifetime.end.p0i8(i64 12, i8* nonnull %9) #2, !dbg !7050
  ret void, !dbg !7050
}

; Function Attrs: mustprogress noinline nounwind
define linkonce_odr dso_local noundef nonnull align 4 dereferenceable(24) %"class.std::__cxx11::basic_string"* @_ZNKSt6vectorINSt7__cxx1112basic_stringIcSt11char_traitsIcESaIcEEESaIS5_EEixEj(%"class.std::vector"* noundef nonnull align 4 dereferenceable(12) %0, i32 noundef %1) local_unnamed_addr #4 comdat align 2 !dbg !7051 {
  call void @llvm.dbg.value(metadata %"class.std::vector"* %0, metadata !7053, metadata !DIExpression()), !dbg !7055
  call void @llvm.dbg.value(metadata i32 %1, metadata !7054, metadata !DIExpression()), !dbg !7055
  %3 = getelementptr inbounds %"class.std::vector", %"class.std::vector"* %0, i32 0, i32 0, i32 0, i32 0, i32 0, !dbg !7056
  %4 = load %"class.std::__cxx11::basic_string"*, %"class.std::__cxx11::basic_string"** %3, align 4, !dbg !7056, !tbaa !6532
  %5 = getelementptr inbounds %"class.std::__cxx11::basic_string", %"class.std::__cxx11::basic_string"* %4, i32 %1, !dbg !7057
  ret %"class.std::__cxx11::basic_string"* %5, !dbg !7058
}

; Function Attrs: noinline nounwind
define linkonce_odr dso_local noundef %"class.std::vector"* @_ZNSt6vectorINSt7__cxx1112basic_stringIcSt11char_traitsIcESaIcEEESaIS5_EED2Ev(%"class.std::vector"* noundef nonnull returned align 4 dereferenceable(12) %0) unnamed_addr #0 comdat align 2 !dbg !7059 {
  call void @llvm.dbg.value(metadata %"class.std::vector"* %0, metadata !7061, metadata !DIExpression()), !dbg !7062
  %2 = getelementptr inbounds %"class.std::vector", %"class.std::vector"* %0, i32 0, i32 0, !dbg !7063
  %3 = getelementptr inbounds %"class.std::vector", %"class.std::vector"* %0, i32 0, i32 0, i32 0, i32 0, i32 0, !dbg !7065
  %4 = load %"class.std::__cxx11::basic_string"*, %"class.std::__cxx11::basic_string"** %3, align 4, !dbg !7065, !tbaa !6532
  %5 = getelementptr inbounds %"class.std::vector", %"class.std::vector"* %0, i32 0, i32 0, i32 0, i32 0, i32 1, !dbg !7066
  %6 = load %"class.std::__cxx11::basic_string"*, %"class.std::__cxx11::basic_string"** %5, align 4, !dbg !7066, !tbaa !6418
  %7 = tail call noundef nonnull align 1 dereferenceable(1) %"class.std::ios_base::Init"* @_ZNSt12_Vector_baseINSt7__cxx1112basic_stringIcSt11char_traitsIcESaIcEEESaIS5_EE19_M_get_Tp_allocatorEv(%"struct.std::_Vector_base"* noundef nonnull align 4 dereferenceable(12) %2) #2, !dbg !7067
  tail call void @_ZSt8_DestroyIPNSt7__cxx1112basic_stringIcSt11char_traitsIcESaIcEEES5_EvT_S7_RSaIT0_E(%"class.std::__cxx11::basic_string"* noundef %4, %"class.std::__cxx11::basic_string"* noundef %6, %"class.std::ios_base::Init"* noundef nonnull align 1 dereferenceable(1) %7), !dbg !7068
  %8 = tail call noundef %"struct.std::_Vector_base"* @_ZNSt12_Vector_baseINSt7__cxx1112basic_stringIcSt11char_traitsIcESaIcEEESaIS5_EED2Ev(%"struct.std::_Vector_base"* noundef nonnull align 4 dereferenceable(12) %2) #2, !dbg !7069
  ret %"class.std::vector"* %0, !dbg !7070
}

; Function Attrs: mustprogress noinline nounwind
define linkonce_odr dso_local void @_ZSt8_DestroyIPNSt7__cxx1112basic_stringIcSt11char_traitsIcESaIcEEES5_EvT_S7_RSaIT0_E(%"class.std::__cxx11::basic_string"* noundef %0, %"class.std::__cxx11::basic_string"* noundef %1, %"class.std::ios_base::Init"* noundef nonnull align 1 dereferenceable(1) %2) local_unnamed_addr #4 comdat !dbg !7071 {
  call void @llvm.dbg.value(metadata %"class.std::__cxx11::basic_string"* %0, metadata !7073, metadata !DIExpression()), !dbg !7077
  call void @llvm.dbg.value(metadata %"class.std::__cxx11::basic_string"* %1, metadata !7074, metadata !DIExpression()), !dbg !7077
  call void @llvm.dbg.value(metadata %"class.std::ios_base::Init"* %2, metadata !7075, metadata !DIExpression()), !dbg !7077
  tail call void @_ZSt8_DestroyIPNSt7__cxx1112basic_stringIcSt11char_traitsIcESaIcEEEEvT_S7_(%"class.std::__cxx11::basic_string"* noundef %0, %"class.std::__cxx11::basic_string"* noundef %1), !dbg !7078
  ret void, !dbg !7079
}

; Function Attrs: noinline nounwind
define linkonce_odr dso_local noundef %"struct.std::_Vector_base"* @_ZNSt12_Vector_baseINSt7__cxx1112basic_stringIcSt11char_traitsIcESaIcEEESaIS5_EED2Ev(%"struct.std::_Vector_base"* noundef nonnull returned align 4 dereferenceable(12) %0) unnamed_addr #0 comdat align 2 !dbg !7080 {
  call void @llvm.dbg.value(metadata %"struct.std::_Vector_base"* %0, metadata !7082, metadata !DIExpression()), !dbg !7083
  %2 = getelementptr inbounds %"struct.std::_Vector_base", %"struct.std::_Vector_base"* %0, i32 0, i32 0, i32 0, i32 0, !dbg !7084
  %3 = load %"class.std::__cxx11::basic_string"*, %"class.std::__cxx11::basic_string"** %2, align 4, !dbg !7084, !tbaa !6532
  %4 = getelementptr inbounds %"struct.std::_Vector_base", %"struct.std::_Vector_base"* %0, i32 0, i32 0, i32 0, i32 2, !dbg !7086
  %5 = load %"class.std::__cxx11::basic_string"*, %"class.std::__cxx11::basic_string"** %4, align 4, !dbg !7086, !tbaa !6421
  %6 = ptrtoint %"class.std::__cxx11::basic_string"* %5 to i32, !dbg !7087
  %7 = ptrtoint %"class.std::__cxx11::basic_string"* %3 to i32, !dbg !7087
  %8 = sub i32 %6, %7, !dbg !7087
  %9 = sdiv exact i32 %8, 24, !dbg !7087
  tail call void @_ZNSt12_Vector_baseINSt7__cxx1112basic_stringIcSt11char_traitsIcESaIcEEESaIS5_EE13_M_deallocateEPS5_j(%"struct.std::_Vector_base"* noundef nonnull align 4 dereferenceable(12) %0, %"class.std::__cxx11::basic_string"* noundef %3, i32 noundef %9), !dbg !7088
  %10 = bitcast %"struct.std::_Vector_base"* %0 to %"class.std::ios_base::Init"*, !dbg !7089
  %11 = tail call noundef %"class.std::ios_base::Init"* @_ZN9__gnu_cxx13new_allocatorINSt7__cxx1112basic_stringIcSt11char_traitsIcESaIcEEEED2Ev(%"class.std::ios_base::Init"* noundef nonnull align 4 dereferenceable(12) %10) #2, !dbg !7089
  ret %"struct.std::_Vector_base"* %0, !dbg !7090
}

; Function Attrs: noinline nounwind
define linkonce_odr dso_local noundef %"class.std::ios_base::Init"* @_ZN9__gnu_cxx13new_allocatorINSt7__cxx1112basic_stringIcSt11char_traitsIcESaIcEEEED2Ev(%"class.std::ios_base::Init"* noundef nonnull returned align 1 dereferenceable(1) %0) unnamed_addr #0 comdat align 2 !dbg !7091 {
  call void @llvm.dbg.value(metadata %"class.std::ios_base::Init"* %0, metadata !7093, metadata !DIExpression()), !dbg !7094
  ret %"class.std::ios_base::Init"* %0, !dbg !7095
}

; Function Attrs: mustprogress noinline nounwind
define linkonce_odr dso_local void @_ZSt8_DestroyIPNSt7__cxx1112basic_stringIcSt11char_traitsIcESaIcEEEEvT_S7_(%"class.std::__cxx11::basic_string"* noundef %0, %"class.std::__cxx11::basic_string"* noundef %1) local_unnamed_addr #4 comdat !dbg !7096 {
  call void @llvm.dbg.value(metadata %"class.std::__cxx11::basic_string"* %0, metadata !7101, metadata !DIExpression()), !dbg !7104
  call void @llvm.dbg.value(metadata %"class.std::__cxx11::basic_string"* %1, metadata !7102, metadata !DIExpression()), !dbg !7104
  tail call void @_ZNSt12_Destroy_auxILb0EE9__destroyIPNSt7__cxx1112basic_stringIcSt11char_traitsIcESaIcEEEEEvT_S9_(%"class.std::__cxx11::basic_string"* noundef %0, %"class.std::__cxx11::basic_string"* noundef %1), !dbg !7105
  ret void, !dbg !7106
}

; Function Attrs: mustprogress noinline nounwind
define linkonce_odr dso_local void @_ZNSt12_Destroy_auxILb0EE9__destroyIPNSt7__cxx1112basic_stringIcSt11char_traitsIcESaIcEEEEEvT_S9_(%"class.std::__cxx11::basic_string"* noundef %0, %"class.std::__cxx11::basic_string"* noundef %1) local_unnamed_addr #4 comdat align 2 !dbg !7107 {
  call void @llvm.dbg.value(metadata %"class.std::__cxx11::basic_string"* %0, metadata !7113, metadata !DIExpression()), !dbg !7115
  call void @llvm.dbg.value(metadata %"class.std::__cxx11::basic_string"* %1, metadata !7114, metadata !DIExpression()), !dbg !7115
  %3 = icmp eq %"class.std::__cxx11::basic_string"* %0, %1, !dbg !7116
  br i1 %3, label %9, label %4, !dbg !7119

4:                                                ; preds = %2, %4
  %5 = phi %"class.std::__cxx11::basic_string"* [ %7, %4 ], [ %0, %2 ]
  call void @llvm.dbg.value(metadata %"class.std::__cxx11::basic_string"* %5, metadata !7113, metadata !DIExpression()), !dbg !7115
  %6 = tail call noundef %"class.std::__cxx11::basic_string"* @_ZSt11__addressofINSt7__cxx1112basic_stringIcSt11char_traitsIcESaIcEEEEPT_RS6_(%"class.std::__cxx11::basic_string"* noundef nonnull align 4 dereferenceable(24) %5) #2, !dbg !7120
  tail call void @_ZSt8_DestroyINSt7__cxx1112basic_stringIcSt11char_traitsIcESaIcEEEEvPT_(%"class.std::__cxx11::basic_string"* noundef %6), !dbg !7121
  %7 = getelementptr inbounds %"class.std::__cxx11::basic_string", %"class.std::__cxx11::basic_string"* %5, i32 1, !dbg !7122
  call void @llvm.dbg.value(metadata %"class.std::__cxx11::basic_string"* %7, metadata !7113, metadata !DIExpression()), !dbg !7115
  %8 = icmp eq %"class.std::__cxx11::basic_string"* %7, %1, !dbg !7116
  br i1 %8, label %9, label %4, !dbg !7119, !llvm.loop !7123

9:                                                ; preds = %4, %2
  ret void, !dbg !7125
}

; Function Attrs: mustprogress noinline nounwind
define linkonce_odr dso_local void @_ZSt8_DestroyINSt7__cxx1112basic_stringIcSt11char_traitsIcESaIcEEEEvPT_(%"class.std::__cxx11::basic_string"* noundef %0) local_unnamed_addr #4 comdat !dbg !7126 {
  call void @llvm.dbg.value(metadata %"class.std::__cxx11::basic_string"* %0, metadata !7130, metadata !DIExpression()), !dbg !7131
  %2 = tail call noundef %"class.std::__cxx11::basic_string"* @_ZNSt7__cxx1112basic_stringIcSt11char_traitsIcESaIcEED2Ev(%"class.std::__cxx11::basic_string"* noundef nonnull align 4 dereferenceable(24) %0) #2, !dbg !7132
  ret void, !dbg !7133
}

; Function Attrs: mustprogress noinline nounwind
define dso_local void @_ZN5Utils14get_sms_numberENSt7__cxx1112basic_stringIcSt11char_traitsIcESaIcEEE(%"class.std::__cxx11::basic_string"* noalias sret(%"class.std::__cxx11::basic_string") align 4 %0, %"class.std::__cxx11::basic_string"* noundef nonnull %1) local_unnamed_addr #4 !dbg !7134 {
  %3 = alloca %"class.std::__cxx11::basic_string", align 4
  call void @llvm.dbg.declare(metadata %"class.std::__cxx11::basic_string"* %1, metadata !7138, metadata !DIExpression()), !dbg !7139
  %4 = call noundef %"class.std::__cxx11::basic_string"* @_ZNSt7__cxx1112basic_stringIcSt11char_traitsIcESaIcEEC2ERKS4_(%"class.std::__cxx11::basic_string"* noundef nonnull align 4 dereferenceable(24) %3, %"class.std::__cxx11::basic_string"* noundef nonnull align 4 dereferenceable(24) %1), !dbg !7140
  call void @_ZN5Utils15get_field_valueENSt7__cxx1112basic_stringIcSt11char_traitsIcESaIcEEEj(%"class.std::__cxx11::basic_string"* sret(%"class.std::__cxx11::basic_string") align 4 %0, %"class.std::__cxx11::basic_string"* noundef nonnull %3, i32 noundef 1), !dbg !7141
  %5 = call noundef %"class.std::__cxx11::basic_string"* @_ZNSt7__cxx1112basic_stringIcSt11char_traitsIcESaIcEED2Ev(%"class.std::__cxx11::basic_string"* noundef nonnull align 4 dereferenceable(24) %3) #2, !dbg !7142
  ret void, !dbg !7142
}

; Function Attrs: mustprogress noinline nounwind
define dso_local void @_ZN5Utils15get_field_valueENSt7__cxx1112basic_stringIcSt11char_traitsIcESaIcEEEj(%"class.std::__cxx11::basic_string"* noalias sret(%"class.std::__cxx11::basic_string") align 4 %0, %"class.std::__cxx11::basic_string"* noundef nonnull %1, i32 noundef %2) local_unnamed_addr #4 !dbg !7143 {
  %4 = alloca %"class.std::vector", align 4
  %5 = alloca %"class.std::__cxx11::basic_string", align 4
  %6 = alloca %"class.std::__cxx11::basic_string", align 4
  %7 = alloca %"class.std::ios_base::Init", align 1
  %8 = alloca %"class.std::ios_base::Init", align 1
  call void @llvm.dbg.declare(metadata %"class.std::__cxx11::basic_string"* %1, metadata !7145, metadata !DIExpression()), !dbg !7148
  call void @llvm.dbg.value(metadata i32 %2, metadata !7146, metadata !DIExpression()), !dbg !7149
  %9 = bitcast %"class.std::vector"* %4 to i8*, !dbg !7150
  call void @llvm.lifetime.start.p0i8(i64 12, i8* nonnull %9) #2, !dbg !7150
  call void @llvm.dbg.declare(metadata %"class.std::vector"* %4, metadata !7147, metadata !DIExpression()), !dbg !7151
  %10 = call noundef %"class.std::__cxx11::basic_string"* @_ZNSt7__cxx1112basic_stringIcSt11char_traitsIcESaIcEEC2ERKS4_(%"class.std::__cxx11::basic_string"* noundef nonnull align 4 dereferenceable(24) %5, %"class.std::__cxx11::basic_string"* noundef nonnull align 4 dereferenceable(24) %1), !dbg !7152
  %11 = getelementptr inbounds %"class.std::ios_base::Init", %"class.std::ios_base::Init"* %7, i32 0, i32 0, !dbg !7153
  call void @llvm.lifetime.start.p0i8(i64 1, i8* nonnull %11) #2, !dbg !7153
  %12 = call noundef %"class.std::ios_base::Init"* @_ZNSaIcEC2Ev(%"class.std::ios_base::Init"* noundef nonnull align 1 dereferenceable(1) %7) #2, !dbg !7153
  %13 = call noundef %"class.std::__cxx11::basic_string"* @_ZNSt7__cxx1112basic_stringIcSt11char_traitsIcESaIcEEC2EPKcRKS3_(%"class.std::__cxx11::basic_string"* noundef nonnull align 4 dereferenceable(24) %6, i8* noundef getelementptr inbounds ([2 x i8], [2 x i8]* @.str.2, i32 0, i32 0), %"class.std::ios_base::Init"* noundef nonnull align 1 dereferenceable(1) %7), !dbg !7153
  call void @_ZN5Utils14split_to_linesENSt7__cxx1112basic_stringIcSt11char_traitsIcESaIcEEES5_(%"class.std::vector"* nonnull sret(%"class.std::vector") align 4 %4, %"class.std::__cxx11::basic_string"* noundef nonnull %5, %"class.std::__cxx11::basic_string"* noundef nonnull %6), !dbg !7154
  %14 = call noundef %"class.std::__cxx11::basic_string"* @_ZNSt7__cxx1112basic_stringIcSt11char_traitsIcESaIcEED2Ev(%"class.std::__cxx11::basic_string"* noundef nonnull align 4 dereferenceable(24) %6) #2, !dbg !7154
  %15 = call noundef %"class.std::ios_base::Init"* @_ZNSaIcED2Ev(%"class.std::ios_base::Init"* noundef nonnull align 1 dereferenceable(1) %7) #2, !dbg !7154
  call void @llvm.lifetime.end.p0i8(i64 1, i8* nonnull %11) #2, !dbg !7154
  %16 = call noundef %"class.std::__cxx11::basic_string"* @_ZNSt7__cxx1112basic_stringIcSt11char_traitsIcESaIcEED2Ev(%"class.std::__cxx11::basic_string"* noundef nonnull align 4 dereferenceable(24) %5) #2, !dbg !7154
  %17 = call noundef i32 @_ZNKSt6vectorINSt7__cxx1112basic_stringIcSt11char_traitsIcESaIcEEESaIS5_EE4sizeEv(%"class.std::vector"* noundef nonnull align 4 dereferenceable(12) %4) #2, !dbg !7155
  %18 = icmp ugt i32 %17, %2, !dbg !7157
  br i1 %18, label %19, label %22, !dbg !7158

19:                                               ; preds = %3
  %20 = call noundef nonnull align 4 dereferenceable(24) %"class.std::__cxx11::basic_string"* @_ZNKSt6vectorINSt7__cxx1112basic_stringIcSt11char_traitsIcESaIcEEESaIS5_EEixEj(%"class.std::vector"* noundef nonnull align 4 dereferenceable(12) %4, i32 noundef %2) #2, !dbg !7159
  %21 = call noundef %"class.std::__cxx11::basic_string"* @_ZNSt7__cxx1112basic_stringIcSt11char_traitsIcESaIcEEC2ERKS4_(%"class.std::__cxx11::basic_string"* noundef nonnull align 4 dereferenceable(24) %0, %"class.std::__cxx11::basic_string"* noundef nonnull align 4 dereferenceable(24) %20), !dbg !7159
  br label %27, !dbg !7160

22:                                               ; preds = %3
  %23 = getelementptr inbounds %"class.std::ios_base::Init", %"class.std::ios_base::Init"* %8, i32 0, i32 0, !dbg !7161
  call void @llvm.lifetime.start.p0i8(i64 1, i8* nonnull %23) #2, !dbg !7161
  %24 = call noundef %"class.std::ios_base::Init"* @_ZNSaIcEC2Ev(%"class.std::ios_base::Init"* noundef nonnull align 1 dereferenceable(1) %8) #2, !dbg !7161
  %25 = call noundef %"class.std::__cxx11::basic_string"* @_ZNSt7__cxx1112basic_stringIcSt11char_traitsIcESaIcEEC2EPKcRKS3_(%"class.std::__cxx11::basic_string"* noundef nonnull align 4 dereferenceable(24) %0, i8* noundef getelementptr inbounds ([1 x i8], [1 x i8]* @.str.1, i32 0, i32 0), %"class.std::ios_base::Init"* noundef nonnull align 1 dereferenceable(1) %8), !dbg !7161
  %26 = call noundef %"class.std::ios_base::Init"* @_ZNSaIcED2Ev(%"class.std::ios_base::Init"* noundef nonnull align 1 dereferenceable(1) %8) #2, !dbg !7162
  call void @llvm.lifetime.end.p0i8(i64 1, i8* nonnull %23) #2, !dbg !7162
  br label %27, !dbg !7162

27:                                               ; preds = %22, %19
  %28 = call noundef %"class.std::vector"* @_ZNSt6vectorINSt7__cxx1112basic_stringIcSt11char_traitsIcESaIcEEESaIS5_EED2Ev(%"class.std::vector"* noundef nonnull align 4 dereferenceable(12) %4) #2, !dbg !7163
  call void @llvm.lifetime.end.p0i8(i64 12, i8* nonnull %9) #2, !dbg !7163
  ret void, !dbg !7163
}

; Function Attrs: mustprogress nofree noinline norecurse nosync nounwind readnone willreturn
define dso_local noundef i32 @_ZN5Utils3bcdEj(i32 noundef %0) local_unnamed_addr #16 !dbg !7164 {
  call void @llvm.dbg.value(metadata i32 %0, metadata !7168, metadata !DIExpression()), !dbg !7171
  %2 = icmp ult i32 %0, 9999, !dbg !7172
  %3 = select i1 %2, i32 %0, i32 9999, !dbg !7172
  call void @llvm.dbg.value(metadata i32 %3, metadata !7168, metadata !DIExpression()), !dbg !7171
  call void @llvm.dbg.value(metadata i32 0, metadata !7169, metadata !DIExpression()), !dbg !7173
  %4 = shl nuw nsw i32 %3, 1, !dbg !7174
  call void @llvm.dbg.value(metadata i32 %4, metadata !7168, metadata !DIExpression()), !dbg !7171
  br label %5, !dbg !7177

5:                                                ; preds = %5, %1
  %6 = phi i32 [ %4, %1 ], [ %88, %5 ]
  %7 = phi i32 [ 0, %1 ], [ %85, %5 ]
  call void @llvm.dbg.value(metadata i32 %7, metadata !7169, metadata !DIExpression()), !dbg !7173
  %8 = and i32 %6, 983040, !dbg !7178
  %9 = icmp ugt i32 %8, 327679, !dbg !7180
  %10 = add i32 %6, 196608
  %11 = select i1 %9, i32 %10, i32 %6, !dbg !7181
  call void @llvm.dbg.value(metadata i32 %11, metadata !7168, metadata !DIExpression()), !dbg !7171
  %12 = and i32 %11, 15728640, !dbg !7182
  %13 = icmp ugt i32 %12, 5242879, !dbg !7184
  %14 = add i32 %11, 3145728, !dbg !7185
  %15 = select i1 %13, i32 %14, i32 %11, !dbg !7185
  call void @llvm.dbg.value(metadata i32 %15, metadata !7168, metadata !DIExpression()), !dbg !7171
  %16 = and i32 %15, 251658240, !dbg !7186
  %17 = icmp ugt i32 %16, 83886079, !dbg !7188
  %18 = add i32 %15, 50331648, !dbg !7189
  %19 = select i1 %17, i32 %18, i32 %15, !dbg !7189
  call void @llvm.dbg.value(metadata i32 %19, metadata !7168, metadata !DIExpression()), !dbg !7171
  %20 = icmp ugt i32 %19, 1342177279, !dbg !7190
  call void @llvm.dbg.value(metadata i32 undef, metadata !7168, metadata !DIExpression()), !dbg !7171
  call void @llvm.dbg.value(metadata i32 %7, metadata !7169, metadata !DIExpression(DW_OP_plus_uconst, 1, DW_OP_stack_value)), !dbg !7173
  %21 = shl i32 %19, 1, !dbg !7174
  %22 = add i32 %21, 1610612736, !dbg !7174
  %23 = select i1 %20, i32 %22, i32 %21, !dbg !7174
  call void @llvm.dbg.value(metadata i32 %23, metadata !7168, metadata !DIExpression()), !dbg !7171
  call void @llvm.dbg.value(metadata i32 %7, metadata !7169, metadata !DIExpression(DW_OP_plus_uconst, 1, DW_OP_stack_value)), !dbg !7173
  %24 = and i32 %23, 983040, !dbg !7178
  %25 = icmp ugt i32 %24, 327679, !dbg !7180
  %26 = add i32 %23, 196608
  %27 = select i1 %25, i32 %26, i32 %23, !dbg !7181
  call void @llvm.dbg.value(metadata i32 %27, metadata !7168, metadata !DIExpression()), !dbg !7171
  %28 = and i32 %27, 15728640, !dbg !7182
  %29 = icmp ugt i32 %28, 5242879, !dbg !7184
  %30 = add i32 %27, 3145728, !dbg !7185
  %31 = select i1 %29, i32 %30, i32 %27, !dbg !7185
  call void @llvm.dbg.value(metadata i32 %31, metadata !7168, metadata !DIExpression()), !dbg !7171
  %32 = and i32 %31, 251658240, !dbg !7186
  %33 = icmp ugt i32 %32, 83886079, !dbg !7188
  %34 = add i32 %31, 50331648, !dbg !7189
  %35 = select i1 %33, i32 %34, i32 %31, !dbg !7189
  call void @llvm.dbg.value(metadata i32 %35, metadata !7168, metadata !DIExpression()), !dbg !7171
  %36 = icmp ugt i32 %35, 1342177279, !dbg !7190
  call void @llvm.dbg.value(metadata i32 undef, metadata !7168, metadata !DIExpression()), !dbg !7171
  call void @llvm.dbg.value(metadata i32 %7, metadata !7169, metadata !DIExpression(DW_OP_plus_uconst, 2, DW_OP_stack_value)), !dbg !7173
  %37 = shl i32 %35, 1, !dbg !7174
  %38 = add i32 %37, 1610612736, !dbg !7174
  %39 = select i1 %36, i32 %38, i32 %37, !dbg !7174
  call void @llvm.dbg.value(metadata i32 %39, metadata !7168, metadata !DIExpression()), !dbg !7171
  call void @llvm.dbg.value(metadata i32 %7, metadata !7169, metadata !DIExpression(DW_OP_plus_uconst, 2, DW_OP_stack_value)), !dbg !7173
  %40 = and i32 %39, 983040, !dbg !7178
  %41 = icmp ugt i32 %40, 327679, !dbg !7180
  %42 = add i32 %39, 196608
  %43 = select i1 %41, i32 %42, i32 %39, !dbg !7181
  call void @llvm.dbg.value(metadata i32 %43, metadata !7168, metadata !DIExpression()), !dbg !7171
  %44 = and i32 %43, 15728640, !dbg !7182
  %45 = icmp ugt i32 %44, 5242879, !dbg !7184
  %46 = add i32 %43, 3145728, !dbg !7185
  %47 = select i1 %45, i32 %46, i32 %43, !dbg !7185
  call void @llvm.dbg.value(metadata i32 %47, metadata !7168, metadata !DIExpression()), !dbg !7171
  %48 = and i32 %47, 251658240, !dbg !7186
  %49 = icmp ugt i32 %48, 83886079, !dbg !7188
  %50 = add i32 %47, 50331648, !dbg !7189
  %51 = select i1 %49, i32 %50, i32 %47, !dbg !7189
  call void @llvm.dbg.value(metadata i32 %51, metadata !7168, metadata !DIExpression()), !dbg !7171
  %52 = icmp ugt i32 %51, 1342177279, !dbg !7190
  call void @llvm.dbg.value(metadata i32 undef, metadata !7168, metadata !DIExpression()), !dbg !7171
  call void @llvm.dbg.value(metadata i32 %7, metadata !7169, metadata !DIExpression(DW_OP_plus_uconst, 3, DW_OP_stack_value)), !dbg !7173
  %53 = shl i32 %51, 1, !dbg !7174
  %54 = add i32 %53, 1610612736, !dbg !7174
  %55 = select i1 %52, i32 %54, i32 %53, !dbg !7174
  call void @llvm.dbg.value(metadata i32 %55, metadata !7168, metadata !DIExpression()), !dbg !7171
  call void @llvm.dbg.value(metadata i32 %7, metadata !7169, metadata !DIExpression(DW_OP_plus_uconst, 3, DW_OP_stack_value)), !dbg !7173
  %56 = and i32 %55, 983040, !dbg !7178
  %57 = icmp ugt i32 %56, 327679, !dbg !7180
  %58 = add i32 %55, 196608
  %59 = select i1 %57, i32 %58, i32 %55, !dbg !7181
  call void @llvm.dbg.value(metadata i32 %59, metadata !7168, metadata !DIExpression()), !dbg !7171
  %60 = and i32 %59, 15728640, !dbg !7182
  %61 = icmp ugt i32 %60, 5242879, !dbg !7184
  %62 = add i32 %59, 3145728, !dbg !7185
  %63 = select i1 %61, i32 %62, i32 %59, !dbg !7185
  call void @llvm.dbg.value(metadata i32 %63, metadata !7168, metadata !DIExpression()), !dbg !7171
  %64 = and i32 %63, 251658240, !dbg !7186
  %65 = icmp ugt i32 %64, 83886079, !dbg !7188
  %66 = add i32 %63, 50331648, !dbg !7189
  %67 = select i1 %65, i32 %66, i32 %63, !dbg !7189
  call void @llvm.dbg.value(metadata i32 %67, metadata !7168, metadata !DIExpression()), !dbg !7171
  %68 = icmp ugt i32 %67, 1342177279, !dbg !7190
  call void @llvm.dbg.value(metadata i32 undef, metadata !7168, metadata !DIExpression()), !dbg !7171
  call void @llvm.dbg.value(metadata i32 %7, metadata !7169, metadata !DIExpression(DW_OP_plus_uconst, 4, DW_OP_stack_value)), !dbg !7173
  %69 = shl i32 %67, 1, !dbg !7174
  %70 = add i32 %69, 1610612736, !dbg !7174
  %71 = select i1 %68, i32 %70, i32 %69, !dbg !7174
  call void @llvm.dbg.value(metadata i32 %71, metadata !7168, metadata !DIExpression()), !dbg !7171
  call void @llvm.dbg.value(metadata i32 %7, metadata !7169, metadata !DIExpression(DW_OP_plus_uconst, 4, DW_OP_stack_value)), !dbg !7173
  %72 = and i32 %71, 983040, !dbg !7178
  %73 = icmp ugt i32 %72, 327679, !dbg !7180
  %74 = add i32 %71, 196608
  %75 = select i1 %73, i32 %74, i32 %71, !dbg !7181
  call void @llvm.dbg.value(metadata i32 %75, metadata !7168, metadata !DIExpression()), !dbg !7171
  %76 = and i32 %75, 15728640, !dbg !7182
  %77 = icmp ugt i32 %76, 5242879, !dbg !7184
  %78 = add i32 %75, 3145728, !dbg !7185
  %79 = select i1 %77, i32 %78, i32 %75, !dbg !7185
  call void @llvm.dbg.value(metadata i32 %79, metadata !7168, metadata !DIExpression()), !dbg !7171
  %80 = and i32 %79, 251658240, !dbg !7186
  %81 = icmp ugt i32 %80, 83886079, !dbg !7188
  %82 = add i32 %79, 50331648, !dbg !7189
  %83 = select i1 %81, i32 %82, i32 %79, !dbg !7189
  call void @llvm.dbg.value(metadata i32 %83, metadata !7168, metadata !DIExpression()), !dbg !7171
  %84 = icmp ugt i32 %83, 1342177279, !dbg !7190
  call void @llvm.dbg.value(metadata i32 undef, metadata !7168, metadata !DIExpression()), !dbg !7171
  %85 = add nuw nsw i32 %7, 5, !dbg !7192
  call void @llvm.dbg.value(metadata i32 %85, metadata !7169, metadata !DIExpression()), !dbg !7173
  %86 = shl i32 %83, 1, !dbg !7174
  %87 = add i32 %86, 1610612736, !dbg !7174
  %88 = select i1 %84, i32 %87, i32 %86, !dbg !7174
  call void @llvm.dbg.value(metadata i32 %88, metadata !7168, metadata !DIExpression()), !dbg !7171
  %89 = icmp eq i32 %85, 15, !dbg !7193
  br i1 %89, label %90, label %5, !dbg !7177, !llvm.loop !7195

90:                                               ; preds = %5
  call void @llvm.dbg.value(metadata i32 %88, metadata !7168, metadata !DIExpression()), !dbg !7171
  %91 = lshr i32 %88, 16, !dbg !7198
  ret i32 %91, !dbg !7199
}

; Function Attrs: mustprogress noinline nounwind
define dso_local void @_ZN5Utils9uppercaseENSt7__cxx1112basic_stringIcSt11char_traitsIcESaIcEEE(%"class.std::__cxx11::basic_string"* noalias sret(%"class.std::__cxx11::basic_string") align 4 %0, %"class.std::__cxx11::basic_string"* noundef nonnull %1) local_unnamed_addr #4 !dbg !7200 {
  call void @llvm.dbg.declare(metadata %"class.std::__cxx11::basic_string"* %1, metadata !7202, metadata !DIExpression()), !dbg !7203
  %3 = tail call i32 @_ZNSt7__cxx1112basic_stringIcSt11char_traitsIcESaIcEE5beginEv(%"class.std::__cxx11::basic_string"* noundef nonnull align 4 dereferenceable(24) %1) #2, !dbg !7204
  %4 = tail call i32 @_ZNSt7__cxx1112basic_stringIcSt11char_traitsIcESaIcEE3endEv(%"class.std::__cxx11::basic_string"* noundef nonnull align 4 dereferenceable(24) %1) #2, !dbg !7205
  %5 = tail call i32 @_ZNSt7__cxx1112basic_stringIcSt11char_traitsIcESaIcEE5beginEv(%"class.std::__cxx11::basic_string"* noundef nonnull align 4 dereferenceable(24) %1) #2, !dbg !7206
  %6 = insertvalue [1 x i32] poison, i32 %3, 0, !dbg !7207
  %7 = insertvalue [1 x i32] poison, i32 %4, 0, !dbg !7207
  %8 = insertvalue [1 x i32] poison, i32 %5, 0, !dbg !7207
  %9 = tail call i32 @_ZSt9transformIN9__gnu_cxx17__normal_iteratorIPcNSt7__cxx1112basic_stringIcSt11char_traitsIcESaIcEEEEES9_PFiiEET0_T_SD_SC_T1_([1 x i32] %6, [1 x i32] %7, [1 x i32] %8, i32 (i32)* noundef nonnull @toupper), !dbg !7207
  %10 = tail call noundef %"class.std::__cxx11::basic_string"* @_ZNSt7__cxx1112basic_stringIcSt11char_traitsIcESaIcEEC2EOS4_(%"class.std::__cxx11::basic_string"* noundef nonnull align 4 dereferenceable(24) %0, %"class.std::__cxx11::basic_string"* noundef nonnull align 4 dereferenceable(24) %1) #2, !dbg !7208
  ret void, !dbg !7209
}

; Function Attrs: mustprogress noinline nounwind
declare dso_local i32 @_ZNSt7__cxx1112basic_stringIcSt11char_traitsIcESaIcEE5beginEv(%"class.std::__cxx11::basic_string"* noundef nonnull align 4 dereferenceable(24)) local_unnamed_addr #4 align 2

; Function Attrs: mustprogress noinline nounwind
declare dso_local i32 @_ZNSt7__cxx1112basic_stringIcSt11char_traitsIcESaIcEE3endEv(%"class.std::__cxx11::basic_string"* noundef nonnull align 4 dereferenceable(24)) local_unnamed_addr #4 align 2

; Function Attrs: mustprogress nofree nounwind readonly willreturn
declare dso_local i32 @toupper(i32 noundef) #17

; Function Attrs: mustprogress noinline nounwind
define linkonce_odr dso_local i32 @_ZSt9transformIN9__gnu_cxx17__normal_iteratorIPcNSt7__cxx1112basic_stringIcSt11char_traitsIcESaIcEEEEES9_PFiiEET0_T_SD_SC_T1_([1 x i32] %0, [1 x i32] %1, [1 x i32] %2, i32 (i32)* noundef %3) local_unnamed_addr #4 comdat !dbg !7210 {
  %5 = alloca %"struct.std::__cxx11::basic_string<char>::_Alloc_hider", align 4
  %6 = alloca %"struct.std::__cxx11::basic_string<char>::_Alloc_hider", align 4
  %7 = alloca %"struct.std::__cxx11::basic_string<char>::_Alloc_hider", align 4
  %8 = extractvalue [1 x i32] %0, 0
  %9 = bitcast %"struct.std::__cxx11::basic_string<char>::_Alloc_hider"* %5 to i32*
  store i32 %8, i32* %9, align 4
  %10 = extractvalue [1 x i32] %1, 0
  %11 = bitcast %"struct.std::__cxx11::basic_string<char>::_Alloc_hider"* %6 to i32*
  store i32 %10, i32* %11, align 4
  %12 = extractvalue [1 x i32] %2, 0
  %13 = bitcast %"struct.std::__cxx11::basic_string<char>::_Alloc_hider"* %7 to i32*
  store i32 %12, i32* %13, align 4
  call void @llvm.dbg.declare(metadata %"struct.std::__cxx11::basic_string<char>::_Alloc_hider"* %5, metadata !7216, metadata !DIExpression()), !dbg !7224
  call void @llvm.dbg.declare(metadata %"struct.std::__cxx11::basic_string<char>::_Alloc_hider"* %6, metadata !7217, metadata !DIExpression()), !dbg !7225
  call void @llvm.dbg.declare(metadata %"struct.std::__cxx11::basic_string<char>::_Alloc_hider"* %7, metadata !7218, metadata !DIExpression()), !dbg !7226
  call void @llvm.dbg.value(metadata i32 (i32)* %3, metadata !7219, metadata !DIExpression()), !dbg !7227
  %14 = call noundef zeroext i1 @_ZN9__gnu_cxxneIPcNSt7__cxx1112basic_stringIcSt11char_traitsIcESaIcEEEEEbRKNS_17__normal_iteratorIT_T0_EESD_(%"struct.std::__cxx11::basic_string<char>::_Alloc_hider"* noundef nonnull align 4 dereferenceable(4) %5, %"struct.std::__cxx11::basic_string<char>::_Alloc_hider"* noundef nonnull align 4 dereferenceable(4) %6) #2, !dbg !7228
  %15 = inttoptr i32 %12 to i8*, !dbg !7231
  br i1 %14, label %16, label %29, !dbg !7231

16:                                               ; preds = %4, %16
  %17 = call noundef nonnull align 1 dereferenceable(1) i8* @_ZNK9__gnu_cxx17__normal_iteratorIPcNSt7__cxx1112basic_stringIcSt11char_traitsIcESaIcEEEEdeEv(%"struct.std::__cxx11::basic_string<char>::_Alloc_hider"* noundef nonnull align 4 dereferenceable(4) %5) #2, !dbg !7232
  %18 = load i8, i8* %17, align 1, !dbg !7232, !tbaa !5842
  %19 = zext i8 %18 to i32, !dbg !7232
  %20 = call noundef i32 %3(i32 noundef %19) #2, !dbg !7233
  %21 = trunc i32 %20 to i8, !dbg !7233
  %22 = call noundef nonnull align 1 dereferenceable(1) i8* @_ZNK9__gnu_cxx17__normal_iteratorIPcNSt7__cxx1112basic_stringIcSt11char_traitsIcESaIcEEEEdeEv(%"struct.std::__cxx11::basic_string<char>::_Alloc_hider"* noundef nonnull align 4 dereferenceable(4) %7) #2, !dbg !7234
  store i8 %21, i8* %22, align 1, !dbg !7235, !tbaa !5842
  %23 = call noundef nonnull align 4 dereferenceable(4) %"struct.std::__cxx11::basic_string<char>::_Alloc_hider"* @_ZN9__gnu_cxx17__normal_iteratorIPcNSt7__cxx1112basic_stringIcSt11char_traitsIcESaIcEEEEppEv(%"struct.std::__cxx11::basic_string<char>::_Alloc_hider"* noundef nonnull align 4 dereferenceable(4) %5) #2, !dbg !7236
  %24 = call noundef nonnull align 4 dereferenceable(4) %"struct.std::__cxx11::basic_string<char>::_Alloc_hider"* @_ZN9__gnu_cxx17__normal_iteratorIPcNSt7__cxx1112basic_stringIcSt11char_traitsIcESaIcEEEEppEv(%"struct.std::__cxx11::basic_string<char>::_Alloc_hider"* noundef nonnull align 4 dereferenceable(4) %7) #2, !dbg !7237
  %25 = call noundef zeroext i1 @_ZN9__gnu_cxxneIPcNSt7__cxx1112basic_stringIcSt11char_traitsIcESaIcEEEEEbRKNS_17__normal_iteratorIT_T0_EESD_(%"struct.std::__cxx11::basic_string<char>::_Alloc_hider"* noundef nonnull align 4 dereferenceable(4) %5, %"struct.std::__cxx11::basic_string<char>::_Alloc_hider"* noundef nonnull align 4 dereferenceable(4) %6) #2, !dbg !7228
  br i1 %25, label %16, label %26, !dbg !7231, !llvm.loop !7238

26:                                               ; preds = %16
  %27 = getelementptr inbounds %"struct.std::__cxx11::basic_string<char>::_Alloc_hider", %"struct.std::__cxx11::basic_string<char>::_Alloc_hider"* %7, i32 0, i32 0
  %28 = load i8*, i8** %27, align 4, !dbg !7240, !tbaa.struct !7241
  br label %29

29:                                               ; preds = %26, %4
  %30 = phi i8* [ %28, %26 ], [ %15, %4 ], !dbg !7240
  %31 = ptrtoint i8* %30 to i32, !dbg !7242
  ret i32 %31, !dbg !7242
}

; Function Attrs: mustprogress noinline nounwind
define linkonce_odr dso_local noundef zeroext i1 @_ZN9__gnu_cxxneIPcNSt7__cxx1112basic_stringIcSt11char_traitsIcESaIcEEEEEbRKNS_17__normal_iteratorIT_T0_EESD_(%"struct.std::__cxx11::basic_string<char>::_Alloc_hider"* noundef nonnull align 4 dereferenceable(4) %0, %"struct.std::__cxx11::basic_string<char>::_Alloc_hider"* noundef nonnull align 4 dereferenceable(4) %1) local_unnamed_addr #4 comdat !dbg !7243 {
  call void @llvm.dbg.value(metadata %"struct.std::__cxx11::basic_string<char>::_Alloc_hider"* %0, metadata !7248, metadata !DIExpression()), !dbg !7250
  call void @llvm.dbg.value(metadata %"struct.std::__cxx11::basic_string<char>::_Alloc_hider"* %1, metadata !7249, metadata !DIExpression()), !dbg !7250
  %3 = tail call noundef nonnull align 4 dereferenceable(4) i8** @_ZNK9__gnu_cxx17__normal_iteratorIPcNSt7__cxx1112basic_stringIcSt11char_traitsIcESaIcEEEE4baseEv(%"struct.std::__cxx11::basic_string<char>::_Alloc_hider"* noundef nonnull align 4 dereferenceable(4) %0) #2, !dbg !7251
  %4 = load i8*, i8** %3, align 4, !dbg !7251, !tbaa !5889
  %5 = tail call noundef nonnull align 4 dereferenceable(4) i8** @_ZNK9__gnu_cxx17__normal_iteratorIPcNSt7__cxx1112basic_stringIcSt11char_traitsIcESaIcEEEE4baseEv(%"struct.std::__cxx11::basic_string<char>::_Alloc_hider"* noundef nonnull align 4 dereferenceable(4) %1) #2, !dbg !7252
  %6 = load i8*, i8** %5, align 4, !dbg !7252, !tbaa !5889
  %7 = icmp ne i8* %4, %6, !dbg !7253
  ret i1 %7, !dbg !7254
}

; Function Attrs: mustprogress noinline nounwind
define linkonce_odr dso_local noundef nonnull align 1 dereferenceable(1) i8* @_ZNK9__gnu_cxx17__normal_iteratorIPcNSt7__cxx1112basic_stringIcSt11char_traitsIcESaIcEEEEdeEv(%"struct.std::__cxx11::basic_string<char>::_Alloc_hider"* noundef nonnull align 4 dereferenceable(4) %0) local_unnamed_addr #4 comdat align 2 !dbg !7255 {
  call void @llvm.dbg.value(metadata %"struct.std::__cxx11::basic_string<char>::_Alloc_hider"* %0, metadata !7257, metadata !DIExpression()), !dbg !7259
  %2 = getelementptr inbounds %"struct.std::__cxx11::basic_string<char>::_Alloc_hider", %"struct.std::__cxx11::basic_string<char>::_Alloc_hider"* %0, i32 0, i32 0, !dbg !7260
  %3 = load i8*, i8** %2, align 4, !dbg !7260, !tbaa !7261
  ret i8* %3, !dbg !7263
}

; Function Attrs: mustprogress noinline nounwind
define linkonce_odr dso_local noundef nonnull align 4 dereferenceable(4) %"struct.std::__cxx11::basic_string<char>::_Alloc_hider"* @_ZN9__gnu_cxx17__normal_iteratorIPcNSt7__cxx1112basic_stringIcSt11char_traitsIcESaIcEEEEppEv(%"struct.std::__cxx11::basic_string<char>::_Alloc_hider"* noundef nonnull align 4 dereferenceable(4) %0) local_unnamed_addr #4 comdat align 2 !dbg !7264 {
  call void @llvm.dbg.value(metadata %"struct.std::__cxx11::basic_string<char>::_Alloc_hider"* %0, metadata !7266, metadata !DIExpression()), !dbg !7268
  %2 = getelementptr inbounds %"struct.std::__cxx11::basic_string<char>::_Alloc_hider", %"struct.std::__cxx11::basic_string<char>::_Alloc_hider"* %0, i32 0, i32 0, !dbg !7269
  %3 = load i8*, i8** %2, align 4, !dbg !7270, !tbaa !7261
  %4 = getelementptr inbounds i8, i8* %3, i32 1, !dbg !7270
  store i8* %4, i8** %2, align 4, !dbg !7270, !tbaa !7261
  ret %"struct.std::__cxx11::basic_string<char>::_Alloc_hider"* %0, !dbg !7271
}

; Function Attrs: mustprogress noinline nounwind
define linkonce_odr dso_local noundef nonnull align 4 dereferenceable(4) i8** @_ZNK9__gnu_cxx17__normal_iteratorIPcNSt7__cxx1112basic_stringIcSt11char_traitsIcESaIcEEEE4baseEv(%"struct.std::__cxx11::basic_string<char>::_Alloc_hider"* noundef nonnull align 4 dereferenceable(4) %0) local_unnamed_addr #4 comdat align 2 !dbg !7272 {
  call void @llvm.dbg.value(metadata %"struct.std::__cxx11::basic_string<char>::_Alloc_hider"* %0, metadata !7274, metadata !DIExpression()), !dbg !7275
  %2 = getelementptr inbounds %"struct.std::__cxx11::basic_string<char>::_Alloc_hider", %"struct.std::__cxx11::basic_string<char>::_Alloc_hider"* %0, i32 0, i32 0, !dbg !7276
  ret i8** %2, !dbg !7277
}

; Function Attrs: mustprogress nofree noinline nounwind
define dso_local void @_ZN5Utils15log_device_infoEv() local_unnamed_addr #18 !dbg !7278 {
  %1 = tail call i32 (i8*, ...) @printf(i8* noundef nonnull dereferenceable(1) getelementptr inbounds ([17 x i8], [17 x i8]* @.str.3.39, i32 0, i32 0), i8* noundef getelementptr inbounds ([16 x i8], [16 x i8]* @.str.4.40, i32 0, i32 0), i8* noundef getelementptr inbounds ([6 x i8], [6 x i8]* @.str.5.41, i32 0, i32 0), i32 noundef 0), !dbg !7279
  ret void, !dbg !7280
}

; Function Attrs: nofree nounwind
declare dso_local noundef i32 @printf(i8* nocapture noundef readonly, ...) local_unnamed_addr #19

; Function Attrs: mustprogress noinline nounwind
define dso_local void @_ZN5Utils9log_debugENSt7__cxx1112basic_stringIcSt11char_traitsIcESaIcEEE(%"class.std::__cxx11::basic_string"* noundef nonnull %0) local_unnamed_addr #4 !dbg !7281 {
  call void @llvm.dbg.declare(metadata %"class.std::__cxx11::basic_string"* %0, metadata !7285, metadata !DIExpression()), !dbg !7286
  %2 = tail call noundef i8* @_ZNKSt7__cxx1112basic_stringIcSt11char_traitsIcESaIcEE5c_strEv(%"class.std::__cxx11::basic_string"* noundef nonnull align 4 dereferenceable(24) %0) #2, !dbg !7287
  %3 = tail call i32 (i8*, ...) @printf(i8* noundef nonnull dereferenceable(1) getelementptr inbounds ([12 x i8], [12 x i8]* @.str.6.44, i32 0, i32 0), i8* noundef %2), !dbg !7288
  ret void, !dbg !7289
}

; Function Attrs: mustprogress noinline nounwind
declare dso_local noundef i8* @_ZNKSt7__cxx1112basic_stringIcSt11char_traitsIcESaIcEE5c_strEv(%"class.std::__cxx11::basic_string"* noundef nonnull align 4 dereferenceable(24)) local_unnamed_addr #4 align 2

; Function Attrs: noinline nounwind
define internal void @_GLOBAL__sub_I_mcp9808.cpp() #0 !dbg !7290 {
  tail call fastcc void @__cxx_global_var_init.46(), !dbg !7291
  ret void
}

; Function Attrs: noinline nounwind
define internal fastcc void @__cxx_global_var_init.46() unnamed_addr #0 !dbg !7292 {
  %1 = tail call noundef %"class.std::ios_base::Init"* @_ZNSt8ios_base4InitC1Ev(%"class.std::ios_base::Init"* noundef nonnull align 1 dereferenceable(1) @_ZStL8__ioinit.47) #2, !dbg !7293
  %2 = tail call i32 @atexit(void ()* nonnull @__dtor__ZStL8__ioinit.48) #2, !dbg !7295
  ret void, !dbg !7293
}

; Function Attrs: noinline nounwind
define internal void @__dtor__ZStL8__ioinit.48() #0 !dbg !7296 {
  %1 = tail call %"class.std::ios_base::Init"* @_ZNSt8ios_base4InitD1Ev(%"class.std::ios_base::Init"* @_ZStL8__ioinit.47), !dbg !7297
  ret void, !dbg !7298
}

; Function Attrs: mustprogress nofree noinline norecurse nosync nounwind willreturn writeonly
define dso_local noundef nonnull %class.MCP9808* @_ZN7MCP9808C2Ej(%class.MCP9808* noundef nonnull returned writeonly align 2 dereferenceable(7) %0, i32 noundef %1) unnamed_addr #11 align 2 !dbg !7299 {
  call void @llvm.dbg.value(metadata %class.MCP9808* %0, metadata !7301, metadata !DIExpression()), !dbg !7304
  call void @llvm.dbg.value(metadata i32 %1, metadata !7303, metadata !DIExpression()), !dbg !7304
  %3 = add i32 %1, -256, !dbg !7305
  %4 = icmp ult i32 %3, -255, !dbg !7305
  call void @llvm.dbg.value(metadata i32 undef, metadata !7303, metadata !DIExpression()), !dbg !7304
  %5 = trunc i32 %1 to i8, !dbg !7308
  %6 = select i1 %4, i8 24, i8 %5, !dbg !7308
  %7 = getelementptr inbounds %class.MCP9808, %class.MCP9808* %0, i32 0, i32 3, !dbg !7309
  store i8 %6, i8* %7, align 2, !dbg !7310, !tbaa !7311
  %8 = getelementptr inbounds %class.MCP9808, %class.MCP9808* %0, i32 0, i32 1, !dbg !7313
  store i16 10, i16* %8, align 2, !dbg !7314, !tbaa !7315
  %9 = getelementptr inbounds %class.MCP9808, %class.MCP9808* %0, i32 0, i32 2, !dbg !7316
  store i16 25, i16* %9, align 2, !dbg !7317, !tbaa !7318
  %10 = getelementptr inbounds %class.MCP9808, %class.MCP9808* %0, i32 0, i32 0, !dbg !7319
  store i16 50, i16* %10, align 2, !dbg !7320, !tbaa !7321
  ret %class.MCP9808* %0, !dbg !7322
}

; Function Attrs: mustprogress noinline nounwind
define dso_local noundef zeroext i1 @_ZN7MCP98085beginEv(%class.MCP9808* nocapture noundef nonnull align 2 dereferenceable(7) %0) local_unnamed_addr #4 align 2 !dbg !7323 {
  %2 = alloca i16, align 2
  %3 = bitcast i16* %2 to [2 x i8]*
  %4 = alloca i16, align 2
  %5 = bitcast i16* %4 to [2 x i8]*
  call void @llvm.dbg.value(metadata %class.MCP9808* %0, metadata !7325, metadata !DIExpression()), !dbg !7331
  %6 = getelementptr inbounds %class.MCP9808, %class.MCP9808* %0, i32 0, i32 1, !dbg !7332
  %7 = load i16, i16* %6, align 2, !dbg !7332, !tbaa !7315
  tail call void @_ZN7MCP980815set_lower_limitEt(%class.MCP9808* noundef nonnull align 2 dereferenceable(7) %0, i16 noundef zeroext %7), !dbg !7333
  %8 = getelementptr inbounds %class.MCP9808, %class.MCP9808* %0, i32 0, i32 2, !dbg !7334
  %9 = load i16, i16* %8, align 2, !dbg !7334, !tbaa !7318
  tail call void @_ZN7MCP980815set_upper_limitEt(%class.MCP9808* noundef nonnull align 2 dereferenceable(7) %0, i16 noundef zeroext %9), !dbg !7335
  %10 = getelementptr inbounds %class.MCP9808, %class.MCP9808* %0, i32 0, i32 0, !dbg !7336
  %11 = load i16, i16* %10, align 2, !dbg !7336, !tbaa !7321
  tail call void @_ZN7MCP980818set_critical_limitEt(%class.MCP9808* noundef nonnull align 2 dereferenceable(7) %0, i16 noundef zeroext %11), !dbg !7337
  tail call void @_ZN7MCP980811clear_alertEb(%class.MCP9808* noundef nonnull align 2 dereferenceable(7) %0, i1 noundef zeroext true), !dbg !7338
  %12 = bitcast i16* %2 to i8*, !dbg !7339
  call void @llvm.lifetime.start.p0i8(i64 2, i8* nonnull %12) #2, !dbg !7339
  call void @llvm.dbg.declare(metadata [2 x i8]* %3, metadata !7326, metadata !DIExpression()), !dbg !7340
  store i16 0, i16* %2, align 2, !dbg !7340
  %13 = bitcast i16* %4 to i8*, !dbg !7341
  call void @llvm.lifetime.start.p0i8(i64 2, i8* nonnull %13) #2, !dbg !7341
  call void @llvm.dbg.declare(metadata [2 x i8]* %5, metadata !7328, metadata !DIExpression()), !dbg !7342
  store i16 0, i16* %4, align 2, !dbg !7342
  %14 = getelementptr inbounds %class.MCP9808, %class.MCP9808* %0, i32 0, i32 3, !dbg !7343
  %15 = load i8, i8* %14, align 2, !dbg !7343, !tbaa !7311
  tail call void @_ZN3I2C10write_byteEhh(i8 noundef zeroext %15, i8 noundef zeroext 6) #2, !dbg !7344
  %16 = load i8, i8* %14, align 2, !dbg !7345, !tbaa !7311
  call void @_ZN3I2C10read_blockEhPhh(i8 noundef zeroext %16, i8* noundef nonnull %12, i8 noundef zeroext 2) #2, !dbg !7346
  %17 = load i8, i8* %14, align 2, !dbg !7347, !tbaa !7311
  call void @_ZN3I2C10write_byteEhh(i8 noundef zeroext %17, i8 noundef zeroext 7) #2, !dbg !7348
  %18 = load i8, i8* %14, align 2, !dbg !7349, !tbaa !7311
  call void @_ZN3I2C10read_blockEhPhh(i8 noundef zeroext %18, i8* noundef nonnull %13, i8 noundef zeroext 2) #2, !dbg !7350
  %19 = load i8, i8* %12, align 2, !dbg !7351, !tbaa !5842
  %20 = zext i8 %19 to i32, !dbg !7351
  %21 = shl nuw nsw i32 %20, 8, !dbg !7352
  %22 = getelementptr inbounds [2 x i8], [2 x i8]* %3, i32 0, i32 1, !dbg !7353
  %23 = load i8, i8* %22, align 1, !dbg !7353, !tbaa !5842
  %24 = zext i8 %23 to i32, !dbg !7353
  %25 = or i32 %21, %24, !dbg !7354
  call void @llvm.dbg.value(metadata !DIArgList(i8 %19, i8 %23), metadata !7329, metadata !DIExpression(DW_OP_LLVM_arg, 0, DW_OP_LLVM_convert, 8, DW_ATE_unsigned, DW_OP_LLVM_convert, 16, DW_ATE_unsigned, DW_OP_constu, 8, DW_OP_shl, DW_OP_LLVM_arg, 1, DW_OP_LLVM_convert, 8, DW_ATE_unsigned, DW_OP_LLVM_convert, 16, DW_ATE_unsigned, DW_OP_or, DW_OP_stack_value)), !dbg !7331
  %26 = load i8, i8* %13, align 2, !dbg !7355, !tbaa !5842
  %27 = zext i8 %26 to i32, !dbg !7355
  %28 = shl nuw nsw i32 %27, 8, !dbg !7356
  %29 = getelementptr inbounds [2 x i8], [2 x i8]* %5, i32 0, i32 1, !dbg !7357
  %30 = load i8, i8* %29, align 1, !dbg !7357, !tbaa !5842
  %31 = zext i8 %30 to i32, !dbg !7357
  %32 = or i32 %28, %31, !dbg !7358
  call void @llvm.dbg.value(metadata !DIArgList(i8 %26, i8 %30), metadata !7330, metadata !DIExpression(DW_OP_LLVM_arg, 0, DW_OP_LLVM_convert, 8, DW_ATE_unsigned, DW_OP_LLVM_convert, 16, DW_ATE_unsigned, DW_OP_constu, 8, DW_OP_shl, DW_OP_LLVM_arg, 1, DW_OP_LLVM_convert, 8, DW_ATE_unsigned, DW_OP_LLVM_convert, 16, DW_ATE_unsigned, DW_OP_or, DW_OP_stack_value)), !dbg !7331
  %33 = icmp eq i32 %25, 84, !dbg !7359
  %34 = icmp eq i32 %32, 1024, !dbg !7360
  %35 = select i1 %33, i1 %34, i1 false, !dbg !7360
  call void @llvm.lifetime.end.p0i8(i64 2, i8* nonnull %13) #2, !dbg !7361
  call void @llvm.lifetime.end.p0i8(i64 2, i8* nonnull %12) #2, !dbg !7361
  ret i1 %35, !dbg !7362
}

; Function Attrs: mustprogress noinline nounwind
define dso_local void @_ZN7MCP980815set_lower_limitEt(%class.MCP9808* nocapture noundef nonnull align 2 dereferenceable(7) %0, i16 noundef zeroext %1) local_unnamed_addr #4 align 2 !dbg !7363 {
  call void @llvm.dbg.value(metadata %class.MCP9808* %0, metadata !7365, metadata !DIExpression()), !dbg !7367
  call void @llvm.dbg.value(metadata i16 %1, metadata !7366, metadata !DIExpression()), !dbg !7367
  %3 = getelementptr inbounds %class.MCP9808, %class.MCP9808* %0, i32 0, i32 1, !dbg !7368
  store i16 %1, i16* %3, align 2, !dbg !7369, !tbaa !7315
  tail call void @_ZN7MCP980814set_temp_limitEht(%class.MCP9808* noundef nonnull align 2 dereferenceable(7) %0, i8 noundef zeroext 3, i16 noundef zeroext %1), !dbg !7370
  ret void, !dbg !7371
}

; Function Attrs: mustprogress noinline nounwind
define dso_local void @_ZN7MCP980815set_upper_limitEt(%class.MCP9808* nocapture noundef nonnull align 2 dereferenceable(7) %0, i16 noundef zeroext %1) local_unnamed_addr #4 align 2 !dbg !7372 {
  call void @llvm.dbg.value(metadata %class.MCP9808* %0, metadata !7374, metadata !DIExpression()), !dbg !7376
  call void @llvm.dbg.value(metadata i16 %1, metadata !7375, metadata !DIExpression()), !dbg !7376
  %3 = getelementptr inbounds %class.MCP9808, %class.MCP9808* %0, i32 0, i32 2, !dbg !7377
  store i16 %1, i16* %3, align 2, !dbg !7378, !tbaa !7318
  tail call void @_ZN7MCP980814set_temp_limitEht(%class.MCP9808* noundef nonnull align 2 dereferenceable(7) %0, i8 noundef zeroext 2, i16 noundef zeroext %1), !dbg !7379
  ret void, !dbg !7380
}

; Function Attrs: mustprogress noinline nounwind
define dso_local void @_ZN7MCP980818set_critical_limitEt(%class.MCP9808* nocapture noundef nonnull align 2 dereferenceable(7) %0, i16 noundef zeroext %1) local_unnamed_addr #4 align 2 !dbg !7381 {
  call void @llvm.dbg.value(metadata %class.MCP9808* %0, metadata !7383, metadata !DIExpression()), !dbg !7385
  call void @llvm.dbg.value(metadata i16 %1, metadata !7384, metadata !DIExpression()), !dbg !7385
  %3 = getelementptr inbounds %class.MCP9808, %class.MCP9808* %0, i32 0, i32 0, !dbg !7386
  store i16 %1, i16* %3, align 2, !dbg !7387, !tbaa !7321
  tail call void @_ZN7MCP980814set_temp_limitEht(%class.MCP9808* noundef nonnull align 2 dereferenceable(7) %0, i8 noundef zeroext 4, i16 noundef zeroext %1), !dbg !7388
  ret void, !dbg !7389
}

; Function Attrs: mustprogress noinline nounwind
define dso_local void @_ZN7MCP980811clear_alertEb(%class.MCP9808* nocapture noundef nonnull readonly align 2 dereferenceable(7) %0, i1 noundef zeroext %1) local_unnamed_addr #4 align 2 !dbg !7390 {
  %3 = alloca [3 x i8], align 1
  %4 = alloca i16, align 2
  call void @llvm.dbg.value(metadata %class.MCP9808* %0, metadata !7392, metadata !DIExpression()), !dbg !7397
  call void @llvm.dbg.value(metadata i1 %1, metadata !7393, metadata !DIExpression(DW_OP_LLVM_convert, 1, DW_ATE_unsigned, DW_OP_LLVM_convert, 8, DW_ATE_unsigned, DW_OP_stack_value)), !dbg !7397
  %5 = getelementptr inbounds [3 x i8], [3 x i8]* %3, i32 0, i32 0, !dbg !7398
  call void @llvm.lifetime.start.p0i8(i64 3, i8* nonnull %5) #2, !dbg !7398
  call void @llvm.dbg.declare(metadata [3 x i8]* %3, metadata !7394, metadata !DIExpression()), !dbg !7399
  call void @llvm.memset.p0i8.i32(i8* noundef nonnull align 1 dereferenceable(3) %5, i8 0, i32 3, i1 false), !dbg !7399
  %6 = getelementptr inbounds %class.MCP9808, %class.MCP9808* %0, i32 0, i32 3, !dbg !7400
  %7 = load i8, i8* %6, align 2, !dbg !7400, !tbaa !7311
  tail call void @_ZN3I2C10write_byteEhh(i8 noundef zeroext %7, i8 noundef zeroext 1) #2, !dbg !7401
  %8 = load i8, i8* %6, align 2, !dbg !7402, !tbaa !7311
  %9 = getelementptr inbounds [3 x i8], [3 x i8]* %3, i32 0, i32 1, !dbg !7403
  call void @_ZN3I2C10read_blockEhPhh(i8 noundef zeroext %8, i8* noundef nonnull %9, i8 noundef zeroext 2) #2, !dbg !7404
  store i8 1, i8* %5, align 1, !dbg !7405, !tbaa !5842
  %10 = select i1 %1, i8 41, i8 33, !dbg !7406
  %11 = getelementptr inbounds [3 x i8], [3 x i8]* %3, i32 0, i32 2, !dbg !7407
  store i8 %10, i8* %11, align 1, !dbg !7397, !tbaa !5842
  %12 = bitcast i16* %4 to [2 x i8]*
  %13 = load i8, i8* %9, align 1, !dbg !7408, !tbaa !5842
  %14 = zext i8 %13 to i32, !dbg !7408
  %15 = zext i8 %10 to i32, !dbg !7409
  %16 = call i32 (i8*, ...) @printf(i8* noundef nonnull dereferenceable(1) getelementptr inbounds ([52 x i8], [52 x i8]* @.str.49, i32 0, i32 0), i32 noundef 1, i32 noundef %14, i32 noundef %15), !dbg !7410
  %17 = load i8, i8* %6, align 2, !dbg !7411, !tbaa !7311
  call void @_ZN3I2C11write_blockEhPhh(i8 noundef zeroext %17, i8* noundef nonnull %5, i8 noundef zeroext 3) #2, !dbg !7412
  %18 = bitcast i16* %4 to i8*, !dbg !7413
  call void @llvm.lifetime.start.p0i8(i64 2, i8* nonnull %18) #2, !dbg !7413
  call void @llvm.dbg.declare(metadata [2 x i8]* %12, metadata !7396, metadata !DIExpression()), !dbg !7414
  store i16 0, i16* %4, align 2, !dbg !7414
  %19 = load i8, i8* %6, align 2, !dbg !7415, !tbaa !7311
  call void @_ZN3I2C10write_byteEhh(i8 noundef zeroext %19, i8 noundef zeroext 1) #2, !dbg !7416
  %20 = load i8, i8* %6, align 2, !dbg !7417, !tbaa !7311
  call void @_ZN3I2C10read_blockEhPhh(i8 noundef zeroext %20, i8* noundef nonnull %18, i8 noundef zeroext 2) #2, !dbg !7418
  %21 = load i8, i8* %18, align 2, !dbg !7419, !tbaa !5842
  %22 = zext i8 %21 to i32, !dbg !7419
  %23 = getelementptr inbounds [2 x i8], [2 x i8]* %12, i32 0, i32 1, !dbg !7420
  %24 = load i8, i8* %23, align 1, !dbg !7420, !tbaa !5842
  %25 = zext i8 %24 to i32, !dbg !7420
  %26 = call i32 (i8*, ...) @printf(i8* noundef nonnull dereferenceable(1) getelementptr inbounds ([50 x i8], [50 x i8]* @.str.1.50, i32 0, i32 0), i32 noundef %22, i32 noundef %25), !dbg !7421
  call void @llvm.lifetime.end.p0i8(i64 2, i8* nonnull %18) #2, !dbg !7422
